ARM GAS  C:\Users\samue\AppData\Local\Temp\cckmzuMA.s 			page 1


   1              		.cpu cortex-m7
   2              		.eabi_attribute 28, 1
   3              		.eabi_attribute 20, 1
   4              		.eabi_attribute 21, 1
   5              		.eabi_attribute 23, 3
   6              		.eabi_attribute 24, 1
   7              		.eabi_attribute 25, 1
   8              		.eabi_attribute 26, 1
   9              		.eabi_attribute 30, 2
  10              		.eabi_attribute 34, 1
  11              		.eabi_attribute 18, 4
  12              		.file	"vca_eg.cpp"
  13              		.text
  14              	.Ltext0:
  15              		.cfi_sections	.debug_frame
  16              		.section	.text._ZN5daisy11daisyCommonD2Ev,"axG",%progbits,_ZN5daisy11daisyCommonD5Ev,comdat
  17              		.align	1
  18              		.p2align 2,,3
  19              		.weak	_ZN5daisy11daisyCommonD2Ev
  20              		.arch armv7e-m
  21              		.syntax unified
  22              		.thumb
  23              		.thumb_func
  24              		.fpu fpv5-d16
  26              	_ZN5daisy11daisyCommonD2Ev:
  27              	.LVL0:
  28              	.LFB4685:
  29              		.file 1 "daisy_common.h"
   1:daisy_common.h **** /*
   2:daisy_common.h **** * This implements drivers for the Daisy Common Hardware Platform
   3:daisy_common.h **** *
   4:daisy_common.h **** */
   5:daisy_common.h **** 
   6:daisy_common.h **** #include "daisy_seed.h"
   7:daisy_common.h **** #include "daisysp.h"
   8:daisy_common.h **** 
   9:daisy_common.h **** using namespace daisy::seed;
  10:daisy_common.h **** using namespace daisy;
  11:daisy_common.h **** 
  12:daisy_common.h **** 
  13:daisy_common.h **** namespace daisy
  14:daisy_common.h **** {
  15:daisy_common.h **** 
  16:daisy_common.h **** class daisyCommon
  17:daisy_common.h **** {
  18:daisy_common.h ****     public:
  19:daisy_common.h ****     daisyCommon() {}
  20:daisy_common.h ****     ~daisyCommon() {}
  30              		.loc 1 20 5 view -0
  31              		.cfi_startproc
  32              		@ args = 0, pretend = 0, frame = 0
  33              		@ frame_needed = 0, uses_anonymous_args = 0
  34              		@ link register save eliminated.
  35              	.LBB189:
  36              	.LBI189:
  37              		.file 2 "../../../../DaisyExamples/libDaisy//src/daisy_seed.h"
   1:../../../../DaisyExamples/libDaisy//src/daisy_seed.h **** #pragma once
ARM GAS  C:\Users\samue\AppData\Local\Temp\cckmzuMA.s 			page 2


   2:../../../../DaisyExamples/libDaisy//src/daisy_seed.h **** #ifndef DSY_SEED_H
   3:../../../../DaisyExamples/libDaisy//src/daisy_seed.h **** #define DSY_SEED_H
   4:../../../../DaisyExamples/libDaisy//src/daisy_seed.h **** 
   5:../../../../DaisyExamples/libDaisy//src/daisy_seed.h **** #include "daisy.h"
   6:../../../../DaisyExamples/libDaisy//src/daisy_seed.h **** 
   7:../../../../DaisyExamples/libDaisy//src/daisy_seed.h **** //Uncomment this out if you're still using the rev2 hardware
   8:../../../../DaisyExamples/libDaisy//src/daisy_seed.h **** //#define SEED_REV2
   9:../../../../DaisyExamples/libDaisy//src/daisy_seed.h **** 
  10:../../../../DaisyExamples/libDaisy//src/daisy_seed.h **** namespace daisy
  11:../../../../DaisyExamples/libDaisy//src/daisy_seed.h **** {
  12:../../../../DaisyExamples/libDaisy//src/daisy_seed.h **** /**
  13:../../../../DaisyExamples/libDaisy//src/daisy_seed.h ****    @brief This is the higher-level interface for the Daisy board. \n 
  14:../../../../DaisyExamples/libDaisy//src/daisy_seed.h ****     All basic peripheral configuration/initialization is setup here. \n
  15:../../../../DaisyExamples/libDaisy//src/daisy_seed.h **** 
  16:../../../../DaisyExamples/libDaisy//src/daisy_seed.h ****    @ingroup boards
  17:../../../../DaisyExamples/libDaisy//src/daisy_seed.h **** */
  18:../../../../DaisyExamples/libDaisy//src/daisy_seed.h **** class DaisySeed
  19:../../../../DaisyExamples/libDaisy//src/daisy_seed.h **** {
  20:../../../../DaisyExamples/libDaisy//src/daisy_seed.h ****   public:
  21:../../../../DaisyExamples/libDaisy//src/daisy_seed.h ****     DaisySeed() {}
  22:../../../../DaisyExamples/libDaisy//src/daisy_seed.h ****     ~DaisySeed() {}
  38              		.loc 2 22 5 view .LVU1
  39              	.LBB190:
  40              	.LBI190:
  41              		.file 3 "../../../../DaisyExamples/libDaisy//src/sys/system.h"
   1:../../../../DaisyExamples/libDaisy//src/sys/system.h **** #ifndef DSY_SYSTEM_H
   2:../../../../DaisyExamples/libDaisy//src/sys/system.h **** #define DSY_SYSTEM_H
   3:../../../../DaisyExamples/libDaisy//src/sys/system.h **** 
   4:../../../../DaisyExamples/libDaisy//src/sys/system.h **** #ifndef UNIT_TEST // for unit tests, a dummy implementation is provided below
   5:../../../../DaisyExamples/libDaisy//src/sys/system.h **** 
   6:../../../../DaisyExamples/libDaisy//src/sys/system.h **** #include <cstdint>
   7:../../../../DaisyExamples/libDaisy//src/sys/system.h **** #include "per/tim.h"
   8:../../../../DaisyExamples/libDaisy//src/sys/system.h **** 
   9:../../../../DaisyExamples/libDaisy//src/sys/system.h **** namespace daisy
  10:../../../../DaisyExamples/libDaisy//src/sys/system.h **** {
  11:../../../../DaisyExamples/libDaisy//src/sys/system.h **** /** A handle for interacting with the Core System.
  12:../../../../DaisyExamples/libDaisy//src/sys/system.h ****  ** This includes the Clock tree, MPU, global DMA initialization,
  13:../../../../DaisyExamples/libDaisy//src/sys/system.h ****  ** cache handling, and any other necessary global initiailzation
  14:../../../../DaisyExamples/libDaisy//src/sys/system.h ****  **
  15:../../../../DaisyExamples/libDaisy//src/sys/system.h ****  ** @author shensley
  16:../../../../DaisyExamples/libDaisy//src/sys/system.h ****  ** @ingroup system
  17:../../../../DaisyExamples/libDaisy//src/sys/system.h ****  */
  18:../../../../DaisyExamples/libDaisy//src/sys/system.h **** class System
  19:../../../../DaisyExamples/libDaisy//src/sys/system.h **** {
  20:../../../../DaisyExamples/libDaisy//src/sys/system.h ****   public:
  21:../../../../DaisyExamples/libDaisy//src/sys/system.h ****     /** Contains settings for initializing the System */
  22:../../../../DaisyExamples/libDaisy//src/sys/system.h ****     struct Config
  23:../../../../DaisyExamples/libDaisy//src/sys/system.h ****     {
  24:../../../../DaisyExamples/libDaisy//src/sys/system.h ****         /** Specifies the system clock frequency that feeds APB/AHB clocks, etc. */
  25:../../../../DaisyExamples/libDaisy//src/sys/system.h ****         enum class SysClkFreq
  26:../../../../DaisyExamples/libDaisy//src/sys/system.h ****         {
  27:../../../../DaisyExamples/libDaisy//src/sys/system.h ****             FREQ_400MHZ,
  28:../../../../DaisyExamples/libDaisy//src/sys/system.h ****             FREQ_480MHZ,
  29:../../../../DaisyExamples/libDaisy//src/sys/system.h ****         };
  30:../../../../DaisyExamples/libDaisy//src/sys/system.h **** 
  31:../../../../DaisyExamples/libDaisy//src/sys/system.h ****         /** Method to call on the struct to set to defaults
  32:../../../../DaisyExamples/libDaisy//src/sys/system.h ****          ** CPU Freq set to 400MHz
ARM GAS  C:\Users\samue\AppData\Local\Temp\cckmzuMA.s 			page 3


  33:../../../../DaisyExamples/libDaisy//src/sys/system.h ****          ** Cache Enabled
  34:../../../../DaisyExamples/libDaisy//src/sys/system.h ****          ** */
  35:../../../../DaisyExamples/libDaisy//src/sys/system.h ****         void Defaults()
  36:../../../../DaisyExamples/libDaisy//src/sys/system.h ****         {
  37:../../../../DaisyExamples/libDaisy//src/sys/system.h ****             cpu_freq    = SysClkFreq::FREQ_400MHZ;
  38:../../../../DaisyExamples/libDaisy//src/sys/system.h ****             use_dcache  = true;
  39:../../../../DaisyExamples/libDaisy//src/sys/system.h ****             use_icache  = true;
  40:../../../../DaisyExamples/libDaisy//src/sys/system.h ****             skip_clocks = false;
  41:../../../../DaisyExamples/libDaisy//src/sys/system.h ****         }
  42:../../../../DaisyExamples/libDaisy//src/sys/system.h **** 
  43:../../../../DaisyExamples/libDaisy//src/sys/system.h ****         /** Method to call on the struct to set to boost mode:
  44:../../../../DaisyExamples/libDaisy//src/sys/system.h ****          ** CPU Freq set to 480MHz
  45:../../../../DaisyExamples/libDaisy//src/sys/system.h ****          ** Cache Enabled
  46:../../../../DaisyExamples/libDaisy//src/sys/system.h ****          ** */
  47:../../../../DaisyExamples/libDaisy//src/sys/system.h ****         void Boost()
  48:../../../../DaisyExamples/libDaisy//src/sys/system.h ****         {
  49:../../../../DaisyExamples/libDaisy//src/sys/system.h ****             cpu_freq    = SysClkFreq::FREQ_480MHZ;
  50:../../../../DaisyExamples/libDaisy//src/sys/system.h ****             use_dcache  = true;
  51:../../../../DaisyExamples/libDaisy//src/sys/system.h ****             use_icache  = true;
  52:../../../../DaisyExamples/libDaisy//src/sys/system.h ****             skip_clocks = false;
  53:../../../../DaisyExamples/libDaisy//src/sys/system.h ****         }
  54:../../../../DaisyExamples/libDaisy//src/sys/system.h **** 
  55:../../../../DaisyExamples/libDaisy//src/sys/system.h ****         SysClkFreq cpu_freq;
  56:../../../../DaisyExamples/libDaisy//src/sys/system.h ****         bool       use_dcache;
  57:../../../../DaisyExamples/libDaisy//src/sys/system.h ****         bool       use_icache;
  58:../../../../DaisyExamples/libDaisy//src/sys/system.h ****         bool       skip_clocks;
  59:../../../../DaisyExamples/libDaisy//src/sys/system.h ****     };
  60:../../../../DaisyExamples/libDaisy//src/sys/system.h **** 
  61:../../../../DaisyExamples/libDaisy//src/sys/system.h ****     /** Describes the different regions of memory available to the Daisy */
  62:../../../../DaisyExamples/libDaisy//src/sys/system.h ****     enum MemoryRegion
  63:../../../../DaisyExamples/libDaisy//src/sys/system.h ****     {
  64:../../../../DaisyExamples/libDaisy//src/sys/system.h ****         INTERNAL_FLASH = 0,
  65:../../../../DaisyExamples/libDaisy//src/sys/system.h ****         ITCMRAM,
  66:../../../../DaisyExamples/libDaisy//src/sys/system.h ****         DTCMRAM,
  67:../../../../DaisyExamples/libDaisy//src/sys/system.h ****         SRAM_D1,
  68:../../../../DaisyExamples/libDaisy//src/sys/system.h ****         SRAM_D2,
  69:../../../../DaisyExamples/libDaisy//src/sys/system.h ****         SRAM_D3,
  70:../../../../DaisyExamples/libDaisy//src/sys/system.h ****         SDRAM,
  71:../../../../DaisyExamples/libDaisy//src/sys/system.h ****         QSPI,
  72:../../../../DaisyExamples/libDaisy//src/sys/system.h ****         INVALID_ADDRESS,
  73:../../../../DaisyExamples/libDaisy//src/sys/system.h ****     };
  74:../../../../DaisyExamples/libDaisy//src/sys/system.h **** 
  75:../../../../DaisyExamples/libDaisy//src/sys/system.h ****     /** Bootloader struct for controlling bootloading parameters */
  76:../../../../DaisyExamples/libDaisy//src/sys/system.h ****     struct BootInfo
  77:../../../../DaisyExamples/libDaisy//src/sys/system.h ****     {
  78:../../../../DaisyExamples/libDaisy//src/sys/system.h ****         enum class Type : uint32_t
  79:../../../../DaisyExamples/libDaisy//src/sys/system.h ****         {
  80:../../../../DaisyExamples/libDaisy//src/sys/system.h ****             INVALID      = 0x00000000,
  81:../../../../DaisyExamples/libDaisy//src/sys/system.h ****             JUMP         = 0xDEADBEEF,
  82:../../../../DaisyExamples/libDaisy//src/sys/system.h ****             SKIP_TIMEOUT = 0x5AFEB007,
  83:../../../../DaisyExamples/libDaisy//src/sys/system.h ****             INF_TIMEOUT  = 0xB0074EFA,
  84:../../../../DaisyExamples/libDaisy//src/sys/system.h ****         } status;
  85:../../../../DaisyExamples/libDaisy//src/sys/system.h ****         uint32_t data;
  86:../../../../DaisyExamples/libDaisy//src/sys/system.h ****         enum class Version : uint32_t
  87:../../../../DaisyExamples/libDaisy//src/sys/system.h ****         {
  88:../../../../DaisyExamples/libDaisy//src/sys/system.h ****             LT_v6_0 = 0, // Less than v6.0
  89:../../../../DaisyExamples/libDaisy//src/sys/system.h ****             NONE,        // No bootloader present
ARM GAS  C:\Users\samue\AppData\Local\Temp\cckmzuMA.s 			page 4


  90:../../../../DaisyExamples/libDaisy//src/sys/system.h ****             v6_0,        // v6.0
  91:../../../../DaisyExamples/libDaisy//src/sys/system.h ****             v6_1,        // v6.1 or greater
  92:../../../../DaisyExamples/libDaisy//src/sys/system.h ****             LAST
  93:../../../../DaisyExamples/libDaisy//src/sys/system.h ****         } version;
  94:../../../../DaisyExamples/libDaisy//src/sys/system.h ****     };
  95:../../../../DaisyExamples/libDaisy//src/sys/system.h **** 
  96:../../../../DaisyExamples/libDaisy//src/sys/system.h ****     System() {}
  97:../../../../DaisyExamples/libDaisy//src/sys/system.h ****     ~System() {}
  42              		.loc 3 97 5 view .LVU2
  43              		.loc 3 97 5 is_stmt 0 view .LVU3
  44              	.LBE190:
  45              	.LBB191:
  46              	.LBI191:
  47              		.file 4 "../../../../DaisyExamples/libDaisy//src/hid/usb.h"
   1:../../../../DaisyExamples/libDaisy//src/hid/usb.h **** #pragma once
   2:../../../../DaisyExamples/libDaisy//src/hid/usb.h **** #ifndef DSY_HID_USB_H
   3:../../../../DaisyExamples/libDaisy//src/hid/usb.h **** #define DSY_HID_USB_H
   4:../../../../DaisyExamples/libDaisy//src/hid/usb.h **** #include <stdint.h>
   5:../../../../DaisyExamples/libDaisy//src/hid/usb.h **** #include <stdlib.h>
   6:../../../../DaisyExamples/libDaisy//src/hid/usb.h **** 
   7:../../../../DaisyExamples/libDaisy//src/hid/usb.h **** namespace daisy
   8:../../../../DaisyExamples/libDaisy//src/hid/usb.h **** /** @addtogroup human_interface
   9:../../../../DaisyExamples/libDaisy//src/hid/usb.h ****     @{
  10:../../../../DaisyExamples/libDaisy//src/hid/usb.h **** */
  11:../../../../DaisyExamples/libDaisy//src/hid/usb.h **** 
  12:../../../../DaisyExamples/libDaisy//src/hid/usb.h **** {
  13:../../../../DaisyExamples/libDaisy//src/hid/usb.h **** /** 
  14:../../../../DaisyExamples/libDaisy//src/hid/usb.h ****     @brief Interface for initializing and using the USB Peripherals on the daisy
  15:../../../../DaisyExamples/libDaisy//src/hid/usb.h ****     @author Stephen Hensley
  16:../../../../DaisyExamples/libDaisy//src/hid/usb.h ****     @date December 2019
  17:../../../../DaisyExamples/libDaisy//src/hid/usb.h **** */
  18:../../../../DaisyExamples/libDaisy//src/hid/usb.h **** class UsbHandle
  19:../../../../DaisyExamples/libDaisy//src/hid/usb.h **** {
  20:../../../../DaisyExamples/libDaisy//src/hid/usb.h ****   public:
  21:../../../../DaisyExamples/libDaisy//src/hid/usb.h ****     /** Return values for USBHandle Functions */
  22:../../../../DaisyExamples/libDaisy//src/hid/usb.h ****     enum class Result
  23:../../../../DaisyExamples/libDaisy//src/hid/usb.h ****     {
  24:../../../../DaisyExamples/libDaisy//src/hid/usb.h ****         OK,
  25:../../../../DaisyExamples/libDaisy//src/hid/usb.h ****         ERR,
  26:../../../../DaisyExamples/libDaisy//src/hid/usb.h ****     };
  27:../../../../DaisyExamples/libDaisy//src/hid/usb.h **** 
  28:../../../../DaisyExamples/libDaisy//src/hid/usb.h ****     /** Specified which of the two USB Peripherals to initialize. */
  29:../../../../DaisyExamples/libDaisy//src/hid/usb.h ****     enum UsbPeriph
  30:../../../../DaisyExamples/libDaisy//src/hid/usb.h ****     {
  31:../../../../DaisyExamples/libDaisy//src/hid/usb.h ****         FS_INTERNAL, /**< Internal pin */
  32:../../../../DaisyExamples/libDaisy//src/hid/usb.h ****         FS_EXTERNAL, /**< FS External D+ pin is Pin 38 (GPIO32). FS External D- pin is Pin 37 (GPIO
  33:../../../../DaisyExamples/libDaisy//src/hid/usb.h ****         FS_BOTH,     /**< Both */
  34:../../../../DaisyExamples/libDaisy//src/hid/usb.h ****     };
  35:../../../../DaisyExamples/libDaisy//src/hid/usb.h **** 
  36:../../../../DaisyExamples/libDaisy//src/hid/usb.h **** 
  37:../../../../DaisyExamples/libDaisy//src/hid/usb.h ****     /** Function called upon reception of a buffer */
  38:../../../../DaisyExamples/libDaisy//src/hid/usb.h ****     typedef void (*ReceiveCallback)(uint8_t* buff, uint32_t* len);
  39:../../../../DaisyExamples/libDaisy//src/hid/usb.h **** 
  40:../../../../DaisyExamples/libDaisy//src/hid/usb.h ****     UsbHandle() {}
  41:../../../../DaisyExamples/libDaisy//src/hid/usb.h **** 
  42:../../../../DaisyExamples/libDaisy//src/hid/usb.h ****     ~UsbHandle() {}
  48              		.loc 4 42 5 is_stmt 1 view .LVU4
ARM GAS  C:\Users\samue\AppData\Local\Temp\cckmzuMA.s 			page 5


  49              		.loc 4 42 5 is_stmt 0 view .LVU5
  50              	.LBE191:
  51              	.LBB192:
  52              	.LBI192:
  53              		.file 5 "../../../../DaisyExamples/libDaisy//src/per/adc.h"
   1:../../../../DaisyExamples/libDaisy//src/per/adc.h **** #pragma once
   2:../../../../DaisyExamples/libDaisy//src/per/adc.h **** #ifndef DSY_ADC_H
   3:../../../../DaisyExamples/libDaisy//src/per/adc.h **** #define DSY_ADC_H /**< Macro */
   4:../../../../DaisyExamples/libDaisy//src/per/adc.h **** #include <stdint.h>
   5:../../../../DaisyExamples/libDaisy//src/per/adc.h **** #include <stdlib.h>
   6:../../../../DaisyExamples/libDaisy//src/per/adc.h **** #include "daisy_core.h"
   7:../../../../DaisyExamples/libDaisy//src/per/adc.h **** #include "per/gpio.h"
   8:../../../../DaisyExamples/libDaisy//src/per/adc.h **** 
   9:../../../../DaisyExamples/libDaisy//src/per/adc.h **** #define DSY_ADC_MAX_CHANNELS 16 /**< Maximum number of ADC channels */
  10:../../../../DaisyExamples/libDaisy//src/per/adc.h **** 
  11:../../../../DaisyExamples/libDaisy//src/per/adc.h **** namespace daisy
  12:../../../../DaisyExamples/libDaisy//src/per/adc.h **** {
  13:../../../../DaisyExamples/libDaisy//src/per/adc.h **** /** @addtogroup per_analog
  14:../../../../DaisyExamples/libDaisy//src/per/adc.h ****     @{
  15:../../../../DaisyExamples/libDaisy//src/per/adc.h **** */
  16:../../../../DaisyExamples/libDaisy//src/per/adc.h **** 
  17:../../../../DaisyExamples/libDaisy//src/per/adc.h **** /* While there may not be many configuration options here,
  18:../../../../DaisyExamples/libDaisy//src/per/adc.h **** using a struct like this allows us to add more configuration
  19:../../../../DaisyExamples/libDaisy//src/per/adc.h **** later without breaking existing functionality.
  20:../../../../DaisyExamples/libDaisy//src/per/adc.h **** */
  21:../../../../DaisyExamples/libDaisy//src/per/adc.h **** 
  22:../../../../DaisyExamples/libDaisy//src/per/adc.h **** /** @brief   Configuration Structure for an ADC Channel 
  23:../../../../DaisyExamples/libDaisy//src/per/adc.h ****  *  @details This can be used to configure a a single input, 
  24:../../../../DaisyExamples/libDaisy//src/per/adc.h ****  *           or a multiplexed input, allowing up to 8 inputs on 
  25:../../../../DaisyExamples/libDaisy//src/per/adc.h ****  *           one channel.
  26:../../../../DaisyExamples/libDaisy//src/per/adc.h ****  *  @note    Sharing data lines to multiple muxes _is_ possible, but
  27:../../../../DaisyExamples/libDaisy//src/per/adc.h ****  *           each channel sharing data lines must be set to the maximum
  28:../../../../DaisyExamples/libDaisy//src/per/adc.h ****  *           number of channels, even if some multiplexers have fewer
  29:../../../../DaisyExamples/libDaisy//src/per/adc.h ****  *           inputs connected.
  30:../../../../DaisyExamples/libDaisy//src/per/adc.h **** */
  31:../../../../DaisyExamples/libDaisy//src/per/adc.h **** struct AdcChannelConfig
  32:../../../../DaisyExamples/libDaisy//src/per/adc.h **** {
  33:../../../../DaisyExamples/libDaisy//src/per/adc.h ****     /** Which pin to use for multiplexing */
  34:../../../../DaisyExamples/libDaisy//src/per/adc.h ****     enum MuxPin
  35:../../../../DaisyExamples/libDaisy//src/per/adc.h ****     {
  36:../../../../DaisyExamples/libDaisy//src/per/adc.h ****         MUX_SEL_0,    /**< & */
  37:../../../../DaisyExamples/libDaisy//src/per/adc.h ****         MUX_SEL_1,    /**< & */
  38:../../../../DaisyExamples/libDaisy//src/per/adc.h ****         MUX_SEL_2,    /**< & */
  39:../../../../DaisyExamples/libDaisy//src/per/adc.h ****         MUX_SEL_LAST, /**< & */
  40:../../../../DaisyExamples/libDaisy//src/per/adc.h ****     };
  41:../../../../DaisyExamples/libDaisy//src/per/adc.h **** 
  42:../../../../DaisyExamples/libDaisy//src/per/adc.h ****     /** \brief per channel conversion speed added to fixed time based on bitdepth, etc. */
  43:../../../../DaisyExamples/libDaisy//src/per/adc.h ****     enum ConversionSpeed
  44:../../../../DaisyExamples/libDaisy//src/per/adc.h ****     {
  45:../../../../DaisyExamples/libDaisy//src/per/adc.h ****         SPEED_1CYCLES_5,
  46:../../../../DaisyExamples/libDaisy//src/per/adc.h ****         SPEED_2CYCLES_5,
  47:../../../../DaisyExamples/libDaisy//src/per/adc.h ****         SPEED_8CYCLES_5,
  48:../../../../DaisyExamples/libDaisy//src/per/adc.h ****         SPEED_16CYCLES_5,
  49:../../../../DaisyExamples/libDaisy//src/per/adc.h ****         SPEED_32CYCLES_5,
  50:../../../../DaisyExamples/libDaisy//src/per/adc.h ****         SPEED_64CYCLES_5,
  51:../../../../DaisyExamples/libDaisy//src/per/adc.h ****         SPEED_387CYCLES_5,
  52:../../../../DaisyExamples/libDaisy//src/per/adc.h ****         SPEED_810CYCLES_5,
ARM GAS  C:\Users\samue\AppData\Local\Temp\cckmzuMA.s 			page 6


  53:../../../../DaisyExamples/libDaisy//src/per/adc.h ****     };
  54:../../../../DaisyExamples/libDaisy//src/per/adc.h **** 
  55:../../../../DaisyExamples/libDaisy//src/per/adc.h ****     /** Initializes a single ADC pin as an ADC. 
  56:../../../../DaisyExamples/libDaisy//src/per/adc.h ****     \param pin Pin to init.
  57:../../../../DaisyExamples/libDaisy//src/per/adc.h ****     \param speed conversion speed for this pin defaults to 8.5 cycles
  58:../../../../DaisyExamples/libDaisy//src/per/adc.h ****      */
  59:../../../../DaisyExamples/libDaisy//src/per/adc.h ****     void InitSingle(dsy_gpio_pin pin, ConversionSpeed speed = SPEED_8CYCLES_5);
  60:../../../../DaisyExamples/libDaisy//src/per/adc.h **** 
  61:../../../../DaisyExamples/libDaisy//src/per/adc.h ****     /** 
  62:../../../../DaisyExamples/libDaisy//src/per/adc.h ****     Initializes a single ADC pin as a Multiplexed ADC.
  63:../../../../DaisyExamples/libDaisy//src/per/adc.h ****     Requires a CD405X Multiplexer connected to the pin.
  64:../../../../DaisyExamples/libDaisy//src/per/adc.h ****     You only need to supply the mux pins that are required,
  65:../../../../DaisyExamples/libDaisy//src/per/adc.h ****     e.g. a 4052 mux would only require mux_0 and mux_1.
  66:../../../../DaisyExamples/libDaisy//src/per/adc.h ****     Internal Callbacks handle the pin addressing.
  67:../../../../DaisyExamples/libDaisy//src/per/adc.h ****     \param adc_pin &
  68:../../../../DaisyExamples/libDaisy//src/per/adc.h ****     \param mux_channels must be 1-8
  69:../../../../DaisyExamples/libDaisy//src/per/adc.h ****     \param mux_0 First mux pin
  70:../../../../DaisyExamples/libDaisy//src/per/adc.h ****     \param mux_1 Second mux pin
  71:../../../../DaisyExamples/libDaisy//src/per/adc.h ****     \param mux_2 Third mux pin
  72:../../../../DaisyExamples/libDaisy//src/per/adc.h ****     \param speed conversion speed for this pin defaults to 8.5 cycles
  73:../../../../DaisyExamples/libDaisy//src/per/adc.h ****     */
  74:../../../../DaisyExamples/libDaisy//src/per/adc.h ****     void InitMux(dsy_gpio_pin    adc_pin,
  75:../../../../DaisyExamples/libDaisy//src/per/adc.h ****                  size_t          mux_channels,
  76:../../../../DaisyExamples/libDaisy//src/per/adc.h ****                  dsy_gpio_pin    mux_0,
  77:../../../../DaisyExamples/libDaisy//src/per/adc.h ****                  dsy_gpio_pin    mux_1 = {DSY_GPIOX, 0},
  78:../../../../DaisyExamples/libDaisy//src/per/adc.h ****                  dsy_gpio_pin    mux_2 = {DSY_GPIOX, 0},
  79:../../../../DaisyExamples/libDaisy//src/per/adc.h ****                  ConversionSpeed speed = SPEED_8CYCLES_5);
  80:../../../../DaisyExamples/libDaisy//src/per/adc.h **** 
  81:../../../../DaisyExamples/libDaisy//src/per/adc.h ****     dsy_gpio        pin_;                   /**< & */
  82:../../../../DaisyExamples/libDaisy//src/per/adc.h ****     dsy_gpio        mux_pin_[MUX_SEL_LAST]; /**< & */
  83:../../../../DaisyExamples/libDaisy//src/per/adc.h ****     uint8_t         mux_channels_;          /**< & */
  84:../../../../DaisyExamples/libDaisy//src/per/adc.h ****     ConversionSpeed speed_;
  85:../../../../DaisyExamples/libDaisy//src/per/adc.h **** };
  86:../../../../DaisyExamples/libDaisy//src/per/adc.h **** 
  87:../../../../DaisyExamples/libDaisy//src/per/adc.h **** /**
  88:../../../../DaisyExamples/libDaisy//src/per/adc.h ****    @brief Handler for analog to digital conversion
  89:../../../../DaisyExamples/libDaisy//src/per/adc.h **** */
  90:../../../../DaisyExamples/libDaisy//src/per/adc.h **** class AdcHandle
  91:../../../../DaisyExamples/libDaisy//src/per/adc.h **** {
  92:../../../../DaisyExamples/libDaisy//src/per/adc.h ****   public:
  93:../../../../DaisyExamples/libDaisy//src/per/adc.h ****     /** Supported oversampling amounts */
  94:../../../../DaisyExamples/libDaisy//src/per/adc.h ****     enum OverSampling
  95:../../../../DaisyExamples/libDaisy//src/per/adc.h ****     {
  96:../../../../DaisyExamples/libDaisy//src/per/adc.h ****         OVS_NONE, /**< & */
  97:../../../../DaisyExamples/libDaisy//src/per/adc.h ****         OVS_4,    /**< & */
  98:../../../../DaisyExamples/libDaisy//src/per/adc.h ****         OVS_8,    /**< & */
  99:../../../../DaisyExamples/libDaisy//src/per/adc.h ****         OVS_16,   /**< & */
 100:../../../../DaisyExamples/libDaisy//src/per/adc.h ****         OVS_32,   /**< & */
 101:../../../../DaisyExamples/libDaisy//src/per/adc.h ****         OVS_64,   /**< & */
 102:../../../../DaisyExamples/libDaisy//src/per/adc.h ****         OVS_128,  /**< & */
 103:../../../../DaisyExamples/libDaisy//src/per/adc.h ****         OVS_256,  /**< & */
 104:../../../../DaisyExamples/libDaisy//src/per/adc.h ****         OVS_512,  /**< & */
 105:../../../../DaisyExamples/libDaisy//src/per/adc.h ****         OVS_1024, /**< & */
 106:../../../../DaisyExamples/libDaisy//src/per/adc.h ****         OVS_LAST, /**< & */
 107:../../../../DaisyExamples/libDaisy//src/per/adc.h ****     };
 108:../../../../DaisyExamples/libDaisy//src/per/adc.h **** 
 109:../../../../DaisyExamples/libDaisy//src/per/adc.h ****     AdcHandle() {}
ARM GAS  C:\Users\samue\AppData\Local\Temp\cckmzuMA.s 			page 7


 110:../../../../DaisyExamples/libDaisy//src/per/adc.h ****     ~AdcHandle() {}
  54              		.loc 5 110 5 is_stmt 1 view .LVU6
  55              		.loc 5 110 5 is_stmt 0 view .LVU7
  56              	.LBE192:
  57              	.LBB193:
  58              	.LBI193:
  59              		.file 6 "../../../../DaisyExamples/libDaisy//src/hid/audio.h"
   1:../../../../DaisyExamples/libDaisy//src/hid/audio.h **** #ifndef DSY_AUDIO_H
   2:../../../../DaisyExamples/libDaisy//src/hid/audio.h **** #define DSY_AUDIO_H /**< & */
   3:../../../../DaisyExamples/libDaisy//src/hid/audio.h **** 
   4:../../../../DaisyExamples/libDaisy//src/hid/audio.h **** #include "per/sai.h"
   5:../../../../DaisyExamples/libDaisy//src/hid/audio.h **** 
   6:../../../../DaisyExamples/libDaisy//src/hid/audio.h **** namespace daisy
   7:../../../../DaisyExamples/libDaisy//src/hid/audio.h **** {
   8:../../../../DaisyExamples/libDaisy//src/hid/audio.h **** /** @brief Audio Engine Handle
   9:../../../../DaisyExamples/libDaisy//src/hid/audio.h ****  *  @ingroup audio 
  10:../../../../DaisyExamples/libDaisy//src/hid/audio.h ****  *  @details This class allows for higher level access to an audio engine.
  11:../../../../DaisyExamples/libDaisy//src/hid/audio.h ****  *           If you're using a SOM like the DaisySeed or DaisyPatchSM (or any 
  12:../../../../DaisyExamples/libDaisy//src/hid/audio.h ****  *            board that includes one of those objects) then the intialization
  13:../../../../DaisyExamples/libDaisy//src/hid/audio.h ****  *            is already taken  care of.
  14:../../../../DaisyExamples/libDaisy//src/hid/audio.h ****  *           If you're setting up your own custom hardware, or need to make changes
  15:../../../../DaisyExamples/libDaisy//src/hid/audio.h ****  *           you will have to take the following steps:
  16:../../../../DaisyExamples/libDaisy//src/hid/audio.h ****  *             1. Create and Initialize an SaiHandle or two depending on your requirements
  17:../../../../DaisyExamples/libDaisy//src/hid/audio.h ****  *             2. Initialize the Audio Handle with the desired settings and the Initialized SaiHand
  18:../../../../DaisyExamples/libDaisy//src/hid/audio.h ****  *             3. If the connected codec requires special configuration or initialization, do so
  19:../../../../DaisyExamples/libDaisy//src/hid/audio.h ****  *             4. Write a callback method using either the AudioCallback or the InterleavingAudioCa
  20:../../../../DaisyExamples/libDaisy//src/hid/audio.h ****  *             5. Start the Audio using one of the StartAudio function
  21:../../../../DaisyExamples/libDaisy//src/hid/audio.h ****  */
  22:../../../../DaisyExamples/libDaisy//src/hid/audio.h **** class AudioHandle
  23:../../../../DaisyExamples/libDaisy//src/hid/audio.h **** {
  24:../../../../DaisyExamples/libDaisy//src/hid/audio.h ****   public:
  25:../../../../DaisyExamples/libDaisy//src/hid/audio.h ****     /** Manually configurable details about the Audio Engine */
  26:../../../../DaisyExamples/libDaisy//src/hid/audio.h ****     /** TODO: Figure out how to get samplerate in here. */
  27:../../../../DaisyExamples/libDaisy//src/hid/audio.h ****     struct Config
  28:../../../../DaisyExamples/libDaisy//src/hid/audio.h ****     {
  29:../../../../DaisyExamples/libDaisy//src/hid/audio.h ****         /** number of samples to process per callback */
  30:../../../../DaisyExamples/libDaisy//src/hid/audio.h ****         size_t blocksize;
  31:../../../../DaisyExamples/libDaisy//src/hid/audio.h **** 
  32:../../../../DaisyExamples/libDaisy//src/hid/audio.h ****         /**< Sample rate of audio */
  33:../../../../DaisyExamples/libDaisy//src/hid/audio.h ****         SaiHandle::Config::SampleRate samplerate;
  34:../../../../DaisyExamples/libDaisy//src/hid/audio.h **** 
  35:../../../../DaisyExamples/libDaisy//src/hid/audio.h ****         /** factor for adjustment before and after callback for hardware that may have extra headro
  36:../../../../DaisyExamples/libDaisy//src/hid/audio.h ****         float postgain;
  37:../../../../DaisyExamples/libDaisy//src/hid/audio.h **** 
  38:../../../../DaisyExamples/libDaisy//src/hid/audio.h ****         /** factor for additional one-sided compensation to audio path for hardware that may
  39:../../../../DaisyExamples/libDaisy//src/hid/audio.h ****          *  have unequal input/output ranges
  40:../../../../DaisyExamples/libDaisy//src/hid/audio.h ****          */
  41:../../../../DaisyExamples/libDaisy//src/hid/audio.h ****         float output_compensation;
  42:../../../../DaisyExamples/libDaisy//src/hid/audio.h **** 
  43:../../../../DaisyExamples/libDaisy//src/hid/audio.h ****         /** Sets default values for config struct */
  44:../../../../DaisyExamples/libDaisy//src/hid/audio.h ****         Config()
  45:../../../../DaisyExamples/libDaisy//src/hid/audio.h ****         : blocksize(48),
  46:../../../../DaisyExamples/libDaisy//src/hid/audio.h ****           samplerate(SaiHandle::Config::SampleRate::SAI_48KHZ),
  47:../../../../DaisyExamples/libDaisy//src/hid/audio.h ****           postgain(1.f),
  48:../../../../DaisyExamples/libDaisy//src/hid/audio.h ****           output_compensation(1.f)
  49:../../../../DaisyExamples/libDaisy//src/hid/audio.h ****         {
  50:../../../../DaisyExamples/libDaisy//src/hid/audio.h ****         }
ARM GAS  C:\Users\samue\AppData\Local\Temp\cckmzuMA.s 			page 8


  51:../../../../DaisyExamples/libDaisy//src/hid/audio.h ****     };
  52:../../../../DaisyExamples/libDaisy//src/hid/audio.h **** 
  53:../../../../DaisyExamples/libDaisy//src/hid/audio.h ****     enum class Result
  54:../../../../DaisyExamples/libDaisy//src/hid/audio.h ****     {
  55:../../../../DaisyExamples/libDaisy//src/hid/audio.h ****         OK,
  56:../../../../DaisyExamples/libDaisy//src/hid/audio.h ****         ERR,
  57:../../../../DaisyExamples/libDaisy//src/hid/audio.h ****     };
  58:../../../../DaisyExamples/libDaisy//src/hid/audio.h **** 
  59:../../../../DaisyExamples/libDaisy//src/hid/audio.h ****     /** Non-Interleaving input buffer
  60:../../../../DaisyExamples/libDaisy//src/hid/audio.h ****      * Buffer arranged by float[chn][sample] 
  61:../../../../DaisyExamples/libDaisy//src/hid/audio.h ****      * const so that the user can't modify the input
  62:../../../../DaisyExamples/libDaisy//src/hid/audio.h ****      */
  63:../../../../DaisyExamples/libDaisy//src/hid/audio.h ****     typedef const float* const* InputBuffer;
  64:../../../../DaisyExamples/libDaisy//src/hid/audio.h **** 
  65:../../../../DaisyExamples/libDaisy//src/hid/audio.h ****     /** Non-Interleaving output buffer
  66:../../../../DaisyExamples/libDaisy//src/hid/audio.h ****      * Arranged by float[chn][sample] 
  67:../../../../DaisyExamples/libDaisy//src/hid/audio.h ****      */
  68:../../../../DaisyExamples/libDaisy//src/hid/audio.h ****     typedef float** OutputBuffer;
  69:../../../../DaisyExamples/libDaisy//src/hid/audio.h **** 
  70:../../../../DaisyExamples/libDaisy//src/hid/audio.h ****     /** Type for a Non-Interleaving audio callback 
  71:../../../../DaisyExamples/libDaisy//src/hid/audio.h ****      * Non-Interleaving audio callbacks in daisy will be of this type
  72:../../../../DaisyExamples/libDaisy//src/hid/audio.h ****      */
  73:../../../../DaisyExamples/libDaisy//src/hid/audio.h ****     typedef void (*AudioCallback)(InputBuffer  in,
  74:../../../../DaisyExamples/libDaisy//src/hid/audio.h ****                                   OutputBuffer out,
  75:../../../../DaisyExamples/libDaisy//src/hid/audio.h ****                                   size_t       size);
  76:../../../../DaisyExamples/libDaisy//src/hid/audio.h **** 
  77:../../../../DaisyExamples/libDaisy//src/hid/audio.h ****     /** Interleaving Input buffer
  78:../../../../DaisyExamples/libDaisy//src/hid/audio.h ****      ** audio is prepared as { L0, R0, L1, R1, . . . LN, RN }]
  79:../../../../DaisyExamples/libDaisy//src/hid/audio.h ****      ** this is const, as the user shouldn't modify it
  80:../../../../DaisyExamples/libDaisy//src/hid/audio.h ****     */
  81:../../../../DaisyExamples/libDaisy//src/hid/audio.h ****     typedef const float* InterleavingInputBuffer;
  82:../../../../DaisyExamples/libDaisy//src/hid/audio.h **** 
  83:../../../../DaisyExamples/libDaisy//src/hid/audio.h ****     /** Interleaving Output buffer 
  84:../../../../DaisyExamples/libDaisy//src/hid/audio.h ****      ** audio is prepared as { L0, R0, L1, R1, . . . LN, RN }
  85:../../../../DaisyExamples/libDaisy//src/hid/audio.h ****     */
  86:../../../../DaisyExamples/libDaisy//src/hid/audio.h ****     typedef float* InterleavingOutputBuffer;
  87:../../../../DaisyExamples/libDaisy//src/hid/audio.h **** 
  88:../../../../DaisyExamples/libDaisy//src/hid/audio.h ****     /** Interleaving Audio Callback 
  89:../../../../DaisyExamples/libDaisy//src/hid/audio.h ****      * Interleaving audio callbacks in daisy must be of this type
  90:../../../../DaisyExamples/libDaisy//src/hid/audio.h ****      */
  91:../../../../DaisyExamples/libDaisy//src/hid/audio.h ****     typedef void (*InterleavingAudioCallback)(InterleavingInputBuffer  in,
  92:../../../../DaisyExamples/libDaisy//src/hid/audio.h ****                                               InterleavingOutputBuffer out,
  93:../../../../DaisyExamples/libDaisy//src/hid/audio.h ****                                               size_t                   size);
  94:../../../../DaisyExamples/libDaisy//src/hid/audio.h **** 
  95:../../../../DaisyExamples/libDaisy//src/hid/audio.h ****     AudioHandle() : pimpl_(nullptr) {}
  96:../../../../DaisyExamples/libDaisy//src/hid/audio.h ****     ~AudioHandle() {}
  60              		.loc 6 96 5 is_stmt 1 view .LVU8
  61              		.loc 6 96 5 is_stmt 0 view .LVU9
  62              	.LBE193:
  63              	.LBE189:
  64              	.LBB194:
  65              	.LBI194:
  66              		.file 7 "../../../../DaisyExamples/libDaisy//src/hid/switch.h"
   1:../../../../DaisyExamples/libDaisy//src/hid/switch.h **** #pragma once
   2:../../../../DaisyExamples/libDaisy//src/hid/switch.h **** #ifndef DSY_SWITCH_H
   3:../../../../DaisyExamples/libDaisy//src/hid/switch.h **** #define DSY_SWITCH_H
   4:../../../../DaisyExamples/libDaisy//src/hid/switch.h **** #include "daisy_core.h"
ARM GAS  C:\Users\samue\AppData\Local\Temp\cckmzuMA.s 			page 9


   5:../../../../DaisyExamples/libDaisy//src/hid/switch.h **** #include "per/gpio.h"
   6:../../../../DaisyExamples/libDaisy//src/hid/switch.h **** #include "sys/system.h"
   7:../../../../DaisyExamples/libDaisy//src/hid/switch.h **** 
   8:../../../../DaisyExamples/libDaisy//src/hid/switch.h **** namespace daisy
   9:../../../../DaisyExamples/libDaisy//src/hid/switch.h **** {
  10:../../../../DaisyExamples/libDaisy//src/hid/switch.h **** /** 
  11:../../../../DaisyExamples/libDaisy//src/hid/switch.h ****     Generic Class for handling momentary/latching switches \n 
  12:../../../../DaisyExamples/libDaisy//src/hid/switch.h ****     Inspired/influenced by Mutable Instruments (pichenettes) Switch classes
  13:../../../../DaisyExamples/libDaisy//src/hid/switch.h ****     @author Stephen Hensley
  14:../../../../DaisyExamples/libDaisy//src/hid/switch.h ****     @date December 2019
  15:../../../../DaisyExamples/libDaisy//src/hid/switch.h ****     @ingroup controls
  16:../../../../DaisyExamples/libDaisy//src/hid/switch.h **** */
  17:../../../../DaisyExamples/libDaisy//src/hid/switch.h **** class Switch
  18:../../../../DaisyExamples/libDaisy//src/hid/switch.h **** {
  19:../../../../DaisyExamples/libDaisy//src/hid/switch.h ****   public:
  20:../../../../DaisyExamples/libDaisy//src/hid/switch.h ****     /** Specifies the expected behavior of the switch */
  21:../../../../DaisyExamples/libDaisy//src/hid/switch.h ****     enum Type
  22:../../../../DaisyExamples/libDaisy//src/hid/switch.h ****     {
  23:../../../../DaisyExamples/libDaisy//src/hid/switch.h ****         TYPE_TOGGLE,    /**< & */
  24:../../../../DaisyExamples/libDaisy//src/hid/switch.h ****         TYPE_MOMENTARY, /**< & */
  25:../../../../DaisyExamples/libDaisy//src/hid/switch.h ****     };
  26:../../../../DaisyExamples/libDaisy//src/hid/switch.h ****     /** Specifies whether the pressed is HIGH or LOW. */
  27:../../../../DaisyExamples/libDaisy//src/hid/switch.h ****     enum Polarity
  28:../../../../DaisyExamples/libDaisy//src/hid/switch.h ****     {
  29:../../../../DaisyExamples/libDaisy//src/hid/switch.h ****         POLARITY_NORMAL,   /**< & */
  30:../../../../DaisyExamples/libDaisy//src/hid/switch.h ****         POLARITY_INVERTED, /**< & */
  31:../../../../DaisyExamples/libDaisy//src/hid/switch.h ****     };
  32:../../../../DaisyExamples/libDaisy//src/hid/switch.h **** 
  33:../../../../DaisyExamples/libDaisy//src/hid/switch.h ****     /** Specifies whether to use built-in Pull Up/Down resistors to hold button at a given state wh
  34:../../../../DaisyExamples/libDaisy//src/hid/switch.h ****     enum Pull
  35:../../../../DaisyExamples/libDaisy//src/hid/switch.h ****     {
  36:../../../../DaisyExamples/libDaisy//src/hid/switch.h ****         PULL_UP,   /**< & */
  37:../../../../DaisyExamples/libDaisy//src/hid/switch.h ****         PULL_DOWN, /**< & */
  38:../../../../DaisyExamples/libDaisy//src/hid/switch.h ****         PULL_NONE, /**< & */
  39:../../../../DaisyExamples/libDaisy//src/hid/switch.h ****     };
  40:../../../../DaisyExamples/libDaisy//src/hid/switch.h **** 
  41:../../../../DaisyExamples/libDaisy//src/hid/switch.h ****     Switch() {}
  42:../../../../DaisyExamples/libDaisy//src/hid/switch.h ****     ~Switch() {}
  67              		.loc 7 42 5 is_stmt 1 view .LVU10
  68              		.loc 7 42 5 is_stmt 0 view .LVU11
  69              	.LBE194:
  70              	.LBB195:
  71              	.LBI195:
  72              		.file 8 "../../../../DaisyExamples/libDaisy//src/hid/switch3.h"
   1:../../../../DaisyExamples/libDaisy//src/hid/switch3.h **** #pragma once
   2:../../../../DaisyExamples/libDaisy//src/hid/switch3.h **** #include "daisy_core.h"
   3:../../../../DaisyExamples/libDaisy//src/hid/switch3.h **** #include "per/gpio.h"
   4:../../../../DaisyExamples/libDaisy//src/hid/switch3.h **** 
   5:../../../../DaisyExamples/libDaisy//src/hid/switch3.h **** namespace daisy
   6:../../../../DaisyExamples/libDaisy//src/hid/switch3.h **** {
   7:../../../../DaisyExamples/libDaisy//src/hid/switch3.h **** class Switch3
   8:../../../../DaisyExamples/libDaisy//src/hid/switch3.h **** {
   9:../../../../DaisyExamples/libDaisy//src/hid/switch3.h ****   public:
  10:../../../../DaisyExamples/libDaisy//src/hid/switch3.h ****     enum
  11:../../../../DaisyExamples/libDaisy//src/hid/switch3.h ****     {
  12:../../../../DaisyExamples/libDaisy//src/hid/switch3.h ****         POS_CENTER = 0,
  13:../../../../DaisyExamples/libDaisy//src/hid/switch3.h ****         POS_LEFT   = 1,
ARM GAS  C:\Users\samue\AppData\Local\Temp\cckmzuMA.s 			page 10


  14:../../../../DaisyExamples/libDaisy//src/hid/switch3.h ****         POS_UP     = 1,
  15:../../../../DaisyExamples/libDaisy//src/hid/switch3.h ****         POS_RIGHT  = 2,
  16:../../../../DaisyExamples/libDaisy//src/hid/switch3.h ****         POS_DOWN   = 2,
  17:../../../../DaisyExamples/libDaisy//src/hid/switch3.h ****     };
  18:../../../../DaisyExamples/libDaisy//src/hid/switch3.h **** 
  19:../../../../DaisyExamples/libDaisy//src/hid/switch3.h **** 
  20:../../../../DaisyExamples/libDaisy//src/hid/switch3.h ****     Switch3() {}
  21:../../../../DaisyExamples/libDaisy//src/hid/switch3.h ****     ~Switch3() {}
  73              		.loc 8 21 5 is_stmt 1 view .LVU12
  74              		.loc 8 21 5 is_stmt 0 view .LVU13
  75              	.LBE195:
  76              	.LBB196:
  77              	.LBI196:
  78              		.loc 8 21 5 is_stmt 1 view .LVU14
  79              		.loc 8 21 5 is_stmt 0 view .LVU15
  80              	.LBE196:
  81              		.loc 1 20 21 view .LVU16
  82 0000 7047     		bx	lr
  83              		.cfi_endproc
  84              	.LFE4685:
  86              		.weak	_ZN5daisy11daisyCommonD1Ev
  87              		.thumb_set _ZN5daisy11daisyCommonD1Ev,_ZN5daisy11daisyCommonD2Ev
  88 0002 00BF     		.section	.text.__tcf_0,"ax",%progbits
  89              		.align	1
  90              		.p2align 2,,3
  91              		.syntax unified
  92              		.thumb
  93              		.thumb_func
  94              		.fpu fpv5-d16
  96              	__tcf_0:
  97              	.LFB5257:
  98              		.file 9 "vca_eg.cpp"
   1:vca_eg.cpp    **** #include "daisy_seed.h"
   2:vca_eg.cpp    **** #include "daisysp.h"
   3:vca_eg.cpp    **** #include "daisy_common.h"
   4:vca_eg.cpp    **** #include "envelope.h"
   5:vca_eg.cpp    **** 
   6:vca_eg.cpp    **** using namespace daisy;
   7:vca_eg.cpp    **** using namespace daisysp;
   8:vca_eg.cpp    **** 
   9:vca_eg.cpp    **** daisyCommon board;
  10:vca_eg.cpp    **** 
  11:vca_eg.cpp    **** //DaisySeed hw;
  12:vca_eg.cpp    **** int blocksize = 32;
  13:vca_eg.cpp    **** float fs = 96000;
  14:vca_eg.cpp    **** envelope env[2];
  99              		.loc 9 14 10 is_stmt 1 view -0
 100              		.cfi_startproc
 101              		@ args = 0, pretend = 0, frame = 0
 102              		@ frame_needed = 0, uses_anonymous_args = 0
 103              		@ link register save eliminated.
 104              		.loc 9 14 10 is_stmt 0 view .LVU18
 105 0000 7047     		bx	lr
 106              		.cfi_endproc
 107              	.LFE5257:
 109 0002 00BF     		.section	.text._Z13AudioCallbackPKPKfPPfj,"ax",%progbits
 110              		.align	1
ARM GAS  C:\Users\samue\AppData\Local\Temp\cckmzuMA.s 			page 11


 111              		.p2align 2,,3
 112              		.global	_Z13AudioCallbackPKPKfPPfj
 113              		.syntax unified
 114              		.thumb
 115              		.thumb_func
 116              		.fpu fpv5-d16
 118              	_Z13AudioCallbackPKPKfPPfj:
 119              	.LVL1:
 120              	.LFB4693:
  15:vca_eg.cpp    **** 
  16:vca_eg.cpp    **** enum
  17:vca_eg.cpp    **** {
  18:vca_eg.cpp    **** 	a1 = 1, d1, s1, r1, a2, d2, s2, r2, out_1, out_2
  19:vca_eg.cpp    **** };
  20:vca_eg.cpp    **** 
  21:vca_eg.cpp    **** enum
  22:vca_eg.cpp    **** {
  23:vca_eg.cpp    **** 	gate_1 = 1, gate_2
  24:vca_eg.cpp    **** };
  25:vca_eg.cpp    **** 
  26:vca_eg.cpp    **** 
  27:vca_eg.cpp    **** void AudioCallback(AudioHandle::InputBuffer in, AudioHandle::OutputBuffer out, size_t size)
  28:vca_eg.cpp    **** {
 121              		.loc 9 28 1 is_stmt 1 view -0
 122              		.cfi_startproc
 123              		@ args = 0, pretend = 0, frame = 0
 124              		@ frame_needed = 0, uses_anonymous_args = 0
  29:vca_eg.cpp    **** 	float audio_signal[2];
 125              		.loc 9 29 2 view .LVU20
  30:vca_eg.cpp    **** 	for (size_t i = 0; i < size; i++)
 126              		.loc 9 30 2 view .LVU21
 127              	.LBB197:
 128              		.loc 9 30 23 view .LVU22
 129 0000 DAB3     		cbz	r2, .L12
 130              	.LBE197:
  28:vca_eg.cpp    **** 	float audio_signal[2];
 131              		.loc 9 28 1 is_stmt 0 view .LVU23
 132 0002 2DE9F047 		push	{r4, r5, r6, r7, r8, r9, r10, lr}
 133              		.cfi_def_cfa_offset 32
 134              		.cfi_offset 4, -32
 135              		.cfi_offset 5, -28
 136              		.cfi_offset 6, -24
 137              		.cfi_offset 7, -20
 138              		.cfi_offset 8, -16
 139              		.cfi_offset 9, -12
 140              		.cfi_offset 10, -8
 141              		.cfi_offset 14, -4
 142 0006 8146     		mov	r9, r0
 143 0008 8A46     		mov	r10, r1
 144 000a 9046     		mov	r8, r2
 145              	.LBB198:
 146              		.loc 9 30 14 view .LVU24
 147 000c 0024     		movs	r4, #0
 148 000e 1B4F     		ldr	r7, .L15
 149              	.LBE198:
  28:vca_eg.cpp    **** 	float audio_signal[2];
 150              		.loc 9 28 1 view .LVU25
ARM GAS  C:\Users\samue\AppData\Local\Temp\cckmzuMA.s 			page 12


 151 0010 2DED028B 		vpush.64	{d8}
 152              		.cfi_def_cfa_offset 40
 153              		.cfi_offset 80, -40
 154              		.cfi_offset 81, -36
 155              	.LVL2:
 156              	.L6:
 157              	.LBB199:
  31:vca_eg.cpp    **** 	{
  32:vca_eg.cpp    **** 		env[0].value = env[0].Process();
 158              		.loc 9 32 3 is_stmt 1 discriminator 2 view .LVU26
 159              		.loc 9 32 32 is_stmt 0 discriminator 2 view .LVU27
 160 0014 1948     		ldr	r0, .L15
 161 0016 A600     		lsls	r6, r4, #2
 162 0018 FFF7FEFF 		bl	_ZN8envelope7ProcessEv
 163              	.LVL3:
  33:vca_eg.cpp    **** 		audio_signal[0] = env[0].value*in[0][i];
 164              		.loc 9 33 41 discriminator 2 view .LVU28
 165 001c D9F80030 		ldr	r3, [r9]
  32:vca_eg.cpp    **** 		audio_signal[0] = env[0].value*in[0][i];
 166              		.loc 9 32 16 discriminator 2 view .LVU29
 167 0020 87ED0E0A 		vstr.32	s0, [r7, #56]
 168              		.loc 9 33 3 is_stmt 1 discriminator 2 view .LVU30
 169              		.loc 9 33 41 is_stmt 0 discriminator 2 view .LVU31
 170 0024 03EB8403 		add	r3, r3, r4, lsl #2
  34:vca_eg.cpp    **** 
  35:vca_eg.cpp    **** 		env[1].value = env[1].Process();
 171              		.loc 9 35 32 discriminator 2 view .LVU32
 172 0028 1548     		ldr	r0, .L15+4
  30:vca_eg.cpp    **** 	{
 173              		.loc 9 30 2 discriminator 2 view .LVU33
 174 002a 0134     		adds	r4, r4, #1
 175              	.LVL4:
  33:vca_eg.cpp    **** 
 176              		.loc 9 33 33 discriminator 2 view .LVU34
 177 002c 93ED008A 		vldr.32	s16, [r3]
 178 0030 20EE088A 		vmul.f32	s16, s0, s16
 179              	.LVL5:
 180              		.loc 9 35 3 is_stmt 1 discriminator 2 view .LVU35
 181              		.loc 9 35 32 is_stmt 0 discriminator 2 view .LVU36
 182 0034 FFF7FEFF 		bl	_ZN8envelope7ProcessEv
 183              	.LVL6:
  36:vca_eg.cpp    **** 		audio_signal[1] = env[1].value*in[1][i];
 184              		.loc 9 36 41 discriminator 2 view .LVU37
 185 0038 D9F80430 		ldr	r3, [r9, #4]
  30:vca_eg.cpp    **** 	{
 186              		.loc 9 30 23 discriminator 2 view .LVU38
 187 003c A045     		cmp	r8, r4
  37:vca_eg.cpp    **** 
  38:vca_eg.cpp    **** 		out[0][i] = 1.24f*audio_signal[0];
 188              		.loc 9 38 13 discriminator 2 view .LVU39
 189 003e DAF80050 		ldr	r5, [r10]
  36:vca_eg.cpp    **** 		audio_signal[1] = env[1].value*in[1][i];
 190              		.loc 9 36 41 discriminator 2 view .LVU40
 191 0042 03EB0602 		add	r2, r3, r6
  39:vca_eg.cpp    **** 		out[1][i] = 1.24f*audio_signal[1];
 192              		.loc 9 39 13 discriminator 2 view .LVU41
 193 0046 DAF80430 		ldr	r3, [r10, #4]
ARM GAS  C:\Users\samue\AppData\Local\Temp\cckmzuMA.s 			page 13


  35:vca_eg.cpp    **** 		audio_signal[1] = env[1].value*in[1][i];
 194              		.loc 9 35 16 discriminator 2 view .LVU42
 195 004a 87ED1D0A 		vstr.32	s0, [r7, #116]
  36:vca_eg.cpp    **** 
 196              		.loc 9 36 3 is_stmt 1 discriminator 2 view .LVU43
  38:vca_eg.cpp    **** 		out[1][i] = 1.24f*audio_signal[1];
 197              		.loc 9 38 13 is_stmt 0 discriminator 2 view .LVU44
 198 004e 05EB060C 		add	ip, r5, r6
  36:vca_eg.cpp    **** 
 199              		.loc 9 36 33 discriminator 2 view .LVU45
 200 0052 92ED007A 		vldr.32	s14, [r2]
 201              		.loc 9 39 13 discriminator 2 view .LVU46
 202 0056 3344     		add	r3, r3, r6
  38:vca_eg.cpp    **** 		out[1][i] = 1.24f*audio_signal[1];
 203              		.loc 9 38 20 discriminator 2 view .LVU47
 204 0058 DFED0A7A 		vldr.32	s15, .L15+8
  36:vca_eg.cpp    **** 
 205              		.loc 9 36 33 discriminator 2 view .LVU48
 206 005c 20EE070A 		vmul.f32	s0, s0, s14
 207              	.LVL7:
  38:vca_eg.cpp    **** 		out[1][i] = 1.24f*audio_signal[1];
 208              		.loc 9 38 3 is_stmt 1 discriminator 2 view .LVU49
  38:vca_eg.cpp    **** 		out[1][i] = 1.24f*audio_signal[1];
 209              		.loc 9 38 20 is_stmt 0 discriminator 2 view .LVU50
 210 0060 28EE278A 		vmul.f32	s16, s16, s15
 211              	.LVL8:
 212              		.loc 9 39 20 discriminator 2 view .LVU51
 213 0064 20EE270A 		vmul.f32	s0, s0, s15
 214              	.LVL9:
  38:vca_eg.cpp    **** 		out[1][i] = 1.24f*audio_signal[1];
 215              		.loc 9 38 13 discriminator 2 view .LVU52
 216 0068 8CED008A 		vstr.32	s16, [ip]
 217              	.LVL10:
 218              		.loc 9 39 3 is_stmt 1 discriminator 2 view .LVU53
 219              		.loc 9 39 13 is_stmt 0 discriminator 2 view .LVU54
 220 006c 83ED000A 		vstr.32	s0, [r3]
  30:vca_eg.cpp    **** 	{
 221              		.loc 9 30 2 is_stmt 1 discriminator 2 view .LVU55
 222              	.LVL11:
  30:vca_eg.cpp    **** 	{
 223              		.loc 9 30 23 discriminator 2 view .LVU56
 224 0070 D0D1     		bne	.L6
 225              	.LBE199:
  40:vca_eg.cpp    **** 	}
  41:vca_eg.cpp    **** }
 226              		.loc 9 41 1 is_stmt 0 view .LVU57
 227 0072 BDEC028B 		vldm	sp!, {d8}
 228              		.cfi_restore 80
 229              		.cfi_restore 81
 230              		.cfi_def_cfa_offset 32
 231 0076 BDE8F087 		pop	{r4, r5, r6, r7, r8, r9, r10, pc}
 232              	.LVL12:
 233              	.L12:
 234              		.cfi_def_cfa_offset 0
 235              		.cfi_restore 4
 236              		.cfi_restore 5
 237              		.cfi_restore 6
ARM GAS  C:\Users\samue\AppData\Local\Temp\cckmzuMA.s 			page 14


 238              		.cfi_restore 7
 239              		.cfi_restore 8
 240              		.cfi_restore 9
 241              		.cfi_restore 10
 242              		.cfi_restore 14
 243              		.loc 9 41 1 view .LVU58
 244 007a 7047     		bx	lr
 245              	.L16:
 246              		.align	2
 247              	.L15:
 248 007c 00000000 		.word	.LANCHOR0
 249 0080 3C000000 		.word	.LANCHOR0+60
 250 0084 52B89E3F 		.word	1067366482
 251              		.cfi_endproc
 252              	.LFE4693:
 254              		.section	.text.startup.main,"ax",%progbits
 255              		.align	1
 256              		.p2align 2,,3
 257              		.global	main
 258              		.syntax unified
 259              		.thumb
 260              		.thumb_func
 261              		.fpu fpv5-d16
 263              	main:
 264              	.LFB4694:
  42:vca_eg.cpp    **** 
  43:vca_eg.cpp    **** int main(void)
  44:vca_eg.cpp    **** {
 265              		.loc 9 44 1 is_stmt 1 view -0
 266              		.cfi_startproc
 267              		@ args = 0, pretend = 0, frame = 0
 268              		@ frame_needed = 0, uses_anonymous_args = 0
  45:vca_eg.cpp    **** 	board.add_knob(a1, board.knob_1);
 269              		.loc 9 45 2 view .LVU60
  44:vca_eg.cpp    **** 	board.add_knob(a1, board.knob_1);
 270              		.loc 9 44 1 is_stmt 0 view .LVU61
 271 0000 38B5     		push	{r3, r4, r5, lr}
 272              		.cfi_def_cfa_offset 16
 273              		.cfi_offset 3, -16
 274              		.cfi_offset 4, -12
 275              		.cfi_offset 5, -8
 276              		.cfi_offset 14, -4
 277              		.loc 9 45 16 view .LVU62
 278 0002 0022     		movs	r2, #0
 279 0004 0121     		movs	r1, #1
 280 0006 7A48     		ldr	r0, .L27
 281 0008 FFF7FEFF 		bl	_ZN5daisy11daisyCommon8add_knobEii
 282              	.LVL13:
  46:vca_eg.cpp    **** 	board.add_knob(d1, board.knob_2);
 283              		.loc 9 46 2 is_stmt 1 view .LVU63
 284              		.loc 9 46 16 is_stmt 0 view .LVU64
 285 000c 0122     		movs	r2, #1
 286 000e 0221     		movs	r1, #2
 287 0010 7748     		ldr	r0, .L27
 288 0012 FFF7FEFF 		bl	_ZN5daisy11daisyCommon8add_knobEii
 289              	.LVL14:
  47:vca_eg.cpp    **** 	board.add_knob(s1, board.knob_4);
ARM GAS  C:\Users\samue\AppData\Local\Temp\cckmzuMA.s 			page 15


 290              		.loc 9 47 2 is_stmt 1 view .LVU65
 291              		.loc 9 47 16 is_stmt 0 view .LVU66
 292 0016 0322     		movs	r2, #3
 293 0018 7548     		ldr	r0, .L27
 294 001a 1146     		mov	r1, r2
  48:vca_eg.cpp    **** 	board.add_knob(r1, board.knob_3);
  49:vca_eg.cpp    **** 	board.add_knob(a2, board.knob_6);
  50:vca_eg.cpp    **** 	board.add_knob(d2, board.knob_7);
  51:vca_eg.cpp    **** 	board.add_knob(s2, board.knob_5);
  52:vca_eg.cpp    **** 	board.add_knob(r2, board.knob_8);
  53:vca_eg.cpp    **** 
  54:vca_eg.cpp    **** 	board.add_cv(out_1, board.out_1);
  55:vca_eg.cpp    **** 	board.add_cv(out_2, board.out_2);
  56:vca_eg.cpp    **** 	
  57:vca_eg.cpp    **** 	board.add_gate_in(gate_1, board.in_2);
  58:vca_eg.cpp    **** 	board.add_gate_in(gate_2, board.in_6);
  59:vca_eg.cpp    **** 
  60:vca_eg.cpp    **** 	env[0].Init(fs);
 295              		.loc 9 60 13 view .LVU67
 296 001c 754D     		ldr	r5, .L27+4
  47:vca_eg.cpp    **** 	board.add_knob(s1, board.knob_4);
 297              		.loc 9 47 16 view .LVU68
 298 001e FFF7FEFF 		bl	_ZN5daisy11daisyCommon8add_knobEii
 299              	.LVL15:
  48:vca_eg.cpp    **** 	board.add_knob(r1, board.knob_3);
 300              		.loc 9 48 2 is_stmt 1 view .LVU69
  48:vca_eg.cpp    **** 	board.add_knob(r1, board.knob_3);
 301              		.loc 9 48 16 is_stmt 0 view .LVU70
 302 0022 0222     		movs	r2, #2
 303 0024 0421     		movs	r1, #4
 304 0026 7248     		ldr	r0, .L27
 305 0028 FFF7FEFF 		bl	_ZN5daisy11daisyCommon8add_knobEii
 306              	.LVL16:
  49:vca_eg.cpp    **** 	board.add_knob(d2, board.knob_7);
 307              		.loc 9 49 2 is_stmt 1 view .LVU71
  49:vca_eg.cpp    **** 	board.add_knob(d2, board.knob_7);
 308              		.loc 9 49 16 is_stmt 0 view .LVU72
 309 002c 0522     		movs	r2, #5
 310 002e 7048     		ldr	r0, .L27
 311 0030 1146     		mov	r1, r2
 312 0032 714C     		ldr	r4, .L27+8
 313 0034 FFF7FEFF 		bl	_ZN5daisy11daisyCommon8add_knobEii
 314              	.LVL17:
  50:vca_eg.cpp    **** 	board.add_knob(s2, board.knob_5);
 315              		.loc 9 50 2 is_stmt 1 view .LVU73
  50:vca_eg.cpp    **** 	board.add_knob(s2, board.knob_5);
 316              		.loc 9 50 16 is_stmt 0 view .LVU74
 317 0038 0622     		movs	r2, #6
 318 003a 6D48     		ldr	r0, .L27
 319 003c 1146     		mov	r1, r2
 320 003e FFF7FEFF 		bl	_ZN5daisy11daisyCommon8add_knobEii
 321              	.LVL18:
  51:vca_eg.cpp    **** 	board.add_knob(r2, board.knob_8);
 322              		.loc 9 51 2 is_stmt 1 view .LVU75
  51:vca_eg.cpp    **** 	board.add_knob(r2, board.knob_8);
 323              		.loc 9 51 16 is_stmt 0 view .LVU76
 324 0042 0422     		movs	r2, #4
ARM GAS  C:\Users\samue\AppData\Local\Temp\cckmzuMA.s 			page 16


 325 0044 0721     		movs	r1, #7
 326 0046 6A48     		ldr	r0, .L27
 327 0048 FFF7FEFF 		bl	_ZN5daisy11daisyCommon8add_knobEii
 328              	.LVL19:
  52:vca_eg.cpp    **** 
 329              		.loc 9 52 2 is_stmt 1 view .LVU77
  52:vca_eg.cpp    **** 
 330              		.loc 9 52 16 is_stmt 0 view .LVU78
 331 004c 0722     		movs	r2, #7
 332 004e 0821     		movs	r1, #8
 333 0050 6748     		ldr	r0, .L27
 334 0052 FFF7FEFF 		bl	_ZN5daisy11daisyCommon8add_knobEii
 335              	.LVL20:
  54:vca_eg.cpp    **** 	board.add_cv(out_2, board.out_2);
 336              		.loc 9 54 2 is_stmt 1 view .LVU79
  54:vca_eg.cpp    **** 	board.add_cv(out_2, board.out_2);
 337              		.loc 9 54 14 is_stmt 0 view .LVU80
 338 0056 0822     		movs	r2, #8
 339 0058 0921     		movs	r1, #9
 340 005a 6548     		ldr	r0, .L27
 341 005c FFF7FEFF 		bl	_ZN5daisy11daisyCommon6add_cvEii
 342              	.LVL21:
  55:vca_eg.cpp    **** 	
 343              		.loc 9 55 2 is_stmt 1 view .LVU81
  55:vca_eg.cpp    **** 	
 344              		.loc 9 55 14 is_stmt 0 view .LVU82
 345 0060 0922     		movs	r2, #9
 346 0062 0A21     		movs	r1, #10
 347 0064 6248     		ldr	r0, .L27
 348 0066 FFF7FEFF 		bl	_ZN5daisy11daisyCommon6add_cvEii
 349              	.LVL22:
  57:vca_eg.cpp    **** 	board.add_gate_in(gate_2, board.in_6);
 350              		.loc 9 57 2 is_stmt 1 view .LVU83
  57:vca_eg.cpp    **** 	board.add_gate_in(gate_2, board.in_6);
 351              		.loc 9 57 19 is_stmt 0 view .LVU84
 352 006a 0122     		movs	r2, #1
 353 006c 6048     		ldr	r0, .L27
 354 006e 1146     		mov	r1, r2
 355 0070 FFF7FEFF 		bl	_ZN5daisy11daisyCommon11add_gate_inEii
 356              	.LVL23:
  58:vca_eg.cpp    **** 
 357              		.loc 9 58 2 is_stmt 1 view .LVU85
  58:vca_eg.cpp    **** 
 358              		.loc 9 58 19 is_stmt 0 view .LVU86
 359 0074 0522     		movs	r2, #5
 360 0076 0221     		movs	r1, #2
 361 0078 5D48     		ldr	r0, .L27
 362 007a FFF7FEFF 		bl	_ZN5daisy11daisyCommon11add_gate_inEii
 363              	.LVL24:
 364              		.loc 9 60 2 is_stmt 1 view .LVU87
 365              		.loc 9 60 13 is_stmt 0 view .LVU88
 366 007e 95ED000A 		vldr.32	s0, [r5]
 367 0082 2046     		mov	r0, r4
 368 0084 FFF7FEFF 		bl	_ZN8envelope4InitEf
 369              	.LVL25:
  61:vca_eg.cpp    **** 	env[1].Init(fs);
 370              		.loc 9 61 2 is_stmt 1 view .LVU89
ARM GAS  C:\Users\samue\AppData\Local\Temp\cckmzuMA.s 			page 17


 371              		.loc 9 61 13 is_stmt 0 view .LVU90
 372 0088 95ED000A 		vldr.32	s0, [r5]
 373 008c 04F13C00 		add	r0, r4, #60
 374 0090 FFF7FEFF 		bl	_ZN8envelope4InitEf
 375              	.LVL26:
  62:vca_eg.cpp    **** 
  63:vca_eg.cpp    **** 	board.Init();
 376              		.loc 9 63 2 is_stmt 1 view .LVU91
 377              		.loc 9 63 12 is_stmt 0 view .LVU92
 378 0094 0021     		movs	r1, #0
 379 0096 5648     		ldr	r0, .L27
 380 0098 FFF7FEFF 		bl	_ZN5daisy11daisyCommon4InitEb
 381              	.LVL27:
  64:vca_eg.cpp    **** 	board.seed.SetAudioBlockSize(blocksize); // number of samples handled per callback
 382              		.loc 9 64 2 is_stmt 1 view .LVU93
 383              		.loc 9 64 30 is_stmt 0 view .LVU94
 384 009c 574B     		ldr	r3, .L27+12
 385 009e 5848     		ldr	r0, .L27+16
 386 00a0 1968     		ldr	r1, [r3]
 387 00a2 FFF7FEFF 		bl	_ZN5daisy9DaisySeed17SetAudioBlockSizeEj
 388              	.LVL28:
  65:vca_eg.cpp    **** 	board.seed.SetAudioSampleRate(SaiHandle::Config::SampleRate::SAI_96KHZ);
 389              		.loc 9 65 2 is_stmt 1 view .LVU95
 390              		.loc 9 65 31 is_stmt 0 view .LVU96
 391 00a6 0421     		movs	r1, #4
 392 00a8 5548     		ldr	r0, .L27+16
 393 00aa FFF7FEFF 		bl	_ZN5daisy9DaisySeed18SetAudioSampleRateENS_9SaiHandle6Config10SampleRateE
 394              	.LVL29:
  66:vca_eg.cpp    **** 	board.seed.StartAudio(AudioCallback);
 395              		.loc 9 66 2 is_stmt 1 view .LVU97
 396              		.loc 9 66 23 is_stmt 0 view .LVU98
 397 00ae 5549     		ldr	r1, .L27+20
 398 00b0 5348     		ldr	r0, .L27+16
 399 00b2 FFF7FEFF 		bl	_ZN5daisy9DaisySeed10StartAudioEPFvPKPKfPPfjE
 400              	.LVL30:
 401 00b6 26E0     		b	.L24
 402              	.LVL31:
 403              	.L26:
 404              	.LBB209:
 405              	.LBB210:
 406              	.LBB211:
 407              	.LBB212:
 408              	.LBI212:
  22:../../../../DaisyExamples/libDaisy//src/hid/switch3.h **** 
  23:../../../../DaisyExamples/libDaisy//src/hid/switch3.h ****     void Init(dsy_gpio_pin pina, dsy_gpio_pin pinb)
  24:../../../../DaisyExamples/libDaisy//src/hid/switch3.h ****     {
  25:../../../../DaisyExamples/libDaisy//src/hid/switch3.h ****         pina_gpio_.pin  = pina;
  26:../../../../DaisyExamples/libDaisy//src/hid/switch3.h ****         pina_gpio_.mode = DSY_GPIO_MODE_INPUT;
  27:../../../../DaisyExamples/libDaisy//src/hid/switch3.h ****         pina_gpio_.pull = DSY_GPIO_PULLUP;
  28:../../../../DaisyExamples/libDaisy//src/hid/switch3.h ****         dsy_gpio_init(&pina_gpio_);
  29:../../../../DaisyExamples/libDaisy//src/hid/switch3.h **** 
  30:../../../../DaisyExamples/libDaisy//src/hid/switch3.h ****         pinb_gpio_.pin  = pinb;
  31:../../../../DaisyExamples/libDaisy//src/hid/switch3.h ****         pinb_gpio_.mode = DSY_GPIO_MODE_INPUT;
  32:../../../../DaisyExamples/libDaisy//src/hid/switch3.h ****         pinb_gpio_.pull = DSY_GPIO_PULLUP;
  33:../../../../DaisyExamples/libDaisy//src/hid/switch3.h ****         dsy_gpio_init(&pinb_gpio_);
  34:../../../../DaisyExamples/libDaisy//src/hid/switch3.h ****     }
  35:../../../../DaisyExamples/libDaisy//src/hid/switch3.h **** 
ARM GAS  C:\Users\samue\AppData\Local\Temp\cckmzuMA.s 			page 18


  36:../../../../DaisyExamples/libDaisy//src/hid/switch3.h ****     int Read()
 409              		.loc 8 36 9 is_stmt 1 view .LVU99
 410              	.LBB213:
  37:../../../../DaisyExamples/libDaisy//src/hid/switch3.h ****     {
  38:../../../../DaisyExamples/libDaisy//src/hid/switch3.h ****         if(!dsy_gpio_read(&pina_gpio_))
  39:../../../../DaisyExamples/libDaisy//src/hid/switch3.h ****             return POS_UP;
  40:../../../../DaisyExamples/libDaisy//src/hid/switch3.h ****         if(!dsy_gpio_read(&pinb_gpio_))
 411              		.loc 8 40 9 view .LVU100
 412              		.loc 8 40 26 is_stmt 0 view .LVU101
 413 00b8 5348     		ldr	r0, .L27+24
 414 00ba FFF7FEFF 		bl	dsy_gpio_read
 415              	.LVL32:
 416              	.LBE213:
 417              	.LBE212:
 418              	.LBE211:
 419              	.LBE210:
  67:vca_eg.cpp    **** 
  68:vca_eg.cpp    **** 	while(1) 
  69:vca_eg.cpp    **** 	{
  70:vca_eg.cpp    **** 		bool slow_blink = (System::GetNow() & 1023) < 511;
  71:vca_eg.cpp    **** 		board.seed.SetLed(slow_blink);		
  72:vca_eg.cpp    **** 
  73:vca_eg.cpp    ****     	env[0].setAttack(board.get_knob(a1));
  74:vca_eg.cpp    **** 		env[0].setDecay(board.get_knob(d1));
  75:vca_eg.cpp    **** 		env[0].setRelease(board.get_knob(r1));
  76:vca_eg.cpp    **** 		env[0].setSustain(board.get_knob(s1));
  77:vca_eg.cpp    **** 
  78:vca_eg.cpp    **** 		env[1].setAttack(board.get_knob(a2));
  79:vca_eg.cpp    **** 		env[1].setDecay(board.get_knob(d2));
  80:vca_eg.cpp    **** 		env[1].setRelease(board.get_knob(r2));
  81:vca_eg.cpp    **** 		env[1].setSustain(board.get_knob(s2));
  82:vca_eg.cpp    **** 
  83:vca_eg.cpp    **** 		switch(board.toggle_right.Read())
  84:vca_eg.cpp    **** 		{
  85:vca_eg.cpp    **** 			case Switch3::POS_UP: 
  86:vca_eg.cpp    **** 				env[0].curve = env[0].exponential; 
  87:vca_eg.cpp    **** 				env[1].curve = env[1].exponential;
  88:vca_eg.cpp    **** 				break;
  89:vca_eg.cpp    **** 			case Switch3::POS_CENTER: 
  90:vca_eg.cpp    **** 				env[0].curve = env[0].linear; 
  91:vca_eg.cpp    **** 				env[1].curve = env[1].linear; 
  92:vca_eg.cpp    **** 				break;
  93:vca_eg.cpp    **** 			case Switch3::POS_DOWN: 
  94:vca_eg.cpp    **** 				env[0].curve = env[0].logarithmic; 
  95:vca_eg.cpp    **** 				env[1].curve = env[1].logarithmic;
  96:vca_eg.cpp    **** 				break;
  97:vca_eg.cpp    **** 		}
  98:vca_eg.cpp    **** 
  99:vca_eg.cpp    **** 		switch(board.toggle_left.Read())
 100:vca_eg.cpp    **** 		{
 101:vca_eg.cpp    **** 			case Switch3::POS_UP: //vca mode
 102:vca_eg.cpp    **** 				board.audio_enable_mux(out_1);
 103:vca_eg.cpp    **** 				board.audio_enable_mux(out_2);
 104:vca_eg.cpp    **** 				break;
 105:vca_eg.cpp    **** 			case Switch3::POS_CENTER: //envelope output
 106:vca_eg.cpp    **** 				board.dac_enable_mux(out_1);
 107:vca_eg.cpp    **** 				board.dac_enable_mux(out_2);
ARM GAS  C:\Users\samue\AppData\Local\Temp\cckmzuMA.s 			page 19


 108:vca_eg.cpp    **** 				board.write_dac(env[0].value, out_1);
 109:vca_eg.cpp    **** 				board.write_dac(env[1].value, out_2);
 110:vca_eg.cpp    **** 				break;
 111:vca_eg.cpp    **** 			case Switch3::POS_DOWN:	//vca and envelope
 112:vca_eg.cpp    **** 				board.audio_enable_mux(out_1);
 420              		.loc 9 112 27 view .LVU102
 421 00be 0921     		movs	r1, #9
 422              	.LBB221:
 423              	.LBB218:
 424              	.LBB216:
 425              	.LBB214:
 426              		.loc 8 40 9 view .LVU103
 427 00c0 0028     		cmp	r0, #0
 428 00c2 00F08280 		beq	.L22
 429              	.LVL33:
 430              		.loc 8 40 9 view .LVU104
 431              	.LBE214:
 432              	.LBE216:
 433              	.LBE218:
 434              	.LBE221:
 105:vca_eg.cpp    **** 				board.dac_enable_mux(out_1);
 435              		.loc 9 105 4 is_stmt 1 view .LVU105
 106:vca_eg.cpp    **** 				board.dac_enable_mux(out_2);
 436              		.loc 9 106 5 view .LVU106
 106:vca_eg.cpp    **** 				board.dac_enable_mux(out_2);
 437              		.loc 9 106 25 is_stmt 0 view .LVU107
 438 00c6 4A48     		ldr	r0, .L27
 439 00c8 FFF7FEFF 		bl	_ZN5daisy11daisyCommon14dac_enable_muxEi
 440              	.LVL34:
 107:vca_eg.cpp    **** 				board.write_dac(env[0].value, out_1);
 441              		.loc 9 107 5 is_stmt 1 view .LVU108
 107:vca_eg.cpp    **** 				board.write_dac(env[0].value, out_1);
 442              		.loc 9 107 25 is_stmt 0 view .LVU109
 443 00cc 0A21     		movs	r1, #10
 444 00ce 4848     		ldr	r0, .L27
 445 00d0 FFF7FEFF 		bl	_ZN5daisy11daisyCommon14dac_enable_muxEi
 446              	.LVL35:
 108:vca_eg.cpp    **** 				board.write_dac(env[1].value, out_2);
 447              		.loc 9 108 5 is_stmt 1 view .LVU110
 108:vca_eg.cpp    **** 				board.write_dac(env[1].value, out_2);
 448              		.loc 9 108 20 is_stmt 0 view .LVU111
 449 00d4 94ED0E0A 		vldr.32	s0, [r4, #56]
 450 00d8 0921     		movs	r1, #9
 451 00da 4548     		ldr	r0, .L27
 452 00dc FFF7FEFF 		bl	_ZN5daisy11daisyCommon9write_dacEfi
 453              	.LVL36:
 109:vca_eg.cpp    **** 				break;
 454              		.loc 9 109 5 is_stmt 1 view .LVU112
 109:vca_eg.cpp    **** 				break;
 455              		.loc 9 109 20 is_stmt 0 view .LVU113
 456 00e0 0A21     		movs	r1, #10
 457 00e2 94ED1D0A 		vldr.32	s0, [r4, #116]
 458 00e6 4248     		ldr	r0, .L27
 459 00e8 FFF7FEFF 		bl	_ZN5daisy11daisyCommon9write_dacEfi
 460              	.LVL37:
 110:vca_eg.cpp    **** 			case Switch3::POS_DOWN:	//vca and envelope
 461              		.loc 9 110 5 is_stmt 1 view .LVU114
ARM GAS  C:\Users\samue\AppData\Local\Temp\cckmzuMA.s 			page 20


 462              	.L23:
 113:vca_eg.cpp    **** 				board.dac_enable_mux(out_2);
 114:vca_eg.cpp    **** 				board.write_dac(env[0].value, out_2);
 115:vca_eg.cpp    **** 				break;
 116:vca_eg.cpp    **** 		}
 117:vca_eg.cpp    **** 
 118:vca_eg.cpp    **** 		env[0].gate = board.get_gate_in(gate_1);
 463              		.loc 9 118 3 view .LVU115
 464              		.loc 9 118 34 is_stmt 0 view .LVU116
 465 00ec 0121     		movs	r1, #1
 466 00ee 4048     		ldr	r0, .L27
 467 00f0 FFF7FEFF 		bl	_ZN5daisy11daisyCommon11get_gate_inEi
 468              	.LVL38:
 469 00f4 0346     		mov	r3, r0
 119:vca_eg.cpp    **** 		env[1].gate = board.get_gate_in(gate_2);
 470              		.loc 9 119 34 view .LVU117
 471 00f6 0221     		movs	r1, #2
 472 00f8 3D48     		ldr	r0, .L27
 118:vca_eg.cpp    **** 		env[1].gate = board.get_gate_in(gate_2);
 473              		.loc 9 118 15 view .LVU118
 474 00fa 84F83030 		strb	r3, [r4, #48]
 475              		.loc 9 119 3 is_stmt 1 view .LVU119
 476              		.loc 9 119 34 is_stmt 0 view .LVU120
 477 00fe FFF7FEFF 		bl	_ZN5daisy11daisyCommon11get_gate_inEi
 478              	.LVL39:
 479              		.loc 9 119 15 view .LVU121
 480 0102 84F86C00 		strb	r0, [r4, #108]
 481              	.LBE209:
  68:vca_eg.cpp    **** 	{
 482              		.loc 9 68 2 is_stmt 1 view .LVU122
 483              	.L24:
  68:vca_eg.cpp    **** 	{
 484              		.loc 9 68 2 view .LVU123
 485              	.LBB234:
  70:vca_eg.cpp    **** 		board.seed.SetLed(slow_blink);		
 486              		.loc 9 70 3 view .LVU124
  70:vca_eg.cpp    **** 		board.seed.SetLed(slow_blink);		
 487              		.loc 9 70 36 is_stmt 0 view .LVU125
 488 0106 FFF7FEFF 		bl	_ZN5daisy6System6GetNowEv
 489              	.LVL40:
 490 010a 0146     		mov	r1, r0
 491              	.LVL41:
  71:vca_eg.cpp    **** 
 492              		.loc 9 71 3 is_stmt 1 view .LVU126
  71:vca_eg.cpp    **** 
 493              		.loc 9 71 20 is_stmt 0 view .LVU127
 494 010c 3C48     		ldr	r0, .L27+16
 495              	.LVL42:
  70:vca_eg.cpp    **** 		board.seed.SetLed(slow_blink);		
 496              		.loc 9 70 39 view .LVU128
 497 010e C1F30901 		ubfx	r1, r1, #0, #10
 498              	.LVL43:
  71:vca_eg.cpp    **** 
 499              		.loc 9 71 20 view .LVU129
 500 0112 B1F5FF7F 		cmp	r1, #510
 501 0116 8CBF     		ite	hi
 502 0118 0021     		movhi	r1, #0
ARM GAS  C:\Users\samue\AppData\Local\Temp\cckmzuMA.s 			page 21


 503 011a 0121     		movls	r1, #1
 504 011c FFF7FEFF 		bl	_ZN5daisy9DaisySeed6SetLedEb
 505              	.LVL44:
  73:vca_eg.cpp    **** 		env[0].setDecay(board.get_knob(d1));
 506              		.loc 9 73 6 is_stmt 1 view .LVU130
  73:vca_eg.cpp    **** 		env[0].setDecay(board.get_knob(d1));
 507              		.loc 9 73 22 is_stmt 0 view .LVU131
 508 0120 0121     		movs	r1, #1
 509 0122 3348     		ldr	r0, .L27
 510 0124 FFF7FEFF 		bl	_ZN5daisy11daisyCommon8get_knobEi
 511              	.LVL45:
 512 0128 3348     		ldr	r0, .L27+8
 513 012a FFF7FEFF 		bl	_ZN8envelope9setAttackEf
 514              	.LVL46:
  74:vca_eg.cpp    **** 		env[0].setRelease(board.get_knob(r1));
 515              		.loc 9 74 3 is_stmt 1 view .LVU132
  74:vca_eg.cpp    **** 		env[0].setRelease(board.get_knob(r1));
 516              		.loc 9 74 18 is_stmt 0 view .LVU133
 517 012e 0221     		movs	r1, #2
 518 0130 2F48     		ldr	r0, .L27
 519 0132 FFF7FEFF 		bl	_ZN5daisy11daisyCommon8get_knobEi
 520              	.LVL47:
 521 0136 3048     		ldr	r0, .L27+8
 522 0138 FFF7FEFF 		bl	_ZN8envelope8setDecayEf
 523              	.LVL48:
  75:vca_eg.cpp    **** 		env[0].setSustain(board.get_knob(s1));
 524              		.loc 9 75 3 is_stmt 1 view .LVU134
  75:vca_eg.cpp    **** 		env[0].setSustain(board.get_knob(s1));
 525              		.loc 9 75 20 is_stmt 0 view .LVU135
 526 013c 0421     		movs	r1, #4
 527 013e 2C48     		ldr	r0, .L27
 528 0140 FFF7FEFF 		bl	_ZN5daisy11daisyCommon8get_knobEi
 529              	.LVL49:
 530 0144 2C48     		ldr	r0, .L27+8
 531 0146 FFF7FEFF 		bl	_ZN8envelope10setReleaseEf
 532              	.LVL50:
  76:vca_eg.cpp    **** 
 533              		.loc 9 76 3 is_stmt 1 view .LVU136
  76:vca_eg.cpp    **** 
 534              		.loc 9 76 20 is_stmt 0 view .LVU137
 535 014a 0321     		movs	r1, #3
 536 014c 2848     		ldr	r0, .L27
 537 014e FFF7FEFF 		bl	_ZN5daisy11daisyCommon8get_knobEi
 538              	.LVL51:
 539 0152 2948     		ldr	r0, .L27+8
 540 0154 FFF7FEFF 		bl	_ZN8envelope10setSustainEf
 541              	.LVL52:
  78:vca_eg.cpp    **** 		env[1].setDecay(board.get_knob(d2));
 542              		.loc 9 78 3 is_stmt 1 view .LVU138
  78:vca_eg.cpp    **** 		env[1].setDecay(board.get_knob(d2));
 543              		.loc 9 78 19 is_stmt 0 view .LVU139
 544 0158 0521     		movs	r1, #5
 545 015a 2548     		ldr	r0, .L27
 546 015c FFF7FEFF 		bl	_ZN5daisy11daisyCommon8get_knobEi
 547              	.LVL53:
 548 0160 2A48     		ldr	r0, .L27+28
 549 0162 FFF7FEFF 		bl	_ZN8envelope9setAttackEf
ARM GAS  C:\Users\samue\AppData\Local\Temp\cckmzuMA.s 			page 22


 550              	.LVL54:
  79:vca_eg.cpp    **** 		env[1].setRelease(board.get_knob(r2));
 551              		.loc 9 79 3 is_stmt 1 view .LVU140
  79:vca_eg.cpp    **** 		env[1].setRelease(board.get_knob(r2));
 552              		.loc 9 79 18 is_stmt 0 view .LVU141
 553 0166 0621     		movs	r1, #6
 554 0168 2148     		ldr	r0, .L27
 555 016a FFF7FEFF 		bl	_ZN5daisy11daisyCommon8get_knobEi
 556              	.LVL55:
 557 016e 2748     		ldr	r0, .L27+28
 558 0170 FFF7FEFF 		bl	_ZN8envelope8setDecayEf
 559              	.LVL56:
  80:vca_eg.cpp    **** 		env[1].setSustain(board.get_knob(s2));
 560              		.loc 9 80 3 is_stmt 1 view .LVU142
  80:vca_eg.cpp    **** 		env[1].setSustain(board.get_knob(s2));
 561              		.loc 9 80 20 is_stmt 0 view .LVU143
 562 0174 0821     		movs	r1, #8
 563 0176 1E48     		ldr	r0, .L27
 564 0178 FFF7FEFF 		bl	_ZN5daisy11daisyCommon8get_knobEi
 565              	.LVL57:
 566 017c 2348     		ldr	r0, .L27+28
 567 017e FFF7FEFF 		bl	_ZN8envelope10setReleaseEf
 568              	.LVL58:
  81:vca_eg.cpp    **** 
 569              		.loc 9 81 3 is_stmt 1 view .LVU144
  81:vca_eg.cpp    **** 
 570              		.loc 9 81 20 is_stmt 0 view .LVU145
 571 0182 0721     		movs	r1, #7
 572 0184 1A48     		ldr	r0, .L27
 573 0186 FFF7FEFF 		bl	_ZN5daisy11daisyCommon8get_knobEi
 574              	.LVL59:
 575 018a 2048     		ldr	r0, .L27+28
 576 018c FFF7FEFF 		bl	_ZN8envelope10setSustainEf
 577              	.LVL60:
  83:vca_eg.cpp    **** 		{
 578              		.loc 9 83 3 is_stmt 1 view .LVU146
 579              	.LBB222:
 580              	.LBI222:
  36:../../../../DaisyExamples/libDaisy//src/hid/switch3.h ****     {
 581              		.loc 8 36 9 view .LVU147
 582              	.LBB223:
  38:../../../../DaisyExamples/libDaisy//src/hid/switch3.h ****             return POS_UP;
 583              		.loc 8 38 9 view .LVU148
  38:../../../../DaisyExamples/libDaisy//src/hid/switch3.h ****             return POS_UP;
 584              		.loc 8 38 26 is_stmt 0 view .LVU149
 585 0190 1F48     		ldr	r0, .L27+32
 586 0192 FFF7FEFF 		bl	dsy_gpio_read
 587              	.LVL61:
  38:../../../../DaisyExamples/libDaisy//src/hid/switch3.h ****             return POS_UP;
 588              		.loc 8 38 9 view .LVU150
 589 0196 80B9     		cbnz	r0, .L18
 590              	.LVL62:
  38:../../../../DaisyExamples/libDaisy//src/hid/switch3.h ****             return POS_UP;
 591              		.loc 8 38 9 view .LVU151
 592              	.LBE223:
 593              	.LBE222:
  85:vca_eg.cpp    **** 				env[0].curve = env[0].exponential; 
ARM GAS  C:\Users\samue\AppData\Local\Temp\cckmzuMA.s 			page 23


 594              		.loc 9 85 4 is_stmt 1 view .LVU152
  86:vca_eg.cpp    **** 				env[1].curve = env[1].exponential;
 595              		.loc 9 86 5 view .LVU153
  86:vca_eg.cpp    **** 				env[1].curve = env[1].exponential;
 596              		.loc 9 86 18 is_stmt 0 view .LVU154
 597 0198 0123     		movs	r3, #1
 598 019a 6363     		str	r3, [r4, #52]
  87:vca_eg.cpp    **** 				break;
 599              		.loc 9 87 5 is_stmt 1 view .LVU155
  87:vca_eg.cpp    **** 				break;
 600              		.loc 9 87 18 is_stmt 0 view .LVU156
 601 019c 2367     		str	r3, [r4, #112]
  88:vca_eg.cpp    **** 			case Switch3::POS_CENTER: 
 602              		.loc 9 88 5 is_stmt 1 view .LVU157
 603              	.L19:
  99:vca_eg.cpp    **** 		{
 604              		.loc 9 99 3 view .LVU158
 605              	.LVL63:
 606              	.LBB230:
 607              	.LBI210:
  36:../../../../DaisyExamples/libDaisy//src/hid/switch3.h ****     {
 608              		.loc 8 36 9 view .LVU159
 609              	.LBB219:
  38:../../../../DaisyExamples/libDaisy//src/hid/switch3.h ****             return POS_UP;
 610              		.loc 8 38 9 view .LVU160
  38:../../../../DaisyExamples/libDaisy//src/hid/switch3.h ****             return POS_UP;
 611              		.loc 8 38 26 is_stmt 0 view .LVU161
 612 019e 1D48     		ldr	r0, .L27+36
 613 01a0 FFF7FEFF 		bl	dsy_gpio_read
 614              	.LVL64:
  38:../../../../DaisyExamples/libDaisy//src/hid/switch3.h ****             return POS_UP;
 615              		.loc 8 38 9 view .LVU162
 616 01a4 0028     		cmp	r0, #0
 617 01a6 87D1     		bne	.L26
 618              	.LVL65:
  38:../../../../DaisyExamples/libDaisy//src/hid/switch3.h ****             return POS_UP;
 619              		.loc 8 38 9 view .LVU163
 620              	.LBE219:
 621              	.LBE230:
 101:vca_eg.cpp    **** 				board.audio_enable_mux(out_1);
 622              		.loc 9 101 4 is_stmt 1 view .LVU164
 102:vca_eg.cpp    **** 				board.audio_enable_mux(out_2);
 623              		.loc 9 102 5 view .LVU165
 102:vca_eg.cpp    **** 				board.audio_enable_mux(out_2);
 624              		.loc 9 102 27 is_stmt 0 view .LVU166
 625 01a8 0921     		movs	r1, #9
 626 01aa 1148     		ldr	r0, .L27
 627 01ac FFF7FEFF 		bl	_ZN5daisy11daisyCommon16audio_enable_muxEi
 628              	.LVL66:
 103:vca_eg.cpp    **** 				break;
 629              		.loc 9 103 5 is_stmt 1 view .LVU167
 103:vca_eg.cpp    **** 				break;
 630              		.loc 9 103 27 is_stmt 0 view .LVU168
 631 01b0 0A21     		movs	r1, #10
 632 01b2 0F48     		ldr	r0, .L27
 633 01b4 FFF7FEFF 		bl	_ZN5daisy11daisyCommon16audio_enable_muxEi
 634              	.LVL67:
ARM GAS  C:\Users\samue\AppData\Local\Temp\cckmzuMA.s 			page 24


 104:vca_eg.cpp    **** 			case Switch3::POS_CENTER: //envelope output
 635              		.loc 9 104 5 is_stmt 1 view .LVU169
 636 01b8 98E7     		b	.L23
 637              	.LVL68:
 638              	.L18:
 639              	.LBB231:
 640              	.LBB228:
 641              	.LBB224:
 642              	.LBI224:
  36:../../../../DaisyExamples/libDaisy//src/hid/switch3.h ****     {
 643              		.loc 8 36 9 view .LVU170
 644              	.LBB225:
 645              		.loc 8 40 9 view .LVU171
 646              		.loc 8 40 26 is_stmt 0 view .LVU172
 647 01ba 1748     		ldr	r0, .L27+40
 648 01bc FFF7FEFF 		bl	dsy_gpio_read
 649              	.LVL69:
 650              		.loc 8 40 9 view .LVU173
 651 01c0 88B1     		cbz	r0, .L20
 652              	.LVL70:
 653              		.loc 8 40 9 view .LVU174
 654              	.LBE225:
 655              	.LBE224:
 656              	.LBE228:
 657              	.LBE231:
  89:vca_eg.cpp    **** 				env[0].curve = env[0].linear; 
 658              		.loc 9 89 4 is_stmt 1 view .LVU175
  90:vca_eg.cpp    **** 				env[1].curve = env[1].linear; 
 659              		.loc 9 90 5 view .LVU176
  90:vca_eg.cpp    **** 				env[1].curve = env[1].linear; 
 660              		.loc 9 90 18 is_stmt 0 view .LVU177
 661 01c2 0223     		movs	r3, #2
 662 01c4 6363     		str	r3, [r4, #52]
  91:vca_eg.cpp    **** 				break;
 663              		.loc 9 91 5 is_stmt 1 view .LVU178
  91:vca_eg.cpp    **** 				break;
 664              		.loc 9 91 18 is_stmt 0 view .LVU179
 665 01c6 2367     		str	r3, [r4, #112]
  92:vca_eg.cpp    **** 			case Switch3::POS_DOWN: 
 666              		.loc 9 92 5 is_stmt 1 view .LVU180
 667 01c8 E9E7     		b	.L19
 668              	.LVL71:
 669              	.L22:
 670              	.LBB232:
 671              	.LBB220:
 672              	.LBB217:
 673              	.LBB215:
  41:../../../../DaisyExamples/libDaisy//src/hid/switch3.h ****             return POS_DOWN;
 674              		.loc 8 41 13 view .LVU181
 675              		.loc 8 41 13 is_stmt 0 view .LVU182
 676              	.LBE215:
 677              	.LBE217:
 678              	.LBE220:
 679              	.LBE232:
 111:vca_eg.cpp    **** 				board.audio_enable_mux(out_1);
 680              		.loc 9 111 4 is_stmt 1 view .LVU183
 112:vca_eg.cpp    **** 				board.dac_enable_mux(out_2);
ARM GAS  C:\Users\samue\AppData\Local\Temp\cckmzuMA.s 			page 25


 681              		.loc 9 112 5 view .LVU184
 112:vca_eg.cpp    **** 				board.dac_enable_mux(out_2);
 682              		.loc 9 112 27 is_stmt 0 view .LVU185
 683 01ca 0948     		ldr	r0, .L27
 684 01cc FFF7FEFF 		bl	_ZN5daisy11daisyCommon16audio_enable_muxEi
 685              	.LVL72:
 113:vca_eg.cpp    **** 				board.write_dac(env[0].value, out_2);
 686              		.loc 9 113 5 is_stmt 1 view .LVU186
 113:vca_eg.cpp    **** 				board.write_dac(env[0].value, out_2);
 687              		.loc 9 113 25 is_stmt 0 view .LVU187
 688 01d0 0A21     		movs	r1, #10
 689 01d2 0748     		ldr	r0, .L27
 690 01d4 FFF7FEFF 		bl	_ZN5daisy11daisyCommon14dac_enable_muxEi
 691              	.LVL73:
 114:vca_eg.cpp    **** 				break;
 692              		.loc 9 114 5 is_stmt 1 view .LVU188
 114:vca_eg.cpp    **** 				break;
 693              		.loc 9 114 20 is_stmt 0 view .LVU189
 694 01d8 0A21     		movs	r1, #10
 695 01da 94ED0E0A 		vldr.32	s0, [r4, #56]
 696 01de 0448     		ldr	r0, .L27
 697 01e0 FFF7FEFF 		bl	_ZN5daisy11daisyCommon9write_dacEfi
 698              	.LVL74:
 115:vca_eg.cpp    **** 		}
 699              		.loc 9 115 5 is_stmt 1 view .LVU190
 700 01e4 82E7     		b	.L23
 701              	.LVL75:
 702              	.L20:
 703              	.LBB233:
 704              	.LBB229:
 705              	.LBB227:
 706              	.LBB226:
 707              		.loc 8 41 13 view .LVU191
 708              		.loc 8 41 13 is_stmt 0 view .LVU192
 709              	.LBE226:
 710              	.LBE227:
 711              	.LBE229:
 712              	.LBE233:
  93:vca_eg.cpp    **** 				env[0].curve = env[0].logarithmic; 
 713              		.loc 9 93 4 is_stmt 1 view .LVU193
  94:vca_eg.cpp    **** 				env[1].curve = env[1].logarithmic;
 714              		.loc 9 94 5 view .LVU194
  94:vca_eg.cpp    **** 				env[1].curve = env[1].logarithmic;
 715              		.loc 9 94 18 is_stmt 0 view .LVU195
 716 01e6 0323     		movs	r3, #3
 717 01e8 6363     		str	r3, [r4, #52]
  95:vca_eg.cpp    **** 				break;
 718              		.loc 9 95 5 is_stmt 1 view .LVU196
  95:vca_eg.cpp    **** 				break;
 719              		.loc 9 95 18 is_stmt 0 view .LVU197
 720 01ea 2367     		str	r3, [r4, #112]
  96:vca_eg.cpp    **** 		}
 721              		.loc 9 96 5 is_stmt 1 view .LVU198
 722 01ec D7E7     		b	.L19
 723              	.L28:
 724 01ee 00BF     		.align	2
 725              	.L27:
ARM GAS  C:\Users\samue\AppData\Local\Temp\cckmzuMA.s 			page 26


 726 01f0 00000000 		.word	.LANCHOR1
 727 01f4 00000000 		.word	.LANCHOR2
 728 01f8 00000000 		.word	.LANCHOR0
 729 01fc 00000000 		.word	.LANCHOR3
 730 0200 F8000000 		.word	.LANCHOR1+248
 731 0204 00000000 		.word	_Z13AudioCallbackPKPKfPPfj
 732 0208 D0000000 		.word	.LANCHOR1+208
 733 020c 3C000000 		.word	.LANCHOR0+60
 734 0210 D4000000 		.word	.LANCHOR1+212
 735 0214 CC000000 		.word	.LANCHOR1+204
 736 0218 D8000000 		.word	.LANCHOR1+216
 737              	.LBE234:
 738              		.cfi_endproc
 739              	.LFE4694:
 741              		.section	.text.startup._GLOBAL__sub_I_board,"ax",%progbits
 742              		.align	1
 743              		.p2align 2,,3
 744              		.syntax unified
 745              		.thumb
 746              		.thumb_func
 747              		.fpu fpv5-d16
 749              	_GLOBAL__sub_I_board:
 750              	.LFB5258:
 120:vca_eg.cpp    **** 
 121:vca_eg.cpp    **** 
 122:vca_eg.cpp    **** 		
 123:vca_eg.cpp    **** 	}
 124:vca_eg.cpp    **** }
 751              		.loc 9 124 1 view -0
 752              		.cfi_startproc
 753              		@ args = 0, pretend = 0, frame = 0
 754              		@ frame_needed = 0, uses_anonymous_args = 0
 755              	.LBB350:
 756              	.LBI350:
 757              		.loc 9 124 1 view .LVU200
 758              	.LVL76:
 759              	.LBB351:
 760              	.LBB352:
 761              	.LBI352:
  19:daisy_common.h ****     ~daisyCommon() {}
 762              		.loc 1 19 5 view .LVU201
 763              	.LBB353:
 764              	.LBB354:
 765              	.LBB355:
 766              	.LBI355:
 767              		.file 10 "../../../../DaisyExamples/libDaisy//src/per/gpio.h"
   1:../../../../DaisyExamples/libDaisy//src/per/gpio.h **** #pragma once
   2:../../../../DaisyExamples/libDaisy//src/per/gpio.h **** #ifndef DSY_GPIO_H
   3:../../../../DaisyExamples/libDaisy//src/per/gpio.h **** #define DSY_GPIO_H
   4:../../../../DaisyExamples/libDaisy//src/per/gpio.h **** #include "daisy_core.h"
   5:../../../../DaisyExamples/libDaisy//src/per/gpio.h **** 
   6:../../../../DaisyExamples/libDaisy//src/per/gpio.h **** #ifdef __cplusplus
   7:../../../../DaisyExamples/libDaisy//src/per/gpio.h **** 
   8:../../../../DaisyExamples/libDaisy//src/per/gpio.h **** namespace daisy
   9:../../../../DaisyExamples/libDaisy//src/per/gpio.h **** {
  10:../../../../DaisyExamples/libDaisy//src/per/gpio.h **** /** @brief General Purpose I/O control 
  11:../../../../DaisyExamples/libDaisy//src/per/gpio.h ****  *  @details peripheral control over a single GPIO
ARM GAS  C:\Users\samue\AppData\Local\Temp\cckmzuMA.s 			page 27


  12:../../../../DaisyExamples/libDaisy//src/per/gpio.h ****  *  @ingroup peripheral
  13:../../../../DaisyExamples/libDaisy//src/per/gpio.h ****  *   
  14:../../../../DaisyExamples/libDaisy//src/per/gpio.h ****  *  Button Input (with internal Pullup resistor)
  15:../../../../DaisyExamples/libDaisy//src/per/gpio.h ****  *  @include GPIO_Input.cpp 
  16:../../../../DaisyExamples/libDaisy//src/per/gpio.h ****  * 
  17:../../../../DaisyExamples/libDaisy//src/per/gpio.h ****  *  Output Example (perfect for blinking an LED)
  18:../../../../DaisyExamples/libDaisy//src/per/gpio.h ****  *  @include GPIO_Output.cpp
  19:../../../../DaisyExamples/libDaisy//src/per/gpio.h ****  * 
  20:../../../../DaisyExamples/libDaisy//src/per/gpio.h **** */
  21:../../../../DaisyExamples/libDaisy//src/per/gpio.h **** class GPIO
  22:../../../../DaisyExamples/libDaisy//src/per/gpio.h **** {
  23:../../../../DaisyExamples/libDaisy//src/per/gpio.h ****   public:
  24:../../../../DaisyExamples/libDaisy//src/per/gpio.h ****     /** @brief Mode of operation for the specified GPIO */
  25:../../../../DaisyExamples/libDaisy//src/per/gpio.h ****     enum class Mode
  26:../../../../DaisyExamples/libDaisy//src/per/gpio.h ****     {
  27:../../../../DaisyExamples/libDaisy//src/per/gpio.h ****         INPUT,     /**< Input for reading state of pin */
  28:../../../../DaisyExamples/libDaisy//src/per/gpio.h ****         OUTPUT,    /**< Output w/ push-pull configuration */
  29:../../../../DaisyExamples/libDaisy//src/per/gpio.h ****         OUTPUT_OD, /**< Output w/ open-drain configuration */
  30:../../../../DaisyExamples/libDaisy//src/per/gpio.h ****         ANALOG,    /**< Analog for connection to ADC or DAC peripheral */
  31:../../../../DaisyExamples/libDaisy//src/per/gpio.h ****     };
  32:../../../../DaisyExamples/libDaisy//src/per/gpio.h **** 
  33:../../../../DaisyExamples/libDaisy//src/per/gpio.h ****     /** @brief Configures whether an internal Pull up or Pull down resistor is used. 
  34:../../../../DaisyExamples/libDaisy//src/per/gpio.h ****      *  
  35:../../../../DaisyExamples/libDaisy//src/per/gpio.h ****      * Internal Pull up/down resistors are typically 40k ohms, and will be between
  36:../../../../DaisyExamples/libDaisy//src/per/gpio.h ****      * 30k and 50k
  37:../../../../DaisyExamples/libDaisy//src/per/gpio.h ****      * 
  38:../../../../DaisyExamples/libDaisy//src/per/gpio.h ****      * When the Pin is configured in Analog mode, the pull up/down resistors are
  39:../../../../DaisyExamples/libDaisy//src/per/gpio.h ****      * disabled by hardware. 
  40:../../../../DaisyExamples/libDaisy//src/per/gpio.h ****      */
  41:../../../../DaisyExamples/libDaisy//src/per/gpio.h ****     enum class Pull
  42:../../../../DaisyExamples/libDaisy//src/per/gpio.h ****     {
  43:../../../../DaisyExamples/libDaisy//src/per/gpio.h ****         NOPULL,   /**< No pull up resistor */
  44:../../../../DaisyExamples/libDaisy//src/per/gpio.h ****         PULLUP,   /**< Internal pull up enabled */
  45:../../../../DaisyExamples/libDaisy//src/per/gpio.h ****         PULLDOWN, /**< Internal pull down enabled*/
  46:../../../../DaisyExamples/libDaisy//src/per/gpio.h ****     };
  47:../../../../DaisyExamples/libDaisy//src/per/gpio.h **** 
  48:../../../../DaisyExamples/libDaisy//src/per/gpio.h ****     /** @brief Output speed controls the drive strength, and slew rate of the pin */
  49:../../../../DaisyExamples/libDaisy//src/per/gpio.h ****     enum class Speed
  50:../../../../DaisyExamples/libDaisy//src/per/gpio.h ****     {
  51:../../../../DaisyExamples/libDaisy//src/per/gpio.h ****         LOW,
  52:../../../../DaisyExamples/libDaisy//src/per/gpio.h ****         MEDIUM,
  53:../../../../DaisyExamples/libDaisy//src/per/gpio.h ****         HIGH,
  54:../../../../DaisyExamples/libDaisy//src/per/gpio.h ****         VERY_HIGH,
  55:../../../../DaisyExamples/libDaisy//src/per/gpio.h ****     };
  56:../../../../DaisyExamples/libDaisy//src/per/gpio.h **** 
  57:../../../../DaisyExamples/libDaisy//src/per/gpio.h ****     /** @brief Configuration for a given GPIO */
  58:../../../../DaisyExamples/libDaisy//src/per/gpio.h ****     struct Config
  59:../../../../DaisyExamples/libDaisy//src/per/gpio.h ****     {
  60:../../../../DaisyExamples/libDaisy//src/per/gpio.h ****         Pin   pin;
  61:../../../../DaisyExamples/libDaisy//src/per/gpio.h ****         Mode  mode;
  62:../../../../DaisyExamples/libDaisy//src/per/gpio.h ****         Pull  pull;
  63:../../../../DaisyExamples/libDaisy//src/per/gpio.h ****         Speed speed;
  64:../../../../DaisyExamples/libDaisy//src/per/gpio.h **** 
  65:../../../../DaisyExamples/libDaisy//src/per/gpio.h ****         /** Constructor with no arguments will prepare an invalid GPIO set as
  66:../../../../DaisyExamples/libDaisy//src/per/gpio.h ****          *  an input, with no pullup. 
  67:../../../../DaisyExamples/libDaisy//src/per/gpio.h ****          */
  68:../../../../DaisyExamples/libDaisy//src/per/gpio.h ****         Config()
ARM GAS  C:\Users\samue\AppData\Local\Temp\cckmzuMA.s 			page 28


  69:../../../../DaisyExamples/libDaisy//src/per/gpio.h ****         : pin(), mode(Mode::INPUT), pull(Pull::NOPULL), speed(Speed::LOW)
  70:../../../../DaisyExamples/libDaisy//src/per/gpio.h ****         {
  71:../../../../DaisyExamples/libDaisy//src/per/gpio.h ****         }
  72:../../../../DaisyExamples/libDaisy//src/per/gpio.h ****     };
  73:../../../../DaisyExamples/libDaisy//src/per/gpio.h **** 
  74:../../../../DaisyExamples/libDaisy//src/per/gpio.h ****     GPIO() {}
 768              		.loc 10 74 5 view .LVU202
 769              	.LBB356:
 770              	.LBB357:
 771              	.LBI357:
  68:../../../../DaisyExamples/libDaisy//src/per/gpio.h ****         : pin(), mode(Mode::INPUT), pull(Pull::NOPULL), speed(Speed::LOW)
 772              		.loc 10 68 9 view .LVU203
 773              	.LBB358:
 774              	.LBB359:
 775              	.LBB360:
 776              	.LBI360:
 777              		.file 11 "../../../../DaisyExamples/libDaisy//src/daisy_core.h"
   1:../../../../DaisyExamples/libDaisy//src/daisy_core.h **** #pragma once
   2:../../../../DaisyExamples/libDaisy//src/daisy_core.h **** #ifndef DSY_CORE_HW_H
   3:../../../../DaisyExamples/libDaisy//src/daisy_core.h **** #define DSY_CORE_HW_H /**< & */
   4:../../../../DaisyExamples/libDaisy//src/daisy_core.h **** #include <stdint.h>
   5:../../../../DaisyExamples/libDaisy//src/daisy_core.h **** #include <stdlib.h>
   6:../../../../DaisyExamples/libDaisy//src/daisy_core.h **** 
   7:../../../../DaisyExamples/libDaisy//src/daisy_core.h **** #if defined(_MSC_VER)
   8:../../../../DaisyExamples/libDaisy//src/daisy_core.h **** #define FORCE_INLINE __forceinline /**< & */
   9:../../../../DaisyExamples/libDaisy//src/daisy_core.h **** #elif defined(__clang__)
  10:../../../../DaisyExamples/libDaisy//src/daisy_core.h **** #define FORCE_INLINE inline __attribute__((always_inline)) /**< & */
  11:../../../../DaisyExamples/libDaisy//src/daisy_core.h **** #pragma clang diagnostic ignored "-Wduplicate-decl-specifier"
  12:../../../../DaisyExamples/libDaisy//src/daisy_core.h **** #elif defined(__GNUC__)
  13:../../../../DaisyExamples/libDaisy//src/daisy_core.h **** #define FORCE_INLINE inline __attribute__((always_inline)) /**< & */
  14:../../../../DaisyExamples/libDaisy//src/daisy_core.h **** #else
  15:../../../../DaisyExamples/libDaisy//src/daisy_core.h **** #error unknown compiler
  16:../../../../DaisyExamples/libDaisy//src/daisy_core.h **** #endif
  17:../../../../DaisyExamples/libDaisy//src/daisy_core.h **** 
  18:../../../../DaisyExamples/libDaisy//src/daisy_core.h **** /** @addtogroup utility
  19:../../../../DaisyExamples/libDaisy//src/daisy_core.h ****     @{
  20:../../../../DaisyExamples/libDaisy//src/daisy_core.h **** */
  21:../../../../DaisyExamples/libDaisy//src/daisy_core.h **** 
  22:../../../../DaisyExamples/libDaisy//src/daisy_core.h **** /** Macro for area of memory that is configured as cacheless
  23:../../../../DaisyExamples/libDaisy//src/daisy_core.h **** This should be used primarily for DMA buffers, and the like.
  24:../../../../DaisyExamples/libDaisy//src/daisy_core.h **** */
  25:../../../../DaisyExamples/libDaisy//src/daisy_core.h **** #define DMA_BUFFER_MEM_SECTION __attribute__((section(".sram1_bss")))
  26:../../../../DaisyExamples/libDaisy//src/daisy_core.h **** /** 
  27:../../../../DaisyExamples/libDaisy//src/daisy_core.h **** THE DTCM RAM section is also non-cached. However, is not suitable 
  28:../../../../DaisyExamples/libDaisy//src/daisy_core.h **** for DMA transfers. Performance is on par with internal SRAM w/ 
  29:../../../../DaisyExamples/libDaisy//src/daisy_core.h **** cache enabled.
  30:../../../../DaisyExamples/libDaisy//src/daisy_core.h **** */
  31:../../../../DaisyExamples/libDaisy//src/daisy_core.h **** #define DTCM_MEM_SECTION __attribute__((section(".dtcmram_bss")))
  32:../../../../DaisyExamples/libDaisy//src/daisy_core.h **** 
  33:../../../../DaisyExamples/libDaisy//src/daisy_core.h **** #define FBIPMAX 0.999985f             /**< close to 1.0f-LSB at 16 bit */
  34:../../../../DaisyExamples/libDaisy//src/daisy_core.h **** #define FBIPMIN (-FBIPMAX)            /**< - (1 - LSB) */
  35:../../../../DaisyExamples/libDaisy//src/daisy_core.h **** #define U82F_SCALE 0.0078740f         /**< 1 / 127 */
  36:../../../../DaisyExamples/libDaisy//src/daisy_core.h **** #define F2U8_SCALE 127.0f             /**< 128 - 1 */
  37:../../../../DaisyExamples/libDaisy//src/daisy_core.h **** #define S82F_SCALE 0.0078125f         /**< 1 / (2**7) */
  38:../../../../DaisyExamples/libDaisy//src/daisy_core.h **** #define F2S8_SCALE 127.0f             /**< (2 ** 7) - 1 */
  39:../../../../DaisyExamples/libDaisy//src/daisy_core.h **** #define S162F_SCALE 3.0517578125e-05f /**< 1 / (2** 15) */
  40:../../../../DaisyExamples/libDaisy//src/daisy_core.h **** #define F2S16_SCALE 32767.0f          /**< (2 ** 15) - 1 */
ARM GAS  C:\Users\samue\AppData\Local\Temp\cckmzuMA.s 			page 29


  41:../../../../DaisyExamples/libDaisy//src/daisy_core.h **** #define F2S24_SCALE 8388608.0f        /**< 2 ** 23 */
  42:../../../../DaisyExamples/libDaisy//src/daisy_core.h **** #define S242F_SCALE 1.192092896e-07f  /**< 1 / (2 ** 23) */
  43:../../../../DaisyExamples/libDaisy//src/daisy_core.h **** #define S24SIGN 0x800000              /**< 2 ** 23 */
  44:../../../../DaisyExamples/libDaisy//src/daisy_core.h **** #define S322F_SCALE 4.6566129e-10f    /**< 1 / (2** 31) */
  45:../../../../DaisyExamples/libDaisy//src/daisy_core.h **** #define F2S32_SCALE 2147483647.f      /**< (2 ** 31) - 1 */
  46:../../../../DaisyExamples/libDaisy//src/daisy_core.h **** 
  47:../../../../DaisyExamples/libDaisy//src/daisy_core.h **** 
  48:../../../../DaisyExamples/libDaisy//src/daisy_core.h **** /** shorthand macro for simplifying the reading of the left 
  49:../../../../DaisyExamples/libDaisy//src/daisy_core.h ****  *  channel of a non-interleaved output buffer named out */
  50:../../../../DaisyExamples/libDaisy//src/daisy_core.h **** #define OUT_L out[0]
  51:../../../../DaisyExamples/libDaisy//src/daisy_core.h **** 
  52:../../../../DaisyExamples/libDaisy//src/daisy_core.h **** /** shorthand macro for simplifying the reading of the right 
  53:../../../../DaisyExamples/libDaisy//src/daisy_core.h ****  *  channel of a non-interleaved output buffer named out */
  54:../../../../DaisyExamples/libDaisy//src/daisy_core.h **** #define OUT_R out[1]
  55:../../../../DaisyExamples/libDaisy//src/daisy_core.h **** 
  56:../../../../DaisyExamples/libDaisy//src/daisy_core.h **** /** shorthand macro for simplifying the reading of the left 
  57:../../../../DaisyExamples/libDaisy//src/daisy_core.h ****  *  channel of a non-interleaved input buffer named in */
  58:../../../../DaisyExamples/libDaisy//src/daisy_core.h **** #define IN_L in[0]
  59:../../../../DaisyExamples/libDaisy//src/daisy_core.h **** 
  60:../../../../DaisyExamples/libDaisy//src/daisy_core.h **** /** shorthand macro for simplifying the reading of the right 
  61:../../../../DaisyExamples/libDaisy//src/daisy_core.h ****  *  channel of a non-interleaved input buffer named in */
  62:../../../../DaisyExamples/libDaisy//src/daisy_core.h **** #define IN_R in[1]
  63:../../../../DaisyExamples/libDaisy//src/daisy_core.h **** 
  64:../../../../DaisyExamples/libDaisy//src/daisy_core.h **** /** 
  65:../../../../DaisyExamples/libDaisy//src/daisy_core.h ****     Computes cube.
  66:../../../../DaisyExamples/libDaisy//src/daisy_core.h ****     \param x Number to be cubed
  67:../../../../DaisyExamples/libDaisy//src/daisy_core.h ****     \return x ^ 3
  68:../../../../DaisyExamples/libDaisy//src/daisy_core.h **** */
  69:../../../../DaisyExamples/libDaisy//src/daisy_core.h **** FORCE_INLINE float cube(float x)
  70:../../../../DaisyExamples/libDaisy//src/daisy_core.h **** {
  71:../../../../DaisyExamples/libDaisy//src/daisy_core.h ****     return (x * x) * x;
  72:../../../../DaisyExamples/libDaisy//src/daisy_core.h **** }
  73:../../../../DaisyExamples/libDaisy//src/daisy_core.h **** 
  74:../../../../DaisyExamples/libDaisy//src/daisy_core.h **** /** 
  75:../../../../DaisyExamples/libDaisy//src/daisy_core.h ****     Converts unsigned 8-bit to float
  76:../../../../DaisyExamples/libDaisy//src/daisy_core.h ****     \param x Number to be scaled.
  77:../../../../DaisyExamples/libDaisy//src/daisy_core.h ****     \return Scaled number.
  78:../../../../DaisyExamples/libDaisy//src/daisy_core.h **** */
  79:../../../../DaisyExamples/libDaisy//src/daisy_core.h **** FORCE_INLINE float u82f(uint8_t x)
  80:../../../../DaisyExamples/libDaisy//src/daisy_core.h **** {
  81:../../../../DaisyExamples/libDaisy//src/daisy_core.h ****     return ((float)x - 127.f) * U82F_SCALE;
  82:../../../../DaisyExamples/libDaisy//src/daisy_core.h **** }
  83:../../../../DaisyExamples/libDaisy//src/daisy_core.h **** 
  84:../../../../DaisyExamples/libDaisy//src/daisy_core.h **** /**
  85:../../../../DaisyExamples/libDaisy//src/daisy_core.h ****     Converts float to unsigned 8-bit
  86:../../../../DaisyExamples/libDaisy//src/daisy_core.h **** */
  87:../../../../DaisyExamples/libDaisy//src/daisy_core.h **** FORCE_INLINE uint8_t f2u8(float x)
  88:../../../../DaisyExamples/libDaisy//src/daisy_core.h **** {
  89:../../../../DaisyExamples/libDaisy//src/daisy_core.h ****     x = x <= FBIPMIN ? FBIPMIN : x;
  90:../../../../DaisyExamples/libDaisy//src/daisy_core.h ****     x = x >= FBIPMAX ? FBIPMAX : x;
  91:../../../../DaisyExamples/libDaisy//src/daisy_core.h ****     return (uint8_t)((x * F2U8_SCALE) + F2U8_SCALE);
  92:../../../../DaisyExamples/libDaisy//src/daisy_core.h **** }
  93:../../../../DaisyExamples/libDaisy//src/daisy_core.h **** 
  94:../../../../DaisyExamples/libDaisy//src/daisy_core.h **** 
  95:../../../../DaisyExamples/libDaisy//src/daisy_core.h **** /** 
  96:../../../../DaisyExamples/libDaisy//src/daisy_core.h ****     Converts Signed 8-bit to float
  97:../../../../DaisyExamples/libDaisy//src/daisy_core.h ****     \param x Number to be scaled.
ARM GAS  C:\Users\samue\AppData\Local\Temp\cckmzuMA.s 			page 30


  98:../../../../DaisyExamples/libDaisy//src/daisy_core.h ****     \return Scaled number.
  99:../../../../DaisyExamples/libDaisy//src/daisy_core.h **** */
 100:../../../../DaisyExamples/libDaisy//src/daisy_core.h **** FORCE_INLINE float s82f(int8_t x)
 101:../../../../DaisyExamples/libDaisy//src/daisy_core.h **** {
 102:../../../../DaisyExamples/libDaisy//src/daisy_core.h ****     return (float)x * S82F_SCALE;
 103:../../../../DaisyExamples/libDaisy//src/daisy_core.h **** }
 104:../../../../DaisyExamples/libDaisy//src/daisy_core.h **** 
 105:../../../../DaisyExamples/libDaisy//src/daisy_core.h **** /**
 106:../../../../DaisyExamples/libDaisy//src/daisy_core.h ****     Converts float to Signed 8-bit
 107:../../../../DaisyExamples/libDaisy//src/daisy_core.h **** */
 108:../../../../DaisyExamples/libDaisy//src/daisy_core.h **** FORCE_INLINE int8_t f2s8(float x)
 109:../../../../DaisyExamples/libDaisy//src/daisy_core.h **** {
 110:../../../../DaisyExamples/libDaisy//src/daisy_core.h ****     x = x <= FBIPMIN ? FBIPMIN : x;
 111:../../../../DaisyExamples/libDaisy//src/daisy_core.h ****     x = x >= FBIPMAX ? FBIPMAX : x;
 112:../../../../DaisyExamples/libDaisy//src/daisy_core.h ****     return (int32_t)(x * F2S8_SCALE);
 113:../../../../DaisyExamples/libDaisy//src/daisy_core.h **** }
 114:../../../../DaisyExamples/libDaisy//src/daisy_core.h **** 
 115:../../../../DaisyExamples/libDaisy//src/daisy_core.h **** /** 
 116:../../../../DaisyExamples/libDaisy//src/daisy_core.h ****     Converts Signed 16-bit to float
 117:../../../../DaisyExamples/libDaisy//src/daisy_core.h ****     \param x Number to be scaled.
 118:../../../../DaisyExamples/libDaisy//src/daisy_core.h ****     \return Scaled number.
 119:../../../../DaisyExamples/libDaisy//src/daisy_core.h **** */
 120:../../../../DaisyExamples/libDaisy//src/daisy_core.h **** FORCE_INLINE float s162f(int16_t x)
 121:../../../../DaisyExamples/libDaisy//src/daisy_core.h **** {
 122:../../../../DaisyExamples/libDaisy//src/daisy_core.h ****     return (float)x * S162F_SCALE;
 123:../../../../DaisyExamples/libDaisy//src/daisy_core.h **** }
 124:../../../../DaisyExamples/libDaisy//src/daisy_core.h **** 
 125:../../../../DaisyExamples/libDaisy//src/daisy_core.h **** /**
 126:../../../../DaisyExamples/libDaisy//src/daisy_core.h ****     Converts float to Signed 16-bit
 127:../../../../DaisyExamples/libDaisy//src/daisy_core.h **** */
 128:../../../../DaisyExamples/libDaisy//src/daisy_core.h **** FORCE_INLINE int16_t f2s16(float x)
 129:../../../../DaisyExamples/libDaisy//src/daisy_core.h **** {
 130:../../../../DaisyExamples/libDaisy//src/daisy_core.h ****     x = x <= FBIPMIN ? FBIPMIN : x;
 131:../../../../DaisyExamples/libDaisy//src/daisy_core.h ****     x = x >= FBIPMAX ? FBIPMAX : x;
 132:../../../../DaisyExamples/libDaisy//src/daisy_core.h ****     return (int32_t)(x * F2S16_SCALE);
 133:../../../../DaisyExamples/libDaisy//src/daisy_core.h **** }
 134:../../../../DaisyExamples/libDaisy//src/daisy_core.h **** 
 135:../../../../DaisyExamples/libDaisy//src/daisy_core.h **** /**
 136:../../../../DaisyExamples/libDaisy//src/daisy_core.h ****     Converts Signed 24-bit to float
 137:../../../../DaisyExamples/libDaisy//src/daisy_core.h ****  */
 138:../../../../DaisyExamples/libDaisy//src/daisy_core.h **** FORCE_INLINE float s242f(int32_t x)
 139:../../../../DaisyExamples/libDaisy//src/daisy_core.h **** {
 140:../../../../DaisyExamples/libDaisy//src/daisy_core.h ****     x = (x ^ S24SIGN) - S24SIGN; //sign extend aka ((x<<8)>>8)
 141:../../../../DaisyExamples/libDaisy//src/daisy_core.h ****     return (float)x * S242F_SCALE;
 142:../../../../DaisyExamples/libDaisy//src/daisy_core.h **** }
 143:../../../../DaisyExamples/libDaisy//src/daisy_core.h **** /**
 144:../../../../DaisyExamples/libDaisy//src/daisy_core.h ****     Converts float to Signed 24-bit
 145:../../../../DaisyExamples/libDaisy//src/daisy_core.h ****  */
 146:../../../../DaisyExamples/libDaisy//src/daisy_core.h **** FORCE_INLINE int32_t f2s24(float x)
 147:../../../../DaisyExamples/libDaisy//src/daisy_core.h **** {
 148:../../../../DaisyExamples/libDaisy//src/daisy_core.h ****     x = x <= FBIPMIN ? FBIPMIN : x;
 149:../../../../DaisyExamples/libDaisy//src/daisy_core.h ****     x = x >= FBIPMAX ? FBIPMAX : x;
 150:../../../../DaisyExamples/libDaisy//src/daisy_core.h ****     return (int32_t)(x * F2S24_SCALE);
 151:../../../../DaisyExamples/libDaisy//src/daisy_core.h **** }
 152:../../../../DaisyExamples/libDaisy//src/daisy_core.h **** 
 153:../../../../DaisyExamples/libDaisy//src/daisy_core.h **** /**
 154:../../../../DaisyExamples/libDaisy//src/daisy_core.h ****     Converts Signed 32-bit to float
ARM GAS  C:\Users\samue\AppData\Local\Temp\cckmzuMA.s 			page 31


 155:../../../../DaisyExamples/libDaisy//src/daisy_core.h ****  */
 156:../../../../DaisyExamples/libDaisy//src/daisy_core.h **** FORCE_INLINE float s322f(int32_t x)
 157:../../../../DaisyExamples/libDaisy//src/daisy_core.h **** {
 158:../../../../DaisyExamples/libDaisy//src/daisy_core.h ****     return (float)x * S322F_SCALE;
 159:../../../../DaisyExamples/libDaisy//src/daisy_core.h **** }
 160:../../../../DaisyExamples/libDaisy//src/daisy_core.h **** /**
 161:../../../../DaisyExamples/libDaisy//src/daisy_core.h ****     Converts float to Signed 24-bit
 162:../../../../DaisyExamples/libDaisy//src/daisy_core.h ****  */
 163:../../../../DaisyExamples/libDaisy//src/daisy_core.h **** FORCE_INLINE int32_t f2s32(float x)
 164:../../../../DaisyExamples/libDaisy//src/daisy_core.h **** {
 165:../../../../DaisyExamples/libDaisy//src/daisy_core.h ****     x = x <= FBIPMIN ? FBIPMIN : x;
 166:../../../../DaisyExamples/libDaisy//src/daisy_core.h ****     x = x >= FBIPMAX ? FBIPMAX : x;
 167:../../../../DaisyExamples/libDaisy//src/daisy_core.h ****     return (int32_t)(x * F2S32_SCALE);
 168:../../../../DaisyExamples/libDaisy//src/daisy_core.h **** }
 169:../../../../DaisyExamples/libDaisy//src/daisy_core.h **** 
 170:../../../../DaisyExamples/libDaisy//src/daisy_core.h **** 
 171:../../../../DaisyExamples/libDaisy//src/daisy_core.h **** /** Enums and a simple struct for defining a hardware pin on the MCU
 172:../../../../DaisyExamples/libDaisy//src/daisy_core.h ****  *  These correlate with the stm32 datasheet, and are used to configure
 173:../../../../DaisyExamples/libDaisy//src/daisy_core.h ****  *  the hardware.
 174:../../../../DaisyExamples/libDaisy//src/daisy_core.h ****  * 
 175:../../../../DaisyExamples/libDaisy//src/daisy_core.h ****  *  This along with the dsy_gpio_pin class should no longer be used.
 176:../../../../DaisyExamples/libDaisy//src/daisy_core.h ****  *  They are available for backwards compatability. 
 177:../../../../DaisyExamples/libDaisy//src/daisy_core.h ****  * 
 178:../../../../DaisyExamples/libDaisy//src/daisy_core.h ****  *  Please use GPIOPort enum and the Pin struct instead.
 179:../../../../DaisyExamples/libDaisy//src/daisy_core.h ****  */
 180:../../../../DaisyExamples/libDaisy//src/daisy_core.h **** typedef enum
 181:../../../../DaisyExamples/libDaisy//src/daisy_core.h **** {
 182:../../../../DaisyExamples/libDaisy//src/daisy_core.h ****     DSY_GPIOA, /**< & */
 183:../../../../DaisyExamples/libDaisy//src/daisy_core.h ****     DSY_GPIOB, /**< & */
 184:../../../../DaisyExamples/libDaisy//src/daisy_core.h ****     DSY_GPIOC, /**< & */
 185:../../../../DaisyExamples/libDaisy//src/daisy_core.h ****     DSY_GPIOD, /**< & */
 186:../../../../DaisyExamples/libDaisy//src/daisy_core.h ****     DSY_GPIOE, /**< & */
 187:../../../../DaisyExamples/libDaisy//src/daisy_core.h ****     DSY_GPIOF, /**< & */
 188:../../../../DaisyExamples/libDaisy//src/daisy_core.h ****     DSY_GPIOG, /**< & */
 189:../../../../DaisyExamples/libDaisy//src/daisy_core.h ****     DSY_GPIOH, /**< & */
 190:../../../../DaisyExamples/libDaisy//src/daisy_core.h ****     DSY_GPIOI, /**< & */
 191:../../../../DaisyExamples/libDaisy//src/daisy_core.h ****     DSY_GPIOJ, /**< & */
 192:../../../../DaisyExamples/libDaisy//src/daisy_core.h ****     DSY_GPIOK, /**< & */
 193:../../../../DaisyExamples/libDaisy//src/daisy_core.h ****     DSY_GPIOX, /** This is a non-existant port for unsupported bits of hardware. */
 194:../../../../DaisyExamples/libDaisy//src/daisy_core.h ****     DSY_GPIO_LAST, /** Final enum member */
 195:../../../../DaisyExamples/libDaisy//src/daisy_core.h **** } dsy_gpio_port;
 196:../../../../DaisyExamples/libDaisy//src/daisy_core.h **** 
 197:../../../../DaisyExamples/libDaisy//src/daisy_core.h **** /** Hardware define pins 
 198:../../../../DaisyExamples/libDaisy//src/daisy_core.h ****  *  
 199:../../../../DaisyExamples/libDaisy//src/daisy_core.h ****  *  The dsy_gpio_pin struct should no longer be used, and is only available for
 200:../../../../DaisyExamples/libDaisy//src/daisy_core.h ****  *  backwards compatability.
 201:../../../../DaisyExamples/libDaisy//src/daisy_core.h ****  * 
 202:../../../../DaisyExamples/libDaisy//src/daisy_core.h ****  *  Please use Pin struct instead.
 203:../../../../DaisyExamples/libDaisy//src/daisy_core.h ****  */
 204:../../../../DaisyExamples/libDaisy//src/daisy_core.h **** typedef struct
 205:../../../../DaisyExamples/libDaisy//src/daisy_core.h **** {
 206:../../../../DaisyExamples/libDaisy//src/daisy_core.h ****     dsy_gpio_port port; /**< & */
 207:../../../../DaisyExamples/libDaisy//src/daisy_core.h ****     uint8_t       pin;  /**< number 0-15 */
 208:../../../../DaisyExamples/libDaisy//src/daisy_core.h **** } dsy_gpio_pin;
 209:../../../../DaisyExamples/libDaisy//src/daisy_core.h **** 
 210:../../../../DaisyExamples/libDaisy//src/daisy_core.h **** /** Helper for creating pins from port/pin combos easily
 211:../../../../DaisyExamples/libDaisy//src/daisy_core.h ****  * 
ARM GAS  C:\Users\samue\AppData\Local\Temp\cckmzuMA.s 			page 32


 212:../../../../DaisyExamples/libDaisy//src/daisy_core.h ****  *  The dsy_gpio_pin struct should no longer be used, and is only available for
 213:../../../../DaisyExamples/libDaisy//src/daisy_core.h ****  *  backwards compatability.
 214:../../../../DaisyExamples/libDaisy//src/daisy_core.h ****  * 
 215:../../../../DaisyExamples/libDaisy//src/daisy_core.h ****  *  Please use Pin struct instead.
 216:../../../../DaisyExamples/libDaisy//src/daisy_core.h **** */
 217:../../../../DaisyExamples/libDaisy//src/daisy_core.h **** FORCE_INLINE dsy_gpio_pin dsy_pin(dsy_gpio_port port, uint8_t pin)
 218:../../../../DaisyExamples/libDaisy//src/daisy_core.h **** {
 219:../../../../DaisyExamples/libDaisy//src/daisy_core.h ****     dsy_gpio_pin p;
 220:../../../../DaisyExamples/libDaisy//src/daisy_core.h ****     p.port = port;
 221:../../../../DaisyExamples/libDaisy//src/daisy_core.h ****     p.pin  = pin;
 222:../../../../DaisyExamples/libDaisy//src/daisy_core.h ****     return p;
 223:../../../../DaisyExamples/libDaisy//src/daisy_core.h **** }
 224:../../../../DaisyExamples/libDaisy//src/daisy_core.h **** 
 225:../../../../DaisyExamples/libDaisy//src/daisy_core.h **** /** Helper for testing sameness of two dsy_gpio_pins
 226:../../../../DaisyExamples/libDaisy//src/daisy_core.h ****  *  \return    1 if same, 0 if different
 227:../../../../DaisyExamples/libDaisy//src/daisy_core.h ****  * 
 228:../../../../DaisyExamples/libDaisy//src/daisy_core.h ****  *  The dsy_gpio_pin struct should no longer be used, and is only available for
 229:../../../../DaisyExamples/libDaisy//src/daisy_core.h ****  *  backwards compatability.
 230:../../../../DaisyExamples/libDaisy//src/daisy_core.h ****  * 
 231:../../../../DaisyExamples/libDaisy//src/daisy_core.h ****  *  Please use Pin struct instead.
 232:../../../../DaisyExamples/libDaisy//src/daisy_core.h ****  */
 233:../../../../DaisyExamples/libDaisy//src/daisy_core.h **** FORCE_INLINE uint8_t dsy_pin_cmp(dsy_gpio_pin *a, dsy_gpio_pin *b)
 234:../../../../DaisyExamples/libDaisy//src/daisy_core.h **** {
 235:../../../../DaisyExamples/libDaisy//src/daisy_core.h ****     return ((a->port == b->port) && (a->pin == b->pin));
 236:../../../../DaisyExamples/libDaisy//src/daisy_core.h **** }
 237:../../../../DaisyExamples/libDaisy//src/daisy_core.h **** 
 238:../../../../DaisyExamples/libDaisy//src/daisy_core.h **** #ifdef __cplusplus
 239:../../../../DaisyExamples/libDaisy//src/daisy_core.h **** 
 240:../../../../DaisyExamples/libDaisy//src/daisy_core.h **** namespace daisy
 241:../../../../DaisyExamples/libDaisy//src/daisy_core.h **** {
 242:../../../../DaisyExamples/libDaisy//src/daisy_core.h **** /** @brief GPIO Port names */
 243:../../../../DaisyExamples/libDaisy//src/daisy_core.h **** enum GPIOPort
 244:../../../../DaisyExamples/libDaisy//src/daisy_core.h **** {
 245:../../../../DaisyExamples/libDaisy//src/daisy_core.h ****     PORTA, /**< Port A */
 246:../../../../DaisyExamples/libDaisy//src/daisy_core.h ****     PORTB, /**< Port B */
 247:../../../../DaisyExamples/libDaisy//src/daisy_core.h ****     PORTC, /**< Port C */
 248:../../../../DaisyExamples/libDaisy//src/daisy_core.h ****     PORTD, /**< Port D */
 249:../../../../DaisyExamples/libDaisy//src/daisy_core.h ****     PORTE, /**< Port E */
 250:../../../../DaisyExamples/libDaisy//src/daisy_core.h ****     PORTF, /**< Port F */
 251:../../../../DaisyExamples/libDaisy//src/daisy_core.h ****     PORTG, /**< Port G */
 252:../../../../DaisyExamples/libDaisy//src/daisy_core.h ****     PORTH, /**< Port H */
 253:../../../../DaisyExamples/libDaisy//src/daisy_core.h ****     PORTI, /**< Port I */
 254:../../../../DaisyExamples/libDaisy//src/daisy_core.h ****     PORTJ, /**< Port J */
 255:../../../../DaisyExamples/libDaisy//src/daisy_core.h ****     PORTK, /**< Port K */
 256:../../../../DaisyExamples/libDaisy//src/daisy_core.h ****     PORTX, /**< Used as a dummy port to signal an invalid pin. */
 257:../../../../DaisyExamples/libDaisy//src/daisy_core.h **** };
 258:../../../../DaisyExamples/libDaisy//src/daisy_core.h **** 
 259:../../../../DaisyExamples/libDaisy//src/daisy_core.h **** /** @brief representation of hardware port/pin combination */
 260:../../../../DaisyExamples/libDaisy//src/daisy_core.h **** struct Pin
 261:../../../../DaisyExamples/libDaisy//src/daisy_core.h **** {
 262:../../../../DaisyExamples/libDaisy//src/daisy_core.h ****     GPIOPort port;
 263:../../../../DaisyExamples/libDaisy//src/daisy_core.h ****     uint8_t  pin;
 264:../../../../DaisyExamples/libDaisy//src/daisy_core.h **** 
 265:../../../../DaisyExamples/libDaisy//src/daisy_core.h ****     /** @brief Constructor creates a valid pin. 
 266:../../../../DaisyExamples/libDaisy//src/daisy_core.h ****      *  @param pt GPIOPort between PA, and PK corresponding to STM32 Port.
 267:../../../../DaisyExamples/libDaisy//src/daisy_core.h ****      *  @param pn pin number in range of 0-15
 268:../../../../DaisyExamples/libDaisy//src/daisy_core.h ****     */
ARM GAS  C:\Users\samue\AppData\Local\Temp\cckmzuMA.s 			page 33


 269:../../../../DaisyExamples/libDaisy//src/daisy_core.h ****     constexpr Pin(const GPIOPort pt, const uint8_t pn) : port(pt), pin(pn) {}
 270:../../../../DaisyExamples/libDaisy//src/daisy_core.h **** 
 271:../../../../DaisyExamples/libDaisy//src/daisy_core.h ****     /** @brief Basic Constructor creates an invalid Pin object */
 272:../../../../DaisyExamples/libDaisy//src/daisy_core.h ****     constexpr Pin() : port(PORTX), pin(255) {}
 778              		.loc 11 272 15 view .LVU204
 779              		.loc 11 272 15 is_stmt 0 view .LVU205
 780              	.LBE360:
 781              	.LBE359:
 782              	.LBE358:
 783              	.LBE357:
 784              	.LBE356:
 785              	.LBE355:
 786              	.LBB369:
 787              	.LBI369:
 788              		.loc 10 74 5 is_stmt 1 view .LVU206
 789              	.LBB370:
 790              	.LBB371:
 791              	.LBI371:
  68:../../../../DaisyExamples/libDaisy//src/per/gpio.h ****         : pin(), mode(Mode::INPUT), pull(Pull::NOPULL), speed(Speed::LOW)
 792              		.loc 10 68 9 view .LVU207
 793              	.LBB372:
 794              	.LBB373:
 795              	.LBB374:
 796              	.LBI374:
 797              		.loc 11 272 15 view .LVU208
 798              		.loc 11 272 15 is_stmt 0 view .LVU209
 799              	.LBE374:
 800              	.LBE373:
 801              	.LBE372:
 802              	.LBE371:
 803              	.LBE370:
 804              	.LBE369:
 805              	.LBB383:
 806              	.LBI383:
 807              		.loc 10 74 5 is_stmt 1 view .LVU210
 808              	.LBB384:
 809              	.LBB385:
 810              	.LBI385:
  68:../../../../DaisyExamples/libDaisy//src/per/gpio.h ****         : pin(), mode(Mode::INPUT), pull(Pull::NOPULL), speed(Speed::LOW)
 811              		.loc 10 68 9 view .LVU211
 812              	.LBB386:
 813              	.LBB387:
 814              	.LBB388:
 815              	.LBI388:
 816              		.loc 11 272 15 view .LVU212
 817              		.loc 11 272 15 is_stmt 0 view .LVU213
 818              	.LBE388:
 819              	.LBE387:
 820              	.LBE386:
 821              	.LBE385:
 822              	.LBE384:
 823              	.LBE383:
 824              	.LBB397:
 825              	.LBI397:
 826              		.loc 10 74 5 is_stmt 1 view .LVU214
 827              	.LBB398:
 828              	.LBB399:
ARM GAS  C:\Users\samue\AppData\Local\Temp\cckmzuMA.s 			page 34


 829              	.LBI399:
  68:../../../../DaisyExamples/libDaisy//src/per/gpio.h ****         : pin(), mode(Mode::INPUT), pull(Pull::NOPULL), speed(Speed::LOW)
 830              		.loc 10 68 9 view .LVU215
 831              	.LBB400:
 832              	.LBB401:
 833              	.LBB402:
 834              	.LBI402:
 835              		.loc 11 272 15 view .LVU216
 836              		.loc 11 272 15 is_stmt 0 view .LVU217
 837              	.LBE402:
 838              	.LBE401:
 839              	.LBE400:
 840              	.LBE399:
 841              	.LBE398:
 842              	.LBE397:
 843              	.LBB411:
 844              	.LBI411:
 845              		.loc 10 74 5 is_stmt 1 view .LVU218
 846              	.LBB412:
 847              	.LBB413:
 848              	.LBI413:
  68:../../../../DaisyExamples/libDaisy//src/per/gpio.h ****         : pin(), mode(Mode::INPUT), pull(Pull::NOPULL), speed(Speed::LOW)
 849              		.loc 10 68 9 view .LVU219
 850              	.LBB414:
 851              	.LBB415:
 852              	.LBB416:
 853              	.LBI416:
 854              		.loc 11 272 15 view .LVU220
 855              		.loc 11 272 15 is_stmt 0 view .LVU221
 856              	.LBE416:
 857              	.LBE415:
 858              	.LBE414:
 859              	.LBE413:
 860              	.LBE412:
 861              	.LBE411:
 862              	.LBB425:
 863              	.LBI425:
 864              		.loc 10 74 5 is_stmt 1 view .LVU222
 865              	.LBB426:
 866              	.LBB427:
 867              	.LBI427:
  68:../../../../DaisyExamples/libDaisy//src/per/gpio.h ****         : pin(), mode(Mode::INPUT), pull(Pull::NOPULL), speed(Speed::LOW)
 868              		.loc 10 68 9 view .LVU223
 869              	.LBB428:
 870              	.LBB429:
 871              	.LBB430:
 872              	.LBI430:
 873              		.loc 11 272 15 view .LVU224
 874              		.loc 11 272 15 is_stmt 0 view .LVU225
 875              	.LBE430:
 876              	.LBE429:
 877              	.LBE428:
 878              	.LBE427:
 879              	.LBE426:
 880              	.LBE425:
 881              	.LBB439:
 882              	.LBI439:
ARM GAS  C:\Users\samue\AppData\Local\Temp\cckmzuMA.s 			page 35


 883              		.loc 10 74 5 is_stmt 1 view .LVU226
 884              	.LBB440:
 885              	.LBB441:
 886              	.LBI441:
  68:../../../../DaisyExamples/libDaisy//src/per/gpio.h ****         : pin(), mode(Mode::INPUT), pull(Pull::NOPULL), speed(Speed::LOW)
 887              		.loc 10 68 9 view .LVU227
 888              	.LBB442:
 889              	.LBB443:
 890              	.LBB444:
 891              	.LBI444:
 892              		.loc 11 272 15 view .LVU228
 893              		.loc 11 272 15 is_stmt 0 view .LVU229
 894              	.LBE444:
 895              	.LBE443:
 896              	.LBE442:
 897              	.LBE441:
 898              	.LBE440:
 899              	.LBE439:
 900              	.LBB453:
 901              	.LBI453:
 902              		.loc 10 74 5 is_stmt 1 view .LVU230
 903              	.LBB454:
 904              	.LBB455:
 905              	.LBI455:
  68:../../../../DaisyExamples/libDaisy//src/per/gpio.h ****         : pin(), mode(Mode::INPUT), pull(Pull::NOPULL), speed(Speed::LOW)
 906              		.loc 10 68 9 view .LVU231
 907              	.LBB456:
 908              	.LBB457:
 909              	.LBB458:
 910              	.LBI458:
 911              		.loc 11 272 15 view .LVU232
 912              		.loc 11 272 15 is_stmt 0 view .LVU233
 913              	.LBE458:
 914              	.LBE457:
 915              	.LBE456:
 916              	.LBE455:
 917              	.LBE454:
 918              	.LBE453:
 919              	.LBE354:
  19:daisy_common.h ****     ~daisyCommon() {}
 920              		.loc 1 19 19 view .LVU234
 921 0000 4248     		ldr	r0, .L31
 922 0002 4FF60B72 		movw	r2, #65291
 923              	.LBB537:
 924 0006 0121     		movs	r1, #1
 925 0008 4FF0FF33 		mov	r3, #-1
 926              	.LBE537:
 927              	.LBE353:
 928              	.LBE352:
 929              	.LBE351:
 930              	.LBE350:
 931              		.loc 9 124 1 view .LVU235
 932 000c 10B5     		push	{r4, lr}
 933              		.cfi_def_cfa_offset 8
 934              		.cfi_offset 4, -8
 935              		.cfi_offset 14, -4
 936              	.LBB563:
ARM GAS  C:\Users\samue\AppData\Local\Temp\cckmzuMA.s 			page 36


 937              	.LBB561:
 938              	.LBB545:
 939              	.LBB542:
 940              	.LBB538:
 941              	.LBB467:
 942              	.LBB367:
 943              	.LBB365:
 944              	.LBB363:
 945              	.LBB361:
  69:../../../../DaisyExamples/libDaisy//src/per/gpio.h ****         {
 946              		.loc 10 69 73 view .LVU236
 947 000e 0024     		movs	r4, #0
 948              	.LBE361:
 949              	.LBE363:
 950              	.LBE365:
 951              	.LBE367:
 952              	.LBE467:
 953              	.LBE538:
  19:daisy_common.h ****     ~daisyCommon() {}
 954              		.loc 1 19 19 view .LVU237
 955 0010 C0E90124 		strd	r2, r4, [r0, #4]
 956              	.LBB539:
 957              	.LBB468:
 958              	.LBB381:
 959              	.LBB379:
 960              	.LBB377:
 961              	.LBB375:
  69:../../../../DaisyExamples/libDaisy//src/per/gpio.h ****         {
 962              		.loc 10 69 73 view .LVU238
 963 0014 C0E90624 		strd	r2, r4, [r0, #24]
 964              	.LBE375:
 965              	.LBE377:
 966              	.LBE379:
 967              	.LBE381:
 968              	.LBE468:
 969              	.LBB469:
 970              	.LBB395:
 971              	.LBB393:
 972              	.LBB391:
 973              	.LBB389:
 974 0018 C0E90B24 		strd	r2, r4, [r0, #44]
 975              	.LBE389:
 976              	.LBE391:
 977              	.LBE393:
 978              	.LBE395:
 979              	.LBE469:
 980              	.LBB470:
 981              	.LBB409:
 982              	.LBB407:
 983              	.LBB405:
 984              	.LBB403:
 985 001c C0E91024 		strd	r2, r4, [r0, #64]
 986              	.LBE403:
 987              	.LBE405:
 988              	.LBE407:
 989              	.LBE409:
 990              	.LBE470:
ARM GAS  C:\Users\samue\AppData\Local\Temp\cckmzuMA.s 			page 37


 991              	.LBB471:
 992              	.LBB423:
 993              	.LBB421:
 994              	.LBB419:
 995              	.LBB417:
 996 0020 C0E91524 		strd	r2, r4, [r0, #84]
 997              	.LBE417:
 998              	.LBE419:
 999              	.LBE421:
 1000              	.LBE423:
 1001              	.LBE471:
 1002              	.LBB472:
 1003              	.LBB437:
 1004              	.LBB435:
 1005              	.LBB433:
 1006              	.LBB431:
 1007 0024 C0E91A24 		strd	r2, r4, [r0, #104]
 1008              	.LBE431:
 1009              	.LBE433:
 1010              	.LBE435:
 1011              	.LBE437:
 1012              	.LBE472:
 1013              	.LBB473:
 1014              	.LBB451:
 1015              	.LBB449:
 1016              	.LBB447:
 1017              	.LBB445:
 1018 0028 C0E91F24 		strd	r2, r4, [r0, #124]
 1019              	.LBE445:
 1020              	.LBE447:
 1021              	.LBE449:
 1022              	.LBE451:
 1023              	.LBE473:
 1024              	.LBB474:
 1025              	.LBB465:
 1026              	.LBB463:
 1027              	.LBB461:
 1028              	.LBB459:
 1029 002c C0E92424 		strd	r2, r4, [r0, #144]
 1030              	.LBE459:
 1031              	.LBE461:
 1032              	.LBE463:
 1033              	.LBE465:
 1034              	.LBE474:
 1035              	.LBB475:
 1036              	.LBB368:
 1037              	.LBB366:
 1038              	.LBB364:
 1039              	.LBB362:
 1040 0030 C0E90344 		strd	r4, r4, [r0, #12]
 1041              	.LBE362:
 1042              	.LBE364:
 1043              	.LBE366:
 1044              	.LBE368:
 1045              	.LBE475:
 1046              	.LBB476:
 1047              	.LBB382:
ARM GAS  C:\Users\samue\AppData\Local\Temp\cckmzuMA.s 			page 38


 1048              	.LBB380:
 1049              	.LBB378:
 1050              	.LBB376:
 1051 0034 C0E90844 		strd	r4, r4, [r0, #32]
 1052              	.LBE376:
 1053              	.LBE378:
 1054              	.LBE380:
 1055              	.LBE382:
 1056              	.LBE476:
 1057              	.LBB477:
 1058              	.LBB396:
 1059              	.LBB394:
 1060              	.LBB392:
 1061              	.LBB390:
 1062 0038 C0E90D44 		strd	r4, r4, [r0, #52]
 1063              	.LBE390:
 1064              	.LBE392:
 1065              	.LBE394:
 1066              	.LBE396:
 1067              	.LBE477:
 1068              	.LBB478:
 1069              	.LBB410:
 1070              	.LBB408:
 1071              	.LBB406:
 1072              	.LBB404:
 1073 003c C0E91244 		strd	r4, r4, [r0, #72]
 1074              	.LBE404:
 1075              	.LBE406:
 1076              	.LBE408:
 1077              	.LBE410:
 1078              	.LBE478:
 1079              	.LBB479:
 1080              	.LBB424:
 1081              	.LBB422:
 1082              	.LBB420:
 1083              	.LBB418:
 1084 0040 C0E91744 		strd	r4, r4, [r0, #92]
 1085              	.LBE418:
 1086              	.LBE420:
 1087              	.LBE422:
 1088              	.LBE424:
 1089              	.LBE479:
 1090              	.LBB480:
 1091              	.LBB438:
 1092              	.LBB436:
 1093              	.LBB434:
 1094              	.LBB432:
 1095 0044 C0E91C44 		strd	r4, r4, [r0, #112]
 1096              	.LBE432:
 1097              	.LBE434:
 1098              	.LBE436:
 1099              	.LBE438:
 1100              	.LBE480:
 1101              	.LBB481:
 1102              	.LBB452:
 1103              	.LBB450:
 1104              	.LBB448:
ARM GAS  C:\Users\samue\AppData\Local\Temp\cckmzuMA.s 			page 39


 1105              	.LBB446:
 1106 0048 C0E92144 		strd	r4, r4, [r0, #132]
 1107              	.LBE446:
 1108              	.LBE448:
 1109              	.LBE450:
 1110              	.LBE452:
 1111              	.LBE481:
 1112              	.LBB482:
 1113              	.LBB466:
 1114              	.LBB464:
 1115              	.LBB462:
 1116              	.LBB460:
 1117 004c C0E92644 		strd	r4, r4, [r0, #152]
 1118              	.LVL77:
  69:../../../../DaisyExamples/libDaisy//src/per/gpio.h ****         {
 1119              		.loc 10 69 73 view .LVU239
 1120              	.LBE460:
 1121              	.LBE462:
 1122              	.LBE464:
 1123              	.LBE466:
 1124              	.LBE482:
 1125              	.LBB483:
 1126              	.LBI483:
 1127              		.loc 10 74 5 is_stmt 1 view .LVU240
 1128              	.LBB484:
 1129              	.LBB485:
 1130              	.LBI485:
  68:../../../../DaisyExamples/libDaisy//src/per/gpio.h ****         : pin(), mode(Mode::INPUT), pull(Pull::NOPULL), speed(Speed::LOW)
 1131              		.loc 10 68 9 view .LVU241
 1132              	.LBB486:
 1133              	.LBB487:
 1134              	.LBB488:
 1135              	.LBI488:
 1136              		.loc 11 272 15 view .LVU242
 1137              		.loc 11 272 15 is_stmt 0 view .LVU243
 1138              	.LBE488:
 1139              	.LBE487:
 1140              	.LBE486:
 1141              	.LBE485:
 1142              	.LBE484:
 1143              	.LBE483:
 1144              	.LBB497:
 1145              	.LBI497:
 1146              		.loc 10 74 5 is_stmt 1 view .LVU244
 1147              	.LBB498:
 1148              	.LBB499:
 1149              	.LBI499:
  68:../../../../DaisyExamples/libDaisy//src/per/gpio.h ****         : pin(), mode(Mode::INPUT), pull(Pull::NOPULL), speed(Speed::LOW)
 1150              		.loc 10 68 9 view .LVU245
 1151              	.LBB500:
 1152              	.LBB501:
 1153              	.LBB502:
 1154              	.LBI502:
 1155              		.loc 11 272 15 view .LVU246
 1156              		.loc 11 272 15 is_stmt 0 view .LVU247
 1157              	.LBE502:
 1158              	.LBE501:
ARM GAS  C:\Users\samue\AppData\Local\Temp\cckmzuMA.s 			page 40


 1159              	.LBE500:
 1160              	.LBE499:
 1161              	.LBE498:
 1162              	.LBE497:
 1163              	.LBB511:
 1164              	.LBI511:
  20:../../../../DaisyExamples/libDaisy//src/hid/switch3.h ****     ~Switch3() {}
 1165              		.loc 8 20 5 is_stmt 1 view .LVU248
  20:../../../../DaisyExamples/libDaisy//src/hid/switch3.h ****     ~Switch3() {}
 1166              		.loc 8 20 5 is_stmt 0 view .LVU249
 1167              	.LBE511:
 1168              	.LBB512:
 1169              	.LBI512:
  20:../../../../DaisyExamples/libDaisy//src/hid/switch3.h ****     ~Switch3() {}
 1170              		.loc 8 20 5 is_stmt 1 view .LVU250
  20:../../../../DaisyExamples/libDaisy//src/hid/switch3.h ****     ~Switch3() {}
 1171              		.loc 8 20 5 is_stmt 0 view .LVU251
 1172              	.LBE512:
 1173              	.LBB513:
 1174              	.LBI513:
  41:../../../../DaisyExamples/libDaisy//src/hid/switch.h ****     ~Switch() {}
 1175              		.loc 7 41 5 is_stmt 1 view .LVU252
 1176              	.LBE513:
 1177              	.LBB514:
 1178              	.LBB495:
 1179              	.LBB493:
 1180              	.LBB491:
 1181              	.LBB489:
  69:../../../../DaisyExamples/libDaisy//src/per/gpio.h ****         {
 1182              		.loc 10 69 73 is_stmt 0 view .LVU253
 1183 0050 C0E92924 		strd	r2, r4, [r0, #164]
 1184              	.LBE489:
 1185              	.LBE491:
 1186              	.LBE493:
 1187              	.LBE495:
 1188              	.LBE514:
 1189              	.LBB515:
 1190              	.LBB509:
 1191              	.LBB507:
 1192              	.LBB505:
 1193              	.LBB503:
 1194 0054 C0E92E24 		strd	r2, r4, [r0, #184]
 1195              	.LBE503:
 1196              	.LBE505:
 1197              	.LBE507:
 1198              	.LBE509:
 1199              	.LBE515:
  19:daisy_common.h ****     ~daisyCommon() {}
 1200              		.loc 1 19 19 view .LVU254
 1201 0058 C0F8F010 		str	r1, [r0, #240]
 1202 005c 0622     		movs	r2, #6
 1203 005e 0221     		movs	r1, #2
 1204              	.LBB516:
 1205              	.LBB517:
 1206              	.LBB518:
 1207              	.LBB519:
 1208              	.LBB520:
ARM GAS  C:\Users\samue\AppData\Local\Temp\cckmzuMA.s 			page 41


  95:../../../../DaisyExamples/libDaisy//src/hid/audio.h ****     ~AudioHandle() {}
 1209              		.loc 6 95 35 view .LVU255
 1210 0060 C0F80C41 		str	r4, [r0, #268]
 1211              	.LBE520:
 1212              	.LBE519:
 1213              	.LBE518:
 1214              	.LBB521:
 1215              	.LBB522:
 1216              	.LBB523:
 1217              		.file 12 "../../../../DaisyExamples/libDaisy//src/per/dac.h"
   1:../../../../DaisyExamples/libDaisy//src/per/dac.h **** #pragma once
   2:../../../../DaisyExamples/libDaisy//src/per/dac.h **** #ifndef DSY_DAC_H
   3:../../../../DaisyExamples/libDaisy//src/per/dac.h **** #define DSY_DAC_H
   4:../../../../DaisyExamples/libDaisy//src/per/dac.h **** 
   5:../../../../DaisyExamples/libDaisy//src/per/dac.h **** #include "daisy_core.h"
   6:../../../../DaisyExamples/libDaisy//src/per/dac.h **** 
   7:../../../../DaisyExamples/libDaisy//src/per/dac.h **** namespace daisy
   8:../../../../DaisyExamples/libDaisy//src/per/dac.h **** {
   9:../../../../DaisyExamples/libDaisy//src/per/dac.h **** /** @brief DAC handle for Built-in DAC Peripheral 
  10:../../../../DaisyExamples/libDaisy//src/per/dac.h ****  *  @ingroup per_analog
  11:../../../../DaisyExamples/libDaisy//src/per/dac.h ****  ** 
  12:../../../../DaisyExamples/libDaisy//src/per/dac.h ****  ** For now only Normal Mode is supported,
  13:../../../../DaisyExamples/libDaisy//src/per/dac.h ****  ** Sample and hold mode provides reduced power consumption, but requires a bit more setup.
  14:../../../../DaisyExamples/libDaisy//src/per/dac.h ****  **
  15:../../../../DaisyExamples/libDaisy//src/per/dac.h ****  ** For now connecting the DAC through other internal peripherals is also not supported.
  16:../../../../DaisyExamples/libDaisy//src/per/dac.h ****  **
  17:../../../../DaisyExamples/libDaisy//src/per/dac.h ****  ** Since the DAC channels have dedicated pins we don't need to pass in a pin config like with
  18:../../../../DaisyExamples/libDaisy//src/per/dac.h ****  ** other modules. However, it is still important to not try to use the DAC pins for anything else.
  19:../../../../DaisyExamples/libDaisy//src/per/dac.h ****  ** DAC Channel 1 is on PA4, and DAC Channel 2 is on PA5
  20:../../../../DaisyExamples/libDaisy//src/per/dac.h ****  ***/
  21:../../../../DaisyExamples/libDaisy//src/per/dac.h **** class DacHandle
  22:../../../../DaisyExamples/libDaisy//src/per/dac.h **** {
  23:../../../../DaisyExamples/libDaisy//src/per/dac.h ****   public:
  24:../../../../DaisyExamples/libDaisy//src/per/dac.h ****     /** Return Values for the DacHandle class */
  25:../../../../DaisyExamples/libDaisy//src/per/dac.h ****     enum class Result
  26:../../../../DaisyExamples/libDaisy//src/per/dac.h ****     {
  27:../../../../DaisyExamples/libDaisy//src/per/dac.h ****         OK,
  28:../../../../DaisyExamples/libDaisy//src/per/dac.h ****         ERR,
  29:../../../../DaisyExamples/libDaisy//src/per/dac.h ****     };
  30:../../../../DaisyExamples/libDaisy//src/per/dac.h **** 
  31:../../../../DaisyExamples/libDaisy//src/per/dac.h ****     /** Selects which channel(s) will be configured for use. */
  32:../../../../DaisyExamples/libDaisy//src/per/dac.h ****     enum class Channel
  33:../../../../DaisyExamples/libDaisy//src/per/dac.h ****     {
  34:../../../../DaisyExamples/libDaisy//src/per/dac.h ****         ONE,
  35:../../../../DaisyExamples/libDaisy//src/per/dac.h ****         TWO,
  36:../../../../DaisyExamples/libDaisy//src/per/dac.h ****         BOTH,
  37:../../../../DaisyExamples/libDaisy//src/per/dac.h ****     };
  38:../../../../DaisyExamples/libDaisy//src/per/dac.h **** 
  39:../../../../DaisyExamples/libDaisy//src/per/dac.h ****     /** Sets the Mode for the DAC channels.
  40:../../../../DaisyExamples/libDaisy//src/per/dac.h ****      **
  41:../../../../DaisyExamples/libDaisy//src/per/dac.h ****      ** Polling mode uses the blocking mode to transmit a single value at a time.
  42:../../../../DaisyExamples/libDaisy//src/per/dac.h ****      **
  43:../../../../DaisyExamples/libDaisy//src/per/dac.h ****      ** DMA mode uses a buffer, and periodically transmits it triggering a 
  44:../../../../DaisyExamples/libDaisy//src/per/dac.h ****      ** callback to fill the buffer when it is ready for more samples.
  45:../../../../DaisyExamples/libDaisy//src/per/dac.h ****      ***/
  46:../../../../DaisyExamples/libDaisy//src/per/dac.h ****     enum class Mode
  47:../../../../DaisyExamples/libDaisy//src/per/dac.h ****     {
ARM GAS  C:\Users\samue\AppData\Local\Temp\cckmzuMA.s 			page 42


  48:../../../../DaisyExamples/libDaisy//src/per/dac.h ****         POLLING,
  49:../../../../DaisyExamples/libDaisy//src/per/dac.h ****         DMA,
  50:../../../../DaisyExamples/libDaisy//src/per/dac.h ****     };
  51:../../../../DaisyExamples/libDaisy//src/per/dac.h **** 
  52:../../../../DaisyExamples/libDaisy//src/per/dac.h ****     /** Sets the number of bits per sample transmitted out of the DAC.
  53:../../../../DaisyExamples/libDaisy//src/per/dac.h ****      ** The output range will be: 0V - VDDA
  54:../../../../DaisyExamples/libDaisy//src/per/dac.h ****      ** The resolution will be roughly: bitdepth / (VDDA - 0V) 
  55:../../../../DaisyExamples/libDaisy//src/per/dac.h ****      ***/
  56:../../../../DaisyExamples/libDaisy//src/per/dac.h ****     enum class BitDepth
  57:../../../../DaisyExamples/libDaisy//src/per/dac.h ****     {
  58:../../../../DaisyExamples/libDaisy//src/per/dac.h ****         BITS_8,
  59:../../../../DaisyExamples/libDaisy//src/per/dac.h ****         BITS_12
  60:../../../../DaisyExamples/libDaisy//src/per/dac.h ****     };
  61:../../../../DaisyExamples/libDaisy//src/per/dac.h **** 
  62:../../../../DaisyExamples/libDaisy//src/per/dac.h ****     /** Sets whether the DAC output is buffered for higher drive ability. */
  63:../../../../DaisyExamples/libDaisy//src/per/dac.h ****     enum class BufferState
  64:../../../../DaisyExamples/libDaisy//src/per/dac.h ****     {
  65:../../../../DaisyExamples/libDaisy//src/per/dac.h ****         ENABLED,
  66:../../../../DaisyExamples/libDaisy//src/per/dac.h ****         DISABLED,
  67:../../../../DaisyExamples/libDaisy//src/per/dac.h ****     };
  68:../../../../DaisyExamples/libDaisy//src/per/dac.h **** 
  69:../../../../DaisyExamples/libDaisy//src/per/dac.h ****     /** Configuration structure for initializing the DAC structure. */
  70:../../../../DaisyExamples/libDaisy//src/per/dac.h ****     struct Config
  71:../../../../DaisyExamples/libDaisy//src/per/dac.h ****     {
  72:../../../../DaisyExamples/libDaisy//src/per/dac.h ****         /** Target Samplerate in Hz used to configure the internal 
  73:../../../../DaisyExamples/libDaisy//src/per/dac.h ****          ** timebase for DMA mode. Does nothing in POLLING mode.
  74:../../../../DaisyExamples/libDaisy//src/per/dac.h ****          ** If the value is 0 at Init time this will default to 48000Hz 
  75:../../../../DaisyExamples/libDaisy//src/per/dac.h ****          ** otherwise the driver will attempt meet the target.*/
  76:../../../../DaisyExamples/libDaisy//src/per/dac.h ****         uint32_t target_samplerate;
  77:../../../../DaisyExamples/libDaisy//src/per/dac.h **** 
  78:../../../../DaisyExamples/libDaisy//src/per/dac.h ****         Channel     chn;
  79:../../../../DaisyExamples/libDaisy//src/per/dac.h ****         Mode        mode;
  80:../../../../DaisyExamples/libDaisy//src/per/dac.h ****         BitDepth    bitdepth;
  81:../../../../DaisyExamples/libDaisy//src/per/dac.h ****         BufferState buff_state;
  82:../../../../DaisyExamples/libDaisy//src/per/dac.h ****     };
  83:../../../../DaisyExamples/libDaisy//src/per/dac.h **** 
  84:../../../../DaisyExamples/libDaisy//src/per/dac.h ****     DacHandle() : pimpl_(nullptr) {}
 1218              		.loc 12 84 33 view .LVU256
 1219 0064 C0F81841 		str	r4, [r0, #280]
 1220              	.LBE523:
 1221              	.LBE522:
 1222              	.LBE521:
 1223              	.LBE517:
 1224              	.LBE516:
  19:daisy_common.h ****     ~daisyCommon() {}
 1225              		.loc 1 19 19 view .LVU257
 1226 0068 C0E94D43 		strd	r4, r3, [r0, #308]
 1227              	.LBB534:
 1228              	.LBB496:
 1229              	.LBB494:
 1230              	.LBB492:
 1231              	.LBB490:
  69:../../../../DaisyExamples/libDaisy//src/per/gpio.h ****         {
 1232              		.loc 10 69 73 view .LVU258
 1233 006c C0E92B44 		strd	r4, r4, [r0, #172]
 1234              	.LBE490:
 1235              	.LBE492:
ARM GAS  C:\Users\samue\AppData\Local\Temp\cckmzuMA.s 			page 43


 1236              	.LBE494:
 1237              	.LBE496:
 1238              	.LBE534:
 1239              	.LBB535:
 1240              	.LBB510:
 1241              	.LBB508:
 1242              	.LBB506:
 1243              	.LBB504:
 1244 0070 C0E93044 		strd	r4, r4, [r0, #192]
 1245              	.LVL78:
  69:../../../../DaisyExamples/libDaisy//src/per/gpio.h ****         {
 1246              		.loc 10 69 73 view .LVU259
 1247              	.LBE504:
 1248              	.LBE506:
 1249              	.LBE508:
 1250              	.LBE510:
 1251              	.LBE535:
 1252              	.LBB536:
 1253              	.LBB533:
 1254              	.LBB524:
 1255              	.LBB525:
 1256              	.LBB526:
 1257              		.file 13 "../../../../DaisyExamples/libDaisy//src/per/qspi.h"
   1:../../../../DaisyExamples/libDaisy//src/per/qspi.h **** #ifndef DSY_QSPI
   2:../../../../DaisyExamples/libDaisy//src/per/qspi.h **** #define DSY_QSPI /**< Macro */
   3:../../../../DaisyExamples/libDaisy//src/per/qspi.h **** 
   4:../../../../DaisyExamples/libDaisy//src/per/qspi.h **** #ifndef UNIT_TEST // for unit tests, a dummy implementation
   5:../../../../DaisyExamples/libDaisy//src/per/qspi.h **** 
   6:../../../../DaisyExamples/libDaisy//src/per/qspi.h **** #include <cstdint>
   7:../../../../DaisyExamples/libDaisy//src/per/qspi.h **** #include "daisy_core.h" // Added for dsy_gpio_pin typedef
   8:../../../../DaisyExamples/libDaisy//src/per/qspi.h **** 
   9:../../../../DaisyExamples/libDaisy//src/per/qspi.h **** #define DSY_QSPI_TEXT       \
  10:../../../../DaisyExamples/libDaisy//src/per/qspi.h ****     __attribute__((section( \
  11:../../../../DaisyExamples/libDaisy//src/per/qspi.h ****         ".qspiflash_text"))) /**< used for reading memory in memory_mapped mode. */
  12:../../../../DaisyExamples/libDaisy//src/per/qspi.h **** #define DSY_QSPI_DATA       \
  13:../../../../DaisyExamples/libDaisy//src/per/qspi.h ****     __attribute__((section( \
  14:../../../../DaisyExamples/libDaisy//src/per/qspi.h ****         ".qspiflash_data"))) /**< used for reading memory in memory_mapped mode. */
  15:../../../../DaisyExamples/libDaisy//src/per/qspi.h **** #define DSY_QSPI_BSS        \
  16:../../../../DaisyExamples/libDaisy//src/per/qspi.h ****     __attribute__((section( \
  17:../../../../DaisyExamples/libDaisy//src/per/qspi.h ****         ".qspiflash_bss"))) /**< used for reading memory in memory_mapped mode. */
  18:../../../../DaisyExamples/libDaisy//src/per/qspi.h **** 
  19:../../../../DaisyExamples/libDaisy//src/per/qspi.h **** namespace daisy
  20:../../../../DaisyExamples/libDaisy//src/per/qspi.h **** {
  21:../../../../DaisyExamples/libDaisy//src/per/qspi.h **** /** @addtogroup serial
  22:../../../../DaisyExamples/libDaisy//src/per/qspi.h **** @{
  23:../../../../DaisyExamples/libDaisy//src/per/qspi.h **** */
  24:../../../../DaisyExamples/libDaisy//src/per/qspi.h **** 
  25:../../../../DaisyExamples/libDaisy//src/per/qspi.h **** /** 
  26:../../../../DaisyExamples/libDaisy//src/per/qspi.h ****  Driver for QSPI peripheral to interface with external flash memory. \n 
  27:../../../../DaisyExamples/libDaisy//src/per/qspi.h ****     Currently supported QSPI Devices: \n 
  28:../../../../DaisyExamples/libDaisy//src/per/qspi.h ****     * IS25LP080D
  29:../../../../DaisyExamples/libDaisy//src/per/qspi.h **** */
  30:../../../../DaisyExamples/libDaisy//src/per/qspi.h **** class QSPIHandle
  31:../../../../DaisyExamples/libDaisy//src/per/qspi.h **** {
  32:../../../../DaisyExamples/libDaisy//src/per/qspi.h ****   public:
  33:../../../../DaisyExamples/libDaisy//src/per/qspi.h ****     enum Result
  34:../../../../DaisyExamples/libDaisy//src/per/qspi.h ****     {
ARM GAS  C:\Users\samue\AppData\Local\Temp\cckmzuMA.s 			page 44


  35:../../../../DaisyExamples/libDaisy//src/per/qspi.h ****         OK = 0,
  36:../../../../DaisyExamples/libDaisy//src/per/qspi.h ****         ERR
  37:../../../../DaisyExamples/libDaisy//src/per/qspi.h ****     };
  38:../../../../DaisyExamples/libDaisy//src/per/qspi.h **** 
  39:../../../../DaisyExamples/libDaisy//src/per/qspi.h ****     /** Indicates the current status of the module. 
  40:../../../../DaisyExamples/libDaisy//src/per/qspi.h ****          *  Warnings are indicated by a leading W.
  41:../../../../DaisyExamples/libDaisy//src/per/qspi.h ****          *  Errors are indicated by a leading E and cause an immediate exit.
  42:../../../../DaisyExamples/libDaisy//src/per/qspi.h ****          * 
  43:../../../../DaisyExamples/libDaisy//src/per/qspi.h ****          *  \param GOOD - No errors have been reported.
  44:../../../../DaisyExamples/libDaisy//src/per/qspi.h ****          *  \param E_HAL_ERROR - HAL code did not return HAL_OK.
  45:../../../../DaisyExamples/libDaisy//src/per/qspi.h ****          *  \param E_SWITCHING_MODES - An error was encountered while switching QSPI peripheral mod
  46:../../../../DaisyExamples/libDaisy//src/per/qspi.h ****          *  \param E_INVALID_MODE - QSPI should not be written to while the program is executing fr
  47:../../../../DaisyExamples/libDaisy//src/per/qspi.h ****          */
  48:../../../../DaisyExamples/libDaisy//src/per/qspi.h ****     enum Status
  49:../../../../DaisyExamples/libDaisy//src/per/qspi.h ****     {
  50:../../../../DaisyExamples/libDaisy//src/per/qspi.h ****         GOOD = 0,
  51:../../../../DaisyExamples/libDaisy//src/per/qspi.h ****         E_HAL_ERROR,
  52:../../../../DaisyExamples/libDaisy//src/per/qspi.h ****         E_SWITCHING_MODES,
  53:../../../../DaisyExamples/libDaisy//src/per/qspi.h ****         E_INVALID_MODE,
  54:../../../../DaisyExamples/libDaisy//src/per/qspi.h ****     };
  55:../../../../DaisyExamples/libDaisy//src/per/qspi.h **** 
  56:../../../../DaisyExamples/libDaisy//src/per/qspi.h ****     /** Configuration structure for interfacing with QSPI Driver */
  57:../../../../DaisyExamples/libDaisy//src/per/qspi.h ****     struct Config
  58:../../../../DaisyExamples/libDaisy//src/per/qspi.h ****     {
  59:../../../../DaisyExamples/libDaisy//src/per/qspi.h ****         /** Flash Devices supported. (Both of these are more-or-less the same, just different sizes
  60:../../../../DaisyExamples/libDaisy//src/per/qspi.h ****         enum Device
  61:../../../../DaisyExamples/libDaisy//src/per/qspi.h ****         {
  62:../../../../DaisyExamples/libDaisy//src/per/qspi.h ****             IS25LP080D,  /**< & */
  63:../../../../DaisyExamples/libDaisy//src/per/qspi.h ****             IS25LP064A,  /**< & */
  64:../../../../DaisyExamples/libDaisy//src/per/qspi.h ****             DEVICE_LAST, /**< & */
  65:../../../../DaisyExamples/libDaisy//src/per/qspi.h ****         };
  66:../../../../DaisyExamples/libDaisy//src/per/qspi.h **** 
  67:../../../../DaisyExamples/libDaisy//src/per/qspi.h ****         /** 
  68:../../../../DaisyExamples/libDaisy//src/per/qspi.h ****         Modes of operation.
  69:../../../../DaisyExamples/libDaisy//src/per/qspi.h ****         Memory Mapped mode: QSPI configured so that the QSPI can be
  70:../../../../DaisyExamples/libDaisy//src/per/qspi.h ****         read from starting address 0x90000000. Writing is not
  71:../../../../DaisyExamples/libDaisy//src/per/qspi.h ****         possible in this mode. \n 
  72:../../../../DaisyExamples/libDaisy//src/per/qspi.h ****         Indirect Polling mode: Device driver enabled. 
  73:../../../../DaisyExamples/libDaisy//src/per/qspi.h ****         */
  74:../../../../DaisyExamples/libDaisy//src/per/qspi.h ****         enum Mode
  75:../../../../DaisyExamples/libDaisy//src/per/qspi.h ****         {
  76:../../../../DaisyExamples/libDaisy//src/per/qspi.h ****             MEMORY_MAPPED,    /**< & */
  77:../../../../DaisyExamples/libDaisy//src/per/qspi.h ****             INDIRECT_POLLING, /**< & */
  78:../../../../DaisyExamples/libDaisy//src/per/qspi.h ****             MODE_LAST,
  79:../../../../DaisyExamples/libDaisy//src/per/qspi.h ****         };
  80:../../../../DaisyExamples/libDaisy//src/per/qspi.h **** 
  81:../../../../DaisyExamples/libDaisy//src/per/qspi.h ****         //SCK,  CE# (active low)
  82:../../../../DaisyExamples/libDaisy//src/per/qspi.h ****         struct
  83:../../../../DaisyExamples/libDaisy//src/per/qspi.h ****         {
  84:../../../../DaisyExamples/libDaisy//src/per/qspi.h ****             dsy_gpio_pin io0; /**< & */
  85:../../../../DaisyExamples/libDaisy//src/per/qspi.h ****             dsy_gpio_pin io1; /**< & */
  86:../../../../DaisyExamples/libDaisy//src/per/qspi.h ****             dsy_gpio_pin io2; /**< & */
  87:../../../../DaisyExamples/libDaisy//src/per/qspi.h ****             dsy_gpio_pin io3; /**< & */
  88:../../../../DaisyExamples/libDaisy//src/per/qspi.h ****             dsy_gpio_pin clk; /**< & */
  89:../../../../DaisyExamples/libDaisy//src/per/qspi.h ****             dsy_gpio_pin ncs; /**< & */
  90:../../../../DaisyExamples/libDaisy//src/per/qspi.h ****         } pin_config;
  91:../../../../DaisyExamples/libDaisy//src/per/qspi.h **** 
ARM GAS  C:\Users\samue\AppData\Local\Temp\cckmzuMA.s 			page 45


  92:../../../../DaisyExamples/libDaisy//src/per/qspi.h ****         Device device;
  93:../../../../DaisyExamples/libDaisy//src/per/qspi.h ****         Mode   mode;
  94:../../../../DaisyExamples/libDaisy//src/per/qspi.h ****     };
  95:../../../../DaisyExamples/libDaisy//src/per/qspi.h **** 
  96:../../../../DaisyExamples/libDaisy//src/per/qspi.h ****     /** 
  97:../../../../DaisyExamples/libDaisy//src/per/qspi.h ****         Initializes QSPI peripheral, and Resets, and prepares memory for access.
  98:../../../../DaisyExamples/libDaisy//src/per/qspi.h ****         \param config should be populated with the mode, device and pin_config before calling this 
  99:../../../../DaisyExamples/libDaisy//src/per/qspi.h ****         \return Result::OK or Result::ERR
 100:../../../../DaisyExamples/libDaisy//src/per/qspi.h ****         */
 101:../../../../DaisyExamples/libDaisy//src/per/qspi.h ****     Result Init(const Config& config);
 102:../../../../DaisyExamples/libDaisy//src/per/qspi.h **** 
 103:../../../../DaisyExamples/libDaisy//src/per/qspi.h ****     /** Returns the current config. */
 104:../../../../DaisyExamples/libDaisy//src/per/qspi.h ****     const Config& GetConfig() const;
 105:../../../../DaisyExamples/libDaisy//src/per/qspi.h **** 
 106:../../../../DaisyExamples/libDaisy//src/per/qspi.h ****     // Couldn't this just be called before anything else in init? That
 107:../../../../DaisyExamples/libDaisy//src/per/qspi.h ****     // would make manually calling it unnecessary.
 108:../../../../DaisyExamples/libDaisy//src/per/qspi.h ****     /** 
 109:../../../../DaisyExamples/libDaisy//src/per/qspi.h ****         Deinitializes the peripheral
 110:../../../../DaisyExamples/libDaisy//src/per/qspi.h ****         This should be called before reinitializing QSPI in a different mode.
 111:../../../../DaisyExamples/libDaisy//src/per/qspi.h ****         \return Result::OK or Result::ERR
 112:../../../../DaisyExamples/libDaisy//src/per/qspi.h ****         */
 113:../../../../DaisyExamples/libDaisy//src/per/qspi.h ****     Result DeInit();
 114:../../../../DaisyExamples/libDaisy//src/per/qspi.h **** 
 115:../../../../DaisyExamples/libDaisy//src/per/qspi.h ****     /** 
 116:../../../../DaisyExamples/libDaisy//src/per/qspi.h ****         Writes a single page to to the specified address on the QSPI chip.
 117:../../../../DaisyExamples/libDaisy//src/per/qspi.h ****         For IS25LP*, page size is 256 bytes.
 118:../../../../DaisyExamples/libDaisy//src/per/qspi.h ****         \param address Address to write to
 119:../../../../DaisyExamples/libDaisy//src/per/qspi.h ****         \param size Buffer size
 120:../../../../DaisyExamples/libDaisy//src/per/qspi.h ****         \param buffer Buffer to write
 121:../../../../DaisyExamples/libDaisy//src/per/qspi.h ****         \return Result::OK or Result::ERR
 122:../../../../DaisyExamples/libDaisy//src/per/qspi.h ****         */
 123:../../../../DaisyExamples/libDaisy//src/per/qspi.h ****     Result WritePage(uint32_t address, uint32_t size, uint8_t* buffer);
 124:../../../../DaisyExamples/libDaisy//src/per/qspi.h **** 
 125:../../../../DaisyExamples/libDaisy//src/per/qspi.h ****     /** 
 126:../../../../DaisyExamples/libDaisy//src/per/qspi.h ****         Writes data in buffer to to the QSPI. Starting at address to address+size 
 127:../../../../DaisyExamples/libDaisy//src/per/qspi.h ****         \param address Address to write to
 128:../../../../DaisyExamples/libDaisy//src/per/qspi.h ****         \param size Buffer size
 129:../../../../DaisyExamples/libDaisy//src/per/qspi.h ****         \param buffer Buffer to write
 130:../../../../DaisyExamples/libDaisy//src/per/qspi.h ****         \return Result::OK or Result::ERR
 131:../../../../DaisyExamples/libDaisy//src/per/qspi.h ****         */
 132:../../../../DaisyExamples/libDaisy//src/per/qspi.h ****     Result Write(uint32_t address, uint32_t size, uint8_t* buffer);
 133:../../../../DaisyExamples/libDaisy//src/per/qspi.h **** 
 134:../../../../DaisyExamples/libDaisy//src/per/qspi.h ****     /** 
 135:../../../../DaisyExamples/libDaisy//src/per/qspi.h ****         Erases the area specified on the chip.
 136:../../../../DaisyExamples/libDaisy//src/per/qspi.h ****         Erasures will happen by 4K, 32K or 64K increments.
 137:../../../../DaisyExamples/libDaisy//src/per/qspi.h ****         Smallest erase possible is 4kB at a time. (on IS25LP*)
 138:../../../../DaisyExamples/libDaisy//src/per/qspi.h ****         \param start_addr Address to begin erasing from
 139:../../../../DaisyExamples/libDaisy//src/per/qspi.h ****         \param end_addr  Address to stop erasing at
 140:../../../../DaisyExamples/libDaisy//src/per/qspi.h ****         \return Result::OK or Result::ERR
 141:../../../../DaisyExamples/libDaisy//src/per/qspi.h ****         */
 142:../../../../DaisyExamples/libDaisy//src/per/qspi.h ****     Result Erase(uint32_t start_addr, uint32_t end_addr);
 143:../../../../DaisyExamples/libDaisy//src/per/qspi.h **** 
 144:../../../../DaisyExamples/libDaisy//src/per/qspi.h ****     /**  
 145:../../../../DaisyExamples/libDaisy//src/per/qspi.h ****          Erases a single sector of the chip.  
 146:../../../../DaisyExamples/libDaisy//src/per/qspi.h ****         TODO: Document the size of this function. 
 147:../../../../DaisyExamples/libDaisy//src/per/qspi.h ****         \param address Address of sector to erase
 148:../../../../DaisyExamples/libDaisy//src/per/qspi.h ****         \return Result::OK or Result::ERR
ARM GAS  C:\Users\samue\AppData\Local\Temp\cckmzuMA.s 			page 46


 149:../../../../DaisyExamples/libDaisy//src/per/qspi.h ****         */
 150:../../../../DaisyExamples/libDaisy//src/per/qspi.h ****     Result EraseSector(uint32_t address);
 151:../../../../DaisyExamples/libDaisy//src/per/qspi.h **** 
 152:../../../../DaisyExamples/libDaisy//src/per/qspi.h ****     /** Returns the current class status. Useful for debugging.
 153:../../../../DaisyExamples/libDaisy//src/per/qspi.h ****      *  \returns Status
 154:../../../../DaisyExamples/libDaisy//src/per/qspi.h ****      */
 155:../../../../DaisyExamples/libDaisy//src/per/qspi.h ****     Status GetStatus();
 156:../../../../DaisyExamples/libDaisy//src/per/qspi.h **** 
 157:../../../../DaisyExamples/libDaisy//src/per/qspi.h ****     /** Returns a pointer to the actual memory used 
 158:../../../../DaisyExamples/libDaisy//src/per/qspi.h ****      *  The memory at this address is read-only
 159:../../../../DaisyExamples/libDaisy//src/per/qspi.h ****      *  to write to it use the Write function.
 160:../../../../DaisyExamples/libDaisy//src/per/qspi.h ****      * 
 161:../../../../DaisyExamples/libDaisy//src/per/qspi.h ****      *  \param offset returns the pointer starting this 
 162:../../../../DaisyExamples/libDaisy//src/per/qspi.h ****      *                many bytes into the memory
 163:../../../../DaisyExamples/libDaisy//src/per/qspi.h ****     */
 164:../../../../DaisyExamples/libDaisy//src/per/qspi.h ****     void* GetData(uint32_t offset = 0);
 165:../../../../DaisyExamples/libDaisy//src/per/qspi.h **** 
 166:../../../../DaisyExamples/libDaisy//src/per/qspi.h ****     QSPIHandle() : pimpl_(nullptr) {}
 1258              		.loc 13 166 34 view .LVU260
 1259 0074 C0E93D44 		strd	r4, r4, [r0, #244]
 1260              	.LVL79:
 1261              		.loc 13 166 34 view .LVU261
 1262              	.LBE526:
 1263              	.LBE525:
 1264              	.LBE524:
 1265              	.LBB527:
 1266              	.LBI518:
  95:../../../../DaisyExamples/libDaisy//src/hid/audio.h ****     ~AudioHandle() {}
 1267              		.loc 6 95 5 is_stmt 1 view .LVU262
  95:../../../../DaisyExamples/libDaisy//src/hid/audio.h ****     ~AudioHandle() {}
 1268              		.loc 6 95 5 is_stmt 0 view .LVU263
 1269              	.LBE527:
 1270              	.LBB528:
 1271              	.LBI528:
 109:../../../../DaisyExamples/libDaisy//src/per/adc.h ****     ~AdcHandle() {}
 1272              		.loc 5 109 5 is_stmt 1 view .LVU264
 109:../../../../DaisyExamples/libDaisy//src/per/adc.h ****     ~AdcHandle() {}
 1273              		.loc 5 109 5 is_stmt 0 view .LVU265
 1274              	.LBE528:
 1275              	.LBB529:
 1276              	.LBI521:
 1277              		.loc 12 84 5 is_stmt 1 view .LVU266
 1278              		.loc 12 84 5 is_stmt 0 view .LVU267
 1279              	.LBE529:
 1280              	.LBB530:
 1281              	.LBI530:
  40:../../../../DaisyExamples/libDaisy//src/hid/usb.h **** 
 1282              		.loc 4 40 5 is_stmt 1 view .LVU268
  40:../../../../DaisyExamples/libDaisy//src/hid/usb.h **** 
 1283              		.loc 4 40 5 is_stmt 0 view .LVU269
 1284              	.LBE530:
 1285              	.LBB531:
 1286              	.LBI531:
  96:../../../../DaisyExamples/libDaisy//src/sys/system.h ****     ~System() {}
 1287              		.loc 3 96 5 is_stmt 1 view .LVU270
  96:../../../../DaisyExamples/libDaisy//src/sys/system.h ****     ~System() {}
 1288              		.loc 3 96 5 is_stmt 0 view .LVU271
ARM GAS  C:\Users\samue\AppData\Local\Temp\cckmzuMA.s 			page 47


 1289              	.LBE531:
 1290              	.LBB532:
 1291              	.LBI532:
 1292              		.file 14 "../../../../DaisyExamples/libDaisy//src/per/sai.h"
   1:../../../../DaisyExamples/libDaisy//src/per/sai.h **** #pragma once
   2:../../../../DaisyExamples/libDaisy//src/per/sai.h **** #ifndef DSY_SAI_H
   3:../../../../DaisyExamples/libDaisy//src/per/sai.h **** #define DSY_SAI_H
   4:../../../../DaisyExamples/libDaisy//src/per/sai.h **** 
   5:../../../../DaisyExamples/libDaisy//src/per/sai.h **** #include "daisy_core.h"
   6:../../../../DaisyExamples/libDaisy//src/per/sai.h **** 
   7:../../../../DaisyExamples/libDaisy//src/per/sai.h **** namespace daisy
   8:../../../../DaisyExamples/libDaisy//src/per/sai.h **** {
   9:../../../../DaisyExamples/libDaisy//src/per/sai.h **** /** 
  10:../../../../DaisyExamples/libDaisy//src/per/sai.h ****  * Support for I2S Audio Protocol with different bit-depth, samplerate options
  11:../../../../DaisyExamples/libDaisy//src/per/sai.h ****  * Allows for master or slave, as well as freedom of selecting direction, 
  12:../../../../DaisyExamples/libDaisy//src/per/sai.h ****  * and other behavior for each peripheral, and block.
  13:../../../../DaisyExamples/libDaisy//src/per/sai.h ****  * 
  14:../../../../DaisyExamples/libDaisy//src/per/sai.h ****  * DMA Transfer commands must use buffers located within non-cached memory or use cache maintenance
  15:../../../../DaisyExamples/libDaisy//src/per/sai.h ****  * To declare an unitialized global element in the DMA memory section:
  16:../../../../DaisyExamples/libDaisy//src/per/sai.h ****  *    int32_t DSY_DMA_BUFFER_SECTOR my_buffer[96];
  17:../../../../DaisyExamples/libDaisy//src/per/sai.h ****  *
  18:../../../../DaisyExamples/libDaisy//src/per/sai.h ****  * Callback functions will be called once per half of the buffer. In the above example, 
  19:../../../../DaisyExamples/libDaisy//src/per/sai.h ****  * the callback function would be called once for every 48 samples.
  20:../../../../DaisyExamples/libDaisy//src/per/sai.h ****  * 
  21:../../../../DaisyExamples/libDaisy//src/per/sai.h ****  * Use SAI Handle like this:
  22:../../../../DaisyExamples/libDaisy//src/per/sai.h ****  * 
  23:../../../../DaisyExamples/libDaisy//src/per/sai.h ****  *  SaiHandle::Config sai_config;
  24:../../../../DaisyExamples/libDaisy//src/per/sai.h ****  *  sai_config.periph          = SaiHandle::Config::Peripheral::SAI_1;
  25:../../../../DaisyExamples/libDaisy//src/per/sai.h ****  *  sai_config.sr              = SaiHandle::Config::SampleRate::SAI_48KHZ;
  26:../../../../DaisyExamples/libDaisy//src/per/sai.h ****  *  sai_config.bit_depth       = SaiHandle::Config::BitDepth::SAI_24BIT;
  27:../../../../DaisyExamples/libDaisy//src/per/sai.h ****  *  sai_config.a_sync          = SaiHandle::Config::Sync::MASTER;
  28:../../../../DaisyExamples/libDaisy//src/per/sai.h ****  *  sai_config.b_sync          = SaiHandle::Config::Sync::SLAVE;
  29:../../../../DaisyExamples/libDaisy//src/per/sai.h ****  *  sai_config.a_dir           = SaiHandle::Config::Direction::RECEIVE;
  30:../../../../DaisyExamples/libDaisy//src/per/sai.h ****  *  sai_config.b_dir           = SaiHandle::Config::Direction::TRANSMIT;
  31:../../../../DaisyExamples/libDaisy//src/per/sai.h ****  *  sai_config.pin_config.fs   = {DSY_GPIOE, 4};
  32:../../../../DaisyExamples/libDaisy//src/per/sai.h ****  *  sai_config.pin_config.mclk = {DSY_GPIOE, 2};
  33:../../../../DaisyExamples/libDaisy//src/per/sai.h ****  *  sai_config.pin_config.sck  = {DSY_GPIOE, 5};
  34:../../../../DaisyExamples/libDaisy//src/per/sai.h ****  *  sai_config.pin_config.sa   = {DSY_GPIOE, 6};
  35:../../../../DaisyExamples/libDaisy//src/per/sai.h ****  *  sai_config.pin_config.sb   = {DSY_GPIOE, 3};
  36:../../../../DaisyExamples/libDaisy//src/per/sai.h ****  *  // Then Initialize
  37:../../../../DaisyExamples/libDaisy//src/per/sai.h ****  *  SaiHandle sai;
  38:../../../../DaisyExamples/libDaisy//src/per/sai.h ****  *  sai.Init(sai_config);
  39:../../../../DaisyExamples/libDaisy//src/per/sai.h ****  *  // Now you can use it:
  40:../../../../DaisyExamples/libDaisy//src/per/sai.h ****  *  sai.StartDma(. . .);
  41:../../../../DaisyExamples/libDaisy//src/per/sai.h ****  */
  42:../../../../DaisyExamples/libDaisy//src/per/sai.h **** class SaiHandle
  43:../../../../DaisyExamples/libDaisy//src/per/sai.h **** {
  44:../../../../DaisyExamples/libDaisy//src/per/sai.h ****   public:
  45:../../../../DaisyExamples/libDaisy//src/per/sai.h ****     /** Contains settings for initialising an SAI Interface */
  46:../../../../DaisyExamples/libDaisy//src/per/sai.h ****     struct Config
  47:../../../../DaisyExamples/libDaisy//src/per/sai.h ****     {
  48:../../../../DaisyExamples/libDaisy//src/per/sai.h ****         /** Specifies the internal peripheral to use (mapped to different hardware pins) */
  49:../../../../DaisyExamples/libDaisy//src/per/sai.h ****         enum class Peripheral
  50:../../../../DaisyExamples/libDaisy//src/per/sai.h ****         {
  51:../../../../DaisyExamples/libDaisy//src/per/sai.h ****             SAI_1,
  52:../../../../DaisyExamples/libDaisy//src/per/sai.h ****             SAI_2,
  53:../../../../DaisyExamples/libDaisy//src/per/sai.h ****         };
ARM GAS  C:\Users\samue\AppData\Local\Temp\cckmzuMA.s 			page 48


  54:../../../../DaisyExamples/libDaisy//src/per/sai.h **** 
  55:../../../../DaisyExamples/libDaisy//src/per/sai.h ****         /** Rate at which samples will be streaming to/from the device. */
  56:../../../../DaisyExamples/libDaisy//src/per/sai.h ****         enum class SampleRate
  57:../../../../DaisyExamples/libDaisy//src/per/sai.h ****         {
  58:../../../../DaisyExamples/libDaisy//src/per/sai.h ****             SAI_8KHZ,
  59:../../../../DaisyExamples/libDaisy//src/per/sai.h ****             SAI_16KHZ,
  60:../../../../DaisyExamples/libDaisy//src/per/sai.h ****             SAI_32KHZ,
  61:../../../../DaisyExamples/libDaisy//src/per/sai.h ****             SAI_48KHZ,
  62:../../../../DaisyExamples/libDaisy//src/per/sai.h ****             SAI_96KHZ,
  63:../../../../DaisyExamples/libDaisy//src/per/sai.h ****         };
  64:../../../../DaisyExamples/libDaisy//src/per/sai.h **** 
  65:../../../../DaisyExamples/libDaisy//src/per/sai.h ****         /** Bit Depth that the hardware expects to be transferred to/from the device. */
  66:../../../../DaisyExamples/libDaisy//src/per/sai.h ****         enum class BitDepth
  67:../../../../DaisyExamples/libDaisy//src/per/sai.h ****         {
  68:../../../../DaisyExamples/libDaisy//src/per/sai.h ****             SAI_16BIT,
  69:../../../../DaisyExamples/libDaisy//src/per/sai.h ****             SAI_24BIT,
  70:../../../../DaisyExamples/libDaisy//src/per/sai.h ****             SAI_32BIT,
  71:../../../../DaisyExamples/libDaisy//src/per/sai.h ****         };
  72:../../../../DaisyExamples/libDaisy//src/per/sai.h **** 
  73:../../../../DaisyExamples/libDaisy//src/per/sai.h ****         /** Specifies whether a particular block is the master or the slave 
  74:../../../../DaisyExamples/libDaisy//src/per/sai.h ****          ** If both are set to slave, no MCLK signal will be used, and it is
  75:../../../../DaisyExamples/libDaisy//src/per/sai.h ****          ** expected that the codec will have its own xtal.
  76:../../../../DaisyExamples/libDaisy//src/per/sai.h ****          */
  77:../../../../DaisyExamples/libDaisy//src/per/sai.h ****         enum class Sync
  78:../../../../DaisyExamples/libDaisy//src/per/sai.h ****         {
  79:../../../../DaisyExamples/libDaisy//src/per/sai.h ****             MASTER,
  80:../../../../DaisyExamples/libDaisy//src/per/sai.h ****             SLAVE,
  81:../../../../DaisyExamples/libDaisy//src/per/sai.h ****         };
  82:../../../../DaisyExamples/libDaisy//src/per/sai.h **** 
  83:../../../../DaisyExamples/libDaisy//src/per/sai.h ****         /** Specifies the direction for each peripheral block. */
  84:../../../../DaisyExamples/libDaisy//src/per/sai.h ****         enum class Direction
  85:../../../../DaisyExamples/libDaisy//src/per/sai.h ****         {
  86:../../../../DaisyExamples/libDaisy//src/per/sai.h ****             TRANSMIT,
  87:../../../../DaisyExamples/libDaisy//src/per/sai.h ****             RECEIVE,
  88:../../../../DaisyExamples/libDaisy//src/per/sai.h ****         };
  89:../../../../DaisyExamples/libDaisy//src/per/sai.h **** 
  90:../../../../DaisyExamples/libDaisy//src/per/sai.h ****         Peripheral periph;
  91:../../../../DaisyExamples/libDaisy//src/per/sai.h ****         struct
  92:../../../../DaisyExamples/libDaisy//src/per/sai.h ****         {
  93:../../../../DaisyExamples/libDaisy//src/per/sai.h ****             dsy_gpio_pin mclk, fs, sck, sa, sb;
  94:../../../../DaisyExamples/libDaisy//src/per/sai.h ****         } pin_config;
  95:../../../../DaisyExamples/libDaisy//src/per/sai.h ****         SampleRate sr;
  96:../../../../DaisyExamples/libDaisy//src/per/sai.h ****         BitDepth   bit_depth;
  97:../../../../DaisyExamples/libDaisy//src/per/sai.h ****         Sync       a_sync, b_sync;
  98:../../../../DaisyExamples/libDaisy//src/per/sai.h ****         Direction  a_dir, b_dir;
  99:../../../../DaisyExamples/libDaisy//src/per/sai.h ****     };
 100:../../../../DaisyExamples/libDaisy//src/per/sai.h **** 
 101:../../../../DaisyExamples/libDaisy//src/per/sai.h ****     /** Return values for SAI functions */
 102:../../../../DaisyExamples/libDaisy//src/per/sai.h ****     enum class Result
 103:../../../../DaisyExamples/libDaisy//src/per/sai.h ****     {
 104:../../../../DaisyExamples/libDaisy//src/per/sai.h ****         OK,
 105:../../../../DaisyExamples/libDaisy//src/per/sai.h ****         ERR,
 106:../../../../DaisyExamples/libDaisy//src/per/sai.h ****     };
 107:../../../../DaisyExamples/libDaisy//src/per/sai.h **** 
 108:../../../../DaisyExamples/libDaisy//src/per/sai.h ****     SaiHandle() : pimpl_(nullptr) {}
 1293              		.loc 14 108 5 is_stmt 1 view .LVU272
 1294              	.LBE532:
ARM GAS  C:\Users\samue\AppData\Local\Temp\cckmzuMA.s 			page 49


 1295              	.LBE533:
 1296              	.LBE536:
  19:daisy_common.h ****     ~daisyCommon() {}
 1297              		.loc 1 19 19 is_stmt 0 view .LVU273
 1298 0078 C0E94F33 		strd	r3, r3, [r0, #316]
 1299 007c C0E95133 		strd	r3, r3, [r0, #324]
 1300 0080 C0E95333 		strd	r3, r3, [r0, #332]
 1301 0084 C0E95533 		strd	r3, r3, [r0, #340]
 1302 0088 C0E95733 		strd	r3, r3, [r0, #348]
 1303 008c C0E95933 		strd	r3, r3, [r0, #356]
 1304 0090 C0E95B33 		strd	r3, r3, [r0, #364]
 1305 0094 C0E95D33 		strd	r3, r3, [r0, #372]
 1306 0098 C0E95F34 		strd	r3, r4, [r0, #380]
 1307 009c C0E96142 		strd	r4, r2, [r0, #388]
 1308 00a0 C0E96923 		strd	r2, r3, [r0, #420]
 1309 00a4 C0E96322 		strd	r2, r2, [r0, #396]
 1310 00a8 C0E96522 		strd	r2, r2, [r0, #404]
 1311 00ac C0E96722 		strd	r2, r2, [r0, #412]
 1312 00b0 C0E96B33 		strd	r3, r3, [r0, #428]
 1313              	.LBE539:
 1314              	.LBE542:
 1315              	.LBE545:
   9:vca_eg.cpp    **** 
 1316              		.loc 9 9 13 view .LVU274
 1317 00b4 164A     		ldr	r2, .L31+4
 1318              	.LBB546:
 1319              	.LBB543:
 1320              	.LBB540:
  19:daisy_common.h ****     ~daisyCommon() {}
 1321              		.loc 1 19 19 view .LVU275
 1322 00b6 C0F8C431 		str	r3, [r0, #452]
 1323 00ba C0F8C811 		str	r1, [r0, #456]
 1324              	.LVL80:
  19:daisy_common.h ****     ~daisyCommon() {}
 1325              		.loc 1 19 19 view .LVU276
 1326              	.LBE540:
 1327              	.LBE543:
 1328              	.LBE546:
   9:vca_eg.cpp    **** 
 1329              		.loc 9 9 13 view .LVU277
 1330 00be 1549     		ldr	r1, .L31+8
 1331              	.LBB547:
 1332              	.LBB544:
 1333              	.LBB541:
  19:daisy_common.h ****     ~daisyCommon() {}
 1334              		.loc 1 19 19 view .LVU278
 1335 00c0 C0E96D33 		strd	r3, r3, [r0, #436]
 1336 00c4 C0E96F33 		strd	r3, r3, [r0, #444]
 1337              	.LBE541:
 1338              	.LBE544:
 1339              	.LBE547:
   9:vca_eg.cpp    **** 
 1340              		.loc 9 9 13 view .LVU279
 1341 00c8 FFF7FEFF 		bl	__aeabi_atexit
 1342              	.LVL81:
  14:vca_eg.cpp    **** 
 1343              		.loc 9 14 15 is_stmt 1 view .LVU280
ARM GAS  C:\Users\samue\AppData\Local\Temp\cckmzuMA.s 			page 50


 1344              	.LBB548:
 1345              	.LBI548:
 1346              		.file 15 "envelope.h"
   1:envelope.h    **** #include "daisysp.h"
   2:envelope.h    **** using namespace daisysp;
   3:envelope.h    **** 
   4:envelope.h    **** class envelope
   5:envelope.h    **** {
   6:envelope.h    ****     public:
   7:envelope.h    ****     envelope() {};
 1347              		.loc 15 7 5 view .LVU281
 1348              	.LBB549:
 1349              	.LBB550:
 1350              	.LBI550:
 1351              		.file 16 "../../../../DaisyExamples/DaisySP//Source/Control/adsr.h"
   1:../../../../DaisyExamples/DaisySP//Source/Control/adsr.h **** /*
   2:../../../../DaisyExamples/DaisySP//Source/Control/adsr.h **** Copyright (c) 2020 Electrosmith, Corp, Paul Batchelor
   3:../../../../DaisyExamples/DaisySP//Source/Control/adsr.h **** 
   4:../../../../DaisyExamples/DaisySP//Source/Control/adsr.h **** Use of this source code is governed by an MIT-style
   5:../../../../DaisyExamples/DaisySP//Source/Control/adsr.h **** license that can be found in the LICENSE file or at
   6:../../../../DaisyExamples/DaisySP//Source/Control/adsr.h **** https://opensource.org/licenses/MIT.
   7:../../../../DaisyExamples/DaisySP//Source/Control/adsr.h **** */
   8:../../../../DaisyExamples/DaisySP//Source/Control/adsr.h **** 
   9:../../../../DaisyExamples/DaisySP//Source/Control/adsr.h **** #pragma once
  10:../../../../DaisyExamples/DaisySP//Source/Control/adsr.h **** #ifndef DSY_ADSR_H
  11:../../../../DaisyExamples/DaisySP//Source/Control/adsr.h **** #define DSY_ADSR_H
  12:../../../../DaisyExamples/DaisySP//Source/Control/adsr.h **** 
  13:../../../../DaisyExamples/DaisySP//Source/Control/adsr.h **** #include <stdint.h>
  14:../../../../DaisyExamples/DaisySP//Source/Control/adsr.h **** #ifdef __cplusplus
  15:../../../../DaisyExamples/DaisySP//Source/Control/adsr.h **** 
  16:../../../../DaisyExamples/DaisySP//Source/Control/adsr.h **** namespace daisysp
  17:../../../../DaisyExamples/DaisySP//Source/Control/adsr.h **** {
  18:../../../../DaisyExamples/DaisySP//Source/Control/adsr.h **** /** Distinct stages that the phase of the envelope can be located in.
  19:../../../../DaisyExamples/DaisySP//Source/Control/adsr.h **** - IDLE   = located at phase location 0, and not currently running
  20:../../../../DaisyExamples/DaisySP//Source/Control/adsr.h **** - ATTACK  = First segment of envelope where phase moves from 0 to 1
  21:../../../../DaisyExamples/DaisySP//Source/Control/adsr.h **** - DECAY   = Second segment of envelope where phase moves from 1 to SUSTAIN value
  22:../../../../DaisyExamples/DaisySP//Source/Control/adsr.h **** - RELEASE =     Fourth segment of envelop where phase moves from SUSTAIN to 0
  23:../../../../DaisyExamples/DaisySP//Source/Control/adsr.h **** */
  24:../../../../DaisyExamples/DaisySP//Source/Control/adsr.h **** enum
  25:../../../../DaisyExamples/DaisySP//Source/Control/adsr.h **** {
  26:../../../../DaisyExamples/DaisySP//Source/Control/adsr.h ****     ADSR_SEG_IDLE    = 0,
  27:../../../../DaisyExamples/DaisySP//Source/Control/adsr.h ****     ADSR_SEG_ATTACK  = 1,
  28:../../../../DaisyExamples/DaisySP//Source/Control/adsr.h ****     ADSR_SEG_DECAY   = 2,
  29:../../../../DaisyExamples/DaisySP//Source/Control/adsr.h ****     ADSR_SEG_RELEASE = 4
  30:../../../../DaisyExamples/DaisySP//Source/Control/adsr.h **** };
  31:../../../../DaisyExamples/DaisySP//Source/Control/adsr.h **** 
  32:../../../../DaisyExamples/DaisySP//Source/Control/adsr.h **** 
  33:../../../../DaisyExamples/DaisySP//Source/Control/adsr.h **** /** adsr envelope module
  34:../../../../DaisyExamples/DaisySP//Source/Control/adsr.h **** 
  35:../../../../DaisyExamples/DaisySP//Source/Control/adsr.h **** Original author(s) : Paul Batchelor
  36:../../../../DaisyExamples/DaisySP//Source/Control/adsr.h **** 
  37:../../../../DaisyExamples/DaisySP//Source/Control/adsr.h **** Ported from Soundpipe by Ben Sergentanis, May 2020
  38:../../../../DaisyExamples/DaisySP//Source/Control/adsr.h ****  
  39:../../../../DaisyExamples/DaisySP//Source/Control/adsr.h **** Remake by Steffan DIedrichsen, May 2021
  40:../../../../DaisyExamples/DaisySP//Source/Control/adsr.h **** */
  41:../../../../DaisyExamples/DaisySP//Source/Control/adsr.h **** class Adsr
  42:../../../../DaisyExamples/DaisySP//Source/Control/adsr.h **** {
ARM GAS  C:\Users\samue\AppData\Local\Temp\cckmzuMA.s 			page 51


  43:../../../../DaisyExamples/DaisySP//Source/Control/adsr.h ****   public:
  44:../../../../DaisyExamples/DaisySP//Source/Control/adsr.h ****     Adsr() {}
 1352              		.loc 16 44 5 view .LVU282
 1353              		.loc 16 44 5 is_stmt 0 view .LVU283
 1354              	.LBE550:
 1355              	.LBE549:
 1356              	.LBE548:
  14:vca_eg.cpp    **** 
 1357              		.loc 9 14 15 is_stmt 1 view .LVU284
  14:vca_eg.cpp    **** 
 1358              		.loc 9 14 15 view .LVU285
 1359              	.LBB559:
 1360              		.loc 15 7 5 view .LVU286
 1361              	.LBB557:
 1362              	.LBB555:
 1363              		.loc 16 44 5 view .LVU287
 1364              	.LBB551:
 1365              	.LBB552:
 1366              		.loc 16 44 12 is_stmt 0 view .LVU288
 1367 00cc 124B     		ldr	r3, .L31+12
 1368 00ce 0020     		movs	r0, #0
 1369 00d0 1249     		ldr	r1, .L31+16
 1370              	.LBE552:
 1371              	.LBE551:
 1372              	.LBE555:
 1373              		.loc 15 7 16 view .LVU289
 1374 00d2 DC62     		str	r4, [r3, #44]
 1375              	.LBB556:
 1376              	.LBB554:
 1377              	.LBB553:
 1378              		.loc 16 44 12 view .LVU290
 1379 00d4 1860     		str	r0, [r3]	@ float
 1380 00d6 5860     		str	r0, [r3, #4]	@ float
 1381 00d8 9960     		str	r1, [r3, #8]	@ float
 1382 00da D860     		str	r0, [r3, #12]	@ float
 1383 00dc 1961     		str	r1, [r3, #16]	@ float
 1384 00de 5961     		str	r1, [r3, #20]	@ float
 1385 00e0 9961     		str	r1, [r3, #24]	@ float
 1386 00e2 D861     		str	r0, [r3, #28]	@ float
 1387 00e4 1862     		str	r0, [r3, #32]	@ float
 1388 00e6 5862     		str	r0, [r3, #36]	@ float
 1389 00e8 D863     		str	r0, [r3, #60]	@ float
 1390 00ea 1864     		str	r0, [r3, #64]	@ float
 1391 00ec 5964     		str	r1, [r3, #68]	@ float
 1392 00ee 9864     		str	r0, [r3, #72]	@ float
 1393 00f0 D964     		str	r1, [r3, #76]	@ float
 1394 00f2 1965     		str	r1, [r3, #80]	@ float
 1395 00f4 5965     		str	r1, [r3, #84]	@ float
 1396 00f6 9865     		str	r0, [r3, #88]	@ float
 1397 00f8 D865     		str	r0, [r3, #92]	@ float
 1398 00fa 1866     		str	r0, [r3, #96]	@ float
 1399              	.LBE553:
 1400              	.LBE554:
 1401              	.LBE556:
 1402              	.LBE557:
 1403              	.LBE559:
  14:vca_eg.cpp    **** 
ARM GAS  C:\Users\samue\AppData\Local\Temp\cckmzuMA.s 			page 52


 1404              		.loc 9 14 10 view .LVU291
 1405 00fc 2046     		mov	r0, r4
 1406              	.LBB560:
 1407              	.LBB558:
 1408              		.loc 15 7 16 view .LVU292
 1409 00fe 9C66     		str	r4, [r3, #104]
 1410              	.LVL82:
 1411              		.loc 15 7 16 view .LVU293
 1412              	.LBE558:
 1413              	.LBE560:
  14:vca_eg.cpp    **** 
 1414              		.loc 9 14 15 is_stmt 1 view .LVU294
  14:vca_eg.cpp    **** 
 1415              		.loc 9 14 15 view .LVU295
  14:vca_eg.cpp    **** 
 1416              		.loc 9 14 10 is_stmt 0 view .LVU296
 1417 0100 034A     		ldr	r2, .L31+4
 1418 0102 0749     		ldr	r1, .L31+20
 1419              	.LBE561:
 1420              	.LBE563:
 1421              		.loc 9 124 1 view .LVU297
 1422 0104 BDE81040 		pop	{r4, lr}
 1423              		.cfi_restore 14
 1424              		.cfi_restore 4
 1425              		.cfi_def_cfa_offset 0
 1426              	.LBB564:
 1427              	.LBB562:
  14:vca_eg.cpp    **** 
 1428              		.loc 9 14 10 view .LVU298
 1429 0108 FFF7FEBF 		b	__aeabi_atexit
 1430              	.LVL83:
 1431              	.L32:
 1432              		.align	2
 1433              	.L31:
 1434 010c 00000000 		.word	.LANCHOR1
 1435 0110 00000000 		.word	__dso_handle
 1436 0114 00000000 		.word	_ZN5daisy11daisyCommonD1Ev
 1437 0118 00000000 		.word	.LANCHOR0
 1438 011c 000080BF 		.word	-1082130432
 1439 0120 00000000 		.word	__tcf_0
 1440              	.LBE562:
 1441              	.LBE564:
 1442              		.cfi_endproc
 1443              	.LFE5258:
 1445              		.section	.init_array,"aw",%init_array
 1446              		.align	2
 1447 0000 00000000 		.word	_GLOBAL__sub_I_board(target1)
 1448              		.global	env
 1449              		.global	fs
 1450              		.global	blocksize
 1451              		.global	board
 1452              		.section	.bss.board,"aw",%nobits
 1453              		.align	2
 1454              		.set	.LANCHOR1,. + 0
 1457              	board:
 1458 0000 00000000 		.space	460
 1458      00000000 
ARM GAS  C:\Users\samue\AppData\Local\Temp\cckmzuMA.s 			page 53


 1458      00000000 
 1458      00000000 
 1458      00000000 
 1459              		.section	.bss.env,"aw",%nobits
 1460              		.align	2
 1461              		.set	.LANCHOR0,. + 0
 1464              	env:
 1465 0000 00000000 		.space	120
 1465      00000000 
 1465      00000000 
 1465      00000000 
 1465      00000000 
 1466              		.section	.data.blocksize,"aw"
 1467              		.align	2
 1468              		.set	.LANCHOR3,. + 0
 1471              	blocksize:
 1472 0000 20000000 		.word	32
 1473              		.section	.data.fs,"aw"
 1474              		.align	2
 1475              		.set	.LANCHOR2,. + 0
 1478              	fs:
 1479 0000 0080BB47 		.word	1203470336
 1480              		.text
 1481              	.Letext0:
 1482              		.file 17 "c:\\program files\\daisytoolchain\\arm-none-eabi\\include\\machine\\_default_types.h"
 1483              		.file 18 "c:\\program files\\daisytoolchain\\arm-none-eabi\\include\\sys\\_stdint.h"
 1484              		.file 19 "c:\\program files\\daisytoolchain\\arm-none-eabi\\include\\stdint.h"
 1485              		.file 20 "c:\\program files\\daisytoolchain\\lib\\gcc\\arm-none-eabi\\10.2.1\\include\\stddef.h"
 1486              		.file 21 "c:\\program files\\daisytoolchain\\arm-none-eabi\\include\\c++\\10.2.1\\cmath"
 1487              		.file 22 "c:\\program files\\daisytoolchain\\arm-none-eabi\\include\\c++\\10.2.1\\bits\\std_abs.h"
 1488              		.file 23 "c:\\program files\\daisytoolchain\\arm-none-eabi\\include\\c++\\10.2.1\\cstdlib"
 1489              		.file 24 "c:\\program files\\daisytoolchain\\arm-none-eabi\\include\\c++\\10.2.1\\cstdint"
 1490              		.file 25 "c:\\program files\\daisytoolchain\\arm-none-eabi\\include\\c++\\10.2.1\\type_traits"
 1491              		.file 26 "c:\\program files\\daisytoolchain\\arm-none-eabi\\include\\c++\\10.2.1\\debug\\debug.h"
 1492              		.file 27 "c:\\program files\\daisytoolchain\\arm-none-eabi\\include\\c++\\10.2.1\\arm-none-eabi\\t
 1493              		.file 28 "c:\\program files\\daisytoolchain\\arm-none-eabi\\include\\c++\\10.2.1\\bits\\algorithmf
 1494              		.file 29 "c:\\program files\\daisytoolchain\\arm-none-eabi\\include\\c++\\10.2.1\\bits\\stl_pair.h
 1495              		.file 30 "c:\\program files\\daisytoolchain\\arm-none-eabi\\include\\c++\\10.2.1\\bits\\exception_
 1496              		.file 31 "c:\\program files\\daisytoolchain\\arm-none-eabi\\include\\c++\\10.2.1\\cstdarg"
 1497              		.file 32 "c:\\program files\\daisytoolchain\\arm-none-eabi\\include\\c++\\10.2.1\\cstdio"
 1498              		.file 33 "c:\\program files\\daisytoolchain\\arm-none-eabi\\include\\c++\\10.2.1\\cstring"
 1499              		.file 34 "c:\\program files\\daisytoolchain\\arm-none-eabi\\include\\c++\\10.2.1\\cwchar"
 1500              		.file 35 "c:\\program files\\daisytoolchain\\arm-none-eabi\\include\\c++\\10.2.1\\clocale"
 1501              		.file 36 "c:\\program files\\daisytoolchain\\arm-none-eabi\\include\\c++\\10.2.1\\bits\\basic_stri
 1502              		.file 37 "c:\\program files\\daisytoolchain\\arm-none-eabi\\include\\c++\\10.2.1\\bits\\stl_tempbu
 1503              		.file 38 "c:\\program files\\daisytoolchain\\arm-none-eabi\\include\\c++\\10.2.1\\bits\\predefined
 1504              		.file 39 "c:\\program files\\daisytoolchain\\arm-none-eabi\\include\\sys\\_types.h"
 1505              		.file 40 "c:\\program files\\daisytoolchain\\arm-none-eabi\\include\\sys\\reent.h"
 1506              		.file 41 "c:\\program files\\daisytoolchain\\arm-none-eabi\\include\\sys\\lock.h"
 1507              		.file 42 "c:\\program files\\daisytoolchain\\arm-none-eabi\\include\\math.h"
 1508              		.file 43 "c:\\program files\\daisytoolchain\\arm-none-eabi\\include\\stdlib.h"
 1509              		.file 44 "c:\\program files\\daisytoolchain\\arm-none-eabi\\include\\c++\\10.2.1\\math.h"
 1510              		.file 45 "c:\\program files\\daisytoolchain\\arm-none-eabi\\include\\c++\\10.2.1\\stdlib.h"
 1511              		.file 46 "../../../../DaisyExamples/libDaisy//src/per/tim.h"
 1512              		.file 47 "../../../../DaisyExamples/libDaisy//src/util/wav_format.h"
 1513              		.file 48 "../../../../DaisyExamples/libDaisy//src/dev/max11300.h"
 1514              		.file 49 "../../../../DaisyExamples/libDaisy//src/dev/sdram.h"
ARM GAS  C:\Users\samue\AppData\Local\Temp\cckmzuMA.s 			page 54


 1515              		.file 50 "c:\\program files\\daisytoolchain\\lib\\gcc\\arm-none-eabi\\10.2.1\\include\\stdarg.h"
 1516              		.file 51 "c:\\program files\\daisytoolchain\\arm-none-eabi\\include\\stdio.h"
 1517              		.file 52 "c:\\program files\\daisytoolchain\\arm-none-eabi\\include\\string.h"
 1518              		.file 53 "../../../../DaisyExamples/DaisySP//Source/Control/adenv.h"
 1519              		.file 54 "../../../../DaisyExamples/DaisySP//Source/Utility/dsp.h"
 1520              		.file 55 "c:\\program files\\daisytoolchain\\arm-none-eabi\\include\\wchar.h"
 1521              		.file 56 "c:\\program files\\daisytoolchain\\arm-none-eabi\\include\\locale.h"
 1522              		.file 57 "<built-in>"
 1523              		.file 58 "../../../../DaisyExamples/libDaisy//src/dev/sr_595.h"
ARM GAS  C:\Users\samue\AppData\Local\Temp\cckmzuMA.s 			page 55

