ARM GAS  C:\Users\samue\AppData\Local\Temp\ccg9npc6.s 			page 1


   1              		.cpu cortex-m7
   2              		.eabi_attribute 28, 1
   3              		.eabi_attribute 20, 1
   4              		.eabi_attribute 21, 1
   5              		.eabi_attribute 23, 3
   6              		.eabi_attribute 24, 1
   7              		.eabi_attribute 25, 1
   8              		.eabi_attribute 26, 1
   9              		.eabi_attribute 30, 2
  10              		.eabi_attribute 34, 1
  11              		.eabi_attribute 18, 4
  12              		.file	"voice.cpp"
  13              		.text
  14              	.Ltext0:
  15              		.cfi_sections	.debug_frame
  16              		.section	.rodata._ZN7daisysp9FIRMemoryILj0ELj0EE5ResetEv.part.0.str1.4,"aMS",%progbits,1
  17              		.align	2
  18              	.LC0:
  19 0000 3020213D 		.ascii	"0 != state_size_\000"
  19      20737461 
  19      74655F73 
  19      697A655F 
  19      00
  20 0011 000000   		.align	2
  21              	.LC1:
  22 0014 766F6964 		.ascii	"void daisysp::FIRMemory<0, 0>::Reset()\000"
  22      20646169 
  22      73797370 
  22      3A3A4649 
  22      524D656D 
  23 003b 00       		.align	2
  24              	.LC2:
  25 003c 2E2E2F2E 		.ascii	"../../../../DaisyExamples/DaisySP//Source/Filters/f"
  25      2E2F2E2E 
  25      2F2E2E2F 
  25      44616973 
  25      79457861 
  26 006f 69722E68 		.ascii	"ir.h\000"
  26      00
  27              		.section	.text._ZN7daisysp9FIRMemoryILj0ELj0EE5ResetEv.part.0,"ax",%progbits
  28              		.align	1
  29              		.p2align 2,,3
  30              		.arch armv7e-m
  31              		.syntax unified
  32              		.thumb
  33              		.thumb_func
  34              		.fpu fpv5-d16
  36              	_ZN7daisysp9FIRMemoryILj0ELj0EE5ResetEv.part.0:
  37              	.LFB4075:
  38              		.file 1 "../../../../DaisyExamples/DaisySP//Source/Filters/fir.h"
   1:../../../../DaisyExamples/DaisySP//Source/Filters/fir.h **** /*
   2:../../../../DaisyExamples/DaisySP//Source/Filters/fir.h **** Copyright (c) 2020 Electrosmith, Corp, Alexander Petrov-Savchenko
   3:../../../../DaisyExamples/DaisySP//Source/Filters/fir.h **** 
   4:../../../../DaisyExamples/DaisySP//Source/Filters/fir.h **** Use of this source code is governed by an MIT-style
   5:../../../../DaisyExamples/DaisySP//Source/Filters/fir.h **** license that can be found in the LICENSE file or at
   6:../../../../DaisyExamples/DaisySP//Source/Filters/fir.h **** https://opensource.org/licenses/MIT.
   7:../../../../DaisyExamples/DaisySP//Source/Filters/fir.h **** */
ARM GAS  C:\Users\samue\AppData\Local\Temp\ccg9npc6.s 			page 2


   8:../../../../DaisyExamples/DaisySP//Source/Filters/fir.h **** 
   9:../../../../DaisyExamples/DaisySP//Source/Filters/fir.h **** #pragma once
  10:../../../../DaisyExamples/DaisySP//Source/Filters/fir.h **** #ifndef DSY_FIRFILTER_H
  11:../../../../DaisyExamples/DaisySP//Source/Filters/fir.h **** #define DSY_FIRFILTER_H
  12:../../../../DaisyExamples/DaisySP//Source/Filters/fir.h **** 
  13:../../../../DaisyExamples/DaisySP//Source/Filters/fir.h **** #include <cstdint>
  14:../../../../DaisyExamples/DaisySP//Source/Filters/fir.h **** #include <cstring> // for memset
  15:../../../../DaisyExamples/DaisySP//Source/Filters/fir.h **** #include <cassert>
  16:../../../../DaisyExamples/DaisySP//Source/Filters/fir.h **** #include <utility>
  17:../../../../DaisyExamples/DaisySP//Source/Filters/fir.h **** 
  18:../../../../DaisyExamples/DaisySP//Source/Filters/fir.h **** #ifdef USE_ARM_DSP
  19:../../../../DaisyExamples/DaisySP//Source/Filters/fir.h **** #include <arm_math.h> // required for platform-optimized version
  20:../../../../DaisyExamples/DaisySP//Source/Filters/fir.h **** #endif
  21:../../../../DaisyExamples/DaisySP//Source/Filters/fir.h **** 
  22:../../../../DaisyExamples/DaisySP//Source/Filters/fir.h **** /**   @brief FIR Filter implementation, generic and ARM CMSIS DSP based
  23:../../../../DaisyExamples/DaisySP//Source/Filters/fir.h ****  *    @author Alexander Petrov-Savchenko (axp@soft-amp.com)
  24:../../../../DaisyExamples/DaisySP//Source/Filters/fir.h ****  *    @date February 2021
  25:../../../../DaisyExamples/DaisySP//Source/Filters/fir.h ****  */
  26:../../../../DaisyExamples/DaisySP//Source/Filters/fir.h **** 
  27:../../../../DaisyExamples/DaisySP//Source/Filters/fir.h **** namespace daisysp
  28:../../../../DaisyExamples/DaisySP//Source/Filters/fir.h **** {
  29:../../../../DaisyExamples/DaisySP//Source/Filters/fir.h **** /* use this as a template parameter to indicate user-provided memory storage */
  30:../../../../DaisyExamples/DaisySP//Source/Filters/fir.h **** #define FIRFILTER_USER_MEMORY 0, 0
  31:../../../../DaisyExamples/DaisySP//Source/Filters/fir.h **** 
  32:../../../../DaisyExamples/DaisySP//Source/Filters/fir.h **** /** Helper class that defines the memory model - internal or user-provided 
  33:../../../../DaisyExamples/DaisySP//Source/Filters/fir.h ****  * \param max_size - maximal filter length
  34:../../../../DaisyExamples/DaisySP//Source/Filters/fir.h ****  * \param max_block - maximal length of the block processing
  35:../../../../DaisyExamples/DaisySP//Source/Filters/fir.h ****  * if both parameters are 0, does NOT allocate any memory and instead
  36:../../../../DaisyExamples/DaisySP//Source/Filters/fir.h ****  * requires user-provided memory blocks to be passed as parameters.
  37:../../../../DaisyExamples/DaisySP//Source/Filters/fir.h ****  *
  38:../../../../DaisyExamples/DaisySP//Source/Filters/fir.h ****  * Not intended to be used directly, so constructor is not exposed
  39:../../../../DaisyExamples/DaisySP//Source/Filters/fir.h ****  */
  40:../../../../DaisyExamples/DaisySP//Source/Filters/fir.h **** template <size_t max_size, size_t max_block>
  41:../../../../DaisyExamples/DaisySP//Source/Filters/fir.h **** struct FIRMemory
  42:../../../../DaisyExamples/DaisySP//Source/Filters/fir.h **** {
  43:../../../../DaisyExamples/DaisySP//Source/Filters/fir.h ****     /* Public part of the API to be passed through to the FIR users */
  44:../../../../DaisyExamples/DaisySP//Source/Filters/fir.h ****   public:
  45:../../../../DaisyExamples/DaisySP//Source/Filters/fir.h ****     /* Reset the internal filter state (but not the coefficients) */
  46:../../../../DaisyExamples/DaisySP//Source/Filters/fir.h ****     void Reset() { memset(state_, 0, state_size_ * sizeof(state_[0])); }
  47:../../../../DaisyExamples/DaisySP//Source/Filters/fir.h **** 
  48:../../../../DaisyExamples/DaisySP//Source/Filters/fir.h **** 
  49:../../../../DaisyExamples/DaisySP//Source/Filters/fir.h ****   protected:
  50:../../../../DaisyExamples/DaisySP//Source/Filters/fir.h ****     FIRMemory() : state_{0}, coefs_{0}, size_(0) {}
  51:../../../../DaisyExamples/DaisySP//Source/Filters/fir.h **** 
  52:../../../../DaisyExamples/DaisySP//Source/Filters/fir.h ****     /* Expression for the maximum block size */
  53:../../../../DaisyExamples/DaisySP//Source/Filters/fir.h ****     static constexpr size_t MaxBlock() { return max_block; }
  54:../../../../DaisyExamples/DaisySP//Source/Filters/fir.h **** 
  55:../../../../DaisyExamples/DaisySP//Source/Filters/fir.h ****     /** Configure the filter coefficients
  56:../../../../DaisyExamples/DaisySP//Source/Filters/fir.h ****      * \param coefs - pointer to coefficients (tail-first order)
  57:../../../../DaisyExamples/DaisySP//Source/Filters/fir.h ****      * \param size - number of coefficients pointed by coefs (filter length)
  58:../../../../DaisyExamples/DaisySP//Source/Filters/fir.h ****      * \param reverse - flag to perform reversing of the filter
  59:../../../../DaisyExamples/DaisySP//Source/Filters/fir.h ****      * \return true if all conditions are met and the filter is configured
  60:../../../../DaisyExamples/DaisySP//Source/Filters/fir.h ****      */
  61:../../../../DaisyExamples/DaisySP//Source/Filters/fir.h ****     bool SetCoefs(const float coefs[], size_t size, bool reverse)
  62:../../../../DaisyExamples/DaisySP//Source/Filters/fir.h ****     {
  63:../../../../DaisyExamples/DaisySP//Source/Filters/fir.h ****         /* truncate silently */
  64:../../../../DaisyExamples/DaisySP//Source/Filters/fir.h ****         size_ = DSY_MIN(size, max_size);
ARM GAS  C:\Users\samue\AppData\Local\Temp\ccg9npc6.s 			page 3


  65:../../../../DaisyExamples/DaisySP//Source/Filters/fir.h **** 
  66:../../../../DaisyExamples/DaisySP//Source/Filters/fir.h ****         if(reverse)
  67:../../../../DaisyExamples/DaisySP//Source/Filters/fir.h ****         {
  68:../../../../DaisyExamples/DaisySP//Source/Filters/fir.h ****             /* reverse the IR */
  69:../../../../DaisyExamples/DaisySP//Source/Filters/fir.h ****             for(size_t i = 0; i < size_; i++)
  70:../../../../DaisyExamples/DaisySP//Source/Filters/fir.h ****             {
  71:../../../../DaisyExamples/DaisySP//Source/Filters/fir.h ****                 /* start from size, not size_! */
  72:../../../../DaisyExamples/DaisySP//Source/Filters/fir.h ****                 coefs_[i] = coefs[size - 1u - i];
  73:../../../../DaisyExamples/DaisySP//Source/Filters/fir.h ****             }
  74:../../../../DaisyExamples/DaisySP//Source/Filters/fir.h ****         }
  75:../../../../DaisyExamples/DaisySP//Source/Filters/fir.h ****         else
  76:../../../../DaisyExamples/DaisySP//Source/Filters/fir.h ****         {
  77:../../../../DaisyExamples/DaisySP//Source/Filters/fir.h ****             /* just copy as is */
  78:../../../../DaisyExamples/DaisySP//Source/Filters/fir.h ****             memcpy(coefs_, coefs, size_ * sizeof(coefs[0]));
  79:../../../../DaisyExamples/DaisySP//Source/Filters/fir.h ****         }
  80:../../../../DaisyExamples/DaisySP//Source/Filters/fir.h **** 
  81:../../../../DaisyExamples/DaisySP//Source/Filters/fir.h ****         return true;
  82:../../../../DaisyExamples/DaisySP//Source/Filters/fir.h ****     }
  83:../../../../DaisyExamples/DaisySP//Source/Filters/fir.h **** 
  84:../../../../DaisyExamples/DaisySP//Source/Filters/fir.h ****     static constexpr size_t state_size_ = max_size + max_block - 1u;
  85:../../../../DaisyExamples/DaisySP//Source/Filters/fir.h ****     float                   state_[state_size_]; /*< Internal state buffer */
  86:../../../../DaisyExamples/DaisySP//Source/Filters/fir.h ****     float                   coefs_[max_size];    /*< Filter coefficients */
  87:../../../../DaisyExamples/DaisySP//Source/Filters/fir.h ****     size_t                  size_; /*< Active filter length (<= max_size) */
  88:../../../../DaisyExamples/DaisySP//Source/Filters/fir.h **** };
  89:../../../../DaisyExamples/DaisySP//Source/Filters/fir.h **** 
  90:../../../../DaisyExamples/DaisySP//Source/Filters/fir.h **** /* Specialization for user-provided memory */
  91:../../../../DaisyExamples/DaisySP//Source/Filters/fir.h **** template <>
  92:../../../../DaisyExamples/DaisySP//Source/Filters/fir.h **** struct FIRMemory<FIRFILTER_USER_MEMORY>
  93:../../../../DaisyExamples/DaisySP//Source/Filters/fir.h **** {
  94:../../../../DaisyExamples/DaisySP//Source/Filters/fir.h ****     /* Public part of the API to be passed through to the FIRFilter user */
  95:../../../../DaisyExamples/DaisySP//Source/Filters/fir.h ****   public:
  96:../../../../DaisyExamples/DaisySP//Source/Filters/fir.h ****     /** Set user-provided state buffer
  97:../../../../DaisyExamples/DaisySP//Source/Filters/fir.h ****      * \param state - pointer to the allocated memory block
  98:../../../../DaisyExamples/DaisySP//Source/Filters/fir.h ****      * \param length - length of the provided memory block (in elements)
  99:../../../../DaisyExamples/DaisySP//Source/Filters/fir.h ****      * The length should be determined as follows 
 100:../../../../DaisyExamples/DaisySP//Source/Filters/fir.h ****      * length >= max_filter_size + max_processing_block - 1
 101:../../../../DaisyExamples/DaisySP//Source/Filters/fir.h ****      */
 102:../../../../DaisyExamples/DaisySP//Source/Filters/fir.h ****     void SetStateBuffer(float state[], size_t length)
 103:../../../../DaisyExamples/DaisySP//Source/Filters/fir.h ****     {
 104:../../../../DaisyExamples/DaisySP//Source/Filters/fir.h ****         state_      = state;
 105:../../../../DaisyExamples/DaisySP//Source/Filters/fir.h ****         state_size_ = length;
 106:../../../../DaisyExamples/DaisySP//Source/Filters/fir.h ****     }
 107:../../../../DaisyExamples/DaisySP//Source/Filters/fir.h ****     /* Reset the internal filter state (but not the coefficients) */
 108:../../../../DaisyExamples/DaisySP//Source/Filters/fir.h ****     void Reset()
  39              		.loc 1 108 10 view -0
  40              		.cfi_startproc
  41              		@ Volatile: function does not return.
  42              		@ args = 0, pretend = 0, frame = 0
  43              		@ frame_needed = 0, uses_anonymous_args = 0
  44              	.LVL0:
  45              		.loc 1 108 10 is_stmt 0 view .LVU1
  46 0000 08B5     		push	{r3, lr}
  47              		.cfi_def_cfa_offset 8
  48              		.cfi_offset 3, -8
  49              		.cfi_offset 14, -4
 109:../../../../DaisyExamples/DaisySP//Source/Filters/fir.h ****     {
 110:../../../../DaisyExamples/DaisySP//Source/Filters/fir.h ****         assert(nullptr != state_);
ARM GAS  C:\Users\samue\AppData\Local\Temp\ccg9npc6.s 			page 4


 111:../../../../DaisyExamples/DaisySP//Source/Filters/fir.h ****         assert(0 != state_size_);
  50              		.loc 1 111 9 view .LVU2
  51 0002 034A     		ldr	r2, .L4
  52 0004 6F21     		movs	r1, #111
  53 0006 034B     		ldr	r3, .L4+4
  54 0008 0348     		ldr	r0, .L4+8
  55 000a FFF7FEFF 		bl	__assert_func
  56              	.LVL1:
  57              	.L5:
  58 000e 00BF     		.align	2
  59              	.L4:
  60 0010 14000000 		.word	.LC1
  61 0014 00000000 		.word	.LC0
  62 0018 3C000000 		.word	.LC2
  63              		.cfi_endproc
  64              	.LFE4075:
  66              		.section	.rodata._ZN7daisysp9FIRMemoryILj0ELj0EE8SetCoefsEPKfjb.part.0.str1.4,"aMS",%progbits,1
  67              		.align	2
  68              	.LC3:
  69 0000 6E756C6C 		.ascii	"nullptr != coefs || 0 == size\000"
  69      70747220 
  69      213D2063 
  69      6F656673 
  69      207C7C20 
  70 001e 0000     		.align	2
  71              	.LC4:
  72 0020 626F6F6C 		.ascii	"bool daisysp::FIRMemory<0, 0>::SetCoefs(const float"
  72      20646169 
  72      73797370 
  72      3A3A4649 
  72      524D656D 
  73 0053 2A2C2073 		.ascii	"*, size_t, bool)\000"
  73      697A655F 
  73      742C2062 
  73      6F6F6C29 
  73      00
  74              		.section	.text._ZN7daisysp9FIRMemoryILj0ELj0EE8SetCoefsEPKfjb.part.0,"ax",%progbits
  75              		.align	1
  76              		.p2align 2,,3
  77              		.syntax unified
  78              		.thumb
  79              		.thumb_func
  80              		.fpu fpv5-d16
  82              	_ZN7daisysp9FIRMemoryILj0ELj0EE8SetCoefsEPKfjb.part.0:
  83              	.LFB4076:
 112:../../../../DaisyExamples/DaisySP//Source/Filters/fir.h ****         if(nullptr != state_)
 113:../../../../DaisyExamples/DaisySP//Source/Filters/fir.h ****         {
 114:../../../../DaisyExamples/DaisySP//Source/Filters/fir.h ****             memset(state_, 0, state_size_ * sizeof(state_[0]));
 115:../../../../DaisyExamples/DaisySP//Source/Filters/fir.h ****         }
 116:../../../../DaisyExamples/DaisySP//Source/Filters/fir.h ****     }
 117:../../../../DaisyExamples/DaisySP//Source/Filters/fir.h **** 
 118:../../../../DaisyExamples/DaisySP//Source/Filters/fir.h ****   protected:
 119:../../../../DaisyExamples/DaisySP//Source/Filters/fir.h ****     FIRMemory() : state_(nullptr), coefs_(nullptr), size_(0), state_size_(0) {}
 120:../../../../DaisyExamples/DaisySP//Source/Filters/fir.h **** 
 121:../../../../DaisyExamples/DaisySP//Source/Filters/fir.h ****     /* Expression for the maximum processing block size currently supported */
 122:../../../../DaisyExamples/DaisySP//Source/Filters/fir.h ****     size_t MaxBlock() const
 123:../../../../DaisyExamples/DaisySP//Source/Filters/fir.h ****     {
ARM GAS  C:\Users\samue\AppData\Local\Temp\ccg9npc6.s 			page 5


 124:../../../../DaisyExamples/DaisySP//Source/Filters/fir.h ****         return state_size_ + 1u > size_ ? state_size_ + 1u - size_ : 0;
 125:../../../../DaisyExamples/DaisySP//Source/Filters/fir.h ****     }
 126:../../../../DaisyExamples/DaisySP//Source/Filters/fir.h **** 
 127:../../../../DaisyExamples/DaisySP//Source/Filters/fir.h ****     /** Configure the filter coefficients
 128:../../../../DaisyExamples/DaisySP//Source/Filters/fir.h ****      * \param coefs - pointer to coefficients (tail-first order)
 129:../../../../DaisyExamples/DaisySP//Source/Filters/fir.h ****      * \param size - number of coefficients pointed by coefs (filter length)
 130:../../../../DaisyExamples/DaisySP//Source/Filters/fir.h ****      * \param reverse - flag to perform reversing of the filter
 131:../../../../DaisyExamples/DaisySP//Source/Filters/fir.h ****      * \return true if all conditions are met and the filter is configured
 132:../../../../DaisyExamples/DaisySP//Source/Filters/fir.h ****      */
 133:../../../../DaisyExamples/DaisySP//Source/Filters/fir.h ****     bool SetCoefs(const float coefs[], size_t size, bool reverse)
  84              		.loc 1 133 10 is_stmt 1 view -0
  85              		.cfi_startproc
  86              		@ Volatile: function does not return.
  87              		@ args = 0, pretend = 0, frame = 0
  88              		@ frame_needed = 0, uses_anonymous_args = 0
  89              	.LVL2:
  90              		.loc 1 133 10 is_stmt 0 view .LVU4
  91 0000 08B5     		push	{r3, lr}
  92              		.cfi_def_cfa_offset 8
  93              		.cfi_offset 3, -8
  94              		.cfi_offset 14, -4
 134:../../../../DaisyExamples/DaisySP//Source/Filters/fir.h ****     {
 135:../../../../DaisyExamples/DaisySP//Source/Filters/fir.h ****         /* reversing of external IR is not supported*/
 136:../../../../DaisyExamples/DaisySP//Source/Filters/fir.h ****         assert(false == reverse);
 137:../../../../DaisyExamples/DaisySP//Source/Filters/fir.h ****         assert(nullptr != coefs || 0 == size);
  95              		.loc 1 137 9 view .LVU5
  96 0002 034A     		ldr	r2, .L8
  97 0004 8921     		movs	r1, #137
  98 0006 034B     		ldr	r3, .L8+4
  99 0008 0348     		ldr	r0, .L8+8
 100 000a FFF7FEFF 		bl	__assert_func
 101              	.LVL3:
 102              	.L9:
 103 000e 00BF     		.align	2
 104              	.L8:
 105 0010 20000000 		.word	.LC4
 106 0014 00000000 		.word	.LC3
 107 0018 3C000000 		.word	.LC2
 108              		.cfi_endproc
 109              	.LFE4076:
 111              		.section	.text._ZN5voice4InitEf,"ax",%progbits
 112              		.align	1
 113              		.p2align 2,,3
 114              		.global	_ZN5voice4InitEf
 115              		.syntax unified
 116              		.thumb
 117              		.thumb_func
 118              		.fpu fpv5-d16
 120              	_ZN5voice4InitEf:
 121              	.LVL4:
 122              	.LFB3515:
 123              		.file 2 "voice.cpp"
   1:voice.cpp     **** #include "voice.h"
   2:voice.cpp     **** 
   3:voice.cpp     **** void voice::Init(float fs)
   4:voice.cpp     **** {
 124              		.loc 2 4 1 is_stmt 1 view -0
ARM GAS  C:\Users\samue\AppData\Local\Temp\ccg9npc6.s 			page 6


 125              		.cfi_startproc
 126              		@ args = 0, pretend = 0, frame = 0
 127              		@ frame_needed = 0, uses_anonymous_args = 0
   5:voice.cpp     ****     osc_tri_.Init(fs);
 128              		.loc 2 5 5 view .LVU7
   4:voice.cpp     ****     osc_tri_.Init(fs);
 129              		.loc 2 4 1 is_stmt 0 view .LVU8
 130 0000 2DE9F041 		push	{r4, r5, r6, r7, r8, lr}
 131              		.cfi_def_cfa_offset 24
 132              		.cfi_offset 4, -24
 133              		.cfi_offset 5, -20
 134              		.cfi_offset 6, -16
 135              		.cfi_offset 7, -12
 136              		.cfi_offset 8, -8
 137              		.cfi_offset 14, -4
 138 0004 2DED048B 		vpush.64	{d8, d9}
 139              		.cfi_def_cfa_offset 40
 140              		.cfi_offset 80, -40
 141              		.cfi_offset 81, -36
 142              		.cfi_offset 82, -32
 143              		.cfi_offset 83, -28
 144              	.LBB288:
 145              	.LBB289:
 146              		.file 3 "../../../../DaisyExamples/DaisySP//Source/Synthesis/oscillator.h"
   1:../../../../DaisyExamples/DaisySP//Source/Synthesis/oscillator.h **** /*
   2:../../../../DaisyExamples/DaisySP//Source/Synthesis/oscillator.h **** Copyright (c) 2020 Electrosmith, Corp
   3:../../../../DaisyExamples/DaisySP//Source/Synthesis/oscillator.h **** 
   4:../../../../DaisyExamples/DaisySP//Source/Synthesis/oscillator.h **** Use of this source code is governed by an MIT-style
   5:../../../../DaisyExamples/DaisySP//Source/Synthesis/oscillator.h **** license that can be found in the LICENSE file or at
   6:../../../../DaisyExamples/DaisySP//Source/Synthesis/oscillator.h **** https://opensource.org/licenses/MIT.
   7:../../../../DaisyExamples/DaisySP//Source/Synthesis/oscillator.h **** */
   8:../../../../DaisyExamples/DaisySP//Source/Synthesis/oscillator.h **** 
   9:../../../../DaisyExamples/DaisySP//Source/Synthesis/oscillator.h **** #pragma once
  10:../../../../DaisyExamples/DaisySP//Source/Synthesis/oscillator.h **** #ifndef DSY_OSCILLATOR_H
  11:../../../../DaisyExamples/DaisySP//Source/Synthesis/oscillator.h **** #define DSY_OSCILLATOR_H
  12:../../../../DaisyExamples/DaisySP//Source/Synthesis/oscillator.h **** #include <stdint.h>
  13:../../../../DaisyExamples/DaisySP//Source/Synthesis/oscillator.h **** #include "Utility/dsp.h"
  14:../../../../DaisyExamples/DaisySP//Source/Synthesis/oscillator.h **** #ifdef __cplusplus
  15:../../../../DaisyExamples/DaisySP//Source/Synthesis/oscillator.h **** 
  16:../../../../DaisyExamples/DaisySP//Source/Synthesis/oscillator.h **** namespace daisysp
  17:../../../../DaisyExamples/DaisySP//Source/Synthesis/oscillator.h **** {
  18:../../../../DaisyExamples/DaisySP//Source/Synthesis/oscillator.h **** /** Synthesis of several waveforms, including polyBLEP bandlimited waveforms.
  19:../../../../DaisyExamples/DaisySP//Source/Synthesis/oscillator.h **** */
  20:../../../../DaisyExamples/DaisySP//Source/Synthesis/oscillator.h **** class Oscillator
  21:../../../../DaisyExamples/DaisySP//Source/Synthesis/oscillator.h **** {
  22:../../../../DaisyExamples/DaisySP//Source/Synthesis/oscillator.h ****   public:
  23:../../../../DaisyExamples/DaisySP//Source/Synthesis/oscillator.h ****     Oscillator() {}
  24:../../../../DaisyExamples/DaisySP//Source/Synthesis/oscillator.h ****     ~Oscillator() {}
  25:../../../../DaisyExamples/DaisySP//Source/Synthesis/oscillator.h ****     /** Choices for output waveforms, POLYBLEP are appropriately labeled. Others are naive forms.
  26:../../../../DaisyExamples/DaisySP//Source/Synthesis/oscillator.h ****     */
  27:../../../../DaisyExamples/DaisySP//Source/Synthesis/oscillator.h ****     enum
  28:../../../../DaisyExamples/DaisySP//Source/Synthesis/oscillator.h ****     {
  29:../../../../DaisyExamples/DaisySP//Source/Synthesis/oscillator.h ****         WAVE_SIN,
  30:../../../../DaisyExamples/DaisySP//Source/Synthesis/oscillator.h ****         WAVE_TRI,
  31:../../../../DaisyExamples/DaisySP//Source/Synthesis/oscillator.h ****         WAVE_SAW,
  32:../../../../DaisyExamples/DaisySP//Source/Synthesis/oscillator.h ****         WAVE_RAMP,
  33:../../../../DaisyExamples/DaisySP//Source/Synthesis/oscillator.h ****         WAVE_SQUARE,
ARM GAS  C:\Users\samue\AppData\Local\Temp\ccg9npc6.s 			page 7


  34:../../../../DaisyExamples/DaisySP//Source/Synthesis/oscillator.h ****         WAVE_POLYBLEP_TRI,
  35:../../../../DaisyExamples/DaisySP//Source/Synthesis/oscillator.h ****         WAVE_POLYBLEP_SAW,
  36:../../../../DaisyExamples/DaisySP//Source/Synthesis/oscillator.h ****         WAVE_POLYBLEP_SQUARE,
  37:../../../../DaisyExamples/DaisySP//Source/Synthesis/oscillator.h ****         WAVE_LAST,
  38:../../../../DaisyExamples/DaisySP//Source/Synthesis/oscillator.h ****     };
  39:../../../../DaisyExamples/DaisySP//Source/Synthesis/oscillator.h **** 
  40:../../../../DaisyExamples/DaisySP//Source/Synthesis/oscillator.h **** 
  41:../../../../DaisyExamples/DaisySP//Source/Synthesis/oscillator.h ****     /** Initializes the Oscillator
  42:../../../../DaisyExamples/DaisySP//Source/Synthesis/oscillator.h **** 
  43:../../../../DaisyExamples/DaisySP//Source/Synthesis/oscillator.h ****         \param sample_rate - sample rate of the audio engine being run, and the frequency that the 
  44:../../../../DaisyExamples/DaisySP//Source/Synthesis/oscillator.h **** 
  45:../../../../DaisyExamples/DaisySP//Source/Synthesis/oscillator.h ****         Defaults:
  46:../../../../DaisyExamples/DaisySP//Source/Synthesis/oscillator.h ****         - freq_ = 100 Hz
  47:../../../../DaisyExamples/DaisySP//Source/Synthesis/oscillator.h ****         - amp_ = 0.5
  48:../../../../DaisyExamples/DaisySP//Source/Synthesis/oscillator.h ****         - waveform_ = sine wave.
  49:../../../../DaisyExamples/DaisySP//Source/Synthesis/oscillator.h ****     */
  50:../../../../DaisyExamples/DaisySP//Source/Synthesis/oscillator.h ****     void Init(float sample_rate)
  51:../../../../DaisyExamples/DaisySP//Source/Synthesis/oscillator.h ****     {
  52:../../../../DaisyExamples/DaisySP//Source/Synthesis/oscillator.h ****         sr_        = sample_rate;
  53:../../../../DaisyExamples/DaisySP//Source/Synthesis/oscillator.h ****         sr_recip_  = 1.0f / sample_rate;
 147              		.loc 3 53 27 view .LVU9
 148 0008 B7EE009A 		vmov.f32	s18, #1.0e+0
  54:../../../../DaisyExamples/DaisySP//Source/Synthesis/oscillator.h ****         freq_      = 100.0f;
  55:../../../../DaisyExamples/DaisySP//Source/Synthesis/oscillator.h ****         amp_       = 0.5f;
 149              		.loc 3 55 20 view .LVU10
 150 000c 4FF07C55 		mov	r5, #1056964608
 151              	.LBE289:
 152              	.LBE288:
   4:voice.cpp     ****     osc_tri_.Init(fs);
 153              		.loc 2 4 1 view .LVU11
 154 0010 F0EE408A 		vmov.f32	s17, s0
 155              	.LBB295:
 156              	.LBB290:
  54:../../../../DaisyExamples/DaisySP//Source/Synthesis/oscillator.h ****         freq_      = 100.0f;
 157              		.loc 3 54 20 view .LVU12
 158 0014 9FED498A 		vldr.32	s16, .L12
  56:../../../../DaisyExamples/DaisySP//Source/Synthesis/oscillator.h ****         pw_        = 0.5f;
  57:../../../../DaisyExamples/DaisySP//Source/Synthesis/oscillator.h ****         phase_     = 0.0f;
 159              		.loc 3 57 20 view .LVU13
 160 0018 0027     		movs	r7, #0
  55:../../../../DaisyExamples/DaisySP//Source/Synthesis/oscillator.h ****         pw_        = 0.5f;
 161              		.loc 3 55 20 view .LVU14
 162 001a 4560     		str	r5, [r0, #4]	@ float
  53:../../../../DaisyExamples/DaisySP//Source/Synthesis/oscillator.h ****         freq_      = 100.0f;
 163              		.loc 3 53 27 view .LVU15
 164 001c C9EE009A 		vdiv.f32	s19, s18, s0
  54:../../../../DaisyExamples/DaisySP//Source/Synthesis/oscillator.h ****         amp_       = 0.5f;
 165              		.loc 3 54 20 view .LVU16
 166 0020 80ED028A 		vstr.32	s16, [r0, #8]
  52:../../../../DaisyExamples/DaisySP//Source/Synthesis/oscillator.h ****         sr_recip_  = 1.0f / sample_rate;
 167              		.loc 3 52 20 view .LVU17
 168 0024 C0ED048A 		vstr.32	s17, [r0, #16]
 169              	.LBE290:
 170              	.LBE295:
   4:voice.cpp     ****     osc_tri_.Init(fs);
 171              		.loc 2 4 1 view .LVU18
 172 0028 0446     		mov	r4, r0
ARM GAS  C:\Users\samue\AppData\Local\Temp\ccg9npc6.s 			page 8


 173              	.LVL5:
 174              	.LBB296:
 175              	.LBI288:
  50:../../../../DaisyExamples/DaisySP//Source/Synthesis/oscillator.h ****     {
 176              		.loc 3 50 10 is_stmt 1 view .LVU19
 177              	.LBB291:
  52:../../../../DaisyExamples/DaisySP//Source/Synthesis/oscillator.h ****         sr_recip_  = 1.0f / sample_rate;
 178              		.loc 3 52 9 view .LVU20
  53:../../../../DaisyExamples/DaisySP//Source/Synthesis/oscillator.h ****         freq_      = 100.0f;
 179              		.loc 3 53 9 view .LVU21
  56:../../../../DaisyExamples/DaisySP//Source/Synthesis/oscillator.h ****         phase_     = 0.0f;
 180              		.loc 3 56 20 is_stmt 0 view .LVU22
 181 002a C560     		str	r5, [r0, #12]	@ float
  58:../../../../DaisyExamples/DaisySP//Source/Synthesis/oscillator.h ****         phase_inc_ = CalcPhaseInc(freq_);
  59:../../../../DaisyExamples/DaisySP//Source/Synthesis/oscillator.h ****         waveform_  = WAVE_SIN;
  60:../../../../DaisyExamples/DaisySP//Source/Synthesis/oscillator.h ****         eoc_       = true;
  61:../../../../DaisyExamples/DaisySP//Source/Synthesis/oscillator.h ****         eor_       = true;
 182              		.loc 3 61 20 view .LVU23
 183 002c 40F20116 		movw	r6, #257
  57:../../../../DaisyExamples/DaisySP//Source/Synthesis/oscillator.h ****         phase_inc_ = CalcPhaseInc(freq_);
 184              		.loc 3 57 20 view .LVU24
 185 0030 8761     		str	r7, [r0, #24]	@ float
 186              	.LBE291:
 187              	.LBE296:
 188              	.LBB297:
 189              	.LBB298:
  59:../../../../DaisyExamples/DaisySP//Source/Synthesis/oscillator.h ****         eoc_       = true;
 190              		.loc 3 59 20 view .LVU25
 191 0032 4FF00008 		mov	r8, #0
 192              	.LBE298:
 193              	.LBE297:
 194              	.LBB305:
 195              	.LBB292:
  58:../../../../DaisyExamples/DaisySP//Source/Synthesis/oscillator.h ****         phase_inc_ = CalcPhaseInc(freq_);
 196              		.loc 3 58 34 view .LVU26
 197 0036 B0EE480A 		vmov.f32	s0, s16
 198              	.LVL6:
  53:../../../../DaisyExamples/DaisySP//Source/Synthesis/oscillator.h ****         freq_      = 100.0f;
 199              		.loc 3 53 20 view .LVU27
 200 003a C0ED059A 		vstr.32	s19, [r0, #20]
  54:../../../../DaisyExamples/DaisySP//Source/Synthesis/oscillator.h ****         amp_       = 0.5f;
 201              		.loc 3 54 9 is_stmt 1 view .LVU28
  55:../../../../DaisyExamples/DaisySP//Source/Synthesis/oscillator.h ****         pw_        = 0.5f;
 202              		.loc 3 55 9 view .LVU29
  56:../../../../DaisyExamples/DaisySP//Source/Synthesis/oscillator.h ****         phase_     = 0.0f;
 203              		.loc 3 56 9 view .LVU30
  57:../../../../DaisyExamples/DaisySP//Source/Synthesis/oscillator.h ****         phase_inc_ = CalcPhaseInc(freq_);
 204              		.loc 3 57 9 view .LVU31
  58:../../../../DaisyExamples/DaisySP//Source/Synthesis/oscillator.h ****         waveform_  = WAVE_SIN;
 205              		.loc 3 58 9 view .LVU32
  58:../../../../DaisyExamples/DaisySP//Source/Synthesis/oscillator.h ****         waveform_  = WAVE_SIN;
 206              		.loc 3 58 34 is_stmt 0 view .LVU33
 207 003e FFF7FEFF 		bl	_ZN7daisysp10Oscillator12CalcPhaseIncEf
 208              	.LVL7:
  58:../../../../DaisyExamples/DaisySP//Source/Synthesis/oscillator.h ****         waveform_  = WAVE_SIN;
 209              		.loc 3 58 34 view .LVU34
 210 0042 F0EE407A 		vmov.f32	s15, s0
ARM GAS  C:\Users\samue\AppData\Local\Temp\ccg9npc6.s 			page 9


 211              	.LBE292:
 212              	.LBE305:
 213              	.LBB306:
 214              	.LBB307:
  62:../../../../DaisyExamples/DaisySP//Source/Synthesis/oscillator.h ****     }
  63:../../../../DaisyExamples/DaisySP//Source/Synthesis/oscillator.h **** 
  64:../../../../DaisyExamples/DaisySP//Source/Synthesis/oscillator.h **** 
  65:../../../../DaisyExamples/DaisySP//Source/Synthesis/oscillator.h ****     /** Changes the frequency of the Oscillator, and recalculates phase increment.
  66:../../../../DaisyExamples/DaisySP//Source/Synthesis/oscillator.h ****     */
  67:../../../../DaisyExamples/DaisySP//Source/Synthesis/oscillator.h ****     inline void SetFreq(const float f)
  68:../../../../DaisyExamples/DaisySP//Source/Synthesis/oscillator.h ****     {
  69:../../../../DaisyExamples/DaisySP//Source/Synthesis/oscillator.h ****         freq_      = f;
  70:../../../../DaisyExamples/DaisySP//Source/Synthesis/oscillator.h ****         phase_inc_ = CalcPhaseInc(f);
  71:../../../../DaisyExamples/DaisySP//Source/Synthesis/oscillator.h ****     }
  72:../../../../DaisyExamples/DaisySP//Source/Synthesis/oscillator.h **** 
  73:../../../../DaisyExamples/DaisySP//Source/Synthesis/oscillator.h **** 
  74:../../../../DaisyExamples/DaisySP//Source/Synthesis/oscillator.h ****     /** Sets the amplitude of the waveform.
  75:../../../../DaisyExamples/DaisySP//Source/Synthesis/oscillator.h ****     */
  76:../../../../DaisyExamples/DaisySP//Source/Synthesis/oscillator.h ****     inline void SetAmp(const float a) { amp_ = a; }
  77:../../../../DaisyExamples/DaisySP//Source/Synthesis/oscillator.h ****     /** Sets the waveform to be synthesized by the Process() function.
  78:../../../../DaisyExamples/DaisySP//Source/Synthesis/oscillator.h ****     */
  79:../../../../DaisyExamples/DaisySP//Source/Synthesis/oscillator.h ****     inline void SetWaveform(const uint8_t wf)
  80:../../../../DaisyExamples/DaisySP//Source/Synthesis/oscillator.h ****     {
  81:../../../../DaisyExamples/DaisySP//Source/Synthesis/oscillator.h ****         waveform_ = wf < WAVE_LAST ? wf : WAVE_SIN;
 215              		.loc 3 81 19 view .LVU35
 216 0046 0523     		movs	r3, #5
 217              	.LBE307:
 218              	.LBE306:
 219              	.LBB310:
 220              	.LBB311:
  58:../../../../DaisyExamples/DaisySP//Source/Synthesis/oscillator.h ****         waveform_  = WAVE_SIN;
 221              		.loc 3 58 34 view .LVU36
 222 0048 04F12C00 		add	r0, r4, #44
 223              	.LBE311:
 224              	.LBE310:
 225              	.LBB317:
 226              	.LBB293:
  61:../../../../DaisyExamples/DaisySP//Source/Synthesis/oscillator.h ****     }
 227              		.loc 3 61 20 view .LVU37
 228 004c 2685     		strh	r6, [r4, #40]	@ movhi
 229              	.LBE293:
 230              	.LBE317:
 231              	.LBB318:
 232              	.LBB312:
  58:../../../../DaisyExamples/DaisySP//Source/Synthesis/oscillator.h ****         waveform_  = WAVE_SIN;
 233              		.loc 3 58 34 view .LVU38
 234 004e B0EE480A 		vmov.f32	s0, s16
 235              	.LBE312:
 236              	.LBE318:
 237              	.LBB319:
 238              	.LBB294:
  58:../../../../DaisyExamples/DaisySP//Source/Synthesis/oscillator.h ****         waveform_  = WAVE_SIN;
 239              		.loc 3 58 20 view .LVU39
 240 0052 C4ED077A 		vstr.32	s15, [r4, #28]
  59:../../../../DaisyExamples/DaisySP//Source/Synthesis/oscillator.h ****         eoc_       = true;
 241              		.loc 3 59 9 is_stmt 1 view .LVU40
  60:../../../../DaisyExamples/DaisySP//Source/Synthesis/oscillator.h ****         eor_       = true;
ARM GAS  C:\Users\samue\AppData\Local\Temp\ccg9npc6.s 			page 10


 242              		.loc 3 60 9 view .LVU41
  61:../../../../DaisyExamples/DaisySP//Source/Synthesis/oscillator.h ****     }
 243              		.loc 3 61 9 view .LVU42
 244              	.LVL8:
  61:../../../../DaisyExamples/DaisySP//Source/Synthesis/oscillator.h ****     }
 245              		.loc 3 61 9 is_stmt 0 view .LVU43
 246              	.LBE294:
 247              	.LBE319:
   6:voice.cpp     ****     osc_tri_.SetAmp(1.0f);
 248              		.loc 2 6 5 is_stmt 1 view .LVU44
 249              	.LBB320:
 250              	.LBI320:
  76:../../../../DaisyExamples/DaisySP//Source/Synthesis/oscillator.h ****     /** Sets the waveform to be synthesized by the Process() function.
 251              		.loc 3 76 17 view .LVU45
 252              	.LBB321:
  76:../../../../DaisyExamples/DaisySP//Source/Synthesis/oscillator.h ****     /** Sets the waveform to be synthesized by the Process() function.
 253              		.loc 3 76 41 view .LVU46
  76:../../../../DaisyExamples/DaisySP//Source/Synthesis/oscillator.h ****     /** Sets the waveform to be synthesized by the Process() function.
 254              		.loc 3 76 46 is_stmt 0 view .LVU47
 255 0056 84ED019A 		vstr.32	s18, [r4, #4]
 256              	.LVL9:
  76:../../../../DaisyExamples/DaisySP//Source/Synthesis/oscillator.h ****     /** Sets the waveform to be synthesized by the Process() function.
 257              		.loc 3 76 46 view .LVU48
 258              	.LBE321:
 259              	.LBE320:
   7:voice.cpp     ****     osc_tri_.SetWaveform(osc_tri_.WAVE_POLYBLEP_TRI);
 260              		.loc 2 7 5 is_stmt 1 view .LVU49
 261              	.LBB322:
 262              	.LBI306:
  79:../../../../DaisyExamples/DaisySP//Source/Synthesis/oscillator.h ****     {
 263              		.loc 3 79 17 view .LVU50
 264              	.LBB308:
 265              		.loc 3 81 9 view .LVU51
 266              	.LBE308:
 267              	.LBE322:
 268              	.LBB323:
 269              	.LBB313:
  52:../../../../DaisyExamples/DaisySP//Source/Synthesis/oscillator.h ****         sr_recip_  = 1.0f / sample_rate;
 270              		.loc 3 52 20 is_stmt 0 view .LVU52
 271 005a C4ED0F8A 		vstr.32	s17, [r4, #60]
 272              	.LBE313:
 273              	.LBE323:
 274              	.LBB324:
 275              	.LBB309:
 276              		.loc 3 81 19 view .LVU53
 277 005e 2370     		strb	r3, [r4]
 278              	.LVL10:
 279              		.loc 3 81 19 view .LVU54
 280              	.LBE309:
 281              	.LBE324:
   8:voice.cpp     ****     
   9:voice.cpp     ****     osc_saw_.Init(fs);
 282              		.loc 2 9 5 is_stmt 1 view .LVU55
 283              	.LBB325:
 284              	.LBI310:
  50:../../../../DaisyExamples/DaisySP//Source/Synthesis/oscillator.h ****     {
 285              		.loc 3 50 10 view .LVU56
ARM GAS  C:\Users\samue\AppData\Local\Temp\ccg9npc6.s 			page 11


 286              	.LBB314:
  52:../../../../DaisyExamples/DaisySP//Source/Synthesis/oscillator.h ****         sr_recip_  = 1.0f / sample_rate;
 287              		.loc 3 52 9 view .LVU57
  53:../../../../DaisyExamples/DaisySP//Source/Synthesis/oscillator.h ****         freq_      = 100.0f;
 288              		.loc 3 53 9 view .LVU58
  53:../../../../DaisyExamples/DaisySP//Source/Synthesis/oscillator.h ****         freq_      = 100.0f;
 289              		.loc 3 53 20 is_stmt 0 view .LVU59
 290 0060 C4ED109A 		vstr.32	s19, [r4, #64]
  54:../../../../DaisyExamples/DaisySP//Source/Synthesis/oscillator.h ****         amp_       = 0.5f;
 291              		.loc 3 54 9 is_stmt 1 view .LVU60
  54:../../../../DaisyExamples/DaisySP//Source/Synthesis/oscillator.h ****         amp_       = 0.5f;
 292              		.loc 3 54 20 is_stmt 0 view .LVU61
 293 0064 84ED0D8A 		vstr.32	s16, [r4, #52]
  55:../../../../DaisyExamples/DaisySP//Source/Synthesis/oscillator.h ****         pw_        = 0.5f;
 294              		.loc 3 55 9 is_stmt 1 view .LVU62
  55:../../../../DaisyExamples/DaisySP//Source/Synthesis/oscillator.h ****         pw_        = 0.5f;
 295              		.loc 3 55 20 is_stmt 0 view .LVU63
 296 0068 2563     		str	r5, [r4, #48]	@ float
  56:../../../../DaisyExamples/DaisySP//Source/Synthesis/oscillator.h ****         phase_     = 0.0f;
 297              		.loc 3 56 9 is_stmt 1 view .LVU64
  56:../../../../DaisyExamples/DaisySP//Source/Synthesis/oscillator.h ****         phase_     = 0.0f;
 298              		.loc 3 56 20 is_stmt 0 view .LVU65
 299 006a A563     		str	r5, [r4, #56]	@ float
  57:../../../../DaisyExamples/DaisySP//Source/Synthesis/oscillator.h ****         phase_inc_ = CalcPhaseInc(freq_);
 300              		.loc 3 57 9 is_stmt 1 view .LVU66
  57:../../../../DaisyExamples/DaisySP//Source/Synthesis/oscillator.h ****         phase_inc_ = CalcPhaseInc(freq_);
 301              		.loc 3 57 20 is_stmt 0 view .LVU67
 302 006c 6764     		str	r7, [r4, #68]	@ float
  58:../../../../DaisyExamples/DaisySP//Source/Synthesis/oscillator.h ****         waveform_  = WAVE_SIN;
 303              		.loc 3 58 9 is_stmt 1 view .LVU68
  58:../../../../DaisyExamples/DaisySP//Source/Synthesis/oscillator.h ****         waveform_  = WAVE_SIN;
 304              		.loc 3 58 34 is_stmt 0 view .LVU69
 305 006e FFF7FEFF 		bl	_ZN7daisysp10Oscillator12CalcPhaseIncEf
 306              	.LVL11:
  58:../../../../DaisyExamples/DaisySP//Source/Synthesis/oscillator.h ****         waveform_  = WAVE_SIN;
 307              		.loc 3 58 34 view .LVU70
 308 0072 F0EE407A 		vmov.f32	s15, s0
 309              	.LBE314:
 310              	.LBE325:
 311              	.LBB326:
 312              	.LBB327:
 313              		.loc 3 81 19 view .LVU71
 314 0076 0623     		movs	r3, #6
 315              	.LBE327:
 316              	.LBE326:
 317              	.LBB330:
 318              	.LBB299:
  58:../../../../DaisyExamples/DaisySP//Source/Synthesis/oscillator.h ****         waveform_  = WAVE_SIN;
 319              		.loc 3 58 34 view .LVU72
 320 0078 04F15800 		add	r0, r4, #88
 321              	.LBE299:
 322              	.LBE330:
 323              	.LBB331:
 324              	.LBB315:
  61:../../../../DaisyExamples/DaisySP//Source/Synthesis/oscillator.h ****     }
 325              		.loc 3 61 20 view .LVU73
 326 007c A4F85460 		strh	r6, [r4, #84]	@ movhi
ARM GAS  C:\Users\samue\AppData\Local\Temp\ccg9npc6.s 			page 12


 327              	.LBE315:
 328              	.LBE331:
 329              	.LBB332:
 330              	.LBB300:
  58:../../../../DaisyExamples/DaisySP//Source/Synthesis/oscillator.h ****         waveform_  = WAVE_SIN;
 331              		.loc 3 58 34 view .LVU74
 332 0080 B0EE480A 		vmov.f32	s0, s16
 333              	.LBE300:
 334              	.LBE332:
 335              	.LBB333:
 336              	.LBB328:
 337              		.loc 3 81 19 view .LVU75
 338 0084 84F82C30 		strb	r3, [r4, #44]
 339              	.LBE328:
 340              	.LBE333:
 341              	.LBB334:
 342              	.LBB316:
  58:../../../../DaisyExamples/DaisySP//Source/Synthesis/oscillator.h ****         waveform_  = WAVE_SIN;
 343              		.loc 3 58 20 view .LVU76
 344 0088 C4ED127A 		vstr.32	s15, [r4, #72]
  59:../../../../DaisyExamples/DaisySP//Source/Synthesis/oscillator.h ****         eoc_       = true;
 345              		.loc 3 59 9 is_stmt 1 view .LVU77
  60:../../../../DaisyExamples/DaisySP//Source/Synthesis/oscillator.h ****         eor_       = true;
 346              		.loc 3 60 9 view .LVU78
  61:../../../../DaisyExamples/DaisySP//Source/Synthesis/oscillator.h ****     }
 347              		.loc 3 61 9 view .LVU79
 348              	.LVL12:
  61:../../../../DaisyExamples/DaisySP//Source/Synthesis/oscillator.h ****     }
 349              		.loc 3 61 9 is_stmt 0 view .LVU80
 350              	.LBE316:
 351              	.LBE334:
  10:voice.cpp     ****     osc_saw_.SetAmp(1.0f);
 352              		.loc 2 10 5 is_stmt 1 view .LVU81
 353              	.LBB335:
 354              	.LBI335:
  76:../../../../DaisyExamples/DaisySP//Source/Synthesis/oscillator.h ****     /** Sets the waveform to be synthesized by the Process() function.
 355              		.loc 3 76 17 view .LVU82
 356              	.LBB336:
  76:../../../../DaisyExamples/DaisySP//Source/Synthesis/oscillator.h ****     /** Sets the waveform to be synthesized by the Process() function.
 357              		.loc 3 76 41 view .LVU83
  76:../../../../DaisyExamples/DaisySP//Source/Synthesis/oscillator.h ****     /** Sets the waveform to be synthesized by the Process() function.
 358              		.loc 3 76 46 is_stmt 0 view .LVU84
 359 008c 84ED0C9A 		vstr.32	s18, [r4, #48]
 360              	.LVL13:
  76:../../../../DaisyExamples/DaisySP//Source/Synthesis/oscillator.h ****     /** Sets the waveform to be synthesized by the Process() function.
 361              		.loc 3 76 46 view .LVU85
 362              	.LBE336:
 363              	.LBE335:
  11:voice.cpp     ****     osc_saw_.SetWaveform(osc_saw_.WAVE_POLYBLEP_SAW); 
 364              		.loc 2 11 5 is_stmt 1 view .LVU86
 365              	.LBB337:
 366              	.LBI326:
  79:../../../../DaisyExamples/DaisySP//Source/Synthesis/oscillator.h ****     {
 367              		.loc 3 79 17 view .LVU87
 368              	.LBB329:
 369              		.loc 3 81 9 view .LVU88
 370              		.loc 3 81 9 is_stmt 0 view .LVU89
ARM GAS  C:\Users\samue\AppData\Local\Temp\ccg9npc6.s 			page 13


 371              	.LBE329:
 372              	.LBE337:
  12:voice.cpp     **** 
  13:voice.cpp     ****     osc_sin_.Init(fs);
 373              		.loc 2 13 5 is_stmt 1 view .LVU90
 374              	.LBB338:
 375              	.LBI297:
  50:../../../../DaisyExamples/DaisySP//Source/Synthesis/oscillator.h ****     {
 376              		.loc 3 50 10 view .LVU91
 377              	.LBB301:
  52:../../../../DaisyExamples/DaisySP//Source/Synthesis/oscillator.h ****         sr_recip_  = 1.0f / sample_rate;
 378              		.loc 3 52 9 view .LVU92
  53:../../../../DaisyExamples/DaisySP//Source/Synthesis/oscillator.h ****         freq_      = 100.0f;
 379              		.loc 3 53 9 view .LVU93
  52:../../../../DaisyExamples/DaisySP//Source/Synthesis/oscillator.h ****         sr_recip_  = 1.0f / sample_rate;
 380              		.loc 3 52 20 is_stmt 0 view .LVU94
 381 0090 C4ED1A8A 		vstr.32	s17, [r4, #104]
  53:../../../../DaisyExamples/DaisySP//Source/Synthesis/oscillator.h ****         freq_      = 100.0f;
 382              		.loc 3 53 20 view .LVU95
 383 0094 C4ED1B9A 		vstr.32	s19, [r4, #108]
  54:../../../../DaisyExamples/DaisySP//Source/Synthesis/oscillator.h ****         amp_       = 0.5f;
 384              		.loc 3 54 9 is_stmt 1 view .LVU96
  54:../../../../DaisyExamples/DaisySP//Source/Synthesis/oscillator.h ****         amp_       = 0.5f;
 385              		.loc 3 54 20 is_stmt 0 view .LVU97
 386 0098 84ED188A 		vstr.32	s16, [r4, #96]
  55:../../../../DaisyExamples/DaisySP//Source/Synthesis/oscillator.h ****         pw_        = 0.5f;
 387              		.loc 3 55 9 is_stmt 1 view .LVU98
  55:../../../../DaisyExamples/DaisySP//Source/Synthesis/oscillator.h ****         pw_        = 0.5f;
 388              		.loc 3 55 20 is_stmt 0 view .LVU99
 389 009c E565     		str	r5, [r4, #92]	@ float
  56:../../../../DaisyExamples/DaisySP//Source/Synthesis/oscillator.h ****         phase_     = 0.0f;
 390              		.loc 3 56 9 is_stmt 1 view .LVU100
  56:../../../../DaisyExamples/DaisySP//Source/Synthesis/oscillator.h ****         phase_     = 0.0f;
 391              		.loc 3 56 20 is_stmt 0 view .LVU101
 392 009e 6566     		str	r5, [r4, #100]	@ float
  57:../../../../DaisyExamples/DaisySP//Source/Synthesis/oscillator.h ****         phase_inc_ = CalcPhaseInc(freq_);
 393              		.loc 3 57 9 is_stmt 1 view .LVU102
  57:../../../../DaisyExamples/DaisySP//Source/Synthesis/oscillator.h ****         phase_inc_ = CalcPhaseInc(freq_);
 394              		.loc 3 57 20 is_stmt 0 view .LVU103
 395 00a0 2767     		str	r7, [r4, #112]	@ float
  58:../../../../DaisyExamples/DaisySP//Source/Synthesis/oscillator.h ****         waveform_  = WAVE_SIN;
 396              		.loc 3 58 9 is_stmt 1 view .LVU104
  58:../../../../DaisyExamples/DaisySP//Source/Synthesis/oscillator.h ****         waveform_  = WAVE_SIN;
 397              		.loc 3 58 34 is_stmt 0 view .LVU105
 398 00a2 FFF7FEFF 		bl	_ZN7daisysp10Oscillator12CalcPhaseIncEf
 399              	.LVL14:
  58:../../../../DaisyExamples/DaisySP//Source/Synthesis/oscillator.h ****         waveform_  = WAVE_SIN;
 400              		.loc 3 58 34 view .LVU106
 401 00a6 F0EE407A 		vmov.f32	s15, s0
 402              	.LBE301:
 403              	.LBE338:
 404              	.LBB339:
 405              	.LBB340:
 406 00aa 04F18400 		add	r0, r4, #132
 407              	.LBE340:
 408              	.LBE339:
 409              	.LBB346:
ARM GAS  C:\Users\samue\AppData\Local\Temp\ccg9npc6.s 			page 14


 410              	.LBB302:
  61:../../../../DaisyExamples/DaisySP//Source/Synthesis/oscillator.h ****     }
 411              		.loc 3 61 20 view .LVU107
 412 00ae A4F88060 		strh	r6, [r4, #128]	@ movhi
 413              	.LBE302:
 414              	.LBE346:
 415              	.LBB347:
 416              	.LBB348:
  76:../../../../DaisyExamples/DaisySP//Source/Synthesis/oscillator.h ****     /** Sets the waveform to be synthesized by the Process() function.
 417              		.loc 3 76 46 view .LVU108
 418 00b2 84ED179A 		vstr.32	s18, [r4, #92]
 419              	.LBE348:
 420              	.LBE347:
 421              	.LBB350:
 422              	.LBB341:
  58:../../../../DaisyExamples/DaisySP//Source/Synthesis/oscillator.h ****         waveform_  = WAVE_SIN;
 423              		.loc 3 58 34 view .LVU109
 424 00b6 B0EE480A 		vmov.f32	s0, s16
 425              	.LBE341:
 426              	.LBE350:
 427              	.LBB351:
 428              	.LBB303:
  58:../../../../DaisyExamples/DaisySP//Source/Synthesis/oscillator.h ****         waveform_  = WAVE_SIN;
 429              		.loc 3 58 20 view .LVU110
 430 00ba C4ED1D7A 		vstr.32	s15, [r4, #116]
  59:../../../../DaisyExamples/DaisySP//Source/Synthesis/oscillator.h ****         eoc_       = true;
 431              		.loc 3 59 9 is_stmt 1 view .LVU111
 432              	.LBE303:
 433              	.LBE351:
 434              	.LBB352:
 435              	.LBB342:
  52:../../../../DaisyExamples/DaisySP//Source/Synthesis/oscillator.h ****         sr_recip_  = 1.0f / sample_rate;
 436              		.loc 3 52 20 is_stmt 0 view .LVU112
 437 00be C4ED258A 		vstr.32	s17, [r4, #148]
  53:../../../../DaisyExamples/DaisySP//Source/Synthesis/oscillator.h ****         freq_      = 100.0f;
 438              		.loc 3 53 20 view .LVU113
 439 00c2 C4ED269A 		vstr.32	s19, [r4, #152]
  54:../../../../DaisyExamples/DaisySP//Source/Synthesis/oscillator.h ****         amp_       = 0.5f;
 440              		.loc 3 54 20 view .LVU114
 441 00c6 84ED238A 		vstr.32	s16, [r4, #140]
  55:../../../../DaisyExamples/DaisySP//Source/Synthesis/oscillator.h ****         pw_        = 0.5f;
 442              		.loc 3 55 20 view .LVU115
 443 00ca C4F88850 		str	r5, [r4, #136]	@ float
  56:../../../../DaisyExamples/DaisySP//Source/Synthesis/oscillator.h ****         phase_     = 0.0f;
 444              		.loc 3 56 20 view .LVU116
 445 00ce C4F89050 		str	r5, [r4, #144]	@ float
 446              	.LBE342:
 447              	.LBE352:
 448              	.LBB353:
 449              	.LBB304:
  59:../../../../DaisyExamples/DaisySP//Source/Synthesis/oscillator.h ****         eoc_       = true;
 450              		.loc 3 59 20 view .LVU117
 451 00d2 84F85880 		strb	r8, [r4, #88]
  60:../../../../DaisyExamples/DaisySP//Source/Synthesis/oscillator.h ****         eor_       = true;
 452              		.loc 3 60 9 is_stmt 1 view .LVU118
  61:../../../../DaisyExamples/DaisySP//Source/Synthesis/oscillator.h ****     }
 453              		.loc 3 61 9 view .LVU119
ARM GAS  C:\Users\samue\AppData\Local\Temp\ccg9npc6.s 			page 15


 454              	.LVL15:
  61:../../../../DaisyExamples/DaisySP//Source/Synthesis/oscillator.h ****     }
 455              		.loc 3 61 9 is_stmt 0 view .LVU120
 456              	.LBE304:
 457              	.LBE353:
  14:voice.cpp     ****     osc_sin_.SetAmp(1.0f);
 458              		.loc 2 14 5 is_stmt 1 view .LVU121
 459              	.LBB354:
 460              	.LBI347:
  76:../../../../DaisyExamples/DaisySP//Source/Synthesis/oscillator.h ****     /** Sets the waveform to be synthesized by the Process() function.
 461              		.loc 3 76 17 view .LVU122
 462              	.LBB349:
  76:../../../../DaisyExamples/DaisySP//Source/Synthesis/oscillator.h ****     /** Sets the waveform to be synthesized by the Process() function.
 463              		.loc 3 76 41 view .LVU123
  76:../../../../DaisyExamples/DaisySP//Source/Synthesis/oscillator.h ****     /** Sets the waveform to be synthesized by the Process() function.
 464              		.loc 3 76 41 is_stmt 0 view .LVU124
 465              	.LBE349:
 466              	.LBE354:
  15:voice.cpp     ****     osc_sin_.SetWaveform(osc_sin_.WAVE_SIN); 
 467              		.loc 2 15 5 is_stmt 1 view .LVU125
 468              		.loc 3 81 9 view .LVU126
  16:voice.cpp     **** 
  17:voice.cpp     ****     osc_square_.Init(fs);
 469              		.loc 2 17 5 view .LVU127
 470              	.LBB355:
 471              	.LBI339:
  50:../../../../DaisyExamples/DaisySP//Source/Synthesis/oscillator.h ****     {
 472              		.loc 3 50 10 view .LVU128
 473              	.LBB343:
  52:../../../../DaisyExamples/DaisySP//Source/Synthesis/oscillator.h ****         sr_recip_  = 1.0f / sample_rate;
 474              		.loc 3 52 9 view .LVU129
  53:../../../../DaisyExamples/DaisySP//Source/Synthesis/oscillator.h ****         freq_      = 100.0f;
 475              		.loc 3 53 9 view .LVU130
  54:../../../../DaisyExamples/DaisySP//Source/Synthesis/oscillator.h ****         amp_       = 0.5f;
 476              		.loc 3 54 9 view .LVU131
  55:../../../../DaisyExamples/DaisySP//Source/Synthesis/oscillator.h ****         pw_        = 0.5f;
 477              		.loc 3 55 9 view .LVU132
  56:../../../../DaisyExamples/DaisySP//Source/Synthesis/oscillator.h ****         phase_     = 0.0f;
 478              		.loc 3 56 9 view .LVU133
  57:../../../../DaisyExamples/DaisySP//Source/Synthesis/oscillator.h ****         phase_inc_ = CalcPhaseInc(freq_);
 479              		.loc 3 57 9 view .LVU134
  57:../../../../DaisyExamples/DaisySP//Source/Synthesis/oscillator.h ****         phase_inc_ = CalcPhaseInc(freq_);
 480              		.loc 3 57 20 is_stmt 0 view .LVU135
 481 00d6 C4F89C70 		str	r7, [r4, #156]	@ float
  58:../../../../DaisyExamples/DaisySP//Source/Synthesis/oscillator.h ****         waveform_  = WAVE_SIN;
 482              		.loc 3 58 9 is_stmt 1 view .LVU136
  58:../../../../DaisyExamples/DaisySP//Source/Synthesis/oscillator.h ****         waveform_  = WAVE_SIN;
 483              		.loc 3 58 34 is_stmt 0 view .LVU137
 484 00da FFF7FEFF 		bl	_ZN7daisysp10Oscillator12CalcPhaseIncEf
 485              	.LVL16:
  58:../../../../DaisyExamples/DaisySP//Source/Synthesis/oscillator.h ****         waveform_  = WAVE_SIN;
 486              		.loc 3 58 34 view .LVU138
 487              	.LBE343:
 488              	.LBE355:
 489              	.LBB356:
 490              	.LBB357:
 491              		.loc 3 81 19 view .LVU139
ARM GAS  C:\Users\samue\AppData\Local\Temp\ccg9npc6.s 			page 16


 492 00de 0723     		movs	r3, #7
 493 00e0 D4F8F050 		ldr	r5, [r4, #240]
 494              	.LBE357:
 495              	.LBE356:
  18:voice.cpp     ****     osc_square_.SetAmp(1.0f);
  19:voice.cpp     ****     osc_square_.SetWaveform(osc_square_.WAVE_POLYBLEP_SQUARE);
  20:voice.cpp     **** 
  21:voice.cpp     ****     filter_up_.SetStateBuffer(filter_state_up_, DSY_COUNTOF(filter_state_up_));
 496              		.loc 2 21 31 view .LVU140
 497 00e4 04F1F400 		add	r0, r4, #244
 498              	.LBB360:
 499              	.LBB358:
 500              		.loc 3 81 19 view .LVU141
 501 00e8 84F88430 		strb	r3, [r4, #132]
 502              	.LBE358:
 503              	.LBE360:
  22:voice.cpp     ****     filter_up_.Init(taps_up_, ntaps_, false);
 504              		.loc 2 22 21 view .LVU142
 505 00ec 04F51773 		add	r3, r4, #604
 506              	.LBB361:
 507              	.LBB344:
  61:../../../../DaisyExamples/DaisySP//Source/Synthesis/oscillator.h ****     }
 508              		.loc 3 61 20 view .LVU143
 509 00f0 A4F8AC60 		strh	r6, [r4, #172]	@ movhi
 510              	.LBE344:
 511              	.LBE361:
 512              	.LBB362:
 513              	.LBB363:
 105:../../../../DaisyExamples/DaisySP//Source/Filters/fir.h ****     }
 514              		.loc 1 105 21 view .LVU144
 515 00f4 1E26     		movs	r6, #30
 516              	.LBE363:
 517              	.LBE362:
 518              	.LBB366:
 519              	.LBB367:
 520              	.LBB368:
 521              	.LBB369:
 522              	.LBB370:
 114:../../../../DaisyExamples/DaisySP//Source/Filters/fir.h ****         }
 523              		.loc 1 114 19 view .LVU145
 524 00f6 4146     		mov	r1, r8
 525              	.LBE370:
 526              	.LBE369:
 527              	.LBE368:
 528              	.LBE367:
 529              	.LBE366:
 530              	.LBB387:
 531              	.LBB388:
  76:../../../../DaisyExamples/DaisySP//Source/Synthesis/oscillator.h ****     /** Sets the waveform to be synthesized by the Process() function.
 532              		.loc 3 76 46 view .LVU146
 533 00f8 84ED229A 		vstr.32	s18, [r4, #136]
 534              	.LBE388:
 535              	.LBE387:
 536              	.LBB390:
 537              	.LBB384:
 538              	.LBB381:
 539              	.LBB373:
ARM GAS  C:\Users\samue\AppData\Local\Temp\ccg9npc6.s 			page 17


 540              	.LBB374:
 138:../../../../DaisyExamples/DaisySP//Source/Filters/fir.h **** 
 139:../../../../DaisyExamples/DaisySP//Source/Filters/fir.h ****         if(false == reverse && (nullptr != coefs || 0 == size))
 140:../../../../DaisyExamples/DaisySP//Source/Filters/fir.h ****         {
 141:../../../../DaisyExamples/DaisySP//Source/Filters/fir.h ****             coefs_ = coefs;
 541              		.loc 1 141 20 view .LVU147
 542 00fc C4F8D430 		str	r3, [r4, #212]
 543              	.LBE374:
 544              	.LBE373:
 545              	.LBB377:
 546              	.LBB371:
 114:../../../../DaisyExamples/DaisySP//Source/Filters/fir.h ****         }
 547              		.loc 1 114 19 view .LVU148
 548 0100 7822     		movs	r2, #120
 549              	.LBE371:
 550              	.LBE377:
 551              	.LBE381:
 552              	.LBE384:
 553              	.LBE390:
 554              	.LBB391:
 555              	.LBB345:
  58:../../../../DaisyExamples/DaisySP//Source/Synthesis/oscillator.h ****         waveform_  = WAVE_SIN;
 556              		.loc 3 58 20 view .LVU149
 557 0102 84ED280A 		vstr.32	s0, [r4, #160]
  59:../../../../DaisyExamples/DaisySP//Source/Synthesis/oscillator.h ****         eoc_       = true;
 558              		.loc 3 59 9 is_stmt 1 view .LVU150
  60:../../../../DaisyExamples/DaisySP//Source/Synthesis/oscillator.h ****         eor_       = true;
 559              		.loc 3 60 9 view .LVU151
  61:../../../../DaisyExamples/DaisySP//Source/Synthesis/oscillator.h ****     }
 560              		.loc 3 61 9 view .LVU152
 561              	.LVL17:
  61:../../../../DaisyExamples/DaisySP//Source/Synthesis/oscillator.h ****     }
 562              		.loc 3 61 9 is_stmt 0 view .LVU153
 563              	.LBE345:
 564              	.LBE391:
  18:voice.cpp     ****     osc_square_.SetWaveform(osc_square_.WAVE_POLYBLEP_SQUARE);
 565              		.loc 2 18 5 is_stmt 1 view .LVU154
 566              	.LBB392:
 567              	.LBI387:
  76:../../../../DaisyExamples/DaisySP//Source/Synthesis/oscillator.h ****     /** Sets the waveform to be synthesized by the Process() function.
 568              		.loc 3 76 17 view .LVU155
 569              	.LBB389:
  76:../../../../DaisyExamples/DaisySP//Source/Synthesis/oscillator.h ****     /** Sets the waveform to be synthesized by the Process() function.
 570              		.loc 3 76 41 view .LVU156
  76:../../../../DaisyExamples/DaisySP//Source/Synthesis/oscillator.h ****     /** Sets the waveform to be synthesized by the Process() function.
 571              		.loc 3 76 41 is_stmt 0 view .LVU157
 572              	.LBE389:
 573              	.LBE392:
  19:voice.cpp     **** 
 574              		.loc 2 19 5 is_stmt 1 view .LVU158
 575              	.LBB393:
 576              	.LBI356:
  79:../../../../DaisyExamples/DaisySP//Source/Synthesis/oscillator.h ****     {
 577              		.loc 3 79 17 view .LVU159
 578              	.LBB359:
 579              		.loc 3 81 9 view .LVU160
 580              		.loc 3 81 9 is_stmt 0 view .LVU161
ARM GAS  C:\Users\samue\AppData\Local\Temp\ccg9npc6.s 			page 18


 581              	.LBE359:
 582              	.LBE393:
  21:voice.cpp     ****     filter_up_.Init(taps_up_, ntaps_, false);
 583              		.loc 2 21 5 is_stmt 1 view .LVU162
 584              	.LBB394:
 585              	.LBI362:
 102:../../../../DaisyExamples/DaisySP//Source/Filters/fir.h ****     {
 586              		.loc 1 102 10 view .LVU163
 587              	.LBB364:
 104:../../../../DaisyExamples/DaisySP//Source/Filters/fir.h ****         state_size_ = length;
 588              		.loc 1 104 9 view .LVU164
 104:../../../../DaisyExamples/DaisySP//Source/Filters/fir.h ****         state_size_ = length;
 589              		.loc 1 104 21 is_stmt 0 view .LVU165
 590 0106 C4F8D000 		str	r0, [r4, #208]
 105:../../../../DaisyExamples/DaisySP//Source/Filters/fir.h ****     }
 591              		.loc 1 105 9 is_stmt 1 view .LVU166
 592              	.LBE364:
 593              	.LBE394:
 594              	.LBB395:
 595              	.LBB385:
 596              	.LBB382:
 597              	.LBB378:
 598              	.LBB375:
 142:../../../../DaisyExamples/DaisySP//Source/Filters/fir.h ****             size_  = size;
 599              		.loc 1 142 20 is_stmt 0 view .LVU167
 600 010a C4F8D850 		str	r5, [r4, #216]
 601              	.LBE375:
 602              	.LBE378:
 603              	.LBE382:
 604              	.LBE385:
 605              	.LBE395:
 606              	.LBB396:
 607              	.LBB365:
 105:../../../../DaisyExamples/DaisySP//Source/Filters/fir.h ****     }
 608              		.loc 1 105 21 view .LVU168
 609 010e C4F8DC60 		str	r6, [r4, #220]
 610              	.LVL18:
 105:../../../../DaisyExamples/DaisySP//Source/Filters/fir.h ****     }
 611              		.loc 1 105 21 view .LVU169
 612              	.LBE365:
 613              	.LBE396:
 614              		.loc 2 22 5 is_stmt 1 view .LVU170
 615              	.LBB397:
 616              	.LBI366:
 143:../../../../DaisyExamples/DaisySP//Source/Filters/fir.h ****             return true;
 144:../../../../DaisyExamples/DaisySP//Source/Filters/fir.h ****         }
 145:../../../../DaisyExamples/DaisySP//Source/Filters/fir.h **** 
 146:../../../../DaisyExamples/DaisySP//Source/Filters/fir.h ****         return false;
 147:../../../../DaisyExamples/DaisySP//Source/Filters/fir.h ****     }
 148:../../../../DaisyExamples/DaisySP//Source/Filters/fir.h **** 
 149:../../../../DaisyExamples/DaisySP//Source/Filters/fir.h ****     /* Internal member variables */
 150:../../../../DaisyExamples/DaisySP//Source/Filters/fir.h **** 
 151:../../../../DaisyExamples/DaisySP//Source/Filters/fir.h ****     float*       state_;      /*< Internal state buffer */
 152:../../../../DaisyExamples/DaisySP//Source/Filters/fir.h ****     const float* coefs_;      /*< Filter coefficients */
 153:../../../../DaisyExamples/DaisySP//Source/Filters/fir.h ****     size_t       size_;       /*< number of filter coefficients */
 154:../../../../DaisyExamples/DaisySP//Source/Filters/fir.h ****     size_t       state_size_; /*< length of the state buffer */
 155:../../../../DaisyExamples/DaisySP//Source/Filters/fir.h **** };
ARM GAS  C:\Users\samue\AppData\Local\Temp\ccg9npc6.s 			page 19


 156:../../../../DaisyExamples/DaisySP//Source/Filters/fir.h **** 
 157:../../../../DaisyExamples/DaisySP//Source/Filters/fir.h **** 
 158:../../../../DaisyExamples/DaisySP//Source/Filters/fir.h **** /** Generic FIR implementation is always available
 159:../../../../DaisyExamples/DaisySP//Source/Filters/fir.h ****  * \param max_size - maximal filter length
 160:../../../../DaisyExamples/DaisySP//Source/Filters/fir.h ****  * \param max_block - maximal block size for ProcessBlock()
 161:../../../../DaisyExamples/DaisySP//Source/Filters/fir.h ****  * if both parameters are 0 (via FIRFILTER_USER_MEMORY macro)
 162:../../../../DaisyExamples/DaisySP//Source/Filters/fir.h ****  * Assumes the user will provide own memory buffers
 163:../../../../DaisyExamples/DaisySP//Source/Filters/fir.h ****  * via SetIR() and SetStateBuffer() functions
 164:../../../../DaisyExamples/DaisySP//Source/Filters/fir.h ****  * Otherwise statically allocates the necessary buffers itself
 165:../../../../DaisyExamples/DaisySP//Source/Filters/fir.h ****  */
 166:../../../../DaisyExamples/DaisySP//Source/Filters/fir.h **** template <size_t max_size, size_t max_block>
 167:../../../../DaisyExamples/DaisySP//Source/Filters/fir.h **** class FIRFilterImplGeneric : public FIRMemory<max_size, max_block>
 168:../../../../DaisyExamples/DaisySP//Source/Filters/fir.h **** {
 169:../../../../DaisyExamples/DaisySP//Source/Filters/fir.h ****   private:
 170:../../../../DaisyExamples/DaisySP//Source/Filters/fir.h ****     using FIRMem = FIRMemory<max_size, max_block>; // just a shorthand
 171:../../../../DaisyExamples/DaisySP//Source/Filters/fir.h **** 
 172:../../../../DaisyExamples/DaisySP//Source/Filters/fir.h ****   public:
 173:../../../../DaisyExamples/DaisySP//Source/Filters/fir.h ****     /* Default constructor */
 174:../../../../DaisyExamples/DaisySP//Source/Filters/fir.h ****     FIRFilterImplGeneric() {}
 175:../../../../DaisyExamples/DaisySP//Source/Filters/fir.h **** 
 176:../../../../DaisyExamples/DaisySP//Source/Filters/fir.h ****     /* Reset filter state (but not the coefficients) */
 177:../../../../DaisyExamples/DaisySP//Source/Filters/fir.h ****     using FIRMem::Reset;
 178:../../../../DaisyExamples/DaisySP//Source/Filters/fir.h **** 
 179:../../../../DaisyExamples/DaisySP//Source/Filters/fir.h ****     /* FIR Latency is always 0, but API is unified with FFT and fast convolution */
 180:../../../../DaisyExamples/DaisySP//Source/Filters/fir.h ****     static constexpr size_t GetLatency() { return 0; }
 181:../../../../DaisyExamples/DaisySP//Source/Filters/fir.h **** 
 182:../../../../DaisyExamples/DaisySP//Source/Filters/fir.h ****     /* Process one sample at a time */
 183:../../../../DaisyExamples/DaisySP//Source/Filters/fir.h ****     float Process(float in)
 184:../../../../DaisyExamples/DaisySP//Source/Filters/fir.h ****     {
 185:../../../../DaisyExamples/DaisySP//Source/Filters/fir.h ****         assert(size_ > 0u);
 186:../../../../DaisyExamples/DaisySP//Source/Filters/fir.h ****         /* Feed data into the buffer */
 187:../../../../DaisyExamples/DaisySP//Source/Filters/fir.h ****         state_[size_ - 1u] = in;
 188:../../../../DaisyExamples/DaisySP//Source/Filters/fir.h **** 
 189:../../../../DaisyExamples/DaisySP//Source/Filters/fir.h ****         /* Convolution loop */
 190:../../../../DaisyExamples/DaisySP//Source/Filters/fir.h ****         float acc(0);
 191:../../../../DaisyExamples/DaisySP//Source/Filters/fir.h ****         for(size_t i = 0; i < size_ - 1; i++)
 192:../../../../DaisyExamples/DaisySP//Source/Filters/fir.h ****         {
 193:../../../../DaisyExamples/DaisySP//Source/Filters/fir.h ****             acc += state_[i] * coefs_[i];
 194:../../../../DaisyExamples/DaisySP//Source/Filters/fir.h ****             /** Shift the state simulatenously 
 195:../../../../DaisyExamples/DaisySP//Source/Filters/fir.h ****              * (note: better solutions are available) 
 196:../../../../DaisyExamples/DaisySP//Source/Filters/fir.h ****              */
 197:../../../../DaisyExamples/DaisySP//Source/Filters/fir.h ****             state_[i] = state_[1 + i];
 198:../../../../DaisyExamples/DaisySP//Source/Filters/fir.h ****         }
 199:../../../../DaisyExamples/DaisySP//Source/Filters/fir.h ****         acc += in * coefs_[size_ - 1u];
 200:../../../../DaisyExamples/DaisySP//Source/Filters/fir.h **** 
 201:../../../../DaisyExamples/DaisySP//Source/Filters/fir.h ****         return acc;
 202:../../../../DaisyExamples/DaisySP//Source/Filters/fir.h ****     }
 203:../../../../DaisyExamples/DaisySP//Source/Filters/fir.h **** 
 204:../../../../DaisyExamples/DaisySP//Source/Filters/fir.h ****     /* Process a block of data */
 205:../../../../DaisyExamples/DaisySP//Source/Filters/fir.h ****     void ProcessBlock(const float* pSrc, float* pDst, size_t block)
 206:../../../../DaisyExamples/DaisySP//Source/Filters/fir.h ****     {
 207:../../../../DaisyExamples/DaisySP//Source/Filters/fir.h ****         /* be sure to run debug version from time to time */
 208:../../../../DaisyExamples/DaisySP//Source/Filters/fir.h ****         assert(block <= FIRMem::MaxBlock());
 209:../../../../DaisyExamples/DaisySP//Source/Filters/fir.h ****         assert(size_ > 0u);
 210:../../../../DaisyExamples/DaisySP//Source/Filters/fir.h ****         assert(nullptr != pSrc);
 211:../../../../DaisyExamples/DaisySP//Source/Filters/fir.h ****         assert(nullptr != pDst);
 212:../../../../DaisyExamples/DaisySP//Source/Filters/fir.h **** 
ARM GAS  C:\Users\samue\AppData\Local\Temp\ccg9npc6.s 			page 20


 213:../../../../DaisyExamples/DaisySP//Source/Filters/fir.h ****         /* Process the block of data */
 214:../../../../DaisyExamples/DaisySP//Source/Filters/fir.h ****         for(size_t j = 0; j < block; j++)
 215:../../../../DaisyExamples/DaisySP//Source/Filters/fir.h ****         {
 216:../../../../DaisyExamples/DaisySP//Source/Filters/fir.h ****             /* Feed data into the buffer */
 217:../../../../DaisyExamples/DaisySP//Source/Filters/fir.h ****             state_[size_ - 1u + j] = pSrc[j];
 218:../../../../DaisyExamples/DaisySP//Source/Filters/fir.h **** 
 219:../../../../DaisyExamples/DaisySP//Source/Filters/fir.h ****             /* Convolution loop */
 220:../../../../DaisyExamples/DaisySP//Source/Filters/fir.h ****             float acc = 0.0f;
 221:../../../../DaisyExamples/DaisySP//Source/Filters/fir.h ****             for(size_t i = 0; i < size_; i++)
 222:../../../../DaisyExamples/DaisySP//Source/Filters/fir.h ****             {
 223:../../../../DaisyExamples/DaisySP//Source/Filters/fir.h ****                 acc += state_[j + i] * coefs_[i];
 224:../../../../DaisyExamples/DaisySP//Source/Filters/fir.h ****             }
 225:../../../../DaisyExamples/DaisySP//Source/Filters/fir.h **** 
 226:../../../../DaisyExamples/DaisySP//Source/Filters/fir.h ****             /* Write output */
 227:../../../../DaisyExamples/DaisySP//Source/Filters/fir.h ****             pDst[j] = acc;
 228:../../../../DaisyExamples/DaisySP//Source/Filters/fir.h ****         }
 229:../../../../DaisyExamples/DaisySP//Source/Filters/fir.h **** 
 230:../../../../DaisyExamples/DaisySP//Source/Filters/fir.h ****         /* Copy data tail for the next block */
 231:../../../../DaisyExamples/DaisySP//Source/Filters/fir.h ****         for(size_t i = 0; i < size_ - 1u; i++)
 232:../../../../DaisyExamples/DaisySP//Source/Filters/fir.h ****         {
 233:../../../../DaisyExamples/DaisySP//Source/Filters/fir.h ****             state_[i] = state_[block + i];
 234:../../../../DaisyExamples/DaisySP//Source/Filters/fir.h ****         }
 235:../../../../DaisyExamples/DaisySP//Source/Filters/fir.h ****     }
 236:../../../../DaisyExamples/DaisySP//Source/Filters/fir.h **** 
 237:../../../../DaisyExamples/DaisySP//Source/Filters/fir.h ****     /** Set filter coefficients (aka Impulse Response)
 238:../../../../DaisyExamples/DaisySP//Source/Filters/fir.h ****      * Coefficients need to be in reversed order (tail-first)
 239:../../../../DaisyExamples/DaisySP//Source/Filters/fir.h ****      * If internal storage is used, makes a local copy
 240:../../../../DaisyExamples/DaisySP//Source/Filters/fir.h ****      * and allows reversing the impulse response
 241:../../../../DaisyExamples/DaisySP//Source/Filters/fir.h ****      */
 242:../../../../DaisyExamples/DaisySP//Source/Filters/fir.h ****     bool SetIR(const float* ir, size_t len, bool reverse)
 243:../../../../DaisyExamples/DaisySP//Source/Filters/fir.h ****     {
 244:../../../../DaisyExamples/DaisySP//Source/Filters/fir.h ****         /* Function order is important */
 245:../../../../DaisyExamples/DaisySP//Source/Filters/fir.h ****         const bool result = FIRMem::SetCoefs(ir, len, reverse);
 246:../../../../DaisyExamples/DaisySP//Source/Filters/fir.h ****         Reset();
 247:../../../../DaisyExamples/DaisySP//Source/Filters/fir.h ****         return result;
 248:../../../../DaisyExamples/DaisySP//Source/Filters/fir.h ****     }
 249:../../../../DaisyExamples/DaisySP//Source/Filters/fir.h **** 
 250:../../../../DaisyExamples/DaisySP//Source/Filters/fir.h ****     /* Create an alias to comply with DaisySP API conventions */
 251:../../../../DaisyExamples/DaisySP//Source/Filters/fir.h ****     template <typename... Args>
 252:../../../../DaisyExamples/DaisySP//Source/Filters/fir.h ****     inline auto Init(Args&&... args)
 617              		.loc 1 252 17 view .LVU171
 618              	.LBB386:
 619              	.LBI367:
 242:../../../../DaisyExamples/DaisySP//Source/Filters/fir.h ****     {
 620              		.loc 1 242 10 view .LVU172
 621              	.LBB383:
 622              	.LBB379:
 623              	.LBI373:
 133:../../../../DaisyExamples/DaisySP//Source/Filters/fir.h ****     {
 624              		.loc 1 133 10 view .LVU173
 625              	.LBB376:
 136:../../../../DaisyExamples/DaisySP//Source/Filters/fir.h ****         assert(nullptr != coefs || 0 == size);
 626              		.loc 1 136 9 view .LVU174
 137:../../../../DaisyExamples/DaisySP//Source/Filters/fir.h **** 
 627              		.loc 1 137 9 view .LVU175
 139:../../../../DaisyExamples/DaisySP//Source/Filters/fir.h ****         {
 628              		.loc 1 139 9 view .LVU176
ARM GAS  C:\Users\samue\AppData\Local\Temp\ccg9npc6.s 			page 21


 141:../../../../DaisyExamples/DaisySP//Source/Filters/fir.h ****             size_  = size;
 629              		.loc 1 141 13 view .LVU177
 142:../../../../DaisyExamples/DaisySP//Source/Filters/fir.h ****             return true;
 630              		.loc 1 142 13 view .LVU178
 143:../../../../DaisyExamples/DaisySP//Source/Filters/fir.h ****         }
 631              		.loc 1 143 13 view .LVU179
 143:../../../../DaisyExamples/DaisySP//Source/Filters/fir.h ****         }
 632              		.loc 1 143 13 is_stmt 0 view .LVU180
 633              	.LBE376:
 634              	.LBE379:
 635              	.LBB380:
 636              	.LBI369:
 108:../../../../DaisyExamples/DaisySP//Source/Filters/fir.h ****     {
 637              		.loc 1 108 10 is_stmt 1 view .LVU181
 638              	.LBB372:
 110:../../../../DaisyExamples/DaisySP//Source/Filters/fir.h ****         assert(0 != state_size_);
 639              		.loc 1 110 9 view .LVU182
 111:../../../../DaisyExamples/DaisySP//Source/Filters/fir.h ****         if(nullptr != state_)
 640              		.loc 1 111 9 view .LVU183
 112:../../../../DaisyExamples/DaisySP//Source/Filters/fir.h ****         {
 641              		.loc 1 112 9 view .LVU184
 114:../../../../DaisyExamples/DaisySP//Source/Filters/fir.h ****         }
 642              		.loc 1 114 13 view .LVU185
 114:../../../../DaisyExamples/DaisySP//Source/Filters/fir.h ****         }
 643              		.loc 1 114 19 is_stmt 0 view .LVU186
 644 0112 FFF7FEFF 		bl	memset
 645              	.LVL19:
 114:../../../../DaisyExamples/DaisySP//Source/Filters/fir.h ****         }
 646              		.loc 1 114 19 view .LVU187
 647              	.LBE372:
 648              	.LBE380:
 649              	.LBE383:
 650              	.LBE386:
 651              	.LBE397:
  23:voice.cpp     **** 
  24:voice.cpp     ****     filter_down_.SetStateBuffer(filter_state_down_, DSY_COUNTOF(filter_state_down_));
 652              		.loc 2 24 5 is_stmt 1 view .LVU188
  25:voice.cpp     ****     filter_down_.Init(taps_down_, ntaps_, false);   
 653              		.loc 2 25 23 is_stmt 0 view .LVU189
 654 0116 04F53473 		add	r3, r4, #720
  24:voice.cpp     ****     filter_down_.Init(taps_down_, ntaps_, false);   
 655              		.loc 2 24 33 view .LVU190
 656 011a 04F5B670 		add	r0, r4, #364
 657              	.LBB398:
 658              	.LBB399:
 659              	.LBB400:
 660              	.LBB401:
 661              	.LBB402:
 114:../../../../DaisyExamples/DaisySP//Source/Filters/fir.h ****         }
 662              		.loc 1 114 19 view .LVU191
 663 011e 4146     		mov	r1, r8
 664              	.LVL20:
 114:../../../../DaisyExamples/DaisySP//Source/Filters/fir.h ****         }
 665              		.loc 1 114 19 view .LVU192
 666              	.LBE402:
 667              	.LBE401:
 668              	.LBE400:
ARM GAS  C:\Users\samue\AppData\Local\Temp\ccg9npc6.s 			page 22


 669              	.LBE399:
 670              	.LBE398:
 671              	.LBB421:
 672              	.LBI421:
 102:../../../../DaisyExamples/DaisySP//Source/Filters/fir.h ****     {
 673              		.loc 1 102 10 is_stmt 1 view .LVU193
 674              	.LBB422:
 104:../../../../DaisyExamples/DaisySP//Source/Filters/fir.h ****         state_size_ = length;
 675              		.loc 1 104 9 view .LVU194
 105:../../../../DaisyExamples/DaisySP//Source/Filters/fir.h ****     }
 676              		.loc 1 105 21 is_stmt 0 view .LVU195
 677 0120 C4F8EC60 		str	r6, [r4, #236]
 678              	.LBE422:
 679              	.LBE421:
 680              	.LBB424:
 681              	.LBB417:
 682              	.LBB413:
 683              	.LBB406:
 684              	.LBB403:
 114:../../../../DaisyExamples/DaisySP//Source/Filters/fir.h ****         }
 685              		.loc 1 114 19 view .LVU196
 686 0124 7822     		movs	r2, #120
 687              	.LBE403:
 688              	.LBE406:
 689              	.LBE413:
 690              	.LBE417:
 691              	.LBE424:
 692              	.LBB425:
 693              	.LBB423:
 104:../../../../DaisyExamples/DaisySP//Source/Filters/fir.h ****         state_size_ = length;
 694              		.loc 1 104 21 view .LVU197
 695 0126 C4F8E000 		str	r0, [r4, #224]
 105:../../../../DaisyExamples/DaisySP//Source/Filters/fir.h ****     }
 696              		.loc 1 105 9 is_stmt 1 view .LVU198
 697              	.LVL21:
 105:../../../../DaisyExamples/DaisySP//Source/Filters/fir.h ****     }
 698              		.loc 1 105 9 is_stmt 0 view .LVU199
 699              	.LBE423:
 700              	.LBE425:
 701              		.loc 2 25 5 is_stmt 1 view .LVU200
 702              	.LBB426:
 703              	.LBI398:
 704              		.loc 1 252 17 view .LVU201
 705              	.LBB418:
 706              	.LBI399:
 242:../../../../DaisyExamples/DaisySP//Source/Filters/fir.h ****     {
 707              		.loc 1 242 10 view .LVU202
 708              	.LBB414:
 709              	.LBB407:
 710              	.LBI407:
 133:../../../../DaisyExamples/DaisySP//Source/Filters/fir.h ****     {
 711              		.loc 1 133 10 view .LVU203
 712              	.LBB408:
 136:../../../../DaisyExamples/DaisySP//Source/Filters/fir.h ****         assert(nullptr != coefs || 0 == size);
 713              		.loc 1 136 9 view .LVU204
 137:../../../../DaisyExamples/DaisySP//Source/Filters/fir.h **** 
 714              		.loc 1 137 9 view .LVU205
ARM GAS  C:\Users\samue\AppData\Local\Temp\ccg9npc6.s 			page 23


 139:../../../../DaisyExamples/DaisySP//Source/Filters/fir.h ****         {
 715              		.loc 1 139 9 view .LVU206
 141:../../../../DaisyExamples/DaisySP//Source/Filters/fir.h ****             size_  = size;
 716              		.loc 1 141 13 view .LVU207
 142:../../../../DaisyExamples/DaisySP//Source/Filters/fir.h ****             return true;
 717              		.loc 1 142 13 view .LVU208
 143:../../../../DaisyExamples/DaisySP//Source/Filters/fir.h ****         }
 718              		.loc 1 143 13 view .LVU209
 143:../../../../DaisyExamples/DaisySP//Source/Filters/fir.h ****         }
 719              		.loc 1 143 13 is_stmt 0 view .LVU210
 720              	.LBE408:
 721              	.LBE407:
 722              	.LBB410:
 723              	.LBI401:
 108:../../../../DaisyExamples/DaisySP//Source/Filters/fir.h ****     {
 724              		.loc 1 108 10 is_stmt 1 view .LVU211
 725              	.LBB404:
 110:../../../../DaisyExamples/DaisySP//Source/Filters/fir.h ****         assert(0 != state_size_);
 726              		.loc 1 110 9 view .LVU212
 111:../../../../DaisyExamples/DaisySP//Source/Filters/fir.h ****         if(nullptr != state_)
 727              		.loc 1 111 9 view .LVU213
 112:../../../../DaisyExamples/DaisySP//Source/Filters/fir.h ****         {
 728              		.loc 1 112 9 view .LVU214
 114:../../../../DaisyExamples/DaisySP//Source/Filters/fir.h ****         }
 729              		.loc 1 114 13 view .LVU215
 730              	.LBE404:
 731              	.LBE410:
 732              	.LBE414:
 733              	.LBE418:
 734              	.LBE426:
  26:voice.cpp     **** }
 735              		.loc 2 26 1 is_stmt 0 view .LVU216
 736 012a BDEC048B 		vldm	sp!, {d8-d9}
 737              		.cfi_restore 82
 738              		.cfi_restore 83
 739              		.cfi_restore 80
 740              		.cfi_restore 81
 741              		.cfi_def_cfa_offset 24
 742              	.LBB427:
 743              	.LBB419:
 744              	.LBB415:
 745              	.LBB411:
 746              	.LBB409:
 141:../../../../DaisyExamples/DaisySP//Source/Filters/fir.h ****             size_  = size;
 747              		.loc 1 141 20 view .LVU217
 748 012e C4E93935 		strd	r3, r5, [r4, #228]
 749              	.LBE409:
 750              	.LBE411:
 751              	.LBE415:
 752              	.LBE419:
 753              	.LBE427:
 754              		.loc 2 26 1 view .LVU218
 755 0132 BDE8F041 		pop	{r4, r5, r6, r7, r8, lr}
 756              		.cfi_restore 14
 757              		.cfi_restore 8
 758              		.cfi_restore 7
 759              		.cfi_restore 6
ARM GAS  C:\Users\samue\AppData\Local\Temp\ccg9npc6.s 			page 24


 760              		.cfi_restore 5
 761              		.cfi_restore 4
 762              		.cfi_def_cfa_offset 0
 763              	.LVL22:
 764              	.LBB428:
 765              	.LBB420:
 766              	.LBB416:
 767              	.LBB412:
 768              	.LBB405:
 114:../../../../DaisyExamples/DaisySP//Source/Filters/fir.h ****         }
 769              		.loc 1 114 19 view .LVU219
 770 0136 FFF7FEBF 		b	memset
 771              	.LVL23:
 772              	.L13:
 114:../../../../DaisyExamples/DaisySP//Source/Filters/fir.h ****         }
 773              		.loc 1 114 19 view .LVU220
 774 013a 00BF     		.align	2
 775              	.L12:
 776 013c 0000C842 		.word	1120403456
 777              	.LBE405:
 778              	.LBE412:
 779              	.LBE416:
 780              	.LBE420:
 781              	.LBE428:
 782              		.cfi_endproc
 783              	.LFE3515:
 785              		.section	.text._ZN5voice8set_freqEf,"ax",%progbits
 786              		.align	1
 787              		.p2align 2,,3
 788              		.global	_ZN5voice8set_freqEf
 789              		.syntax unified
 790              		.thumb
 791              		.thumb_func
 792              		.fpu fpv5-d16
 794              	_ZN5voice8set_freqEf:
 795              	.LVL24:
 796              	.LFB3519:
  27:voice.cpp     **** 
  28:voice.cpp     **** void voice::set_freq(float freq)
  29:voice.cpp     **** {
 797              		.loc 2 29 1 is_stmt 1 view -0
 798              		.cfi_startproc
 799              		@ args = 0, pretend = 0, frame = 0
 800              		@ frame_needed = 0, uses_anonymous_args = 0
  30:voice.cpp     ****     float osc_midi;
 801              		.loc 2 30 5 view .LVU222
  31:voice.cpp     ****     if(freq_curve_ == voct)
 802              		.loc 2 31 5 view .LVU223
 803              		.loc 2 31 8 is_stmt 0 view .LVU224
 804 0000 90F8CC30 		ldrb	r3, [r0, #204]	@ zero_extendqisi2
  29:voice.cpp     ****     float osc_midi;
 805              		.loc 2 29 1 view .LVU225
 806 0004 F0EE407A 		vmov.f32	s15, s0
 807              		.loc 2 31 5 view .LVU226
 808 0008 022B     		cmp	r3, #2
  29:voice.cpp     ****     float osc_midi;
 809              		.loc 2 29 1 view .LVU227
ARM GAS  C:\Users\samue\AppData\Local\Temp\ccg9npc6.s 			page 25


 810 000a 10B5     		push	{r4, lr}
 811              		.cfi_def_cfa_offset 8
 812              		.cfi_offset 4, -8
 813              		.cfi_offset 14, -4
  29:voice.cpp     ****     float osc_midi;
 814              		.loc 2 29 1 view .LVU228
 815 000c 0446     		mov	r4, r0
 816              		.loc 2 31 5 view .LVU229
 817 000e 26D0     		beq	.L19
  32:voice.cpp     ****     {
  33:voice.cpp     ****         osc_midi = freq*120.0f;
  34:voice.cpp     ****         freq = mtof(osc_midi);
  35:voice.cpp     ****         osc_freq_ = freq;
  36:voice.cpp     ****     }
  37:voice.cpp     ****     else if (freq_curve_ == linear)
 818              		.loc 2 37 10 is_stmt 1 view .LVU230
 819 0010 012B     		cmp	r3, #1
 820 0012 13D0     		beq	.L20
  38:voice.cpp     ****     {
  39:voice.cpp     ****         osc_freq_ = fmap(freq, 30, 16000, daisysp::Mapping::LINEAR);
  40:voice.cpp     ****     }
  41:voice.cpp     ****     else if (freq_curve_ == lfo)
 821              		.loc 2 41 10 view .LVU231
 822 0014 8BB9     		cbnz	r3, .L14
  42:voice.cpp     ****     {
  43:voice.cpp     ****         osc_freq_ = fmap(freq, 0.01f, 30.0f, daisysp::Mapping::EXP);
 823              		.loc 2 43 9 view .LVU232
 824              	.LVL25:
 825              	.LBB445:
 826              	.LBI445:
 827              		.file 4 "../../../../DaisyExamples/DaisySP//Source/Utility/dsp.h"
   1:../../../../DaisyExamples/DaisySP//Source/Utility/dsp.h **** /*
   2:../../../../DaisyExamples/DaisySP//Source/Utility/dsp.h **** Copyright (c) 2020 Electrosmith, Corp, Emilie Gillet
   3:../../../../DaisyExamples/DaisySP//Source/Utility/dsp.h **** 
   4:../../../../DaisyExamples/DaisySP//Source/Utility/dsp.h **** Use of this source code is governed by an MIT-style
   5:../../../../DaisyExamples/DaisySP//Source/Utility/dsp.h **** license that can be found in the LICENSE file or at
   6:../../../../DaisyExamples/DaisySP//Source/Utility/dsp.h **** https://opensource.org/licenses/MIT.
   7:../../../../DaisyExamples/DaisySP//Source/Utility/dsp.h **** */
   8:../../../../DaisyExamples/DaisySP//Source/Utility/dsp.h **** 
   9:../../../../DaisyExamples/DaisySP//Source/Utility/dsp.h **** /** Helpful defines, functions, and other utilities for use in/with daisysp modules.
  10:../../../../DaisyExamples/DaisySP//Source/Utility/dsp.h **** */
  11:../../../../DaisyExamples/DaisySP//Source/Utility/dsp.h **** #pragma once
  12:../../../../DaisyExamples/DaisySP//Source/Utility/dsp.h **** #ifndef DSY_CORE_DSP
  13:../../../../DaisyExamples/DaisySP//Source/Utility/dsp.h **** #define DSY_CORE_DSP
  14:../../../../DaisyExamples/DaisySP//Source/Utility/dsp.h **** #include <cassert>
  15:../../../../DaisyExamples/DaisySP//Source/Utility/dsp.h **** #include <cstdint>
  16:../../../../DaisyExamples/DaisySP//Source/Utility/dsp.h **** #include <random>
  17:../../../../DaisyExamples/DaisySP//Source/Utility/dsp.h **** #include <cmath>
  18:../../../../DaisyExamples/DaisySP//Source/Utility/dsp.h **** 
  19:../../../../DaisyExamples/DaisySP//Source/Utility/dsp.h **** /** PIs
  20:../../../../DaisyExamples/DaisySP//Source/Utility/dsp.h **** */
  21:../../../../DaisyExamples/DaisySP//Source/Utility/dsp.h **** #define PI_F 3.1415927410125732421875f
  22:../../../../DaisyExamples/DaisySP//Source/Utility/dsp.h **** #define TWOPI_F (2.0f * PI_F)
  23:../../../../DaisyExamples/DaisySP//Source/Utility/dsp.h **** #define HALFPI_F (PI_F * 0.5f)
  24:../../../../DaisyExamples/DaisySP//Source/Utility/dsp.h **** #define DSY_MIN(in, mn) (in < mn ? in : mn)
  25:../../../../DaisyExamples/DaisySP//Source/Utility/dsp.h **** #define DSY_MAX(in, mx) (in > mx ? in : mx)
  26:../../../../DaisyExamples/DaisySP//Source/Utility/dsp.h **** #define DSY_CLAMP(in, mn, mx) (DSY_MIN(DSY_MAX(in, mn), mx))
ARM GAS  C:\Users\samue\AppData\Local\Temp\ccg9npc6.s 			page 26


  27:../../../../DaisyExamples/DaisySP//Source/Utility/dsp.h **** #define DSY_COUNTOF(_arr) (sizeof(_arr) / sizeof(_arr[0]))
  28:../../../../DaisyExamples/DaisySP//Source/Utility/dsp.h **** 
  29:../../../../DaisyExamples/DaisySP//Source/Utility/dsp.h **** namespace daisysp
  30:../../../../DaisyExamples/DaisySP//Source/Utility/dsp.h **** {
  31:../../../../DaisyExamples/DaisySP//Source/Utility/dsp.h **** //Avoids division for random floats. e.g. rand() * kRandFrac
  32:../../../../DaisyExamples/DaisySP//Source/Utility/dsp.h **** static constexpr float kRandFrac = 1.f / (float)RAND_MAX;
  33:../../../../DaisyExamples/DaisySP//Source/Utility/dsp.h **** 
  34:../../../../DaisyExamples/DaisySP//Source/Utility/dsp.h **** //Convert from semitones to other units. e.g. 2 ^ (kOneTwelfth * x)
  35:../../../../DaisyExamples/DaisySP//Source/Utility/dsp.h **** static constexpr float kOneTwelfth = 1.f / 12.f;
  36:../../../../DaisyExamples/DaisySP//Source/Utility/dsp.h **** 
  37:../../../../DaisyExamples/DaisySP//Source/Utility/dsp.h **** /** efficient floating point min/max
  38:../../../../DaisyExamples/DaisySP//Source/Utility/dsp.h **** c/o stephen mccaul
  39:../../../../DaisyExamples/DaisySP//Source/Utility/dsp.h **** */
  40:../../../../DaisyExamples/DaisySP//Source/Utility/dsp.h **** inline float fmax(float a, float b)
  41:../../../../DaisyExamples/DaisySP//Source/Utility/dsp.h **** {
  42:../../../../DaisyExamples/DaisySP//Source/Utility/dsp.h ****     float r;
  43:../../../../DaisyExamples/DaisySP//Source/Utility/dsp.h **** #ifdef __arm__
  44:../../../../DaisyExamples/DaisySP//Source/Utility/dsp.h ****     asm("vmaxnm.f32 %[d], %[n], %[m]" : [d] "=t"(r) : [n] "t"(a), [m] "t"(b) :);
  45:../../../../DaisyExamples/DaisySP//Source/Utility/dsp.h **** #else
  46:../../../../DaisyExamples/DaisySP//Source/Utility/dsp.h ****     r = (a > b) ? a : b;
  47:../../../../DaisyExamples/DaisySP//Source/Utility/dsp.h **** #endif // __arm__
  48:../../../../DaisyExamples/DaisySP//Source/Utility/dsp.h ****     return r;
  49:../../../../DaisyExamples/DaisySP//Source/Utility/dsp.h **** }
  50:../../../../DaisyExamples/DaisySP//Source/Utility/dsp.h **** 
  51:../../../../DaisyExamples/DaisySP//Source/Utility/dsp.h **** inline float fmin(float a, float b)
  52:../../../../DaisyExamples/DaisySP//Source/Utility/dsp.h **** {
  53:../../../../DaisyExamples/DaisySP//Source/Utility/dsp.h ****     float r;
  54:../../../../DaisyExamples/DaisySP//Source/Utility/dsp.h **** #ifdef __arm__
  55:../../../../DaisyExamples/DaisySP//Source/Utility/dsp.h ****     asm("vminnm.f32 %[d], %[n], %[m]" : [d] "=t"(r) : [n] "t"(a), [m] "t"(b) :);
  56:../../../../DaisyExamples/DaisySP//Source/Utility/dsp.h **** #else
  57:../../../../DaisyExamples/DaisySP//Source/Utility/dsp.h ****     r = (a < b) ? a : b;
  58:../../../../DaisyExamples/DaisySP//Source/Utility/dsp.h **** #endif // __arm__
  59:../../../../DaisyExamples/DaisySP//Source/Utility/dsp.h ****     return r;
  60:../../../../DaisyExamples/DaisySP//Source/Utility/dsp.h **** }
  61:../../../../DaisyExamples/DaisySP//Source/Utility/dsp.h **** 
  62:../../../../DaisyExamples/DaisySP//Source/Utility/dsp.h **** /** quick fp clamp
  63:../../../../DaisyExamples/DaisySP//Source/Utility/dsp.h **** */
  64:../../../../DaisyExamples/DaisySP//Source/Utility/dsp.h **** inline float fclamp(float in, float min, float max)
  65:../../../../DaisyExamples/DaisySP//Source/Utility/dsp.h **** {
  66:../../../../DaisyExamples/DaisySP//Source/Utility/dsp.h ****     return fmin(fmax(in, min), max);
  67:../../../../DaisyExamples/DaisySP//Source/Utility/dsp.h **** }
  68:../../../../DaisyExamples/DaisySP//Source/Utility/dsp.h **** 
  69:../../../../DaisyExamples/DaisySP//Source/Utility/dsp.h **** /** From Musicdsp.org "Fast power and root estimates for 32bit floats)
  70:../../../../DaisyExamples/DaisySP//Source/Utility/dsp.h **** Original code by Stefan Stenzel
  71:../../../../DaisyExamples/DaisySP//Source/Utility/dsp.h **** These are approximations
  72:../../../../DaisyExamples/DaisySP//Source/Utility/dsp.h **** */
  73:../../../../DaisyExamples/DaisySP//Source/Utility/dsp.h **** inline float fastpower(float f, int n)
  74:../../../../DaisyExamples/DaisySP//Source/Utility/dsp.h **** {
  75:../../../../DaisyExamples/DaisySP//Source/Utility/dsp.h ****     long *lp, l;
  76:../../../../DaisyExamples/DaisySP//Source/Utility/dsp.h ****     lp = (long *)(&f);
  77:../../../../DaisyExamples/DaisySP//Source/Utility/dsp.h ****     l  = *lp;
  78:../../../../DaisyExamples/DaisySP//Source/Utility/dsp.h ****     l -= 0x3F800000;
  79:../../../../DaisyExamples/DaisySP//Source/Utility/dsp.h ****     l <<= (n - 1);
  80:../../../../DaisyExamples/DaisySP//Source/Utility/dsp.h ****     l += 0x3F800000;
  81:../../../../DaisyExamples/DaisySP//Source/Utility/dsp.h ****     *lp = l;
  82:../../../../DaisyExamples/DaisySP//Source/Utility/dsp.h ****     return f;
  83:../../../../DaisyExamples/DaisySP//Source/Utility/dsp.h **** }
ARM GAS  C:\Users\samue\AppData\Local\Temp\ccg9npc6.s 			page 27


  84:../../../../DaisyExamples/DaisySP//Source/Utility/dsp.h **** 
  85:../../../../DaisyExamples/DaisySP//Source/Utility/dsp.h **** inline float fastroot(float f, int n)
  86:../../../../DaisyExamples/DaisySP//Source/Utility/dsp.h **** {
  87:../../../../DaisyExamples/DaisySP//Source/Utility/dsp.h ****     long *lp, l;
  88:../../../../DaisyExamples/DaisySP//Source/Utility/dsp.h ****     lp = (long *)(&f);
  89:../../../../DaisyExamples/DaisySP//Source/Utility/dsp.h ****     l  = *lp;
  90:../../../../DaisyExamples/DaisySP//Source/Utility/dsp.h ****     l -= 0x3F800000;
  91:../../../../DaisyExamples/DaisySP//Source/Utility/dsp.h ****     l >>= (n - 1);
  92:../../../../DaisyExamples/DaisySP//Source/Utility/dsp.h ****     l += 0x3F800000;
  93:../../../../DaisyExamples/DaisySP//Source/Utility/dsp.h ****     *lp = l;
  94:../../../../DaisyExamples/DaisySP//Source/Utility/dsp.h ****     return f;
  95:../../../../DaisyExamples/DaisySP//Source/Utility/dsp.h **** }
  96:../../../../DaisyExamples/DaisySP//Source/Utility/dsp.h **** 
  97:../../../../DaisyExamples/DaisySP//Source/Utility/dsp.h **** /** Significantly more efficient than fmodf(x, 1.0f) for calculating
  98:../../../../DaisyExamples/DaisySP//Source/Utility/dsp.h ****  *  the decimal part of a floating point value.
  99:../../../../DaisyExamples/DaisySP//Source/Utility/dsp.h ****  */
 100:../../../../DaisyExamples/DaisySP//Source/Utility/dsp.h **** inline float fastmod1f(float x)
 101:../../../../DaisyExamples/DaisySP//Source/Utility/dsp.h **** {
 102:../../../../DaisyExamples/DaisySP//Source/Utility/dsp.h ****     return x - static_cast<int>(x);
 103:../../../../DaisyExamples/DaisySP//Source/Utility/dsp.h **** }
 104:../../../../DaisyExamples/DaisySP//Source/Utility/dsp.h **** 
 105:../../../../DaisyExamples/DaisySP//Source/Utility/dsp.h **** /** From http://openaudio.blogspot.com/2017/02/faster-log10-and-pow.html
 106:../../../../DaisyExamples/DaisySP//Source/Utility/dsp.h **** No approximation, pow10f(x) gives a 90% speed increase over powf(10.f, x)
 107:../../../../DaisyExamples/DaisySP//Source/Utility/dsp.h **** */
 108:../../../../DaisyExamples/DaisySP//Source/Utility/dsp.h **** inline float pow10f(float f)
 109:../../../../DaisyExamples/DaisySP//Source/Utility/dsp.h **** {
 110:../../../../DaisyExamples/DaisySP//Source/Utility/dsp.h ****     return expf(2.302585092994046f * f);
 111:../../../../DaisyExamples/DaisySP//Source/Utility/dsp.h **** }
 112:../../../../DaisyExamples/DaisySP//Source/Utility/dsp.h **** 
 113:../../../../DaisyExamples/DaisySP//Source/Utility/dsp.h **** /* Original code for fastlog2f by Dr. Paul Beckmann from the ARM community forum, adapted from the 
 114:../../../../DaisyExamples/DaisySP//Source/Utility/dsp.h **** About 25% performance increase over std::log10f
 115:../../../../DaisyExamples/DaisySP//Source/Utility/dsp.h **** */
 116:../../../../DaisyExamples/DaisySP//Source/Utility/dsp.h **** inline float fastlog2f(float f)
 117:../../../../DaisyExamples/DaisySP//Source/Utility/dsp.h **** {
 118:../../../../DaisyExamples/DaisySP//Source/Utility/dsp.h ****     float frac;
 119:../../../../DaisyExamples/DaisySP//Source/Utility/dsp.h ****     int   exp;
 120:../../../../DaisyExamples/DaisySP//Source/Utility/dsp.h ****     frac = frexpf(fabsf(f), &exp);
 121:../../../../DaisyExamples/DaisySP//Source/Utility/dsp.h ****     f    = 1.23149591368684f;
 122:../../../../DaisyExamples/DaisySP//Source/Utility/dsp.h ****     f *= frac;
 123:../../../../DaisyExamples/DaisySP//Source/Utility/dsp.h ****     f += -4.11852516267426f;
 124:../../../../DaisyExamples/DaisySP//Source/Utility/dsp.h ****     f *= frac;
 125:../../../../DaisyExamples/DaisySP//Source/Utility/dsp.h ****     f += 6.02197014179219f;
 126:../../../../DaisyExamples/DaisySP//Source/Utility/dsp.h ****     f *= frac;
 127:../../../../DaisyExamples/DaisySP//Source/Utility/dsp.h ****     f += -3.13396450166353f;
 128:../../../../DaisyExamples/DaisySP//Source/Utility/dsp.h ****     f += exp;
 129:../../../../DaisyExamples/DaisySP//Source/Utility/dsp.h ****     return (f);
 130:../../../../DaisyExamples/DaisySP//Source/Utility/dsp.h **** }
 131:../../../../DaisyExamples/DaisySP//Source/Utility/dsp.h **** 
 132:../../../../DaisyExamples/DaisySP//Source/Utility/dsp.h **** inline float fastlog10f(float f)
 133:../../../../DaisyExamples/DaisySP//Source/Utility/dsp.h **** {
 134:../../../../DaisyExamples/DaisySP//Source/Utility/dsp.h ****     return fastlog2f(f) * 0.3010299956639812f;
 135:../../../../DaisyExamples/DaisySP//Source/Utility/dsp.h **** }
 136:../../../../DaisyExamples/DaisySP//Source/Utility/dsp.h **** 
 137:../../../../DaisyExamples/DaisySP//Source/Utility/dsp.h **** /** Midi to frequency helper
 138:../../../../DaisyExamples/DaisySP//Source/Utility/dsp.h **** */
 139:../../../../DaisyExamples/DaisySP//Source/Utility/dsp.h **** inline float mtof(float m)
 140:../../../../DaisyExamples/DaisySP//Source/Utility/dsp.h **** {
ARM GAS  C:\Users\samue\AppData\Local\Temp\ccg9npc6.s 			page 28


 141:../../../../DaisyExamples/DaisySP//Source/Utility/dsp.h ****     return powf(2, (m - 69.0f) / 12.0f) * 440.0f;
 142:../../../../DaisyExamples/DaisySP//Source/Utility/dsp.h **** }
 143:../../../../DaisyExamples/DaisySP//Source/Utility/dsp.h **** 
 144:../../../../DaisyExamples/DaisySP//Source/Utility/dsp.h **** 
 145:../../../../DaisyExamples/DaisySP//Source/Utility/dsp.h **** /** one pole lpf
 146:../../../../DaisyExamples/DaisySP//Source/Utility/dsp.h **** out is passed by reference, and must be retained between
 147:../../../../DaisyExamples/DaisySP//Source/Utility/dsp.h **** calls to properly filter the signal
 148:../../../../DaisyExamples/DaisySP//Source/Utility/dsp.h **** coeff can be calculated:
 149:../../../../DaisyExamples/DaisySP//Source/Utility/dsp.h **** coeff = 1.0 / (time * sample_rate) ; where time is in seconds
 150:../../../../DaisyExamples/DaisySP//Source/Utility/dsp.h **** */
 151:../../../../DaisyExamples/DaisySP//Source/Utility/dsp.h **** inline void fonepole(float &out, float in, float coeff)
 152:../../../../DaisyExamples/DaisySP//Source/Utility/dsp.h **** {
 153:../../../../DaisyExamples/DaisySP//Source/Utility/dsp.h ****     out += coeff * (in - out);
 154:../../../../DaisyExamples/DaisySP//Source/Utility/dsp.h **** }
 155:../../../../DaisyExamples/DaisySP//Source/Utility/dsp.h **** 
 156:../../../../DaisyExamples/DaisySP//Source/Utility/dsp.h **** /** Curves to use with the fmap function */
 157:../../../../DaisyExamples/DaisySP//Source/Utility/dsp.h **** enum class Mapping
 158:../../../../DaisyExamples/DaisySP//Source/Utility/dsp.h **** {
 159:../../../../DaisyExamples/DaisySP//Source/Utility/dsp.h ****     LINEAR,
 160:../../../../DaisyExamples/DaisySP//Source/Utility/dsp.h ****     EXP,
 161:../../../../DaisyExamples/DaisySP//Source/Utility/dsp.h ****     LOG,
 162:../../../../DaisyExamples/DaisySP//Source/Utility/dsp.h **** };
 163:../../../../DaisyExamples/DaisySP//Source/Utility/dsp.h **** 
 164:../../../../DaisyExamples/DaisySP//Source/Utility/dsp.h **** /** Maps a float between a specified range, using a specified curve.
 165:../../../../DaisyExamples/DaisySP//Source/Utility/dsp.h ****  *
 166:../../../../DaisyExamples/DaisySP//Source/Utility/dsp.h ****  *  \param in a value between 0 to 1 that will be mapped to the new range.
 167:../../../../DaisyExamples/DaisySP//Source/Utility/dsp.h ****  *  \param min the new minimum value
 168:../../../../DaisyExamples/DaisySP//Source/Utility/dsp.h ****  *  \param max the new maxmimum value
 169:../../../../DaisyExamples/DaisySP//Source/Utility/dsp.h ****  *  \param curve a Mapping Value to adjust the response curve of the transformation
 170:../../../../DaisyExamples/DaisySP//Source/Utility/dsp.h ****  *               defaults to Linear. @see Mapping
 171:../../../../DaisyExamples/DaisySP//Source/Utility/dsp.h ****  *
 172:../../../../DaisyExamples/DaisySP//Source/Utility/dsp.h ****  *  When using the log curve min and max, must be greater than zero.
 173:../../../../DaisyExamples/DaisySP//Source/Utility/dsp.h ****  *
 174:../../../../DaisyExamples/DaisySP//Source/Utility/dsp.h ****  *  \retval returns the transformed float within the new range.
 175:../../../../DaisyExamples/DaisySP//Source/Utility/dsp.h **** */
 176:../../../../DaisyExamples/DaisySP//Source/Utility/dsp.h **** inline float
 177:../../../../DaisyExamples/DaisySP//Source/Utility/dsp.h **** fmap(float in, float min, float max, Mapping curve = Mapping::LINEAR)
 828              		.loc 4 177 1 view .LVU233
 829              	.LBE445:
 178:../../../../DaisyExamples/DaisySP//Source/Utility/dsp.h **** {
 179:../../../../DaisyExamples/DaisySP//Source/Utility/dsp.h ****     switch(curve)
 830              		.loc 4 179 5 view .LVU234
 831              	.LBB457:
 832              	.LBB446:
 180:../../../../DaisyExamples/DaisySP//Source/Utility/dsp.h ****     {
 181:../../../../DaisyExamples/DaisySP//Source/Utility/dsp.h ****         case Mapping::EXP:
 833              		.loc 4 181 9 view .LVU235
 182:../../../../DaisyExamples/DaisySP//Source/Utility/dsp.h ****             return fclamp(min + (in * in) * (max - min), min, max);
 834              		.loc 4 182 13 view .LVU236
 835              		.loc 4 182 26 is_stmt 0 view .LVU237
 836 0016 9FED1C7A 		vldr.32	s14, .L21
 837              		.loc 4 182 37 view .LVU238
 838 001a 20EE000A 		vmul.f32	s0, s0, s0
 839              	.LVL26:
 840              		.loc 4 182 26 view .LVU239
 841 001e 9FED1B6A 		vldr.32	s12, .L21+4
 842              	.LBB447:
ARM GAS  C:\Users\samue\AppData\Local\Temp\ccg9npc6.s 			page 29


 843              	.LBB448:
 844              	.LBB449:
  55:../../../../DaisyExamples/DaisySP//Source/Utility/dsp.h **** #else
 845              		.loc 4 55 5 view .LVU240
 846 0022 F3EE0E6A 		vmov.f32	s13, #3.0e+1
 847              	.LBE449:
 848              	.LBE448:
 849              	.LBE447:
 850              		.loc 4 182 26 view .LVU241
 851 0026 F0EE477A 		vmov.f32	s15, s14
 852              	.LVL27:
 853              		.loc 4 182 26 view .LVU242
 854 002a E0EE067A 		vfma.f32	s15, s0, s12
 855              	.LVL28:
 856              	.LBB454:
 857              	.LBI447:
  64:../../../../DaisyExamples/DaisySP//Source/Utility/dsp.h **** {
 858              		.loc 4 64 14 is_stmt 1 view .LVU243
 859              	.LBE454:
 860              	.LBE446:
 861              	.LBE457:
  66:../../../../DaisyExamples/DaisySP//Source/Utility/dsp.h **** }
 862              		.loc 4 66 5 view .LVU244
 863              	.LBB458:
 864              	.LBB456:
 865              	.LBB455:
 866              	.LBB451:
 867              	.LBI451:
  40:../../../../DaisyExamples/DaisySP//Source/Utility/dsp.h **** {
 868              		.loc 4 40 14 view .LVU245
 869              	.LBB452:
  42:../../../../DaisyExamples/DaisySP//Source/Utility/dsp.h **** #ifdef __arm__
 870              		.loc 4 42 5 view .LVU246
  44:../../../../DaisyExamples/DaisySP//Source/Utility/dsp.h **** #else
 871              		.loc 4 44 5 view .LVU247
 872              		.syntax unified
 873              	@ 44 "../../../../DaisyExamples/DaisySP//Source/Utility/dsp.h" 1
 874 002e C7FE877A 		vmaxnm.f32 s15, s15, s14
 875              	@ 0 "" 2
 876              	.LVL29:
  48:../../../../DaisyExamples/DaisySP//Source/Utility/dsp.h **** }
 877              		.loc 4 48 5 view .LVU248
  48:../../../../DaisyExamples/DaisySP//Source/Utility/dsp.h **** }
 878              		.loc 4 48 5 is_stmt 0 view .LVU249
 879              		.thumb
 880              		.syntax unified
 881              	.LBE452:
 882              	.LBE451:
 883              	.LBB453:
 884              	.LBI448:
  51:../../../../DaisyExamples/DaisySP//Source/Utility/dsp.h **** {
 885              		.loc 4 51 14 is_stmt 1 view .LVU250
 886              	.LBB450:
  53:../../../../DaisyExamples/DaisySP//Source/Utility/dsp.h **** #ifdef __arm__
 887              		.loc 4 53 5 view .LVU251
  55:../../../../DaisyExamples/DaisySP//Source/Utility/dsp.h **** #else
 888              		.loc 4 55 5 view .LVU252
ARM GAS  C:\Users\samue\AppData\Local\Temp\ccg9npc6.s 			page 30


 889              		.syntax unified
 890              	@ 55 "../../../../DaisyExamples/DaisySP//Source/Utility/dsp.h" 1
 891 0032 C7FEE67A 		vminnm.f32 s15, s15, s13
 892              	@ 0 "" 2
 893              	.LVL30:
  59:../../../../DaisyExamples/DaisySP//Source/Utility/dsp.h **** }
 894              		.loc 4 59 5 view .LVU253
  59:../../../../DaisyExamples/DaisySP//Source/Utility/dsp.h **** }
 895              		.loc 4 59 5 is_stmt 0 view .LVU254
 896              		.thumb
 897              		.syntax unified
 898              	.LBE450:
 899              	.LBE453:
 900              	.LBE455:
 901              	.LBE456:
 902              	.LBE458:
 903              		.loc 2 43 19 view .LVU255
 904 0036 C0ED2C7A 		vstr.32	s15, [r0, #176]
 905              	.L14:
  44:voice.cpp     ****     }
  45:voice.cpp     ****     
  46:voice.cpp     ****     
  47:voice.cpp     **** }
 906              		.loc 2 47 1 view .LVU256
 907 003a 10BD     		pop	{r4, pc}
 908              	.LVL31:
 909              	.L20:
  39:voice.cpp     ****     }
 910              		.loc 2 39 9 is_stmt 1 view .LVU257
 911              	.LBB459:
 912              	.LBI459:
 177:../../../../DaisyExamples/DaisySP//Source/Utility/dsp.h **** {
 913              		.loc 4 177 1 view .LVU258
 914              	.LBE459:
 179:../../../../DaisyExamples/DaisySP//Source/Utility/dsp.h ****     {
 915              		.loc 4 179 5 view .LVU259
 916              	.LBB471:
 917              	.LBB460:
 183:../../../../DaisyExamples/DaisySP//Source/Utility/dsp.h ****         case Mapping::LOG:
 184:../../../../DaisyExamples/DaisySP//Source/Utility/dsp.h ****         {
 185:../../../../DaisyExamples/DaisySP//Source/Utility/dsp.h ****             const float a = 1.f / log10f(max / min);
 186:../../../../DaisyExamples/DaisySP//Source/Utility/dsp.h ****             return fclamp(min * powf(10, in / a), min, max);
 187:../../../../DaisyExamples/DaisySP//Source/Utility/dsp.h ****         }
 188:../../../../DaisyExamples/DaisySP//Source/Utility/dsp.h ****         case Mapping::LINEAR:
 918              		.loc 4 188 9 view .LVU260
 189:../../../../DaisyExamples/DaisySP//Source/Utility/dsp.h ****         default: return fclamp(min + in * (max - min), min, max);
 919              		.loc 4 189 9 view .LVU261
 920              		.loc 4 189 18 view .LVU262
 921              		.loc 4 189 31 is_stmt 0 view .LVU263
 922 003c F3EE0E6A 		vmov.f32	s13, #3.0e+1
 923 0040 DFED135A 		vldr.32	s11, .L21+8
 924              	.LBB461:
 925              	.LBB462:
 926              	.LBB463:
  55:../../../../DaisyExamples/DaisySP//Source/Utility/dsp.h **** #else
 927              		.loc 4 55 5 view .LVU264
 928 0044 9FED136A 		vldr.32	s12, .L21+12
ARM GAS  C:\Users\samue\AppData\Local\Temp\ccg9npc6.s 			page 31


 929              	.LBE463:
 930              	.LBE462:
 931              	.LBE461:
 932              		.loc 4 189 31 view .LVU265
 933 0048 B0EE667A 		vmov.f32	s14, s13
 934 004c A0EE257A 		vfma.f32	s14, s0, s11
 935              	.LVL32:
 936              	.LBB468:
 937              	.LBI461:
  64:../../../../DaisyExamples/DaisySP//Source/Utility/dsp.h **** {
 938              		.loc 4 64 14 is_stmt 1 view .LVU266
 939              	.LBE468:
 940              	.LBE460:
 941              	.LBE471:
  66:../../../../DaisyExamples/DaisySP//Source/Utility/dsp.h **** }
 942              		.loc 4 66 5 view .LVU267
 943              	.LBB472:
 944              	.LBB470:
 945              	.LBB469:
 946              	.LBB465:
 947              	.LBI465:
  40:../../../../DaisyExamples/DaisySP//Source/Utility/dsp.h **** {
 948              		.loc 4 40 14 view .LVU268
 949              	.LBB466:
  42:../../../../DaisyExamples/DaisySP//Source/Utility/dsp.h **** #ifdef __arm__
 950              		.loc 4 42 5 view .LVU269
  44:../../../../DaisyExamples/DaisySP//Source/Utility/dsp.h **** #else
 951              		.loc 4 44 5 view .LVU270
 952              		.syntax unified
 953              	@ 44 "../../../../DaisyExamples/DaisySP//Source/Utility/dsp.h" 1
 954 0050 C7FE267A 		vmaxnm.f32 s15, s14, s13
 955              	@ 0 "" 2
 956              	.LVL33:
  48:../../../../DaisyExamples/DaisySP//Source/Utility/dsp.h **** }
 957              		.loc 4 48 5 view .LVU271
  48:../../../../DaisyExamples/DaisySP//Source/Utility/dsp.h **** }
 958              		.loc 4 48 5 is_stmt 0 view .LVU272
 959              		.thumb
 960              		.syntax unified
 961              	.LBE466:
 962              	.LBE465:
 963              	.LBB467:
 964              	.LBI462:
  51:../../../../DaisyExamples/DaisySP//Source/Utility/dsp.h **** {
 965              		.loc 4 51 14 is_stmt 1 view .LVU273
 966              	.LBB464:
  53:../../../../DaisyExamples/DaisySP//Source/Utility/dsp.h **** #ifdef __arm__
 967              		.loc 4 53 5 view .LVU274
  55:../../../../DaisyExamples/DaisySP//Source/Utility/dsp.h **** #else
 968              		.loc 4 55 5 view .LVU275
 969              		.syntax unified
 970              	@ 55 "../../../../DaisyExamples/DaisySP//Source/Utility/dsp.h" 1
 971 0054 C7FEC67A 		vminnm.f32 s15, s15, s12
 972              	@ 0 "" 2
 973              	.LVL34:
  59:../../../../DaisyExamples/DaisySP//Source/Utility/dsp.h **** }
 974              		.loc 4 59 5 view .LVU276
ARM GAS  C:\Users\samue\AppData\Local\Temp\ccg9npc6.s 			page 32


  59:../../../../DaisyExamples/DaisySP//Source/Utility/dsp.h **** }
 975              		.loc 4 59 5 is_stmt 0 view .LVU277
 976              		.thumb
 977              		.syntax unified
 978              	.LBE464:
 979              	.LBE467:
 980              	.LBE469:
 981              	.LBE470:
 982              	.LBE472:
  39:voice.cpp     ****     }
 983              		.loc 2 39 19 view .LVU278
 984 0058 C0ED2C7A 		vstr.32	s15, [r0, #176]
 985              		.loc 2 47 1 view .LVU279
 986 005c 10BD     		pop	{r4, pc}
 987              	.L19:
  33:voice.cpp     ****         freq = mtof(osc_midi);
 988              		.loc 2 33 9 is_stmt 1 view .LVU280
 989              	.LVL35:
  34:voice.cpp     ****         osc_freq_ = freq;
 990              		.loc 2 34 9 view .LVU281
 991              	.LBB473:
 992              	.LBI473:
 139:../../../../DaisyExamples/DaisySP//Source/Utility/dsp.h **** {
 993              		.loc 4 139 14 view .LVU282
 994              	.LBB474:
 141:../../../../DaisyExamples/DaisySP//Source/Utility/dsp.h **** }
 995              		.loc 4 141 5 view .LVU283
 141:../../../../DaisyExamples/DaisySP//Source/Utility/dsp.h **** }
 996              		.loc 4 141 23 is_stmt 0 view .LVU284
 997 005e DFED0E6A 		vldr.32	s13, .L21+16
 141:../../../../DaisyExamples/DaisySP//Source/Utility/dsp.h **** }
 998              		.loc 4 141 16 view .LVU285
 999 0062 F2EE080A 		vmov.f32	s1, #1.2e+1
 141:../../../../DaisyExamples/DaisySP//Source/Utility/dsp.h **** }
 1000              		.loc 4 141 23 view .LVU286
 1001 0066 9FED0D7A 		vldr.32	s14, .L21+20
 141:../../../../DaisyExamples/DaisySP//Source/Utility/dsp.h **** }
 1002              		.loc 4 141 16 view .LVU287
 1003 006a B0EE000A 		vmov.f32	s0, #2.0e+0
 1004              	.LVL36:
 141:../../../../DaisyExamples/DaisySP//Source/Utility/dsp.h **** }
 1005              		.loc 4 141 23 view .LVU288
 1006 006e A7EEA67A 		vfma.f32	s14, s15, s13
 141:../../../../DaisyExamples/DaisySP//Source/Utility/dsp.h **** }
 1007              		.loc 4 141 16 view .LVU289
 1008 0072 C7EE200A 		vdiv.f32	s1, s14, s1
 1009 0076 FFF7FEFF 		bl	powf
 1010              	.LVL37:
 141:../../../../DaisyExamples/DaisySP//Source/Utility/dsp.h **** }
 1011              		.loc 4 141 16 view .LVU290
 1012              	.LBE474:
 1013              	.LBE473:
  35:voice.cpp     ****     }
 1014              		.loc 2 35 9 is_stmt 1 view .LVU291
 1015              	.LBB476:
 1016              	.LBB475:
 141:../../../../DaisyExamples/DaisySP//Source/Utility/dsp.h **** }
ARM GAS  C:\Users\samue\AppData\Local\Temp\ccg9npc6.s 			page 33


 1017              		.loc 4 141 43 is_stmt 0 view .LVU292
 1018 007a DFED097A 		vldr.32	s15, .L21+24
 1019 007e 20EE270A 		vmul.f32	s0, s0, s15
 1020              	.LVL38:
 141:../../../../DaisyExamples/DaisySP//Source/Utility/dsp.h **** }
 1021              		.loc 4 141 43 view .LVU293
 1022              	.LBE475:
 1023              	.LBE476:
  35:voice.cpp     ****     }
 1024              		.loc 2 35 19 view .LVU294
 1025 0082 84ED2C0A 		vstr.32	s0, [r4, #176]
 1026              		.loc 2 47 1 view .LVU295
 1027 0086 10BD     		pop	{r4, pc}
 1028              	.LVL39:
 1029              	.L22:
 1030              		.loc 2 47 1 view .LVU296
 1031              		.align	2
 1032              	.L21:
 1033 0088 0AD7233C 		.word	1008981770
 1034 008c 85EBEF41 		.word	1106242437
 1035 0090 00887946 		.word	1182369792
 1036 0094 00007A46 		.word	1182400512
 1037 0098 0000F042 		.word	1123024896
 1038 009c 00008AC2 		.word	-1031143424
 1039 00a0 0000DC43 		.word	1138491392
 1040              		.cfi_endproc
 1041              	.LFE3519:
 1043              		.section	.text._ZN5voice8set_fineEf,"ax",%progbits
 1044              		.align	1
 1045              		.p2align 2,,3
 1046              		.global	_ZN5voice8set_fineEf
 1047              		.syntax unified
 1048              		.thumb
 1049              		.thumb_func
 1050              		.fpu fpv5-d16
 1052              	_ZN5voice8set_fineEf:
 1053              	.LVL40:
 1054              	.LFB3520:
  48:voice.cpp     **** 
  49:voice.cpp     **** void voice::set_fine(float fine)
  50:voice.cpp     **** {
 1055              		.loc 2 50 1 is_stmt 1 view -0
 1056              		.cfi_startproc
 1057              		@ args = 0, pretend = 0, frame = 0
 1058              		@ frame_needed = 0, uses_anonymous_args = 0
 1059              		@ link register save eliminated.
  51:voice.cpp     ****     fine = fmap(fine, -12.0f, 12.0f, Mapping::LINEAR);
 1060              		.loc 2 51 5 view .LVU298
 1061              	.LBB477:
 1062              	.LBB478:
 1063              		.loc 4 189 31 is_stmt 0 view .LVU299
 1064 0000 FAEE086A 		vmov.f32	s13, #-1.2e+1
 1065              	.LBE478:
 1066              	.LBE477:
  52:voice.cpp     ****     osc_freq_ += fine;
 1067              		.loc 2 52 15 view .LVU300
 1068 0004 90ED2C7A 		vldr.32	s14, [r0, #176]
ARM GAS  C:\Users\samue\AppData\Local\Temp\ccg9npc6.s 			page 34


 1069              	.LBB491:
 1070              	.LBB488:
 1071              		.loc 4 189 31 view .LVU301
 1072 0008 F3EE085A 		vmov.f32	s11, #2.4e+1
 1073              	.LVL41:
 1074              		.loc 4 189 31 view .LVU302
 1075              	.LBE488:
 1076              	.LBI477:
 177:../../../../DaisyExamples/DaisySP//Source/Utility/dsp.h **** {
 1077              		.loc 4 177 1 is_stmt 1 view .LVU303
 1078              	.LBE491:
 179:../../../../DaisyExamples/DaisySP//Source/Utility/dsp.h ****     {
 1079              		.loc 4 179 5 view .LVU304
 1080              	.LBB492:
 1081              	.LBB489:
 188:../../../../DaisyExamples/DaisySP//Source/Utility/dsp.h ****         default: return fclamp(min + in * (max - min), min, max);
 1082              		.loc 4 188 9 view .LVU305
 1083              		.loc 4 189 9 view .LVU306
 1084              		.loc 4 189 18 view .LVU307
 1085              	.LBB479:
 1086              	.LBB480:
 1087              	.LBB481:
  55:../../../../DaisyExamples/DaisySP//Source/Utility/dsp.h **** #else
 1088              		.loc 4 55 5 is_stmt 0 view .LVU308
 1089 000c B2EE086A 		vmov.f32	s12, #1.2e+1
 1090              	.LBE481:
 1091              	.LBE480:
 1092              	.LBE479:
 1093              		.loc 4 189 31 view .LVU309
 1094 0010 F0EE667A 		vmov.f32	s15, s13
 1095 0014 E0EE257A 		vfma.f32	s15, s0, s11
 1096              	.LVL42:
 1097              	.LBB486:
 1098              	.LBI479:
  64:../../../../DaisyExamples/DaisySP//Source/Utility/dsp.h **** {
 1099              		.loc 4 64 14 is_stmt 1 view .LVU310
 1100              	.LBE486:
 1101              	.LBE489:
 1102              	.LBE492:
  66:../../../../DaisyExamples/DaisySP//Source/Utility/dsp.h **** }
 1103              		.loc 4 66 5 view .LVU311
 1104              	.LBB493:
 1105              	.LBB490:
 1106              	.LBB487:
 1107              	.LBB483:
 1108              	.LBI483:
  40:../../../../DaisyExamples/DaisySP//Source/Utility/dsp.h **** {
 1109              		.loc 4 40 14 view .LVU312
 1110              	.LBB484:
  42:../../../../DaisyExamples/DaisySP//Source/Utility/dsp.h **** #ifdef __arm__
 1111              		.loc 4 42 5 view .LVU313
  44:../../../../DaisyExamples/DaisySP//Source/Utility/dsp.h **** #else
 1112              		.loc 4 44 5 view .LVU314
 1113              		.syntax unified
 1114              	@ 44 "../../../../DaisyExamples/DaisySP//Source/Utility/dsp.h" 1
 1115 0018 C7FEA67A 		vmaxnm.f32 s15, s15, s13
 1116              	@ 0 "" 2
ARM GAS  C:\Users\samue\AppData\Local\Temp\ccg9npc6.s 			page 35


 1117              	.LVL43:
  48:../../../../DaisyExamples/DaisySP//Source/Utility/dsp.h **** }
 1118              		.loc 4 48 5 view .LVU315
  48:../../../../DaisyExamples/DaisySP//Source/Utility/dsp.h **** }
 1119              		.loc 4 48 5 is_stmt 0 view .LVU316
 1120              		.thumb
 1121              		.syntax unified
 1122              	.LBE484:
 1123              	.LBE483:
 1124              	.LBB485:
 1125              	.LBI480:
  51:../../../../DaisyExamples/DaisySP//Source/Utility/dsp.h **** {
 1126              		.loc 4 51 14 is_stmt 1 view .LVU317
 1127              	.LBB482:
  53:../../../../DaisyExamples/DaisySP//Source/Utility/dsp.h **** #ifdef __arm__
 1128              		.loc 4 53 5 view .LVU318
  55:../../../../DaisyExamples/DaisySP//Source/Utility/dsp.h **** #else
 1129              		.loc 4 55 5 view .LVU319
 1130              		.syntax unified
 1131              	@ 55 "../../../../DaisyExamples/DaisySP//Source/Utility/dsp.h" 1
 1132 001c C7FEC67A 		vminnm.f32 s15, s15, s12
 1133              	@ 0 "" 2
 1134              	.LVL44:
  59:../../../../DaisyExamples/DaisySP//Source/Utility/dsp.h **** }
 1135              		.loc 4 59 5 view .LVU320
  59:../../../../DaisyExamples/DaisySP//Source/Utility/dsp.h **** }
 1136              		.loc 4 59 5 is_stmt 0 view .LVU321
 1137              		.thumb
 1138              		.syntax unified
 1139              	.LBE482:
 1140              	.LBE485:
 1141              	.LBE487:
 1142              	.LBE490:
 1143              	.LBE493:
 1144              		.loc 2 52 5 is_stmt 1 view .LVU322
 1145              		.loc 2 52 15 is_stmt 0 view .LVU323
 1146 0020 77EE277A 		vadd.f32	s15, s14, s15
 1147              	.LVL45:
 1148              		.loc 2 52 15 view .LVU324
 1149 0024 C0ED2C7A 		vstr.32	s15, [r0, #176]
  53:voice.cpp     **** }
 1150              		.loc 2 53 1 view .LVU325
 1151 0028 7047     		bx	lr
 1152              		.cfi_endproc
 1153              	.LFE3520:
 1155 002a 00BF     		.section	.text._ZN5voice14set_freq_curveEh,"ax",%progbits
 1156              		.align	1
 1157              		.p2align 2,,3
 1158              		.global	_ZN5voice14set_freq_curveEh
 1159              		.syntax unified
 1160              		.thumb
 1161              		.thumb_func
 1162              		.fpu fpv5-d16
 1164              	_ZN5voice14set_freq_curveEh:
 1165              	.LVL46:
 1166              	.LFB3521:
  54:voice.cpp     **** 
ARM GAS  C:\Users\samue\AppData\Local\Temp\ccg9npc6.s 			page 36


  55:voice.cpp     **** void voice::set_freq_curve(u_int8_t curve)
  56:voice.cpp     **** {
 1167              		.loc 2 56 1 is_stmt 1 view -0
 1168              		.cfi_startproc
 1169              		@ args = 0, pretend = 0, frame = 0
 1170              		@ frame_needed = 0, uses_anonymous_args = 0
 1171              		@ link register save eliminated.
  57:voice.cpp     ****     freq_curve_ = curve;
 1172              		.loc 2 57 5 view .LVU327
 1173              		.loc 2 57 17 is_stmt 0 view .LVU328
 1174 0000 80F8CC10 		strb	r1, [r0, #204]
  58:voice.cpp     **** }
 1175              		.loc 2 58 1 view .LVU329
 1176 0004 7047     		bx	lr
 1177              		.cfi_endproc
 1178              	.LFE3521:
 1180 0006 00BF     		.section	.text._ZN5voice9set_shapeEf,"ax",%progbits
 1181              		.align	1
 1182              		.p2align 2,,3
 1183              		.global	_ZN5voice9set_shapeEf
 1184              		.syntax unified
 1185              		.thumb
 1186              		.thumb_func
 1187              		.fpu fpv5-d16
 1189              	_ZN5voice9set_shapeEf:
 1190              	.LVL47:
 1191              	.LFB3522:
  59:voice.cpp     **** 
  60:voice.cpp     **** void voice::set_shape(float shape)
  61:voice.cpp     **** {
 1192              		.loc 2 61 1 is_stmt 1 view -0
 1193              		.cfi_startproc
 1194              		@ args = 0, pretend = 0, frame = 0
 1195              		@ frame_needed = 0, uses_anonymous_args = 0
 1196              		@ link register save eliminated.
  62:voice.cpp     ****     if(shape <= 0.333f)
 1197              		.loc 2 62 5 view .LVU331
 1198 0000 DFED3B7A 		vldr.32	s15, .L40
 1199 0004 B4EEE70A 		vcmpe.f32	s0, s15
 1200 0008 F1EE10FA 		vmrs	APSR_nzcv, FPSCR
 1201 000c 1AD8     		bhi	.L38
  63:voice.cpp     ****     {
  64:voice.cpp     ****         sin_amp_ = (fmap(3.0f * shape, 0.0f, 1.0f, daisysp::Mapping::LINEAR) - 1.0f) * -1.0f;
 1202              		.loc 2 64 9 view .LVU332
 1203              	.LVL48:
 1204              	.LBB494:
 1205              	.LBI494:
 177:../../../../DaisyExamples/DaisySP//Source/Utility/dsp.h **** {
 1206              		.loc 4 177 1 view .LVU333
 1207              	.LBE494:
 179:../../../../DaisyExamples/DaisySP//Source/Utility/dsp.h ****     {
 1208              		.loc 4 179 5 view .LVU334
 1209              	.LBB507:
 1210              	.LBB495:
 188:../../../../DaisyExamples/DaisySP//Source/Utility/dsp.h ****         default: return fclamp(min + in * (max - min), min, max);
 1211              		.loc 4 188 9 view .LVU335
 1212              		.loc 4 189 9 view .LVU336
ARM GAS  C:\Users\samue\AppData\Local\Temp\ccg9npc6.s 			page 37


 1213              		.loc 4 189 18 view .LVU337
 1214              		.loc 4 189 31 is_stmt 0 view .LVU338
 1215 000e DFED396A 		vldr.32	s13, .L40+4
 1216              	.LBB496:
 1217              	.LBB497:
 1218              	.LBB498:
  55:../../../../DaisyExamples/DaisySP//Source/Utility/dsp.h **** #else
 1219              		.loc 4 55 5 view .LVU339
 1220 0012 F7EE007A 		vmov.f32	s15, #1.0e+0
 1221              	.LBE498:
 1222              	.LBE497:
 1223              	.LBE496:
 1224              		.loc 4 189 31 view .LVU340
 1225 0016 B0EE086A 		vmov.f32	s12, #3.0e+0
 1226 001a B0EE667A 		vmov.f32	s14, s13
 1227              	.LBE495:
 1228              	.LBE507:
  65:voice.cpp     ****         tri_amp_ = fmap(3.0f * shape, 0.0f, 1.0f, daisysp::Mapping::LINEAR);
  66:voice.cpp     ****         square_amp_ = 0.0f;
 1229              		.loc 2 66 21 view .LVU341
 1230 001e C0ED2F6A 		vstr.32	s13, [r0, #188]
  67:voice.cpp     ****         saw_amp_ = 0.0f;
 1231              		.loc 2 67 18 view .LVU342
 1232 0022 C0ED306A 		vstr.32	s13, [r0, #192]
 1233              	.LBB508:
 1234              	.LBB505:
 1235              		.loc 4 189 31 view .LVU343
 1236 0026 A0EE067A 		vfma.f32	s14, s0, s12
 1237              	.LVL49:
 1238              	.LBB503:
 1239              	.LBI496:
  64:../../../../DaisyExamples/DaisySP//Source/Utility/dsp.h **** {
 1240              		.loc 4 64 14 is_stmt 1 view .LVU344
 1241              	.LBE503:
 1242              	.LBE505:
 1243              	.LBE508:
  66:../../../../DaisyExamples/DaisySP//Source/Utility/dsp.h **** }
 1244              		.loc 4 66 5 view .LVU345
 1245              	.LBB509:
 1246              	.LBB506:
 1247              	.LBB504:
 1248              	.LBB500:
 1249              	.LBI500:
  40:../../../../DaisyExamples/DaisySP//Source/Utility/dsp.h **** {
 1250              		.loc 4 40 14 view .LVU346
 1251              	.LBB501:
  42:../../../../DaisyExamples/DaisySP//Source/Utility/dsp.h **** #ifdef __arm__
 1252              		.loc 4 42 5 view .LVU347
  44:../../../../DaisyExamples/DaisySP//Source/Utility/dsp.h **** #else
 1253              		.loc 4 44 5 view .LVU348
 1254              		.syntax unified
 1255              	@ 44 "../../../../DaisyExamples/DaisySP//Source/Utility/dsp.h" 1
 1256 002a 87FE267A 		vmaxnm.f32 s14, s14, s13
 1257              	@ 0 "" 2
 1258              	.LVL50:
  48:../../../../DaisyExamples/DaisySP//Source/Utility/dsp.h **** }
 1259              		.loc 4 48 5 view .LVU349
ARM GAS  C:\Users\samue\AppData\Local\Temp\ccg9npc6.s 			page 38


  48:../../../../DaisyExamples/DaisySP//Source/Utility/dsp.h **** }
 1260              		.loc 4 48 5 is_stmt 0 view .LVU350
 1261              		.thumb
 1262              		.syntax unified
 1263              	.LBE501:
 1264              	.LBE500:
 1265              	.LBB502:
 1266              	.LBI497:
  51:../../../../DaisyExamples/DaisySP//Source/Utility/dsp.h **** {
 1267              		.loc 4 51 14 is_stmt 1 view .LVU351
 1268              	.LBB499:
  53:../../../../DaisyExamples/DaisySP//Source/Utility/dsp.h **** #ifdef __arm__
 1269              		.loc 4 53 5 view .LVU352
  55:../../../../DaisyExamples/DaisySP//Source/Utility/dsp.h **** #else
 1270              		.loc 4 55 5 view .LVU353
 1271              		.syntax unified
 1272              	@ 55 "../../../../DaisyExamples/DaisySP//Source/Utility/dsp.h" 1
 1273 002e 87FE677A 		vminnm.f32 s14, s14, s15
 1274              	@ 0 "" 2
 1275              	.LVL51:
  59:../../../../DaisyExamples/DaisySP//Source/Utility/dsp.h **** }
 1276              		.loc 4 59 5 view .LVU354
  59:../../../../DaisyExamples/DaisySP//Source/Utility/dsp.h **** }
 1277              		.loc 4 59 5 is_stmt 0 view .LVU355
 1278              		.thumb
 1279              		.syntax unified
 1280              	.LBE499:
 1281              	.LBE502:
 1282              	.LBE504:
 1283              	.LBE506:
 1284              	.LBE509:
  64:voice.cpp     ****         tri_amp_ = fmap(3.0f * shape, 0.0f, 1.0f, daisysp::Mapping::LINEAR);
 1285              		.loc 2 64 78 view .LVU356
 1286 0032 77EE677A 		vsub.f32	s15, s14, s15
  65:voice.cpp     ****         square_amp_ = 0.0f;
 1287              		.loc 2 65 18 view .LVU357
 1288 0036 80ED2D7A 		vstr.32	s14, [r0, #180]
  64:voice.cpp     ****         tri_amp_ = fmap(3.0f * shape, 0.0f, 1.0f, daisysp::Mapping::LINEAR);
 1289              		.loc 2 64 86 view .LVU358
 1290 003a F1EE677A 		vneg.f32	s15, s15
  64:voice.cpp     ****         tri_amp_ = fmap(3.0f * shape, 0.0f, 1.0f, daisysp::Mapping::LINEAR);
 1291              		.loc 2 64 18 view .LVU359
 1292 003e C0ED2E7A 		vstr.32	s15, [r0, #184]
  65:voice.cpp     ****         square_amp_ = 0.0f;
 1293              		.loc 2 65 9 is_stmt 1 view .LVU360
 1294              	.LVL52:
 1295              	.LBB510:
 1296              	.LBI510:
 177:../../../../DaisyExamples/DaisySP//Source/Utility/dsp.h **** {
 1297              		.loc 4 177 1 view .LVU361
 1298              	.LBE510:
 179:../../../../DaisyExamples/DaisySP//Source/Utility/dsp.h ****     {
 1299              		.loc 4 179 5 view .LVU362
 188:../../../../DaisyExamples/DaisySP//Source/Utility/dsp.h ****         default: return fclamp(min + in * (max - min), min, max);
 1300              		.loc 4 188 9 view .LVU363
 1301              		.loc 4 189 9 view .LVU364
 1302              		.loc 4 189 18 view .LVU365
ARM GAS  C:\Users\samue\AppData\Local\Temp\ccg9npc6.s 			page 39


 1303              	.LBB517:
 1304              	.LBB511:
 1305              	.LBI511:
  64:../../../../DaisyExamples/DaisySP//Source/Utility/dsp.h **** {
 1306              		.loc 4 64 14 view .LVU366
 1307              	.LBE511:
 1308              	.LBE517:
  66:../../../../DaisyExamples/DaisySP//Source/Utility/dsp.h **** }
 1309              		.loc 4 66 5 view .LVU367
 1310              	.LBB518:
 1311              	.LBB516:
 1312              	.LBB512:
 1313              	.LBI512:
  40:../../../../DaisyExamples/DaisySP//Source/Utility/dsp.h **** {
 1314              		.loc 4 40 14 view .LVU368
 1315              	.LBB513:
  42:../../../../DaisyExamples/DaisySP//Source/Utility/dsp.h **** #ifdef __arm__
 1316              		.loc 4 42 5 view .LVU369
  44:../../../../DaisyExamples/DaisySP//Source/Utility/dsp.h **** #else
 1317              		.loc 4 44 5 view .LVU370
  48:../../../../DaisyExamples/DaisySP//Source/Utility/dsp.h **** }
 1318              		.loc 4 48 5 view .LVU371
  48:../../../../DaisyExamples/DaisySP//Source/Utility/dsp.h **** }
 1319              		.loc 4 48 5 is_stmt 0 view .LVU372
 1320              	.LBE513:
 1321              	.LBE512:
 1322              	.LBB514:
 1323              	.LBI514:
  51:../../../../DaisyExamples/DaisySP//Source/Utility/dsp.h **** {
 1324              		.loc 4 51 14 is_stmt 1 view .LVU373
 1325              	.LBB515:
  53:../../../../DaisyExamples/DaisySP//Source/Utility/dsp.h **** #ifdef __arm__
 1326              		.loc 4 53 5 view .LVU374
  55:../../../../DaisyExamples/DaisySP//Source/Utility/dsp.h **** #else
 1327              		.loc 4 55 5 view .LVU375
  59:../../../../DaisyExamples/DaisySP//Source/Utility/dsp.h **** }
 1328              		.loc 4 59 5 view .LVU376
  59:../../../../DaisyExamples/DaisySP//Source/Utility/dsp.h **** }
 1329              		.loc 4 59 5 is_stmt 0 view .LVU377
 1330              	.LBE515:
 1331              	.LBE514:
 1332              	.LBE516:
 1333              	.LBE518:
  66:voice.cpp     ****         saw_amp_ = 0.0f;
 1334              		.loc 2 66 9 is_stmt 1 view .LVU378
 1335              		.loc 2 67 9 view .LVU379
 1336 0042 7047     		bx	lr
 1337              	.L38:
  68:voice.cpp     ****     }
  69:voice.cpp     ****     else if (shape > 0.333f && shape <=0.666f)
 1338              		.loc 2 69 10 view .LVU380
 1339 0044 23DD     		ble	.L29
 1340              		.loc 2 69 29 is_stmt 0 discriminator 1 view .LVU381
 1341 0046 9FED2C7A 		vldr.32	s14, .L40+8
 1342 004a B4EEC70A 		vcmpe.f32	s0, s14
 1343 004e F1EE10FA 		vmrs	APSR_nzcv, FPSCR
 1344 0052 1CD8     		bhi	.L29
ARM GAS  C:\Users\samue\AppData\Local\Temp\ccg9npc6.s 			page 40


  70:voice.cpp     ****     {
  71:voice.cpp     ****         sin_amp_ = 0.0f;
 1345              		.loc 2 71 9 is_stmt 1 view .LVU382
 1346              		.loc 2 71 18 is_stmt 0 view .LVU383
 1347 0054 DFED276A 		vldr.32	s13, .L40+4
 1348              	.LBB519:
 1349              	.LBB520:
 1350              	.LBB521:
 1351              	.LBB522:
 1352              	.LBB523:
  55:../../../../DaisyExamples/DaisySP//Source/Utility/dsp.h **** #else
 1353              		.loc 4 55 5 view .LVU384
 1354 0058 B7EE007A 		vmov.f32	s14, #1.0e+0
 1355              	.LBE523:
 1356              	.LBE522:
 1357              	.LBE521:
 1358              	.LBE520:
 1359              	.LBE519:
  72:voice.cpp     ****         tri_amp_ = (fmap((shape-0.333f) * 3.0f, 0.0f, 1.0f, daisysp::Mapping::LINEAR) - 1.0f) * -1.
 1360              		.loc 2 72 32 view .LVU385
 1361 005c 30EE670A 		vsub.f32	s0, s0, s15
 1362              	.LVL53:
 1363              	.LBB534:
 1364              	.LBB530:
 1365              		.loc 4 189 31 view .LVU386
 1366 0060 B0EE086A 		vmov.f32	s12, #3.0e+0
 1367              	.LBE530:
 1368              	.LBE534:
  71:voice.cpp     ****         tri_amp_ = (fmap((shape-0.333f) * 3.0f, 0.0f, 1.0f, daisysp::Mapping::LINEAR) - 1.0f) * -1.
 1369              		.loc 2 71 18 view .LVU387
 1370 0064 C0ED2E6A 		vstr.32	s13, [r0, #184]
 1371              		.loc 2 72 9 is_stmt 1 view .LVU388
 1372              	.LVL54:
 1373              	.LBB535:
 1374              	.LBI519:
 177:../../../../DaisyExamples/DaisySP//Source/Utility/dsp.h **** {
 1375              		.loc 4 177 1 view .LVU389
 1376              	.LBE535:
 179:../../../../DaisyExamples/DaisySP//Source/Utility/dsp.h ****     {
 1377              		.loc 4 179 5 view .LVU390
 1378              	.LBB536:
 1379              	.LBB531:
 188:../../../../DaisyExamples/DaisySP//Source/Utility/dsp.h ****         default: return fclamp(min + in * (max - min), min, max);
 1380              		.loc 4 188 9 view .LVU391
 1381              		.loc 4 189 9 view .LVU392
 1382              		.loc 4 189 18 view .LVU393
 1383              		.loc 4 189 31 is_stmt 0 view .LVU394
 1384 0068 F0EE667A 		vmov.f32	s15, s13
 1385              	.LBE531:
 1386              	.LBE536:
  73:voice.cpp     ****         square_amp_ = fmap((shape-0.333f) * 3.0f, 0.0f, 1.0f, daisysp::Mapping::LINEAR);
  74:voice.cpp     ****         saw_amp_ = 0.0f;
 1387              		.loc 2 74 18 view .LVU395
 1388 006c C0ED306A 		vstr.32	s13, [r0, #192]
 1389              	.LBB537:
 1390              	.LBB532:
 1391              		.loc 4 189 31 view .LVU396
ARM GAS  C:\Users\samue\AppData\Local\Temp\ccg9npc6.s 			page 41


 1392 0070 E0EE067A 		vfma.f32	s15, s0, s12
 1393              	.LVL55:
 1394              	.LBB528:
 1395              	.LBI521:
  64:../../../../DaisyExamples/DaisySP//Source/Utility/dsp.h **** {
 1396              		.loc 4 64 14 is_stmt 1 view .LVU397
 1397              	.LBE528:
 1398              	.LBE532:
 1399              	.LBE537:
  66:../../../../DaisyExamples/DaisySP//Source/Utility/dsp.h **** }
 1400              		.loc 4 66 5 view .LVU398
 1401              	.LBB538:
 1402              	.LBB533:
 1403              	.LBB529:
 1404              	.LBB525:
 1405              	.LBI525:
  40:../../../../DaisyExamples/DaisySP//Source/Utility/dsp.h **** {
 1406              		.loc 4 40 14 view .LVU399
 1407              	.LBB526:
  42:../../../../DaisyExamples/DaisySP//Source/Utility/dsp.h **** #ifdef __arm__
 1408              		.loc 4 42 5 view .LVU400
  44:../../../../DaisyExamples/DaisySP//Source/Utility/dsp.h **** #else
 1409              		.loc 4 44 5 view .LVU401
 1410              		.syntax unified
 1411              	@ 44 "../../../../DaisyExamples/DaisySP//Source/Utility/dsp.h" 1
 1412 0074 C7FEA67A 		vmaxnm.f32 s15, s15, s13
 1413              	@ 0 "" 2
 1414              	.LVL56:
  48:../../../../DaisyExamples/DaisySP//Source/Utility/dsp.h **** }
 1415              		.loc 4 48 5 view .LVU402
  48:../../../../DaisyExamples/DaisySP//Source/Utility/dsp.h **** }
 1416              		.loc 4 48 5 is_stmt 0 view .LVU403
 1417              		.thumb
 1418              		.syntax unified
 1419              	.LBE526:
 1420              	.LBE525:
 1421              	.LBB527:
 1422              	.LBI522:
  51:../../../../DaisyExamples/DaisySP//Source/Utility/dsp.h **** {
 1423              		.loc 4 51 14 is_stmt 1 view .LVU404
 1424              	.LBB524:
  53:../../../../DaisyExamples/DaisySP//Source/Utility/dsp.h **** #ifdef __arm__
 1425              		.loc 4 53 5 view .LVU405
  55:../../../../DaisyExamples/DaisySP//Source/Utility/dsp.h **** #else
 1426              		.loc 4 55 5 view .LVU406
 1427              		.syntax unified
 1428              	@ 55 "../../../../DaisyExamples/DaisySP//Source/Utility/dsp.h" 1
 1429 0078 C7FEC77A 		vminnm.f32 s15, s15, s14
 1430              	@ 0 "" 2
 1431              	.LVL57:
  59:../../../../DaisyExamples/DaisySP//Source/Utility/dsp.h **** }
 1432              		.loc 4 59 5 view .LVU407
  59:../../../../DaisyExamples/DaisySP//Source/Utility/dsp.h **** }
 1433              		.loc 4 59 5 is_stmt 0 view .LVU408
 1434              		.thumb
 1435              		.syntax unified
 1436              	.LBE524:
ARM GAS  C:\Users\samue\AppData\Local\Temp\ccg9npc6.s 			page 42


 1437              	.LBE527:
 1438              	.LBE529:
 1439              	.LBE533:
 1440              	.LBE538:
  72:voice.cpp     ****         square_amp_ = fmap((shape-0.333f) * 3.0f, 0.0f, 1.0f, daisysp::Mapping::LINEAR);
 1441              		.loc 2 72 87 view .LVU409
 1442 007c 37EEC77A 		vsub.f32	s14, s15, s14
  73:voice.cpp     ****         saw_amp_ = 0.0f;
 1443              		.loc 2 73 21 view .LVU410
 1444 0080 C0ED2F7A 		vstr.32	s15, [r0, #188]
  72:voice.cpp     ****         square_amp_ = fmap((shape-0.333f) * 3.0f, 0.0f, 1.0f, daisysp::Mapping::LINEAR);
 1445              		.loc 2 72 95 view .LVU411
 1446 0084 B1EE477A 		vneg.f32	s14, s14
  72:voice.cpp     ****         square_amp_ = fmap((shape-0.333f) * 3.0f, 0.0f, 1.0f, daisysp::Mapping::LINEAR);
 1447              		.loc 2 72 18 view .LVU412
 1448 0088 80ED2D7A 		vstr.32	s14, [r0, #180]
  73:voice.cpp     ****         saw_amp_ = 0.0f;
 1449              		.loc 2 73 9 is_stmt 1 view .LVU413
 1450              	.LVL58:
 1451              	.LBB539:
 1452              	.LBI539:
 177:../../../../DaisyExamples/DaisySP//Source/Utility/dsp.h **** {
 1453              		.loc 4 177 1 view .LVU414
 1454              	.LBE539:
 179:../../../../DaisyExamples/DaisySP//Source/Utility/dsp.h ****     {
 1455              		.loc 4 179 5 view .LVU415
 188:../../../../DaisyExamples/DaisySP//Source/Utility/dsp.h ****         default: return fclamp(min + in * (max - min), min, max);
 1456              		.loc 4 188 9 view .LVU416
 1457              		.loc 4 189 9 view .LVU417
 1458              		.loc 4 189 18 view .LVU418
 1459              	.LBB546:
 1460              	.LBB540:
 1461              	.LBI540:
  64:../../../../DaisyExamples/DaisySP//Source/Utility/dsp.h **** {
 1462              		.loc 4 64 14 view .LVU419
 1463              	.LBE540:
 1464              	.LBE546:
  66:../../../../DaisyExamples/DaisySP//Source/Utility/dsp.h **** }
 1465              		.loc 4 66 5 view .LVU420
 1466              	.LBB547:
 1467              	.LBB545:
 1468              	.LBB541:
 1469              	.LBI541:
  40:../../../../DaisyExamples/DaisySP//Source/Utility/dsp.h **** {
 1470              		.loc 4 40 14 view .LVU421
 1471              	.LBB542:
  42:../../../../DaisyExamples/DaisySP//Source/Utility/dsp.h **** #ifdef __arm__
 1472              		.loc 4 42 5 view .LVU422
  44:../../../../DaisyExamples/DaisySP//Source/Utility/dsp.h **** #else
 1473              		.loc 4 44 5 view .LVU423
  48:../../../../DaisyExamples/DaisySP//Source/Utility/dsp.h **** }
 1474              		.loc 4 48 5 view .LVU424
  48:../../../../DaisyExamples/DaisySP//Source/Utility/dsp.h **** }
 1475              		.loc 4 48 5 is_stmt 0 view .LVU425
 1476              	.LBE542:
 1477              	.LBE541:
 1478              	.LBB543:
ARM GAS  C:\Users\samue\AppData\Local\Temp\ccg9npc6.s 			page 43


 1479              	.LBI543:
  51:../../../../DaisyExamples/DaisySP//Source/Utility/dsp.h **** {
 1480              		.loc 4 51 14 is_stmt 1 view .LVU426
 1481              	.LBB544:
  53:../../../../DaisyExamples/DaisySP//Source/Utility/dsp.h **** #ifdef __arm__
 1482              		.loc 4 53 5 view .LVU427
  55:../../../../DaisyExamples/DaisySP//Source/Utility/dsp.h **** #else
 1483              		.loc 4 55 5 view .LVU428
  59:../../../../DaisyExamples/DaisySP//Source/Utility/dsp.h **** }
 1484              		.loc 4 59 5 view .LVU429
  59:../../../../DaisyExamples/DaisySP//Source/Utility/dsp.h **** }
 1485              		.loc 4 59 5 is_stmt 0 view .LVU430
 1486              	.LBE544:
 1487              	.LBE543:
 1488              	.LBE545:
 1489              	.LBE547:
 1490              		.loc 2 74 9 is_stmt 1 view .LVU431
 1491              		.loc 2 74 18 is_stmt 0 view .LVU432
 1492 008c 7047     		bx	lr
 1493              	.LVL59:
 1494              	.L29:
  75:voice.cpp     ****     }
  76:voice.cpp     ****     else if (shape > 0.666f)
 1495              		.loc 2 76 10 is_stmt 1 view .LVU433
 1496 008e 9FED1A7A 		vldr.32	s14, .L40+8
 1497 0092 B4EEC70A 		vcmpe.f32	s0, s14
 1498 0096 F1EE10FA 		vmrs	APSR_nzcv, FPSCR
 1499 009a 1CDD     		ble	.L39
  77:voice.cpp     ****     {
  78:voice.cpp     ****         sin_amp_ = 0.0f;
 1500              		.loc 2 78 9 view .LVU434
 1501              		.loc 2 78 18 is_stmt 0 view .LVU435
 1502 009c DFED156A 		vldr.32	s13, .L40+4
 1503              	.LBB548:
 1504              	.LBB549:
 1505              	.LBB550:
 1506              	.LBB551:
 1507              	.LBB552:
  55:../../../../DaisyExamples/DaisySP//Source/Utility/dsp.h **** #else
 1508              		.loc 4 55 5 view .LVU436
 1509 00a0 F7EE007A 		vmov.f32	s15, #1.0e+0
 1510              	.LBE552:
 1511              	.LBE551:
 1512              	.LBE550:
 1513              	.LBE549:
 1514              	.LBE548:
  79:voice.cpp     ****         tri_amp_ = 0.0f;
  80:voice.cpp     ****         square_amp_ = (fmap((shape-0.666f) * 3.0f, 0.0f, 1.0f, daisysp::Mapping::LINEAR) - 1.0f) * 
 1515              		.loc 2 80 35 view .LVU437
 1516 00a4 30EE470A 		vsub.f32	s0, s0, s14
 1517              	.LVL60:
 1518              	.LBB563:
 1519              	.LBB559:
 1520              		.loc 4 189 31 view .LVU438
 1521 00a8 B0EE086A 		vmov.f32	s12, #3.0e+0
 1522              	.LBE559:
 1523              	.LBE563:
ARM GAS  C:\Users\samue\AppData\Local\Temp\ccg9npc6.s 			page 44


  78:voice.cpp     ****         tri_amp_ = 0.0f;
 1524              		.loc 2 78 18 view .LVU439
 1525 00ac C0ED2E6A 		vstr.32	s13, [r0, #184]
  79:voice.cpp     ****         tri_amp_ = 0.0f;
 1526              		.loc 2 79 9 is_stmt 1 view .LVU440
 1527              	.LBB564:
 1528              	.LBB560:
 1529              		.loc 4 189 31 is_stmt 0 view .LVU441
 1530 00b0 B0EE667A 		vmov.f32	s14, s13
 1531              	.LBE560:
 1532              	.LBE564:
  79:voice.cpp     ****         tri_amp_ = 0.0f;
 1533              		.loc 2 79 18 view .LVU442
 1534 00b4 C0ED2D6A 		vstr.32	s13, [r0, #180]
 1535              		.loc 2 80 9 is_stmt 1 view .LVU443
 1536              	.LVL61:
 1537              	.LBB565:
 1538              	.LBI548:
 177:../../../../DaisyExamples/DaisySP//Source/Utility/dsp.h **** {
 1539              		.loc 4 177 1 view .LVU444
 1540              	.LBE565:
 179:../../../../DaisyExamples/DaisySP//Source/Utility/dsp.h ****     {
 1541              		.loc 4 179 5 view .LVU445
 1542              	.LBB566:
 1543              	.LBB561:
 188:../../../../DaisyExamples/DaisySP//Source/Utility/dsp.h ****         default: return fclamp(min + in * (max - min), min, max);
 1544              		.loc 4 188 9 view .LVU446
 1545              		.loc 4 189 9 view .LVU447
 1546              		.loc 4 189 18 view .LVU448
 1547              		.loc 4 189 31 is_stmt 0 view .LVU449
 1548 00b8 A0EE067A 		vfma.f32	s14, s0, s12
 1549              	.LVL62:
 1550              	.LBB557:
 1551              	.LBI550:
  64:../../../../DaisyExamples/DaisySP//Source/Utility/dsp.h **** {
 1552              		.loc 4 64 14 is_stmt 1 view .LVU450
 1553              	.LBE557:
 1554              	.LBE561:
 1555              	.LBE566:
  66:../../../../DaisyExamples/DaisySP//Source/Utility/dsp.h **** }
 1556              		.loc 4 66 5 view .LVU451
 1557              	.LBB567:
 1558              	.LBB562:
 1559              	.LBB558:
 1560              	.LBB554:
 1561              	.LBI554:
  40:../../../../DaisyExamples/DaisySP//Source/Utility/dsp.h **** {
 1562              		.loc 4 40 14 view .LVU452
 1563              	.LBB555:
  42:../../../../DaisyExamples/DaisySP//Source/Utility/dsp.h **** #ifdef __arm__
 1564              		.loc 4 42 5 view .LVU453
  44:../../../../DaisyExamples/DaisySP//Source/Utility/dsp.h **** #else
 1565              		.loc 4 44 5 view .LVU454
 1566              		.syntax unified
 1567              	@ 44 "../../../../DaisyExamples/DaisySP//Source/Utility/dsp.h" 1
 1568 00bc 87FE267A 		vmaxnm.f32 s14, s14, s13
 1569              	@ 0 "" 2
ARM GAS  C:\Users\samue\AppData\Local\Temp\ccg9npc6.s 			page 45


 1570              	.LVL63:
  48:../../../../DaisyExamples/DaisySP//Source/Utility/dsp.h **** }
 1571              		.loc 4 48 5 view .LVU455
  48:../../../../DaisyExamples/DaisySP//Source/Utility/dsp.h **** }
 1572              		.loc 4 48 5 is_stmt 0 view .LVU456
 1573              		.thumb
 1574              		.syntax unified
 1575              	.LBE555:
 1576              	.LBE554:
 1577              	.LBB556:
 1578              	.LBI551:
  51:../../../../DaisyExamples/DaisySP//Source/Utility/dsp.h **** {
 1579              		.loc 4 51 14 is_stmt 1 view .LVU457
 1580              	.LBB553:
  53:../../../../DaisyExamples/DaisySP//Source/Utility/dsp.h **** #ifdef __arm__
 1581              		.loc 4 53 5 view .LVU458
  55:../../../../DaisyExamples/DaisySP//Source/Utility/dsp.h **** #else
 1582              		.loc 4 55 5 view .LVU459
 1583              		.syntax unified
 1584              	@ 55 "../../../../DaisyExamples/DaisySP//Source/Utility/dsp.h" 1
 1585 00c0 87FE677A 		vminnm.f32 s14, s14, s15
 1586              	@ 0 "" 2
 1587              	.LVL64:
  59:../../../../DaisyExamples/DaisySP//Source/Utility/dsp.h **** }
 1588              		.loc 4 59 5 view .LVU460
  59:../../../../DaisyExamples/DaisySP//Source/Utility/dsp.h **** }
 1589              		.loc 4 59 5 is_stmt 0 view .LVU461
 1590              		.thumb
 1591              		.syntax unified
 1592              	.LBE553:
 1593              	.LBE556:
 1594              	.LBE558:
 1595              	.LBE562:
 1596              	.LBE567:
 1597              		.loc 2 80 90 view .LVU462
 1598 00c4 77EE677A 		vsub.f32	s15, s14, s15
  81:voice.cpp     ****         saw_amp_ = fmap((shape-0.666f) * 3.0f, 0.0f, 1.0f, daisysp::Mapping::LINEAR);
 1599              		.loc 2 81 18 view .LVU463
 1600 00c8 80ED307A 		vstr.32	s14, [r0, #192]
  80:voice.cpp     ****         saw_amp_ = fmap((shape-0.666f) * 3.0f, 0.0f, 1.0f, daisysp::Mapping::LINEAR);
 1601              		.loc 2 80 98 view .LVU464
 1602 00cc F1EE677A 		vneg.f32	s15, s15
  80:voice.cpp     ****         saw_amp_ = fmap((shape-0.666f) * 3.0f, 0.0f, 1.0f, daisysp::Mapping::LINEAR);
 1603              		.loc 2 80 21 view .LVU465
 1604 00d0 C0ED2F7A 		vstr.32	s15, [r0, #188]
 1605              		.loc 2 81 9 is_stmt 1 view .LVU466
 1606              	.LVL65:
 1607              	.LBB568:
 1608              	.LBI568:
 177:../../../../DaisyExamples/DaisySP//Source/Utility/dsp.h **** {
 1609              		.loc 4 177 1 view .LVU467
 1610              	.LBE568:
 179:../../../../DaisyExamples/DaisySP//Source/Utility/dsp.h ****     {
 1611              		.loc 4 179 5 view .LVU468
 188:../../../../DaisyExamples/DaisySP//Source/Utility/dsp.h ****         default: return fclamp(min + in * (max - min), min, max);
 1612              		.loc 4 188 9 view .LVU469
 1613              		.loc 4 189 9 view .LVU470
ARM GAS  C:\Users\samue\AppData\Local\Temp\ccg9npc6.s 			page 46


 1614              		.loc 4 189 18 view .LVU471
 1615              	.LBB575:
 1616              	.LBB569:
 1617              	.LBI569:
  64:../../../../DaisyExamples/DaisySP//Source/Utility/dsp.h **** {
 1618              		.loc 4 64 14 view .LVU472
 1619              	.LBE569:
 1620              	.LBE575:
  66:../../../../DaisyExamples/DaisySP//Source/Utility/dsp.h **** }
 1621              		.loc 4 66 5 view .LVU473
 1622              	.LBB576:
 1623              	.LBB574:
 1624              	.LBB570:
 1625              	.LBI570:
  40:../../../../DaisyExamples/DaisySP//Source/Utility/dsp.h **** {
 1626              		.loc 4 40 14 view .LVU474
 1627              	.LBB571:
  42:../../../../DaisyExamples/DaisySP//Source/Utility/dsp.h **** #ifdef __arm__
 1628              		.loc 4 42 5 view .LVU475
  44:../../../../DaisyExamples/DaisySP//Source/Utility/dsp.h **** #else
 1629              		.loc 4 44 5 view .LVU476
  48:../../../../DaisyExamples/DaisySP//Source/Utility/dsp.h **** }
 1630              		.loc 4 48 5 view .LVU477
  48:../../../../DaisyExamples/DaisySP//Source/Utility/dsp.h **** }
 1631              		.loc 4 48 5 is_stmt 0 view .LVU478
 1632              	.LBE571:
 1633              	.LBE570:
 1634              	.LBB572:
 1635              	.LBI572:
  51:../../../../DaisyExamples/DaisySP//Source/Utility/dsp.h **** {
 1636              		.loc 4 51 14 is_stmt 1 view .LVU479
 1637              	.LBB573:
  53:../../../../DaisyExamples/DaisySP//Source/Utility/dsp.h **** #ifdef __arm__
 1638              		.loc 4 53 5 view .LVU480
  55:../../../../DaisyExamples/DaisySP//Source/Utility/dsp.h **** #else
 1639              		.loc 4 55 5 view .LVU481
  59:../../../../DaisyExamples/DaisySP//Source/Utility/dsp.h **** }
 1640              		.loc 4 59 5 view .LVU482
  59:../../../../DaisyExamples/DaisySP//Source/Utility/dsp.h **** }
 1641              		.loc 4 59 5 is_stmt 0 view .LVU483
 1642              	.LBE573:
 1643              	.LBE572:
 1644              	.LBE574:
 1645              	.LBE576:
 1646 00d4 7047     		bx	lr
 1647              	.LVL66:
 1648              	.L39:
  82:voice.cpp     ****     }
  83:voice.cpp     ****     else
  84:voice.cpp     ****     {
  85:voice.cpp     ****         sin_amp_ = 0.0f;
 1649              		.loc 2 85 9 is_stmt 1 view .LVU484
 1650              		.loc 2 85 18 is_stmt 0 view .LVU485
 1651 00d6 0023     		movs	r3, #0
  86:voice.cpp     ****         tri_amp_ = 0.0f;
  87:voice.cpp     ****         square_amp_ = 0.0f;
  88:voice.cpp     ****         saw_amp_ = 1.0f;
ARM GAS  C:\Users\samue\AppData\Local\Temp\ccg9npc6.s 			page 47


 1652              		.loc 2 88 18 view .LVU486
 1653 00d8 4FF07E52 		mov	r2, #1065353216
  85:voice.cpp     ****         tri_amp_ = 0.0f;
 1654              		.loc 2 85 18 view .LVU487
 1655 00dc C0F8B830 		str	r3, [r0, #184]	@ float
  86:voice.cpp     ****         tri_amp_ = 0.0f;
 1656              		.loc 2 86 9 is_stmt 1 view .LVU488
  86:voice.cpp     ****         tri_amp_ = 0.0f;
 1657              		.loc 2 86 18 is_stmt 0 view .LVU489
 1658 00e0 C0F8B430 		str	r3, [r0, #180]	@ float
  87:voice.cpp     ****         saw_amp_ = 1.0f;
 1659              		.loc 2 87 9 is_stmt 1 view .LVU490
  87:voice.cpp     ****         saw_amp_ = 1.0f;
 1660              		.loc 2 87 21 is_stmt 0 view .LVU491
 1661 00e4 C0F8BC30 		str	r3, [r0, #188]	@ float
 1662              		.loc 2 88 9 is_stmt 1 view .LVU492
 1663              		.loc 2 88 18 is_stmt 0 view .LVU493
 1664 00e8 C0F8C020 		str	r2, [r0, #192]	@ float
  89:voice.cpp     ****     }
  90:voice.cpp     ****     
  91:voice.cpp     **** }
 1665              		.loc 2 91 1 view .LVU494
 1666 00ec 7047     		bx	lr
 1667              	.L41:
 1668 00ee 00BF     		.align	2
 1669              	.L40:
 1670 00f0 FA7EAA3E 		.word	1051361018
 1671 00f4 00000000 		.word	0
 1672 00f8 FA7E2A3F 		.word	1059749626
 1673              		.cfi_endproc
 1674              	.LFE3522:
 1676              		.section	.text._ZN5voice9set_morphEf,"ax",%progbits
 1677              		.align	1
 1678              		.p2align 2,,3
 1679              		.global	_ZN5voice9set_morphEf
 1680              		.syntax unified
 1681              		.thumb
 1682              		.thumb_func
 1683              		.fpu fpv5-d16
 1685              	_ZN5voice9set_morphEf:
 1686              	.LVL67:
 1687              	.LFB3523:
  92:voice.cpp     **** 
  93:voice.cpp     **** void voice::set_morph(float morph)
  94:voice.cpp     **** {
 1688              		.loc 2 94 1 is_stmt 1 view -0
 1689              		.cfi_startproc
 1690              		@ args = 0, pretend = 0, frame = 0
 1691              		@ frame_needed = 0, uses_anonymous_args = 0
 1692              		@ link register save eliminated.
  95:voice.cpp     ****     morph_ = morph;
 1693              		.loc 2 95 5 view .LVU496
 1694              	.LBB577:
 1695              	.LBB578:
 1696              		.loc 4 189 31 is_stmt 0 view .LVU497
 1697 0000 9FED097A 		vldr.32	s14, .L43
 1698              	.LBB579:
ARM GAS  C:\Users\samue\AppData\Local\Temp\ccg9npc6.s 			page 48


 1699              	.LBB580:
 1700              	.LBB581:
  55:../../../../DaisyExamples/DaisySP//Source/Utility/dsp.h **** #else
 1701              		.loc 4 55 5 view .LVU498
 1702 0004 F1EE0C6A 		vmov.f32	s13, #7.0e+0
 1703              	.LBE581:
 1704              	.LBE580:
 1705              	.LBE579:
 1706              		.loc 4 189 31 view .LVU499
 1707 0008 9FED086A 		vldr.32	s12, .L43+4
 1708 000c F0EE477A 		vmov.f32	s15, s14
 1709              	.LBE578:
 1710              	.LBE577:
 1711              		.loc 2 95 12 view .LVU500
 1712 0010 80ED310A 		vstr.32	s0, [r0, #196]
 1713              	.LBB591:
 1714              	.LBB588:
 1715              		.loc 4 189 31 view .LVU501
 1716 0014 E0EE067A 		vfma.f32	s15, s0, s12
 1717              	.LBE588:
 1718              	.LBE591:
  96:voice.cpp     ****     fold_gain_ = fmap(morph_, 0.4f, 7.0f);
 1719              		.loc 2 96 5 is_stmt 1 view .LVU502
 1720              	.LVL68:
 1721              	.LBB592:
 1722              	.LBI577:
 177:../../../../DaisyExamples/DaisySP//Source/Utility/dsp.h **** {
 1723              		.loc 4 177 1 view .LVU503
 1724              	.LBE592:
 179:../../../../DaisyExamples/DaisySP//Source/Utility/dsp.h ****     {
 1725              		.loc 4 179 5 view .LVU504
 1726              	.LBB593:
 1727              	.LBB589:
 188:../../../../DaisyExamples/DaisySP//Source/Utility/dsp.h ****         default: return fclamp(min + in * (max - min), min, max);
 1728              		.loc 4 188 9 view .LVU505
 1729              		.loc 4 189 9 view .LVU506
 1730              		.loc 4 189 18 view .LVU507
 1731              	.LBB586:
 1732              	.LBI579:
  64:../../../../DaisyExamples/DaisySP//Source/Utility/dsp.h **** {
 1733              		.loc 4 64 14 view .LVU508
 1734              	.LBE586:
 1735              	.LBE589:
 1736              	.LBE593:
  66:../../../../DaisyExamples/DaisySP//Source/Utility/dsp.h **** }
 1737              		.loc 4 66 5 view .LVU509
 1738              	.LBB594:
 1739              	.LBB590:
 1740              	.LBB587:
 1741              	.LBB583:
 1742              	.LBI583:
  40:../../../../DaisyExamples/DaisySP//Source/Utility/dsp.h **** {
 1743              		.loc 4 40 14 view .LVU510
 1744              	.LBB584:
  42:../../../../DaisyExamples/DaisySP//Source/Utility/dsp.h **** #ifdef __arm__
 1745              		.loc 4 42 5 view .LVU511
  44:../../../../DaisyExamples/DaisySP//Source/Utility/dsp.h **** #else
ARM GAS  C:\Users\samue\AppData\Local\Temp\ccg9npc6.s 			page 49


 1746              		.loc 4 44 5 view .LVU512
 1747              		.syntax unified
 1748              	@ 44 "../../../../DaisyExamples/DaisySP//Source/Utility/dsp.h" 1
 1749 0018 C7FE877A 		vmaxnm.f32 s15, s15, s14
 1750              	@ 0 "" 2
 1751              	.LVL69:
  48:../../../../DaisyExamples/DaisySP//Source/Utility/dsp.h **** }
 1752              		.loc 4 48 5 view .LVU513
  48:../../../../DaisyExamples/DaisySP//Source/Utility/dsp.h **** }
 1753              		.loc 4 48 5 is_stmt 0 view .LVU514
 1754              		.thumb
 1755              		.syntax unified
 1756              	.LBE584:
 1757              	.LBE583:
 1758              	.LBB585:
 1759              	.LBI580:
  51:../../../../DaisyExamples/DaisySP//Source/Utility/dsp.h **** {
 1760              		.loc 4 51 14 is_stmt 1 view .LVU515
 1761              	.LBB582:
  53:../../../../DaisyExamples/DaisySP//Source/Utility/dsp.h **** #ifdef __arm__
 1762              		.loc 4 53 5 view .LVU516
  55:../../../../DaisyExamples/DaisySP//Source/Utility/dsp.h **** #else
 1763              		.loc 4 55 5 view .LVU517
 1764              		.syntax unified
 1765              	@ 55 "../../../../DaisyExamples/DaisySP//Source/Utility/dsp.h" 1
 1766 001c C7FEE67A 		vminnm.f32 s15, s15, s13
 1767              	@ 0 "" 2
 1768              	.LVL70:
  59:../../../../DaisyExamples/DaisySP//Source/Utility/dsp.h **** }
 1769              		.loc 4 59 5 view .LVU518
  59:../../../../DaisyExamples/DaisySP//Source/Utility/dsp.h **** }
 1770              		.loc 4 59 5 is_stmt 0 view .LVU519
 1771              		.thumb
 1772              		.syntax unified
 1773              	.LBE582:
 1774              	.LBE585:
 1775              	.LBE587:
 1776              	.LBE590:
 1777              	.LBE594:
 1778              		.loc 2 96 16 view .LVU520
 1779 0020 C0ED327A 		vstr.32	s15, [r0, #200]
  97:voice.cpp     **** }
 1780              		.loc 2 97 1 view .LVU521
 1781 0024 7047     		bx	lr
 1782              	.L44:
 1783 0026 00BF     		.align	2
 1784              	.L43:
 1785 0028 CDCCCC3E 		.word	1053609165
 1786 002c 3333D340 		.word	1087583027
 1787              		.cfi_endproc
 1788              	.LFE3523:
 1790              		.section	.text._ZN5voice7ProcessEv,"ax",%progbits
 1791              		.align	1
 1792              		.p2align 2,,3
 1793              		.global	_ZN5voice7ProcessEv
 1794              		.syntax unified
 1795              		.thumb
ARM GAS  C:\Users\samue\AppData\Local\Temp\ccg9npc6.s 			page 50


 1796              		.thumb_func
 1797              		.fpu fpv5-d16
 1799              	_ZN5voice7ProcessEv:
 1800              	.LVL71:
 1801              	.LFB3524:
  98:voice.cpp     **** 
  99:voice.cpp     **** float voice::Process()
 100:voice.cpp     **** {
 1802              		.loc 2 100 1 is_stmt 1 view -0
 1803              		.cfi_startproc
 1804              		@ args = 0, pretend = 0, frame = 0
 1805              		@ frame_needed = 0, uses_anonymous_args = 0
 101:voice.cpp     ****     float sample[2];
 1806              		.loc 2 101 5 view .LVU523
 102:voice.cpp     ****     sample[0] = 0.0f;
 1807              		.loc 2 102 5 view .LVU524
 103:voice.cpp     ****     osc_square_.SetPw(morph_/2.0f + 0.5f);
 1808              		.loc 2 103 5 view .LVU525
 1809              		.loc 2 103 22 is_stmt 0 view .LVU526
 1810 0000 F6EE007A 		vmov.f32	s15, #5.0e-1
 1811 0004 D0ED316A 		vldr.32	s13, [r0, #196]
 104:voice.cpp     **** 
 105:voice.cpp     ****     osc_sin_.SetFreq(osc_freq_);
 1812              		.loc 2 105 21 view .LVU527
 1813 0008 90ED2C0A 		vldr.32	s0, [r0, #176]
 1814              	.LBB595:
 1815              	.LBB596:
 1816              	.LBB597:
 1817              	.LBB598:
 1818              	.LBB599:
  55:../../../../DaisyExamples/DaisySP//Source/Utility/dsp.h **** #else
 1819              		.loc 4 55 5 view .LVU528
 1820 000c B7EE007A 		vmov.f32	s14, #1.0e+0
 1821              	.LBE599:
 1822              	.LBE598:
 1823              	.LBE597:
 1824              	.LBE596:
 1825              	.LBE595:
 100:voice.cpp     ****     float sample[2];
 1826              		.loc 2 100 1 view .LVU529
 1827 0010 F8B5     		push	{r3, r4, r5, r6, r7, lr}
 1828              		.cfi_def_cfa_offset 24
 1829              		.cfi_offset 3, -24
 1830              		.cfi_offset 4, -20
 1831              		.cfi_offset 5, -16
 1832              		.cfi_offset 6, -12
 1833              		.cfi_offset 7, -8
 1834              		.cfi_offset 14, -4
 1835 0012 0446     		mov	r4, r0
 1836              		.loc 2 105 21 view .LVU530
 1837 0014 00F15807 		add	r7, r0, #88
 103:voice.cpp     **** 
 1838              		.loc 2 103 22 view .LVU531
 1839 0018 E6EEA77A 		vfma.f32	s15, s13, s15
 1840              	.LVL72:
 1841              	.LBB616:
 1842              	.LBI595:
ARM GAS  C:\Users\samue\AppData\Local\Temp\ccg9npc6.s 			page 51


  82:../../../../DaisyExamples/DaisySP//Source/Synthesis/oscillator.h ****     }
  83:../../../../DaisyExamples/DaisySP//Source/Synthesis/oscillator.h ****     /** Sets the pulse width for WAVE_SQUARE and WAVE_POLYBLEP_SQUARE (range 0 - 1)
  84:../../../../DaisyExamples/DaisySP//Source/Synthesis/oscillator.h ****      */
  85:../../../../DaisyExamples/DaisySP//Source/Synthesis/oscillator.h ****     inline void SetPw(const float pw) { pw_ = fclamp(pw, 0.0f, 1.0f); }
 1843              		.loc 3 85 17 is_stmt 1 view .LVU532
 1844              	.LBB612:
 1845              		.loc 3 85 41 view .LVU533
 1846              	.LBB608:
 1847              	.LBI597:
  64:../../../../DaisyExamples/DaisySP//Source/Utility/dsp.h **** {
 1848              		.loc 4 64 14 view .LVU534
 1849              	.LBE608:
 1850              	.LBE612:
 1851              	.LBE616:
  66:../../../../DaisyExamples/DaisySP//Source/Utility/dsp.h **** }
 1852              		.loc 4 66 5 view .LVU535
 1853              	.LBB617:
 1854              	.LBB613:
 1855              	.LBB609:
 1856              	.LBB601:
 1857              	.LBI601:
  40:../../../../DaisyExamples/DaisySP//Source/Utility/dsp.h **** {
 1858              		.loc 4 40 14 view .LVU536
 1859              	.LBB602:
  42:../../../../DaisyExamples/DaisySP//Source/Utility/dsp.h **** #ifdef __arm__
 1860              		.loc 4 42 5 view .LVU537
  44:../../../../DaisyExamples/DaisySP//Source/Utility/dsp.h **** #else
 1861              		.loc 4 44 5 view .LVU538
 1862              	.LBE602:
 1863              	.LBE601:
 1864              	.LBE609:
 1865              	.LBE613:
 1866              	.LBE617:
 106:voice.cpp     ****     osc_saw_.SetFreq(osc_freq_);
 1867              		.loc 2 106 21 is_stmt 0 view .LVU539
 1868 001c 00F12C06 		add	r6, r0, #44
 1869              	.LBB618:
 1870              	.LBB619:
  70:../../../../DaisyExamples/DaisySP//Source/Synthesis/oscillator.h ****     }
 1871              		.loc 3 70 34 view .LVU540
 1872 0020 3846     		mov	r0, r7
 1873              	.LVL73:
  70:../../../../DaisyExamples/DaisySP//Source/Synthesis/oscillator.h ****     }
 1874              		.loc 3 70 34 view .LVU541
 1875              	.LBE619:
 1876              	.LBE618:
 107:voice.cpp     ****     osc_tri_.SetFreq(osc_freq_);
 108:voice.cpp     ****     osc_square_.SetFreq(osc_freq_);
 1877              		.loc 2 108 24 view .LVU542
 1878 0022 04F18405 		add	r5, r4, #132
 1879              	.LVL74:
 100:voice.cpp     ****     float sample[2];
 1880              		.loc 2 100 1 view .LVU543
 1881 0026 2DED048B 		vpush.64	{d8, d9}
 1882              		.cfi_def_cfa_offset 40
 1883              		.cfi_offset 80, -40
 1884              		.cfi_offset 81, -36
ARM GAS  C:\Users\samue\AppData\Local\Temp\ccg9npc6.s 			page 52


 1885              		.cfi_offset 82, -32
 1886              		.cfi_offset 83, -28
 1887              	.LBB623:
 1888              	.LBB614:
 1889              	.LBB610:
 1890              	.LBB605:
 1891              	.LBB603:
  44:../../../../DaisyExamples/DaisySP//Source/Utility/dsp.h **** #else
 1892              		.loc 4 44 5 view .LVU544
 1893 002a DFED2A9A 		vldr.32	s19, .L47
 1894              	.LBE603:
 1895              	.LBE605:
 1896              	.LBE610:
 1897              	.LBE614:
 1898              	.LBE623:
 1899              	.LBB624:
 1900              	.LBB620:
  69:../../../../DaisyExamples/DaisySP//Source/Synthesis/oscillator.h ****         phase_inc_ = CalcPhaseInc(f);
 1901              		.loc 3 69 20 view .LVU545
 1902 002e 84ED180A 		vstr.32	s0, [r4, #96]
 1903              	.LBE620:
 1904              	.LBE624:
 1905              	.LBB625:
 1906              	.LBB615:
 1907              	.LBB611:
 1908              	.LBB606:
 1909              	.LBB604:
  44:../../../../DaisyExamples/DaisySP//Source/Utility/dsp.h **** #else
 1910              		.loc 4 44 5 view .LVU546
 1911              		.syntax unified
 1912              	@ 44 "../../../../DaisyExamples/DaisySP//Source/Utility/dsp.h" 1
 1913 0032 C7FEA97A 		vmaxnm.f32 s15, s15, s19
 1914              	@ 0 "" 2
 1915              	.LVL75:
  48:../../../../DaisyExamples/DaisySP//Source/Utility/dsp.h **** }
 1916              		.loc 4 48 5 is_stmt 1 view .LVU547
  48:../../../../DaisyExamples/DaisySP//Source/Utility/dsp.h **** }
 1917              		.loc 4 48 5 is_stmt 0 view .LVU548
 1918              		.thumb
 1919              		.syntax unified
 1920              	.LBE604:
 1921              	.LBE606:
 1922              	.LBB607:
 1923              	.LBI598:
  51:../../../../DaisyExamples/DaisySP//Source/Utility/dsp.h **** {
 1924              		.loc 4 51 14 is_stmt 1 view .LVU549
 1925              	.LBB600:
  53:../../../../DaisyExamples/DaisySP//Source/Utility/dsp.h **** #ifdef __arm__
 1926              		.loc 4 53 5 view .LVU550
  55:../../../../DaisyExamples/DaisySP//Source/Utility/dsp.h **** #else
 1927              		.loc 4 55 5 view .LVU551
 1928              		.syntax unified
 1929              	@ 55 "../../../../DaisyExamples/DaisySP//Source/Utility/dsp.h" 1
 1930 0036 C7FEC77A 		vminnm.f32 s15, s15, s14
 1931              	@ 0 "" 2
 1932              	.LVL76:
  59:../../../../DaisyExamples/DaisySP//Source/Utility/dsp.h **** }
ARM GAS  C:\Users\samue\AppData\Local\Temp\ccg9npc6.s 			page 53


 1933              		.loc 4 59 5 view .LVU552
  59:../../../../DaisyExamples/DaisySP//Source/Utility/dsp.h **** }
 1934              		.loc 4 59 5 is_stmt 0 view .LVU553
 1935              		.thumb
 1936              		.syntax unified
 1937              	.LBE600:
 1938              	.LBE607:
 1939              	.LBE611:
 1940              		.loc 3 85 45 view .LVU554
 1941 003a C4ED247A 		vstr.32	s15, [r4, #144]
 1942              	.LVL77:
 1943              		.loc 3 85 45 view .LVU555
 1944              	.LBE615:
 1945              	.LBE625:
 105:voice.cpp     ****     osc_saw_.SetFreq(osc_freq_);
 1946              		.loc 2 105 5 is_stmt 1 view .LVU556
 1947              	.LBB626:
 1948              	.LBI618:
  67:../../../../DaisyExamples/DaisySP//Source/Synthesis/oscillator.h ****     {
 1949              		.loc 3 67 17 view .LVU557
 1950              	.LBB621:
  69:../../../../DaisyExamples/DaisySP//Source/Synthesis/oscillator.h ****         phase_inc_ = CalcPhaseInc(f);
 1951              		.loc 3 69 9 view .LVU558
  70:../../../../DaisyExamples/DaisySP//Source/Synthesis/oscillator.h ****     }
 1952              		.loc 3 70 9 view .LVU559
  70:../../../../DaisyExamples/DaisySP//Source/Synthesis/oscillator.h ****     }
 1953              		.loc 3 70 34 is_stmt 0 view .LVU560
 1954 003e FFF7FEFF 		bl	_ZN7daisysp10Oscillator12CalcPhaseIncEf
 1955              	.LVL78:
  70:../../../../DaisyExamples/DaisySP//Source/Synthesis/oscillator.h ****     }
 1956              		.loc 3 70 34 view .LVU561
 1957              	.LBE621:
 1958              	.LBE626:
 106:voice.cpp     ****     osc_tri_.SetFreq(osc_freq_);
 1959              		.loc 2 106 21 view .LVU562
 1960 0042 D4ED2C7A 		vldr.32	s15, [r4, #176]
 1961              	.LBB627:
 1962              	.LBB628:
  70:../../../../DaisyExamples/DaisySP//Source/Synthesis/oscillator.h ****     }
 1963              		.loc 3 70 34 view .LVU563
 1964 0046 3046     		mov	r0, r6
 1965              	.LBE628:
 1966              	.LBE627:
 1967              	.LBB631:
 1968              	.LBB622:
  70:../../../../DaisyExamples/DaisySP//Source/Synthesis/oscillator.h ****     }
 1969              		.loc 3 70 20 view .LVU564
 1970 0048 84ED1D0A 		vstr.32	s0, [r4, #116]
 1971              	.LVL79:
  70:../../../../DaisyExamples/DaisySP//Source/Synthesis/oscillator.h ****     }
 1972              		.loc 3 70 20 view .LVU565
 1973              	.LBE622:
 1974              	.LBE631:
 106:voice.cpp     ****     osc_tri_.SetFreq(osc_freq_);
 1975              		.loc 2 106 5 is_stmt 1 view .LVU566
 1976              	.LBB632:
 1977              	.LBI627:
ARM GAS  C:\Users\samue\AppData\Local\Temp\ccg9npc6.s 			page 54


  67:../../../../DaisyExamples/DaisySP//Source/Synthesis/oscillator.h ****     {
 1978              		.loc 3 67 17 view .LVU567
 1979              	.LBB629:
  69:../../../../DaisyExamples/DaisySP//Source/Synthesis/oscillator.h ****         phase_inc_ = CalcPhaseInc(f);
 1980              		.loc 3 69 9 view .LVU568
  69:../../../../DaisyExamples/DaisySP//Source/Synthesis/oscillator.h ****         phase_inc_ = CalcPhaseInc(f);
 1981              		.loc 3 69 20 is_stmt 0 view .LVU569
 1982 004c C4ED0D7A 		vstr.32	s15, [r4, #52]
  70:../../../../DaisyExamples/DaisySP//Source/Synthesis/oscillator.h ****     }
 1983              		.loc 3 70 9 is_stmt 1 view .LVU570
  70:../../../../DaisyExamples/DaisySP//Source/Synthesis/oscillator.h ****     }
 1984              		.loc 3 70 34 is_stmt 0 view .LVU571
 1985 0050 B0EE670A 		vmov.f32	s0, s15
 1986 0054 FFF7FEFF 		bl	_ZN7daisysp10Oscillator12CalcPhaseIncEf
 1987              	.LVL80:
  70:../../../../DaisyExamples/DaisySP//Source/Synthesis/oscillator.h ****     }
 1988              		.loc 3 70 34 view .LVU572
 1989              	.LBE629:
 1990              	.LBE632:
 107:voice.cpp     ****     osc_square_.SetFreq(osc_freq_);
 1991              		.loc 2 107 21 view .LVU573
 1992 0058 D4ED2C7A 		vldr.32	s15, [r4, #176]
 1993              	.LBB633:
 1994              	.LBB634:
  70:../../../../DaisyExamples/DaisySP//Source/Synthesis/oscillator.h ****     }
 1995              		.loc 3 70 34 view .LVU574
 1996 005c 2046     		mov	r0, r4
 1997              	.LBE634:
 1998              	.LBE633:
 1999              	.LBB637:
 2000              	.LBB630:
  70:../../../../DaisyExamples/DaisySP//Source/Synthesis/oscillator.h ****     }
 2001              		.loc 3 70 20 view .LVU575
 2002 005e 84ED120A 		vstr.32	s0, [r4, #72]
 2003              	.LVL81:
  70:../../../../DaisyExamples/DaisySP//Source/Synthesis/oscillator.h ****     }
 2004              		.loc 3 70 20 view .LVU576
 2005              	.LBE630:
 2006              	.LBE637:
 107:voice.cpp     ****     osc_square_.SetFreq(osc_freq_);
 2007              		.loc 2 107 5 is_stmt 1 view .LVU577
 2008              	.LBB638:
 2009              	.LBI633:
  67:../../../../DaisyExamples/DaisySP//Source/Synthesis/oscillator.h ****     {
 2010              		.loc 3 67 17 view .LVU578
 2011              	.LBB635:
  69:../../../../DaisyExamples/DaisySP//Source/Synthesis/oscillator.h ****         phase_inc_ = CalcPhaseInc(f);
 2012              		.loc 3 69 9 view .LVU579
  69:../../../../DaisyExamples/DaisySP//Source/Synthesis/oscillator.h ****         phase_inc_ = CalcPhaseInc(f);
 2013              		.loc 3 69 20 is_stmt 0 view .LVU580
 2014 0062 C4ED027A 		vstr.32	s15, [r4, #8]
  70:../../../../DaisyExamples/DaisySP//Source/Synthesis/oscillator.h ****     }
 2015              		.loc 3 70 9 is_stmt 1 view .LVU581
  70:../../../../DaisyExamples/DaisySP//Source/Synthesis/oscillator.h ****     }
 2016              		.loc 3 70 34 is_stmt 0 view .LVU582
 2017 0066 B0EE670A 		vmov.f32	s0, s15
 2018 006a FFF7FEFF 		bl	_ZN7daisysp10Oscillator12CalcPhaseIncEf
ARM GAS  C:\Users\samue\AppData\Local\Temp\ccg9npc6.s 			page 55


 2019              	.LVL82:
  70:../../../../DaisyExamples/DaisySP//Source/Synthesis/oscillator.h ****     }
 2020              		.loc 3 70 34 view .LVU583
 2021              	.LBE635:
 2022              	.LBE638:
 2023              		.loc 2 108 24 view .LVU584
 2024 006e D4ED2C7A 		vldr.32	s15, [r4, #176]
 2025              	.LBB639:
 2026              	.LBB640:
  70:../../../../DaisyExamples/DaisySP//Source/Synthesis/oscillator.h ****     }
 2027              		.loc 3 70 34 view .LVU585
 2028 0072 2846     		mov	r0, r5
 2029              	.LBE640:
 2030              	.LBE639:
 2031              	.LBB643:
 2032              	.LBB636:
  70:../../../../DaisyExamples/DaisySP//Source/Synthesis/oscillator.h ****     }
 2033              		.loc 3 70 20 view .LVU586
 2034 0074 84ED070A 		vstr.32	s0, [r4, #28]
 2035              	.LVL83:
  70:../../../../DaisyExamples/DaisySP//Source/Synthesis/oscillator.h ****     }
 2036              		.loc 3 70 20 view .LVU587
 2037              	.LBE636:
 2038              	.LBE643:
 2039              		.loc 2 108 5 is_stmt 1 view .LVU588
 2040              	.LBB644:
 2041              	.LBI639:
  67:../../../../DaisyExamples/DaisySP//Source/Synthesis/oscillator.h ****     {
 2042              		.loc 3 67 17 view .LVU589
 2043              	.LBB641:
  69:../../../../DaisyExamples/DaisySP//Source/Synthesis/oscillator.h ****         phase_inc_ = CalcPhaseInc(f);
 2044              		.loc 3 69 9 view .LVU590
  69:../../../../DaisyExamples/DaisySP//Source/Synthesis/oscillator.h ****         phase_inc_ = CalcPhaseInc(f);
 2045              		.loc 3 69 20 is_stmt 0 view .LVU591
 2046 0078 C4ED237A 		vstr.32	s15, [r4, #140]
  70:../../../../DaisyExamples/DaisySP//Source/Synthesis/oscillator.h ****     }
 2047              		.loc 3 70 9 is_stmt 1 view .LVU592
  70:../../../../DaisyExamples/DaisySP//Source/Synthesis/oscillator.h ****     }
 2048              		.loc 3 70 34 is_stmt 0 view .LVU593
 2049 007c B0EE670A 		vmov.f32	s0, s15
 2050 0080 FFF7FEFF 		bl	_ZN7daisysp10Oscillator12CalcPhaseIncEf
 2051              	.LVL84:
  70:../../../../DaisyExamples/DaisySP//Source/Synthesis/oscillator.h ****     }
 2052              		.loc 3 70 34 view .LVU594
 2053              	.LBE641:
 2054              	.LBE644:
 2055              	.LBB645:
 2056              	.LBB646:
  76:../../../../DaisyExamples/DaisySP//Source/Synthesis/oscillator.h ****     /** Sets the waveform to be synthesized by the Process() function.
 2057              		.loc 3 76 46 view .LVU595
 2058 0084 D4F8B830 		ldr	r3, [r4, #184]	@ float
 2059              	.LBE646:
 2060              	.LBE645:
 109:voice.cpp     ****     
 110:voice.cpp     ****     osc_sin_.SetAmp(sin_amp_);
 111:voice.cpp     ****     osc_saw_.SetAmp(saw_amp_);
 112:voice.cpp     ****     osc_tri_.SetAmp(tri_amp_);
ARM GAS  C:\Users\samue\AppData\Local\Temp\ccg9npc6.s 			page 56


 113:voice.cpp     ****     osc_square_.SetAmp(square_amp_);
 114:voice.cpp     **** 
 115:voice.cpp     ****     sample[0] += osc_sin_.Process();
 2061              		.loc 2 115 34 view .LVU596
 2062 0088 3846     		mov	r0, r7
 2063              	.LBB648:
 2064              	.LBB642:
  70:../../../../DaisyExamples/DaisySP//Source/Synthesis/oscillator.h ****     }
 2065              		.loc 3 70 20 view .LVU597
 2066 008a 84ED280A 		vstr.32	s0, [r4, #160]
 2067              	.LVL85:
  70:../../../../DaisyExamples/DaisySP//Source/Synthesis/oscillator.h ****     }
 2068              		.loc 3 70 20 view .LVU598
 2069              	.LBE642:
 2070              	.LBE648:
 110:voice.cpp     ****     osc_saw_.SetAmp(saw_amp_);
 2071              		.loc 2 110 5 is_stmt 1 view .LVU599
 2072              	.LBB649:
 2073              	.LBI645:
  76:../../../../DaisyExamples/DaisySP//Source/Synthesis/oscillator.h ****     /** Sets the waveform to be synthesized by the Process() function.
 2074              		.loc 3 76 17 view .LVU600
 2075              	.LBB647:
  76:../../../../DaisyExamples/DaisySP//Source/Synthesis/oscillator.h ****     /** Sets the waveform to be synthesized by the Process() function.
 2076              		.loc 3 76 41 view .LVU601
  76:../../../../DaisyExamples/DaisySP//Source/Synthesis/oscillator.h ****     /** Sets the waveform to be synthesized by the Process() function.
 2077              		.loc 3 76 46 is_stmt 0 view .LVU602
 2078 008e E365     		str	r3, [r4, #92]	@ float
 2079              	.LVL86:
  76:../../../../DaisyExamples/DaisySP//Source/Synthesis/oscillator.h ****     /** Sets the waveform to be synthesized by the Process() function.
 2080              		.loc 3 76 46 view .LVU603
 2081              	.LBE647:
 2082              	.LBE649:
 111:voice.cpp     ****     osc_tri_.SetAmp(tri_amp_);
 2083              		.loc 2 111 5 is_stmt 1 view .LVU604
 2084              	.LBB650:
 2085              	.LBI650:
  76:../../../../DaisyExamples/DaisySP//Source/Synthesis/oscillator.h ****     /** Sets the waveform to be synthesized by the Process() function.
 2086              		.loc 3 76 17 view .LVU605
 2087              	.LBB651:
  76:../../../../DaisyExamples/DaisySP//Source/Synthesis/oscillator.h ****     /** Sets the waveform to be synthesized by the Process() function.
 2088              		.loc 3 76 41 view .LVU606
  76:../../../../DaisyExamples/DaisySP//Source/Synthesis/oscillator.h ****     /** Sets the waveform to be synthesized by the Process() function.
 2089              		.loc 3 76 46 is_stmt 0 view .LVU607
 2090 0090 D4F8C030 		ldr	r3, [r4, #192]	@ float
 2091 0094 2363     		str	r3, [r4, #48]	@ float
 2092              	.LVL87:
  76:../../../../DaisyExamples/DaisySP//Source/Synthesis/oscillator.h ****     /** Sets the waveform to be synthesized by the Process() function.
 2093              		.loc 3 76 46 view .LVU608
 2094              	.LBE651:
 2095              	.LBE650:
 112:voice.cpp     ****     osc_square_.SetAmp(square_amp_);
 2096              		.loc 2 112 5 is_stmt 1 view .LVU609
 2097              	.LBB652:
 2098              	.LBI652:
  76:../../../../DaisyExamples/DaisySP//Source/Synthesis/oscillator.h ****     /** Sets the waveform to be synthesized by the Process() function.
 2099              		.loc 3 76 17 view .LVU610
 2100              	.LBB653:
ARM GAS  C:\Users\samue\AppData\Local\Temp\ccg9npc6.s 			page 57


  76:../../../../DaisyExamples/DaisySP//Source/Synthesis/oscillator.h ****     /** Sets the waveform to be synthesized by the Process() function.
 2101              		.loc 3 76 41 view .LVU611
  76:../../../../DaisyExamples/DaisySP//Source/Synthesis/oscillator.h ****     /** Sets the waveform to be synthesized by the Process() function.
 2102              		.loc 3 76 46 is_stmt 0 view .LVU612
 2103 0096 D4F8B430 		ldr	r3, [r4, #180]	@ float
 2104 009a 6360     		str	r3, [r4, #4]	@ float
 2105              	.LVL88:
  76:../../../../DaisyExamples/DaisySP//Source/Synthesis/oscillator.h ****     /** Sets the waveform to be synthesized by the Process() function.
 2106              		.loc 3 76 46 view .LVU613
 2107              	.LBE653:
 2108              	.LBE652:
 113:voice.cpp     **** 
 2109              		.loc 2 113 5 is_stmt 1 view .LVU614
 2110              	.LBB654:
 2111              	.LBI654:
  76:../../../../DaisyExamples/DaisySP//Source/Synthesis/oscillator.h ****     /** Sets the waveform to be synthesized by the Process() function.
 2112              		.loc 3 76 17 view .LVU615
 2113              	.LBB655:
  76:../../../../DaisyExamples/DaisySP//Source/Synthesis/oscillator.h ****     /** Sets the waveform to be synthesized by the Process() function.
 2114              		.loc 3 76 41 view .LVU616
  76:../../../../DaisyExamples/DaisySP//Source/Synthesis/oscillator.h ****     /** Sets the waveform to be synthesized by the Process() function.
 2115              		.loc 3 76 46 is_stmt 0 view .LVU617
 2116 009c D4F8BC30 		ldr	r3, [r4, #188]	@ float
 2117 00a0 C4F88830 		str	r3, [r4, #136]	@ float
 2118              	.LVL89:
  76:../../../../DaisyExamples/DaisySP//Source/Synthesis/oscillator.h ****     /** Sets the waveform to be synthesized by the Process() function.
 2119              		.loc 3 76 46 view .LVU618
 2120              	.LBE655:
 2121              	.LBE654:
 2122              		.loc 2 115 5 is_stmt 1 view .LVU619
 2123              		.loc 2 115 34 is_stmt 0 view .LVU620
 2124 00a4 FFF7FEFF 		bl	_ZN7daisysp10Oscillator7ProcessEv
 2125              	.LVL90:
 2126 00a8 B0EE409A 		vmov.f32	s18, s0
 2127              	.LVL91:
 116:voice.cpp     ****     sample[0] += osc_saw_.Process();
 2128              		.loc 2 116 5 is_stmt 1 view .LVU621
 2129              		.loc 2 116 34 is_stmt 0 view .LVU622
 2130 00ac 3046     		mov	r0, r6
 2131 00ae FFF7FEFF 		bl	_ZN7daisysp10Oscillator7ProcessEv
 2132              	.LVL92:
 117:voice.cpp     ****     sample[0] += osc_tri_.Process();
 2133              		.loc 2 117 34 view .LVU623
 2134 00b2 2046     		mov	r0, r4
 115:voice.cpp     ****     sample[0] += osc_saw_.Process();
 2135              		.loc 2 115 15 view .LVU624
 2136 00b4 39EE299A 		vadd.f32	s18, s18, s19
 2137              	.LVL93:
 116:voice.cpp     ****     sample[0] += osc_saw_.Process();
 2138              		.loc 2 116 15 view .LVU625
 2139 00b8 79EE008A 		vadd.f32	s17, s18, s0
 2140              	.LVL94:
 2141              		.loc 2 117 5 is_stmt 1 view .LVU626
 2142              		.loc 2 117 34 is_stmt 0 view .LVU627
 2143 00bc FFF7FEFF 		bl	_ZN7daisysp10Oscillator7ProcessEv
 2144              	.LVL95:
 118:voice.cpp     ****     sample[0] += osc_square_.Process();
ARM GAS  C:\Users\samue\AppData\Local\Temp\ccg9npc6.s 			page 58


 2145              		.loc 2 118 37 view .LVU628
 2146 00c0 2846     		mov	r0, r5
 117:voice.cpp     ****     sample[0] += osc_tri_.Process();
 2147              		.loc 2 117 15 view .LVU629
 2148 00c2 78EE808A 		vadd.f32	s17, s17, s0
 2149              	.LVL96:
 2150              		.loc 2 118 5 is_stmt 1 view .LVU630
 2151              		.loc 2 118 37 is_stmt 0 view .LVU631
 2152 00c6 FFF7FEFF 		bl	_ZN7daisysp10Oscillator7ProcessEv
 2153              	.LVL97:
 119:voice.cpp     ****     
 120:voice.cpp     ****     //sample[0] = filter_up_.Process(sample[0]);
 121:voice.cpp     **** 
 122:voice.cpp     ****     //fold
 123:voice.cpp     ****     //sample[0] = (tanhf(sample[0]*fold_gain_) / tanhf(fold_gain_) + 0.8*sinf(2*fold_gain_*sample[0
 124:voice.cpp     **** 
 125:voice.cpp     ****     /*sample[0] = filter_down_.Process(sample[0]);
 126:voice.cpp     **** 
 127:voice.cpp     ****     sample[1] = 0.0f;
 128:voice.cpp     ****     sample[1] = filter_up_.Process(sample[1]);
 129:voice.cpp     **** 
 130:voice.cpp     ****     //fold
 131:voice.cpp     ****     sample[1] = (tanhf(sample[1]*fold_gain_) / tanhf(fold_gain_) + 0.8*sinf(2*fold_gain_*sample[1])
 132:voice.cpp     **** 
 133:voice.cpp     ****     sample[1] = filter_down_.Process(sample[1]);*/
 134:voice.cpp     **** 
 135:voice.cpp     ****     
 136:voice.cpp     **** 
 137:voice.cpp     ****     return sample[0];
 2154              		.loc 2 137 5 is_stmt 1 view .LVU632
 138:voice.cpp     **** }
 2155              		.loc 2 138 1 is_stmt 0 view .LVU633
 2156 00ca 38EE800A 		vadd.f32	s0, s17, s0
 2157              	.LVL98:
 2158              		.loc 2 138 1 view .LVU634
 2159 00ce BDEC048B 		vldm	sp!, {d8-d9}
 2160              		.cfi_restore 82
 2161              		.cfi_restore 83
 2162              		.cfi_restore 80
 2163              		.cfi_restore 81
 2164              		.cfi_def_cfa_offset 24
 2165 00d2 F8BD     		pop	{r3, r4, r5, r6, r7, pc}
 2166              	.LVL99:
 2167              	.L48:
 2168              		.loc 2 138 1 view .LVU635
 2169              		.align	2
 2170              	.L47:
 2171 00d4 00000000 		.word	0
 2172              		.cfi_endproc
 2173              	.LFE3524:
 2175              		.text
 2176              	.Letext0:
 2177              		.file 5 "c:\\program files\\daisytoolchain\\arm-none-eabi\\include\\machine\\_default_types.h"
 2178              		.file 6 "c:\\program files\\daisytoolchain\\arm-none-eabi\\include\\sys\\_stdint.h"
 2179              		.file 7 "c:\\program files\\daisytoolchain\\arm-none-eabi\\include\\stdint.h"
 2180              		.file 8 "c:\\program files\\daisytoolchain\\lib\\gcc\\arm-none-eabi\\10.2.1\\include\\stddef.h"
 2181              		.file 9 "c:\\program files\\daisytoolchain\\arm-none-eabi\\include\\c++\\10.2.1\\cmath"
ARM GAS  C:\Users\samue\AppData\Local\Temp\ccg9npc6.s 			page 59


 2182              		.file 10 "c:\\program files\\daisytoolchain\\arm-none-eabi\\include\\c++\\10.2.1\\bits\\std_abs.h"
 2183              		.file 11 "c:\\program files\\daisytoolchain\\arm-none-eabi\\include\\c++\\10.2.1\\cstdint"
 2184              		.file 12 "c:\\program files\\daisytoolchain\\arm-none-eabi\\include\\c++\\10.2.1\\cstdlib"
 2185              		.file 13 "c:\\program files\\daisytoolchain\\arm-none-eabi\\include\\c++\\10.2.1\\type_traits"
 2186              		.file 14 "c:\\program files\\daisytoolchain\\arm-none-eabi\\include\\c++\\10.2.1\\debug\\debug.h"
 2187              		.file 15 "c:\\program files\\daisytoolchain\\arm-none-eabi\\include\\c++\\10.2.1\\cwchar"
 2188              		.file 16 "c:\\program files\\daisytoolchain\\arm-none-eabi\\include\\c++\\10.2.1\\bits\\stl_pair.h
 2189              		.file 17 "c:\\program files\\daisytoolchain\\arm-none-eabi\\include\\c++\\10.2.1\\bits\\exception_
 2190              		.file 18 "c:\\program files\\daisytoolchain\\arm-none-eabi\\include\\c++\\10.2.1\\arm-none-eabi\\t
 2191              		.file 19 "c:\\program files\\daisytoolchain\\arm-none-eabi\\include\\c++\\10.2.1\\clocale"
 2192              		.file 20 "c:\\program files\\daisytoolchain\\arm-none-eabi\\include\\c++\\10.2.1\\cstdio"
 2193              		.file 21 "c:\\program files\\daisytoolchain\\arm-none-eabi\\include\\c++\\10.2.1\\bits\\basic_stri
 2194              		.file 22 "c:\\program files\\daisytoolchain\\arm-none-eabi\\include\\c++\\10.2.1\\bits\\charconv.h
 2195              		.file 23 "c:\\program files\\daisytoolchain\\arm-none-eabi\\include\\c++\\10.2.1\\bits\\algorithmf
 2196              		.file 24 "c:\\program files\\daisytoolchain\\arm-none-eabi\\include\\c++\\10.2.1\\cstring"
 2197              		.file 25 "c:\\program files\\daisytoolchain\\arm-none-eabi\\include\\c++\\10.2.1\\bits\\move.h"
 2198              		.file 26 "c:\\program files\\daisytoolchain\\arm-none-eabi\\include\\c++\\10.2.1\\bits\\predefined
 2199              		.file 27 "c:\\program files\\daisytoolchain\\arm-none-eabi\\include\\sys\\_types.h"
 2200              		.file 28 "c:\\program files\\daisytoolchain\\arm-none-eabi\\include\\sys\\reent.h"
 2201              		.file 29 "c:\\program files\\daisytoolchain\\arm-none-eabi\\include\\sys\\lock.h"
 2202              		.file 30 "c:\\program files\\daisytoolchain\\arm-none-eabi\\include\\math.h"
 2203              		.file 31 "c:\\program files\\daisytoolchain\\arm-none-eabi\\include\\stdlib.h"
 2204              		.file 32 "c:\\program files\\daisytoolchain\\arm-none-eabi\\include\\c++\\10.2.1\\math.h"
 2205              		.file 33 "../../../../DaisyExamples/DaisySP//Source/Control/adenv.h"
 2206              		.file 34 "c:\\program files\\daisytoolchain\\lib\\gcc\\arm-none-eabi\\10.2.1\\include\\stdarg.h"
 2207              		.file 35 "c:\\program files\\daisytoolchain\\arm-none-eabi\\include\\wchar.h"
 2208              		.file 36 "c:\\program files\\daisytoolchain\\arm-none-eabi\\include\\locale.h"
 2209              		.file 37 "c:\\program files\\daisytoolchain\\arm-none-eabi\\include\\sys\\types.h"
 2210              		.file 38 "c:\\program files\\daisytoolchain\\arm-none-eabi\\include\\stdio.h"
 2211              		.file 39 "c:\\program files\\daisytoolchain\\arm-none-eabi\\include\\c++\\10.2.1\\stdlib.h"
 2212              		.file 40 "c:\\program files\\daisytoolchain\\arm-none-eabi\\include\\string.h"
 2213              		.file 41 "voice.h"
 2214              		.file 42 "c:\\program files\\daisytoolchain\\arm-none-eabi\\include\\assert.h"
 2215              		.file 43 "<built-in>"
ARM GAS  C:\Users\samue\AppData\Local\Temp\ccg9npc6.s 			page 60


DEFINED SYMBOLS
                            *ABS*:00000000 voice.cpp
C:\Users\samue\AppData\Local\Temp\ccg9npc6.s:17     .rodata._ZN7daisysp9FIRMemoryILj0ELj0EE5ResetEv.part.0.str1.4:00000000 $d
C:\Users\samue\AppData\Local\Temp\ccg9npc6.s:28     .text._ZN7daisysp9FIRMemoryILj0ELj0EE5ResetEv.part.0:00000000 $t
C:\Users\samue\AppData\Local\Temp\ccg9npc6.s:36     .text._ZN7daisysp9FIRMemoryILj0ELj0EE5ResetEv.part.0:00000000 _ZN7daisysp9FIRMemoryILj0ELj0EE5ResetEv.part.0
C:\Users\samue\AppData\Local\Temp\ccg9npc6.s:60     .text._ZN7daisysp9FIRMemoryILj0ELj0EE5ResetEv.part.0:00000010 $d
C:\Users\samue\AppData\Local\Temp\ccg9npc6.s:67     .rodata._ZN7daisysp9FIRMemoryILj0ELj0EE8SetCoefsEPKfjb.part.0.str1.4:00000000 $d
C:\Users\samue\AppData\Local\Temp\ccg9npc6.s:75     .text._ZN7daisysp9FIRMemoryILj0ELj0EE8SetCoefsEPKfjb.part.0:00000000 $t
C:\Users\samue\AppData\Local\Temp\ccg9npc6.s:82     .text._ZN7daisysp9FIRMemoryILj0ELj0EE8SetCoefsEPKfjb.part.0:00000000 _ZN7daisysp9FIRMemoryILj0ELj0EE8SetCoefsEPKfjb.part.0
C:\Users\samue\AppData\Local\Temp\ccg9npc6.s:105    .text._ZN7daisysp9FIRMemoryILj0ELj0EE8SetCoefsEPKfjb.part.0:00000010 $d
C:\Users\samue\AppData\Local\Temp\ccg9npc6.s:112    .text._ZN5voice4InitEf:00000000 $t
C:\Users\samue\AppData\Local\Temp\ccg9npc6.s:120    .text._ZN5voice4InitEf:00000000 _ZN5voice4InitEf
C:\Users\samue\AppData\Local\Temp\ccg9npc6.s:776    .text._ZN5voice4InitEf:0000013c $d
C:\Users\samue\AppData\Local\Temp\ccg9npc6.s:786    .text._ZN5voice8set_freqEf:00000000 $t
C:\Users\samue\AppData\Local\Temp\ccg9npc6.s:794    .text._ZN5voice8set_freqEf:00000000 _ZN5voice8set_freqEf
C:\Users\samue\AppData\Local\Temp\ccg9npc6.s:1033   .text._ZN5voice8set_freqEf:00000088 $d
C:\Users\samue\AppData\Local\Temp\ccg9npc6.s:1044   .text._ZN5voice8set_fineEf:00000000 $t
C:\Users\samue\AppData\Local\Temp\ccg9npc6.s:1052   .text._ZN5voice8set_fineEf:00000000 _ZN5voice8set_fineEf
C:\Users\samue\AppData\Local\Temp\ccg9npc6.s:1156   .text._ZN5voice14set_freq_curveEh:00000000 $t
C:\Users\samue\AppData\Local\Temp\ccg9npc6.s:1164   .text._ZN5voice14set_freq_curveEh:00000000 _ZN5voice14set_freq_curveEh
C:\Users\samue\AppData\Local\Temp\ccg9npc6.s:1181   .text._ZN5voice9set_shapeEf:00000000 $t
C:\Users\samue\AppData\Local\Temp\ccg9npc6.s:1189   .text._ZN5voice9set_shapeEf:00000000 _ZN5voice9set_shapeEf
C:\Users\samue\AppData\Local\Temp\ccg9npc6.s:1670   .text._ZN5voice9set_shapeEf:000000f0 $d
C:\Users\samue\AppData\Local\Temp\ccg9npc6.s:1677   .text._ZN5voice9set_morphEf:00000000 $t
C:\Users\samue\AppData\Local\Temp\ccg9npc6.s:1685   .text._ZN5voice9set_morphEf:00000000 _ZN5voice9set_morphEf
C:\Users\samue\AppData\Local\Temp\ccg9npc6.s:1785   .text._ZN5voice9set_morphEf:00000028 $d
C:\Users\samue\AppData\Local\Temp\ccg9npc6.s:1791   .text._ZN5voice7ProcessEv:00000000 $t
C:\Users\samue\AppData\Local\Temp\ccg9npc6.s:1799   .text._ZN5voice7ProcessEv:00000000 _ZN5voice7ProcessEv
C:\Users\samue\AppData\Local\Temp\ccg9npc6.s:2171   .text._ZN5voice7ProcessEv:000000d4 $d

UNDEFINED SYMBOLS
__assert_func
_ZN7daisysp10Oscillator12CalcPhaseIncEf
memset
powf
_ZN7daisysp10Oscillator7ProcessEv
