ARM GAS  C:\Users\samue\AppData\Local\Temp\cc4nCvGK.s 			page 1


   1              		.cpu cortex-m7
   2              		.eabi_attribute 28, 1
   3              		.eabi_attribute 20, 1
   4              		.eabi_attribute 21, 1
   5              		.eabi_attribute 23, 3
   6              		.eabi_attribute 24, 1
   7              		.eabi_attribute 25, 1
   8              		.eabi_attribute 26, 1
   9              		.eabi_attribute 30, 2
  10              		.eabi_attribute 34, 1
  11              		.eabi_attribute 18, 4
  12              		.file	"daisy_common.cpp"
  13              		.text
  14              	.Ltext0:
  15              		.cfi_sections	.debug_frame
  16              		.section	.text._ZN5daisy11daisyCommon6get_cvEi,"ax",%progbits
  17              		.align	1
  18              		.p2align 2,,3
  19              		.global	_ZN5daisy11daisyCommon6get_cvEi
  20              		.arch armv7e-m
  21              		.syntax unified
  22              		.thumb
  23              		.thumb_func
  24              		.fpu fpv5-d16
  26              	_ZN5daisy11daisyCommon6get_cvEi:
  27              	.LVL0:
  28              	.LFB4689:
  29              		.file 1 "daisy_common.cpp"
   1:daisy_common.cpp **** #include "daisy_common.h"
   2:daisy_common.cpp **** 
   3:daisy_common.cpp **** 
   4:daisy_common.cpp **** using namespace daisy;
   5:daisy_common.cpp **** using namespace daisy::seed;
   6:daisy_common.cpp **** using namespace std;
   7:daisy_common.cpp **** 
   8:daisy_common.cpp **** constexpr Pin TOGGLE_LEFT_PIN_1 = seed::D9;
   9:daisy_common.cpp **** constexpr Pin TOGGLE_LEFT_PIN_2 = seed::D8;
  10:daisy_common.cpp **** constexpr Pin TOGGLE_RIGHT_PIN_1 = seed::D14;
  11:daisy_common.cpp **** constexpr Pin TOGGLE_RIGHT_PIN_2 = seed::D13;
  12:daisy_common.cpp **** constexpr Pin MUX_X_ADC_PIN = seed::A11;
  13:daisy_common.cpp **** constexpr Pin MUX_Y_ADC_PIN = seed::A10;
  14:daisy_common.cpp **** constexpr Pin IN_1_ADC_PIN = seed::A0;
  15:daisy_common.cpp **** constexpr Pin IN_2_ADC_PIN = seed::A4;
  16:daisy_common.cpp **** constexpr Pin IN_3_ADC_PIN = seed::A9;
  17:daisy_common.cpp **** constexpr Pin IN_4_ADC_PIN = seed::A6;
  18:daisy_common.cpp **** constexpr Pin IN_5_ADC_PIN = seed::A1;
  19:daisy_common.cpp **** constexpr Pin IN_6_ADC_PIN = seed::A5;
  20:daisy_common.cpp **** constexpr Pin IN_7_ADC_PIN = seed::A2;
  21:daisy_common.cpp **** constexpr Pin IN_8_ADC_PIN = seed::A3;
  22:daisy_common.cpp **** constexpr Pin GATE_1_IN_4_PIN = seed::D21;
  23:daisy_common.cpp **** constexpr Pin GATE_2_IN_8_PIN = seed::D23;
  24:daisy_common.cpp **** constexpr Pin IN_1_GPIO_PIN = seed::D15;
  25:daisy_common.cpp **** constexpr Pin IN_2_GPIO_PIN = seed::D19;
  26:daisy_common.cpp **** constexpr Pin IN_3_GPIO_PIN = seed::D24;
  27:daisy_common.cpp **** constexpr Pin IN_5_GPIO_PIN = seed::D16;
  28:daisy_common.cpp **** constexpr Pin IN_6_GPIO_PIN = seed::D20;
  29:daisy_common.cpp **** constexpr Pin IN_7_GPIO_PIN = seed::D17;
ARM GAS  C:\Users\samue\AppData\Local\Temp\cc4nCvGK.s 			page 2


  30:daisy_common.cpp **** constexpr Pin LED_LEFT_PIN = seed::D11;
  31:daisy_common.cpp **** constexpr Pin LED_RIGHT_PIN = seed::D12;
  32:daisy_common.cpp **** 
  33:daisy_common.cpp **** 
  34:daisy_common.cpp **** void daisyCommon::add_dual_control(int user_name, int jack_num, int knob_num)
  35:daisy_common.cpp **** {
  36:daisy_common.cpp ****     add_cv(user_name, jack_num);
  37:daisy_common.cpp ****     add_knob(user_name, knob_num);
  38:daisy_common.cpp **** }
  39:daisy_common.cpp **** float daisyCommon::get_dual_control(int user_name)
  40:daisy_common.cpp **** {
  41:daisy_common.cpp ****     float ret;
  42:daisy_common.cpp ****     ret = get_cv(user_name)-0.5f;
  43:daisy_common.cpp ****     ret = ret + get_knob(user_name);
  44:daisy_common.cpp ****     daisysp::fclamp(ret, 0.0f, 1.0f);
  45:daisy_common.cpp ****     return ret;
  46:daisy_common.cpp **** }
  47:daisy_common.cpp **** 
  48:daisy_common.cpp **** 
  49:daisy_common.cpp **** float daisyCommon::get_cv(int user_name)
  50:daisy_common.cpp **** {
  30              		.loc 1 50 1 view -0
  31              		.cfi_startproc
  32              		@ args = 0, pretend = 0, frame = 0
  33              		@ frame_needed = 0, uses_anonymous_args = 0
  51:daisy_common.cpp ****     return seed.adc.GetFloat(get_cv_adc_chan(user_name))*-1+1;
  34              		.loc 1 51 5 view .LVU1
  35              	.LBB54:
  36              	.LBB55:
  52:daisy_common.cpp **** }
  53:daisy_common.cpp **** 
  54:daisy_common.cpp **** int daisyCommon::get_cv_adc_chan(int adc_user_name)
  55:daisy_common.cpp **** {
  56:daisy_common.cpp ****     if(adc_user_name == jack_1_user_name) return in_1_adc_chan;
  37              		.loc 1 56 5 is_stmt 0 view .LVU2
  38 0000 D0F88021 		ldr	r2, [r0, #384]
  39 0004 9142     		cmp	r1, r2
  40              	.LBE55:
  41              	.LBE54:
  50:daisy_common.cpp ****     return seed.adc.GetFloat(get_cv_adc_chan(user_name))*-1+1;
  42              		.loc 1 50 1 view .LVU3
  43 0006 08B5     		push	{r3, lr}
  44              		.cfi_def_cfa_offset 8
  45              		.cfi_offset 3, -8
  46              		.cfi_offset 14, -4
  50:daisy_common.cpp ****     return seed.adc.GetFloat(get_cv_adc_chan(user_name))*-1+1;
  47              		.loc 1 50 1 view .LVU4
  48 0008 0346     		mov	r3, r0
  51:daisy_common.cpp ****     return seed.adc.GetFloat(get_cv_adc_chan(user_name))*-1+1;
  49              		.loc 1 51 29 view .LVU5
  50 000a 00F59C70 		add	r0, r0, #312
  51              	.LVL1:
  52              	.LBB80:
  53              	.LBI54:
  54:daisy_common.cpp **** {
  54              		.loc 1 54 5 is_stmt 1 view .LVU6
  55              	.LBB70:
ARM GAS  C:\Users\samue\AppData\Local\Temp\cc4nCvGK.s 			page 3


  56              		.loc 1 56 5 view .LVU7
  57 000e 25D0     		beq	.L13
  57:daisy_common.cpp ****     if(adc_user_name == jack_2_user_name) return in_2_adc_chan;
  58              		.loc 1 57 5 view .LVU8
  59 0010 D3F88421 		ldr	r2, [r3, #388]
  60 0014 9142     		cmp	r1, r2
  61 0016 36D0     		beq	.L14
  58:daisy_common.cpp ****     if(adc_user_name == jack_3_user_name) return in_3_adc_chan;
  62              		.loc 1 58 5 view .LVU9
  63 0018 D3F88821 		ldr	r2, [r3, #392]
  64 001c 9142     		cmp	r1, r2
  65 001e 26D0     		beq	.L15
  59:daisy_common.cpp ****     if(adc_user_name == jack_4_user_name) return in_4_adc_chan;
  66              		.loc 1 59 5 view .LVU10
  67 0020 D3F88C21 		ldr	r2, [r3, #396]
  68 0024 9142     		cmp	r1, r2
  69 0026 37D0     		beq	.L16
  70              	.LVL2:
  71              	.LBB56:
  72              	.LBI56:
  54:daisy_common.cpp **** {
  73              		.loc 1 54 5 view .LVU11
  74              	.LBB57:
  60:daisy_common.cpp ****     if(adc_user_name == jack_5_user_name) return in_5_adc_chan;
  75              		.loc 1 60 5 view .LVU12
  76 0028 D3F89021 		ldr	r2, [r3, #400]
  77 002c 9142     		cmp	r1, r2
  78 002e 3CD0     		beq	.L17
  61:daisy_common.cpp ****     if(adc_user_name == jack_6_user_name) return in_6_adc_chan;
  79              		.loc 1 61 5 view .LVU13
  80 0030 D3F89421 		ldr	r2, [r3, #404]
  81 0034 9142     		cmp	r1, r2
  82 0036 3BD0     		beq	.L18
  62:daisy_common.cpp ****     if(adc_user_name == jack_7_user_name) return in_7_adc_chan;
  83              		.loc 1 62 5 view .LVU14
  84 0038 D3F89821 		ldr	r2, [r3, #408]
  85 003c 9142     		cmp	r1, r2
  86 003e 1FD0     		beq	.L19
  63:daisy_common.cpp ****     if(adc_user_name == jack_8_user_name) return in_8_adc_chan;
  87              		.loc 1 63 5 view .LVU15
  88              		.loc 1 63 43 view .LVU16
  89              		.loc 1 63 5 is_stmt 0 view .LVU17
  90 0040 D3F89C21 		ldr	r2, [r3, #412]
  91 0044 9142     		cmp	r1, r2
  92              	.LBE57:
  93              	.LBE56:
  94              	.LBE70:
  95              	.LBE80:
  51:daisy_common.cpp **** }
  96              		.loc 1 51 29 view .LVU18
  97 0046 0CBF     		ite	eq
  98 0048 93F8EC11 		ldrbeq	r1, [r3, #492]	@ zero_extendqisi2
  99              	.LVL3:
 100              	.LBB81:
 101              	.LBB71:
 102              	.LBB64:
 103              	.LBB58:
ARM GAS  C:\Users\samue\AppData\Local\Temp\cc4nCvGK.s 			page 4


  51:daisy_common.cpp **** }
 104              		.loc 1 51 29 view .LVU19
 105 004c FF21     		movne	r1, #255
 106              	.LVL4:
  51:daisy_common.cpp **** }
 107              		.loc 1 51 29 view .LVU20
 108              	.LBE58:
 109              	.LBE64:
 110              	.LBE71:
 111              	.LBE81:
 112 004e FFF7FEFF 		bl	_ZNK5daisy9AdcHandle8GetFloatEh
 113              	.LVL5:
  51:daisy_common.cpp **** }
 114              		.loc 1 51 61 view .LVU21
 115 0052 F7EE007A 		vmov.f32	s15, #1.0e+0
  52:daisy_common.cpp **** 
 116              		.loc 1 52 1 view .LVU22
 117 0056 37EEC00A 		vsub.f32	s0, s15, s0
 118 005a 08BD     		pop	{r3, pc}
 119              	.LVL6:
 120              	.L13:
 121              	.LBB82:
 122              	.LBB72:
  56:daisy_common.cpp ****     if(adc_user_name == jack_2_user_name) return in_2_adc_chan;
 123              		.loc 1 56 43 is_stmt 1 view .LVU23
 124              	.LBE72:
 125              	.LBE82:
  51:daisy_common.cpp **** }
 126              		.loc 1 51 29 is_stmt 0 view .LVU24
 127 005c 93F8D011 		ldrb	r1, [r3, #464]	@ zero_extendqisi2
 128              	.LVL7:
 129              	.L3:
  51:daisy_common.cpp **** }
 130              		.loc 1 51 29 view .LVU25
 131 0060 FFF7FEFF 		bl	_ZNK5daisy9AdcHandle8GetFloatEh
 132              	.LVL8:
  51:daisy_common.cpp **** }
 133              		.loc 1 51 61 view .LVU26
 134 0064 F7EE007A 		vmov.f32	s15, #1.0e+0
  52:daisy_common.cpp **** 
 135              		.loc 1 52 1 view .LVU27
 136 0068 37EEC00A 		vsub.f32	s0, s15, s0
 137 006c 08BD     		pop	{r3, pc}
 138              	.LVL9:
 139              	.L15:
 140              	.LBB83:
 141              	.LBB73:
  58:daisy_common.cpp ****     if(adc_user_name == jack_4_user_name) return in_4_adc_chan;
 142              		.loc 1 58 43 is_stmt 1 view .LVU28
 143              	.LBE73:
 144              	.LBE83:
  51:daisy_common.cpp **** }
 145              		.loc 1 51 29 is_stmt 0 view .LVU29
 146 006e 93F8D811 		ldrb	r1, [r3, #472]	@ zero_extendqisi2
 147              	.LVL10:
  51:daisy_common.cpp **** }
 148              		.loc 1 51 29 view .LVU30
ARM GAS  C:\Users\samue\AppData\Local\Temp\cc4nCvGK.s 			page 5


 149 0072 FFF7FEFF 		bl	_ZNK5daisy9AdcHandle8GetFloatEh
 150              	.LVL11:
  51:daisy_common.cpp **** }
 151              		.loc 1 51 61 view .LVU31
 152 0076 F7EE007A 		vmov.f32	s15, #1.0e+0
  52:daisy_common.cpp **** 
 153              		.loc 1 52 1 view .LVU32
 154 007a 37EEC00A 		vsub.f32	s0, s15, s0
 155 007e 08BD     		pop	{r3, pc}
 156              	.LVL12:
 157              	.L19:
 158              	.LBB84:
 159              	.LBB74:
 160              	.LBB65:
 161              	.LBB59:
  62:daisy_common.cpp ****     if(adc_user_name == jack_8_user_name) return in_8_adc_chan;
 162              		.loc 1 62 43 is_stmt 1 view .LVU33
 163              	.LBE59:
 164              	.LBE65:
 165              	.LBE74:
 166              	.LBE84:
  51:daisy_common.cpp **** }
 167              		.loc 1 51 29 is_stmt 0 view .LVU34
 168 0080 93F8E811 		ldrb	r1, [r3, #488]	@ zero_extendqisi2
 169              	.LVL13:
 170              	.LBB85:
 171              	.LBB75:
 172              	.LBB66:
 173              	.LBB60:
  62:daisy_common.cpp ****     if(adc_user_name == jack_8_user_name) return in_8_adc_chan;
 174              		.loc 1 62 50 view .LVU35
 175 0084 ECE7     		b	.L3
 176              	.LVL14:
 177              	.L14:
  62:daisy_common.cpp ****     if(adc_user_name == jack_8_user_name) return in_8_adc_chan;
 178              		.loc 1 62 50 view .LVU36
 179              	.LBE60:
 180              	.LBE66:
  57:daisy_common.cpp ****     if(adc_user_name == jack_3_user_name) return in_3_adc_chan;
 181              		.loc 1 57 43 is_stmt 1 view .LVU37
 182              	.LBE75:
 183              	.LBE85:
  51:daisy_common.cpp **** }
 184              		.loc 1 51 29 is_stmt 0 view .LVU38
 185 0086 93F8D411 		ldrb	r1, [r3, #468]	@ zero_extendqisi2
 186              	.LVL15:
  51:daisy_common.cpp **** }
 187              		.loc 1 51 29 view .LVU39
 188 008a FFF7FEFF 		bl	_ZNK5daisy9AdcHandle8GetFloatEh
 189              	.LVL16:
  51:daisy_common.cpp **** }
 190              		.loc 1 51 61 view .LVU40
 191 008e F7EE007A 		vmov.f32	s15, #1.0e+0
  52:daisy_common.cpp **** 
 192              		.loc 1 52 1 view .LVU41
 193 0092 37EEC00A 		vsub.f32	s0, s15, s0
 194 0096 08BD     		pop	{r3, pc}
ARM GAS  C:\Users\samue\AppData\Local\Temp\cc4nCvGK.s 			page 6


 195              	.LVL17:
 196              	.L16:
 197              	.LBB86:
 198              	.LBB76:
  59:daisy_common.cpp ****     if(adc_user_name == jack_5_user_name) return in_5_adc_chan;
 199              		.loc 1 59 43 is_stmt 1 view .LVU42
 200              	.LBE76:
 201              	.LBE86:
  51:daisy_common.cpp **** }
 202              		.loc 1 51 29 is_stmt 0 view .LVU43
 203 0098 93F8DC11 		ldrb	r1, [r3, #476]	@ zero_extendqisi2
 204              	.LVL18:
  51:daisy_common.cpp **** }
 205              		.loc 1 51 29 view .LVU44
 206 009c FFF7FEFF 		bl	_ZNK5daisy9AdcHandle8GetFloatEh
 207              	.LVL19:
  51:daisy_common.cpp **** }
 208              		.loc 1 51 61 view .LVU45
 209 00a0 F7EE007A 		vmov.f32	s15, #1.0e+0
  52:daisy_common.cpp **** 
 210              		.loc 1 52 1 view .LVU46
 211 00a4 37EEC00A 		vsub.f32	s0, s15, s0
 212 00a8 08BD     		pop	{r3, pc}
 213              	.LVL20:
 214              	.L17:
 215              	.LBB87:
 216              	.LBB77:
 217              	.LBB67:
 218              	.LBB61:
  60:daisy_common.cpp ****     if(adc_user_name == jack_6_user_name) return in_6_adc_chan;
 219              		.loc 1 60 43 is_stmt 1 view .LVU47
 220              	.LBE61:
 221              	.LBE67:
 222              	.LBE77:
 223              	.LBE87:
  51:daisy_common.cpp **** }
 224              		.loc 1 51 29 is_stmt 0 view .LVU48
 225 00aa 93F8E011 		ldrb	r1, [r3, #480]	@ zero_extendqisi2
 226              	.LVL21:
 227              	.LBB88:
 228              	.LBB78:
 229              	.LBB68:
 230              	.LBB62:
  60:daisy_common.cpp ****     if(adc_user_name == jack_6_user_name) return in_6_adc_chan;
 231              		.loc 1 60 50 view .LVU49
 232 00ae D7E7     		b	.L3
 233              	.LVL22:
 234              	.L18:
  61:daisy_common.cpp ****     if(adc_user_name == jack_7_user_name) return in_7_adc_chan;
 235              		.loc 1 61 43 is_stmt 1 view .LVU50
 236              	.LBE62:
 237              	.LBE68:
 238              	.LBE78:
 239              	.LBE88:
  51:daisy_common.cpp **** }
 240              		.loc 1 51 29 is_stmt 0 view .LVU51
 241 00b0 93F8E411 		ldrb	r1, [r3, #484]	@ zero_extendqisi2
ARM GAS  C:\Users\samue\AppData\Local\Temp\cc4nCvGK.s 			page 7


 242              	.LVL23:
 243              	.LBB89:
 244              	.LBB79:
 245              	.LBB69:
 246              	.LBB63:
  61:daisy_common.cpp ****     if(adc_user_name == jack_7_user_name) return in_7_adc_chan;
 247              		.loc 1 61 50 view .LVU52
 248 00b4 D4E7     		b	.L3
 249              	.LBE63:
 250              	.LBE69:
 251              	.LBE79:
 252              	.LBE89:
 253              		.cfi_endproc
 254              	.LFE4689:
 256 00b6 00BF     		.section	.text._ZN5daisy11daisyCommon15get_cv_adc_chanEi,"ax",%progbits
 257              		.align	1
 258              		.p2align 2,,3
 259              		.global	_ZN5daisy11daisyCommon15get_cv_adc_chanEi
 260              		.syntax unified
 261              		.thumb
 262              		.thumb_func
 263              		.fpu fpv5-d16
 265              	_ZN5daisy11daisyCommon15get_cv_adc_chanEi:
 266              	.LVL24:
 267              	.LFB4690:
  55:daisy_common.cpp ****     if(adc_user_name == jack_1_user_name) return in_1_adc_chan;
 268              		.loc 1 55 1 is_stmt 1 view -0
 269              		.cfi_startproc
 270              		@ args = 0, pretend = 0, frame = 0
 271              		@ frame_needed = 0, uses_anonymous_args = 0
 272              		@ link register save eliminated.
  56:daisy_common.cpp ****     if(adc_user_name == jack_2_user_name) return in_2_adc_chan;
 273              		.loc 1 56 5 view .LVU54
 274 0000 D0F88031 		ldr	r3, [r0, #384]
 275 0004 8B42     		cmp	r3, r1
 276 0006 20D0     		beq	.L30
  57:daisy_common.cpp ****     if(adc_user_name == jack_3_user_name) return in_3_adc_chan;
 277              		.loc 1 57 5 view .LVU55
 278 0008 D0F88431 		ldr	r3, [r0, #388]
 279 000c 8B42     		cmp	r3, r1
 280 000e 25D0     		beq	.L31
  58:daisy_common.cpp ****     if(adc_user_name == jack_4_user_name) return in_4_adc_chan;
 281              		.loc 1 58 5 view .LVU56
 282 0010 D0F88831 		ldr	r3, [r0, #392]
 283 0014 8B42     		cmp	r3, r1
 284 0016 1BD0     		beq	.L32
  59:daisy_common.cpp ****     if(adc_user_name == jack_5_user_name) return in_5_adc_chan;
 285              		.loc 1 59 5 view .LVU57
 286 0018 D0F88C31 		ldr	r3, [r0, #396]
 287 001c 8B42     		cmp	r3, r1
 288 001e 20D0     		beq	.L33
 289              	.LVL25:
 290              	.LBB92:
 291              	.LBI92:
  54:daisy_common.cpp **** {
 292              		.loc 1 54 5 view .LVU58
 293              	.LBB93:
ARM GAS  C:\Users\samue\AppData\Local\Temp\cc4nCvGK.s 			page 8


  60:daisy_common.cpp ****     if(adc_user_name == jack_6_user_name) return in_6_adc_chan;
 294              		.loc 1 60 5 view .LVU59
 295 0020 D0F89031 		ldr	r3, [r0, #400]
 296 0024 9942     		cmp	r1, r3
 297 0026 1FD0     		beq	.L34
  61:daisy_common.cpp ****     if(adc_user_name == jack_7_user_name) return in_7_adc_chan;
 298              		.loc 1 61 5 view .LVU60
 299 0028 D0F89431 		ldr	r3, [r0, #404]
 300 002c 9942     		cmp	r1, r3
 301 002e 1ED0     		beq	.L35
  62:daisy_common.cpp ****     if(adc_user_name == jack_8_user_name) return in_8_adc_chan;
 302              		.loc 1 62 5 view .LVU61
 303 0030 D0F89831 		ldr	r3, [r0, #408]
 304 0034 9942     		cmp	r1, r3
 305 0036 0ED0     		beq	.L36
 306              		.loc 1 63 5 view .LVU62
 307 0038 D0F89C31 		ldr	r3, [r0, #412]
 308 003c 9942     		cmp	r1, r3
 309              		.loc 1 63 43 view .LVU63
 310              		.loc 1 63 50 is_stmt 0 view .LVU64
 311 003e 0CBF     		ite	eq
 312 0040 D0F8EC01 		ldreq	r0, [r0, #492]
 313              	.LVL26:
  64:daisy_common.cpp ****     return -1;
 314              		.loc 1 64 13 view .LVU65
 315 0044 4FF0FF30 		movne	r0, #-1
 316              	.LVL27:
 317              		.loc 1 64 13 view .LVU66
 318              	.LBE93:
 319              	.LBE92:
  65:daisy_common.cpp **** }
 320              		.loc 1 65 1 view .LVU67
 321 0048 7047     		bx	lr
 322              	.LVL28:
 323              	.L30:
  56:daisy_common.cpp ****     if(adc_user_name == jack_2_user_name) return in_2_adc_chan;
 324              		.loc 1 56 43 is_stmt 1 discriminator 1 view .LVU68
  56:daisy_common.cpp ****     if(adc_user_name == jack_2_user_name) return in_2_adc_chan;
 325              		.loc 1 56 50 is_stmt 0 discriminator 1 view .LVU69
 326 004a D0F8D001 		ldr	r0, [r0, #464]
 327              	.LVL29:
  56:daisy_common.cpp ****     if(adc_user_name == jack_2_user_name) return in_2_adc_chan;
 328              		.loc 1 56 50 discriminator 1 view .LVU70
 329 004e 7047     		bx	lr
 330              	.LVL30:
 331              	.L32:
  58:daisy_common.cpp ****     if(adc_user_name == jack_4_user_name) return in_4_adc_chan;
 332              		.loc 1 58 43 is_stmt 1 discriminator 1 view .LVU71
  58:daisy_common.cpp ****     if(adc_user_name == jack_4_user_name) return in_4_adc_chan;
 333              		.loc 1 58 50 is_stmt 0 discriminator 1 view .LVU72
 334 0050 D0F8D801 		ldr	r0, [r0, #472]
 335              	.LVL31:
  58:daisy_common.cpp ****     if(adc_user_name == jack_4_user_name) return in_4_adc_chan;
 336              		.loc 1 58 50 discriminator 1 view .LVU73
 337 0054 7047     		bx	lr
 338              	.LVL32:
 339              	.L36:
ARM GAS  C:\Users\samue\AppData\Local\Temp\cc4nCvGK.s 			page 9


 340              	.LBB96:
 341              	.LBB94:
  62:daisy_common.cpp ****     if(adc_user_name == jack_8_user_name) return in_8_adc_chan;
 342              		.loc 1 62 43 is_stmt 1 view .LVU74
  62:daisy_common.cpp ****     if(adc_user_name == jack_8_user_name) return in_8_adc_chan;
 343              		.loc 1 62 50 is_stmt 0 view .LVU75
 344 0056 D0F8E801 		ldr	r0, [r0, #488]
 345              	.LVL33:
  62:daisy_common.cpp ****     if(adc_user_name == jack_8_user_name) return in_8_adc_chan;
 346              		.loc 1 62 50 view .LVU76
 347 005a 7047     		bx	lr
 348              	.LVL34:
 349              	.L31:
  62:daisy_common.cpp ****     if(adc_user_name == jack_8_user_name) return in_8_adc_chan;
 350              		.loc 1 62 50 view .LVU77
 351              	.LBE94:
 352              	.LBE96:
  57:daisy_common.cpp ****     if(adc_user_name == jack_3_user_name) return in_3_adc_chan;
 353              		.loc 1 57 43 is_stmt 1 discriminator 1 view .LVU78
  57:daisy_common.cpp ****     if(adc_user_name == jack_3_user_name) return in_3_adc_chan;
 354              		.loc 1 57 50 is_stmt 0 discriminator 1 view .LVU79
 355 005c D0F8D401 		ldr	r0, [r0, #468]
 356              	.LVL35:
  57:daisy_common.cpp ****     if(adc_user_name == jack_3_user_name) return in_3_adc_chan;
 357              		.loc 1 57 50 discriminator 1 view .LVU80
 358 0060 7047     		bx	lr
 359              	.LVL36:
 360              	.L33:
  59:daisy_common.cpp ****     if(adc_user_name == jack_5_user_name) return in_5_adc_chan;
 361              		.loc 1 59 43 is_stmt 1 discriminator 1 view .LVU81
  59:daisy_common.cpp ****     if(adc_user_name == jack_5_user_name) return in_5_adc_chan;
 362              		.loc 1 59 50 is_stmt 0 discriminator 1 view .LVU82
 363 0062 D0F8DC01 		ldr	r0, [r0, #476]
 364              	.LVL37:
  59:daisy_common.cpp ****     if(adc_user_name == jack_5_user_name) return in_5_adc_chan;
 365              		.loc 1 59 50 discriminator 1 view .LVU83
 366 0066 7047     		bx	lr
 367              	.LVL38:
 368              	.L34:
 369              	.LBB97:
 370              	.LBB95:
  60:daisy_common.cpp ****     if(adc_user_name == jack_6_user_name) return in_6_adc_chan;
 371              		.loc 1 60 43 is_stmt 1 view .LVU84
  60:daisy_common.cpp ****     if(adc_user_name == jack_6_user_name) return in_6_adc_chan;
 372              		.loc 1 60 50 is_stmt 0 view .LVU85
 373 0068 D0F8E001 		ldr	r0, [r0, #480]
 374              	.LVL39:
  60:daisy_common.cpp ****     if(adc_user_name == jack_6_user_name) return in_6_adc_chan;
 375              		.loc 1 60 50 view .LVU86
 376 006c 7047     		bx	lr
 377              	.LVL40:
 378              	.L35:
  61:daisy_common.cpp ****     if(adc_user_name == jack_7_user_name) return in_7_adc_chan;
 379              		.loc 1 61 43 is_stmt 1 view .LVU87
  61:daisy_common.cpp ****     if(adc_user_name == jack_7_user_name) return in_7_adc_chan;
 380              		.loc 1 61 50 is_stmt 0 view .LVU88
 381 006e D0F8E401 		ldr	r0, [r0, #484]
ARM GAS  C:\Users\samue\AppData\Local\Temp\cc4nCvGK.s 			page 10


 382              	.LVL41:
  61:daisy_common.cpp ****     if(adc_user_name == jack_7_user_name) return in_7_adc_chan;
 383              		.loc 1 61 50 view .LVU89
 384 0072 7047     		bx	lr
 385              	.LBE95:
 386              	.LBE97:
 387              		.cfi_endproc
 388              	.LFE4690:
 390              		.section	.text._ZN5daisy11daisyCommon6add_cvEii,"ax",%progbits
 391              		.align	1
 392              		.p2align 2,,3
 393              		.global	_ZN5daisy11daisyCommon6add_cvEii
 394              		.syntax unified
 395              		.thumb
 396              		.thumb_func
 397              		.fpu fpv5-d16
 399              	_ZN5daisy11daisyCommon6add_cvEii:
 400              	.LVL42:
 401              	.LFB4691:
  66:daisy_common.cpp **** 
  67:daisy_common.cpp **** void daisyCommon::add_cv(int user_name, int jack_num)
  68:daisy_common.cpp **** {
 402              		.loc 1 68 1 is_stmt 1 view -0
 403              		.cfi_startproc
 404              		@ args = 0, pretend = 0, frame = 0
 405              		@ frame_needed = 0, uses_anonymous_args = 0
 406              		@ link register save eliminated.
  69:daisy_common.cpp ****     if(jack_num == in_1)
 407              		.loc 1 69 5 view .LVU91
  68:daisy_common.cpp ****     if(jack_num == in_1)
 408              		.loc 1 68 1 is_stmt 0 view .LVU92
 409 0000 10B4     		push	{r4}
 410              		.cfi_def_cfa_offset 4
 411              		.cfi_offset 4, -4
 412              		.loc 1 69 5 view .LVU93
 413 0002 72B9     		cbnz	r2, .L38
  70:daisy_common.cpp ****     {
  71:daisy_common.cpp ****         jack_1_user_name = user_name;
 414              		.loc 1 71 9 is_stmt 1 view .LVU94
  72:daisy_common.cpp ****         in_1_adc_chan = adc_channel_count;
 415              		.loc 1 72 25 is_stmt 0 view .LVU95
 416 0004 D0F8F031 		ldr	r3, [r0, #496]
  73:daisy_common.cpp ****         in_1_mode = adc_enable;
 417              		.loc 1 73 19 view .LVU96
 418 0008 0524     		movs	r4, #5
  71:daisy_common.cpp ****         in_1_adc_chan = adc_channel_count;
 419              		.loc 1 71 26 view .LVU97
 420 000a C0F88011 		str	r1, [r0, #384]
  72:daisy_common.cpp ****         in_1_adc_chan = adc_channel_count;
 421              		.loc 1 72 9 is_stmt 1 view .LVU98
  74:daisy_common.cpp ****         adc_channel_count++;
 422              		.loc 1 74 26 is_stmt 0 view .LVU99
 423 000e 5A1C     		adds	r2, r3, #1
 424              	.LVL43:
  72:daisy_common.cpp ****         in_1_mode = adc_enable;
 425              		.loc 1 72 23 view .LVU100
 426 0010 C0F8D031 		str	r3, [r0, #464]
ARM GAS  C:\Users\samue\AppData\Local\Temp\cc4nCvGK.s 			page 11


  73:daisy_common.cpp ****         adc_channel_count++;
 427              		.loc 1 73 9 is_stmt 1 view .LVU101
  73:daisy_common.cpp ****         adc_channel_count++;
 428              		.loc 1 73 19 is_stmt 0 view .LVU102
 429 0014 C0F8B841 		str	r4, [r0, #440]
 430              		.loc 1 74 9 is_stmt 1 view .LVU103
 431              		.loc 1 74 26 is_stmt 0 view .LVU104
 432 0018 C0F8F021 		str	r2, [r0, #496]
  75:daisy_common.cpp ****     } 
  76:daisy_common.cpp ****     if(jack_num == in_2)
 433              		.loc 1 76 5 is_stmt 1 view .LVU105
  77:daisy_common.cpp ****     {
  78:daisy_common.cpp ****         jack_2_user_name = user_name;
  79:daisy_common.cpp ****         in_2_adc_chan = adc_channel_count;
  80:daisy_common.cpp ****         in_2_mode = adc_enable;
  81:daisy_common.cpp ****         adc_channel_count++; 
  82:daisy_common.cpp ****     } 
  83:daisy_common.cpp ****     if(jack_num == in_3)
 434              		.loc 1 83 5 view .LVU106
  84:daisy_common.cpp ****     {
  85:daisy_common.cpp ****         jack_3_user_name = user_name;
  86:daisy_common.cpp ****         in_3_adc_chan = adc_channel_count;
  87:daisy_common.cpp ****         in_3_mode = adc_enable;
  88:daisy_common.cpp ****         adc_channel_count++;
  89:daisy_common.cpp ****     } 
  90:daisy_common.cpp ****     if(jack_num == gate_1_in_4)
 435              		.loc 1 90 5 view .LVU107
  91:daisy_common.cpp ****     {
  92:daisy_common.cpp ****         jack_4_user_name = user_name;
  93:daisy_common.cpp ****         in_4_adc_chan = adc_channel_count;
  94:daisy_common.cpp ****         gate_1_in_4_mode = adc_enable;
  95:daisy_common.cpp ****         adc_channel_count++;
  96:daisy_common.cpp ****     } 
  97:daisy_common.cpp ****     if(jack_num == in_5)
 436              		.loc 1 97 5 view .LVU108
 437              	.L37:
  98:daisy_common.cpp ****     {
  99:daisy_common.cpp ****         jack_5_user_name = user_name;
 100:daisy_common.cpp ****         in_5_adc_chan = adc_channel_count;
 101:daisy_common.cpp ****         in_5_mode = adc_enable;
 102:daisy_common.cpp ****         adc_channel_count++;
 103:daisy_common.cpp ****     } 
 104:daisy_common.cpp ****     if(jack_num == in_6)
 105:daisy_common.cpp ****     {
 106:daisy_common.cpp ****         jack_6_user_name = user_name;
 107:daisy_common.cpp ****         in_6_adc_chan = adc_channel_count;
 108:daisy_common.cpp ****         in_6_mode = adc_enable;
 109:daisy_common.cpp ****         adc_channel_count++;
 110:daisy_common.cpp ****     } 
 111:daisy_common.cpp ****     if(jack_num == in_7)
 112:daisy_common.cpp ****     {
 113:daisy_common.cpp ****         jack_7_user_name = user_name;
 114:daisy_common.cpp ****         in_7_adc_chan = adc_channel_count;
 115:daisy_common.cpp ****         in_7_mode = adc_enable;
 116:daisy_common.cpp ****         adc_channel_count++;
 117:daisy_common.cpp ****     } 
 118:daisy_common.cpp ****     if(jack_num == gate_2_in_8)
ARM GAS  C:\Users\samue\AppData\Local\Temp\cc4nCvGK.s 			page 12


 119:daisy_common.cpp ****     {
 120:daisy_common.cpp ****         jack_8_user_name = user_name;
 121:daisy_common.cpp ****         in_8_adc_chan = adc_channel_count;
 122:daisy_common.cpp ****         gate_2_in_8_mode = adc_enable;
 123:daisy_common.cpp ****         adc_channel_count++;
 124:daisy_common.cpp ****     } 
 125:daisy_common.cpp ****     if(jack_num == out_1)
 126:daisy_common.cpp ****     {
 127:daisy_common.cpp ****         out_1_user_name = user_name;
 128:daisy_common.cpp ****         out_1_mode = dac_enable;
 129:daisy_common.cpp ****     }
 130:daisy_common.cpp ****     if(jack_num == out_2)
 131:daisy_common.cpp ****     {
 132:daisy_common.cpp ****         out_2_user_name = user_name;
 133:daisy_common.cpp ****         out_2_mode = dac_enable;
 134:daisy_common.cpp ****     }
 135:daisy_common.cpp **** }
 438              		.loc 1 135 1 is_stmt 0 view .LVU109
 439 001c 5DF8044B 		ldr	r4, [sp], #4
 440              		.cfi_remember_state
 441              		.cfi_restore 4
 442              		.cfi_def_cfa_offset 0
 443 0020 7047     		bx	lr
 444              	.LVL44:
 445              	.L38:
 446              		.cfi_restore_state
  76:daisy_common.cpp ****     {
 447              		.loc 1 76 5 is_stmt 1 view .LVU110
 448 0022 012A     		cmp	r2, #1
 449 0024 0ED1     		bne	.L65
  78:daisy_common.cpp ****         in_2_adc_chan = adc_channel_count;
 450              		.loc 1 78 9 view .LVU111
  79:daisy_common.cpp ****         in_2_mode = adc_enable;
 451              		.loc 1 79 25 is_stmt 0 view .LVU112
 452 0026 D0F8F031 		ldr	r3, [r0, #496]
  80:daisy_common.cpp ****         adc_channel_count++; 
 453              		.loc 1 80 19 view .LVU113
 454 002a 0524     		movs	r4, #5
  78:daisy_common.cpp ****         in_2_adc_chan = adc_channel_count;
 455              		.loc 1 78 26 view .LVU114
 456 002c C0F88411 		str	r1, [r0, #388]
  79:daisy_common.cpp ****         in_2_mode = adc_enable;
 457              		.loc 1 79 9 is_stmt 1 view .LVU115
  81:daisy_common.cpp ****     } 
 458              		.loc 1 81 26 is_stmt 0 view .LVU116
 459 0030 5A1C     		adds	r2, r3, #1
 460              	.LVL45:
  80:daisy_common.cpp ****         adc_channel_count++; 
 461              		.loc 1 80 19 view .LVU117
 462 0032 C0F8BC41 		str	r4, [r0, #444]
  79:daisy_common.cpp ****         in_2_mode = adc_enable;
 463              		.loc 1 79 23 view .LVU118
 464 0036 C0F8D431 		str	r3, [r0, #468]
  80:daisy_common.cpp ****         adc_channel_count++; 
 465              		.loc 1 80 9 is_stmt 1 view .LVU119
  81:daisy_common.cpp ****     } 
 466              		.loc 1 81 9 view .LVU120
ARM GAS  C:\Users\samue\AppData\Local\Temp\cc4nCvGK.s 			page 13


 467              		.loc 1 135 1 is_stmt 0 view .LVU121
 468 003a 5DF8044B 		ldr	r4, [sp], #4
 469              		.cfi_remember_state
 470              		.cfi_restore 4
 471              		.cfi_def_cfa_offset 0
  81:daisy_common.cpp ****     } 
 472              		.loc 1 81 26 view .LVU122
 473 003e C0F8F021 		str	r2, [r0, #496]
  83:daisy_common.cpp ****     {
 474              		.loc 1 83 5 is_stmt 1 view .LVU123
  90:daisy_common.cpp ****     {
 475              		.loc 1 90 5 view .LVU124
  97:daisy_common.cpp ****     {
 476              		.loc 1 97 5 view .LVU125
 477              		.loc 1 135 1 is_stmt 0 view .LVU126
 478 0042 7047     		bx	lr
 479              	.LVL46:
 480              	.L65:
 481              		.cfi_restore_state
  83:daisy_common.cpp ****     {
 482              		.loc 1 83 5 is_stmt 1 view .LVU127
 483 0044 022A     		cmp	r2, #2
 484 0046 0ED1     		bne	.L66
  85:daisy_common.cpp ****         in_3_adc_chan = adc_channel_count;
 485              		.loc 1 85 9 view .LVU128
  86:daisy_common.cpp ****         in_3_mode = adc_enable;
 486              		.loc 1 86 25 is_stmt 0 view .LVU129
 487 0048 D0F8F031 		ldr	r3, [r0, #496]
  87:daisy_common.cpp ****         adc_channel_count++;
 488              		.loc 1 87 19 view .LVU130
 489 004c 0524     		movs	r4, #5
  85:daisy_common.cpp ****         in_3_adc_chan = adc_channel_count;
 490              		.loc 1 85 26 view .LVU131
 491 004e C0F88811 		str	r1, [r0, #392]
  86:daisy_common.cpp ****         in_3_mode = adc_enable;
 492              		.loc 1 86 9 is_stmt 1 view .LVU132
  88:daisy_common.cpp ****     } 
 493              		.loc 1 88 26 is_stmt 0 view .LVU133
 494 0052 5A1C     		adds	r2, r3, #1
 495              	.LVL47:
  87:daisy_common.cpp ****         adc_channel_count++;
 496              		.loc 1 87 19 view .LVU134
 497 0054 C0F8C041 		str	r4, [r0, #448]
  86:daisy_common.cpp ****         in_3_mode = adc_enable;
 498              		.loc 1 86 23 view .LVU135
 499 0058 C0F8D831 		str	r3, [r0, #472]
  87:daisy_common.cpp ****         adc_channel_count++;
 500              		.loc 1 87 9 is_stmt 1 view .LVU136
  88:daisy_common.cpp ****     } 
 501              		.loc 1 88 9 view .LVU137
 502              		.loc 1 135 1 is_stmt 0 view .LVU138
 503 005c 5DF8044B 		ldr	r4, [sp], #4
 504              		.cfi_remember_state
 505              		.cfi_restore 4
 506              		.cfi_def_cfa_offset 0
  88:daisy_common.cpp ****     } 
 507              		.loc 1 88 26 view .LVU139
ARM GAS  C:\Users\samue\AppData\Local\Temp\cc4nCvGK.s 			page 14


 508 0060 C0F8F021 		str	r2, [r0, #496]
  90:daisy_common.cpp ****     {
 509              		.loc 1 90 5 is_stmt 1 view .LVU140
  97:daisy_common.cpp ****     {
 510              		.loc 1 97 5 view .LVU141
 104:daisy_common.cpp ****     {
 511              		.loc 1 104 5 view .LVU142
 512              		.loc 1 135 1 is_stmt 0 view .LVU143
 513 0064 7047     		bx	lr
 514              	.LVL48:
 515              	.L66:
 516              		.cfi_restore_state
  90:daisy_common.cpp ****     {
 517              		.loc 1 90 5 is_stmt 1 view .LVU144
 518 0066 032A     		cmp	r2, #3
 519 0068 0ED1     		bne	.L67
  92:daisy_common.cpp ****         in_4_adc_chan = adc_channel_count;
 520              		.loc 1 92 9 view .LVU145
  93:daisy_common.cpp ****         gate_1_in_4_mode = adc_enable;
 521              		.loc 1 93 25 is_stmt 0 view .LVU146
 522 006a D0F8F031 		ldr	r3, [r0, #496]
  94:daisy_common.cpp ****         adc_channel_count++;
 523              		.loc 1 94 26 view .LVU147
 524 006e 0524     		movs	r4, #5
  92:daisy_common.cpp ****         in_4_adc_chan = adc_channel_count;
 525              		.loc 1 92 26 view .LVU148
 526 0070 C0F88C11 		str	r1, [r0, #396]
  93:daisy_common.cpp ****         gate_1_in_4_mode = adc_enable;
 527              		.loc 1 93 9 is_stmt 1 view .LVU149
  95:daisy_common.cpp ****     } 
 528              		.loc 1 95 26 is_stmt 0 view .LVU150
 529 0074 5A1C     		adds	r2, r3, #1
 530              	.LVL49:
  94:daisy_common.cpp ****         adc_channel_count++;
 531              		.loc 1 94 26 view .LVU151
 532 0076 C0F8B041 		str	r4, [r0, #432]
  93:daisy_common.cpp ****         gate_1_in_4_mode = adc_enable;
 533              		.loc 1 93 23 view .LVU152
 534 007a C0F8DC31 		str	r3, [r0, #476]
  94:daisy_common.cpp ****         adc_channel_count++;
 535              		.loc 1 94 9 is_stmt 1 view .LVU153
  95:daisy_common.cpp ****     } 
 536              		.loc 1 95 9 view .LVU154
 537              		.loc 1 135 1 is_stmt 0 view .LVU155
 538 007e 5DF8044B 		ldr	r4, [sp], #4
 539              		.cfi_remember_state
 540              		.cfi_restore 4
 541              		.cfi_def_cfa_offset 0
  95:daisy_common.cpp ****     } 
 542              		.loc 1 95 26 view .LVU156
 543 0082 C0F8F021 		str	r2, [r0, #496]
  97:daisy_common.cpp ****     {
 544              		.loc 1 97 5 is_stmt 1 view .LVU157
 104:daisy_common.cpp ****     {
 545              		.loc 1 104 5 view .LVU158
 111:daisy_common.cpp ****     {
 546              		.loc 1 111 5 view .LVU159
ARM GAS  C:\Users\samue\AppData\Local\Temp\cc4nCvGK.s 			page 15


 547              		.loc 1 135 1 is_stmt 0 view .LVU160
 548 0086 7047     		bx	lr
 549              	.LVL50:
 550              	.L67:
 551              		.cfi_restore_state
  97:daisy_common.cpp ****     {
 552              		.loc 1 97 5 is_stmt 1 view .LVU161
 553 0088 042A     		cmp	r2, #4
 554 008a 0CD1     		bne	.L68
  99:daisy_common.cpp ****         in_5_adc_chan = adc_channel_count;
 555              		.loc 1 99 9 view .LVU162
 100:daisy_common.cpp ****         in_5_mode = adc_enable;
 556              		.loc 1 100 25 is_stmt 0 view .LVU163
 557 008c D0F8F031 		ldr	r3, [r0, #496]
 101:daisy_common.cpp ****         adc_channel_count++;
 558              		.loc 1 101 19 view .LVU164
 559 0090 0524     		movs	r4, #5
  99:daisy_common.cpp ****         in_5_adc_chan = adc_channel_count;
 560              		.loc 1 99 26 view .LVU165
 561 0092 C0F89011 		str	r1, [r0, #400]
 100:daisy_common.cpp ****         in_5_mode = adc_enable;
 562              		.loc 1 100 9 is_stmt 1 view .LVU166
 102:daisy_common.cpp ****     } 
 563              		.loc 1 102 26 is_stmt 0 view .LVU167
 564 0096 5A1C     		adds	r2, r3, #1
 565              	.LVL51:
 100:daisy_common.cpp ****         in_5_mode = adc_enable;
 566              		.loc 1 100 23 view .LVU168
 567 0098 C0F8E031 		str	r3, [r0, #480]
 101:daisy_common.cpp ****         adc_channel_count++;
 568              		.loc 1 101 9 is_stmt 1 view .LVU169
 101:daisy_common.cpp ****         adc_channel_count++;
 569              		.loc 1 101 19 is_stmt 0 view .LVU170
 570 009c C0F8C441 		str	r4, [r0, #452]
 102:daisy_common.cpp ****     } 
 571              		.loc 1 102 9 is_stmt 1 view .LVU171
 102:daisy_common.cpp ****     } 
 572              		.loc 1 102 26 is_stmt 0 view .LVU172
 573 00a0 C0F8F021 		str	r2, [r0, #496]
 104:daisy_common.cpp ****     {
 574              		.loc 1 104 5 is_stmt 1 view .LVU173
 111:daisy_common.cpp ****     {
 575              		.loc 1 111 5 view .LVU174
 118:daisy_common.cpp ****     {
 576              		.loc 1 118 5 view .LVU175
 125:daisy_common.cpp ****     {
 577              		.loc 1 125 5 view .LVU176
 578 00a4 BAE7     		b	.L37
 579              	.LVL52:
 580              	.L68:
 104:daisy_common.cpp ****     {
 581              		.loc 1 104 5 view .LVU177
 582 00a6 052A     		cmp	r2, #5
 583 00a8 0BD1     		bne	.L69
 106:daisy_common.cpp ****         in_6_adc_chan = adc_channel_count;
 584              		.loc 1 106 9 view .LVU178
 107:daisy_common.cpp ****         in_6_mode = adc_enable;
ARM GAS  C:\Users\samue\AppData\Local\Temp\cc4nCvGK.s 			page 16


 585              		.loc 1 107 25 is_stmt 0 view .LVU179
 586 00aa D0F8F031 		ldr	r3, [r0, #496]
 108:daisy_common.cpp ****         adc_channel_count++;
 587              		.loc 1 108 19 view .LVU180
 588 00ae C0F8C821 		str	r2, [r0, #456]
 109:daisy_common.cpp ****     } 
 589              		.loc 1 109 26 view .LVU181
 590 00b2 5A1C     		adds	r2, r3, #1
 591              	.LVL53:
 106:daisy_common.cpp ****         in_6_adc_chan = adc_channel_count;
 592              		.loc 1 106 26 view .LVU182
 593 00b4 C0F89411 		str	r1, [r0, #404]
 107:daisy_common.cpp ****         in_6_mode = adc_enable;
 594              		.loc 1 107 9 is_stmt 1 view .LVU183
 107:daisy_common.cpp ****         in_6_mode = adc_enable;
 595              		.loc 1 107 23 is_stmt 0 view .LVU184
 596 00b8 C0F8E431 		str	r3, [r0, #484]
 108:daisy_common.cpp ****         adc_channel_count++;
 597              		.loc 1 108 9 is_stmt 1 view .LVU185
 109:daisy_common.cpp ****     } 
 598              		.loc 1 109 9 view .LVU186
 109:daisy_common.cpp ****     } 
 599              		.loc 1 109 26 is_stmt 0 view .LVU187
 600 00bc C0F8F021 		str	r2, [r0, #496]
 111:daisy_common.cpp ****     {
 601              		.loc 1 111 5 is_stmt 1 view .LVU188
 118:daisy_common.cpp ****     {
 602              		.loc 1 118 5 view .LVU189
 125:daisy_common.cpp ****     {
 603              		.loc 1 125 5 view .LVU190
 130:daisy_common.cpp ****     {
 604              		.loc 1 130 5 view .LVU191
 605 00c0 ACE7     		b	.L37
 606              	.LVL54:
 607              	.L69:
 111:daisy_common.cpp ****     {
 608              		.loc 1 111 5 view .LVU192
 609 00c2 062A     		cmp	r2, #6
 610 00c4 0CD1     		bne	.L70
 113:daisy_common.cpp ****         in_7_adc_chan = adc_channel_count;
 611              		.loc 1 113 9 view .LVU193
 114:daisy_common.cpp ****         in_7_mode = adc_enable;
 612              		.loc 1 114 25 is_stmt 0 view .LVU194
 613 00c6 D0F8F031 		ldr	r3, [r0, #496]
 115:daisy_common.cpp ****         adc_channel_count++;
 614              		.loc 1 115 19 view .LVU195
 615 00ca 0524     		movs	r4, #5
 113:daisy_common.cpp ****         in_7_adc_chan = adc_channel_count;
 616              		.loc 1 113 26 view .LVU196
 617 00cc C0F89811 		str	r1, [r0, #408]
 114:daisy_common.cpp ****         in_7_mode = adc_enable;
 618              		.loc 1 114 9 is_stmt 1 view .LVU197
 116:daisy_common.cpp ****     } 
 619              		.loc 1 116 26 is_stmt 0 view .LVU198
 620 00d0 5A1C     		adds	r2, r3, #1
 621              	.LVL55:
 114:daisy_common.cpp ****         in_7_mode = adc_enable;
ARM GAS  C:\Users\samue\AppData\Local\Temp\cc4nCvGK.s 			page 17


 622              		.loc 1 114 23 view .LVU199
 623 00d2 C0F8E831 		str	r3, [r0, #488]
 115:daisy_common.cpp ****         adc_channel_count++;
 624              		.loc 1 115 9 is_stmt 1 view .LVU200
 115:daisy_common.cpp ****         adc_channel_count++;
 625              		.loc 1 115 19 is_stmt 0 view .LVU201
 626 00d6 C0F8CC41 		str	r4, [r0, #460]
 116:daisy_common.cpp ****     } 
 627              		.loc 1 116 9 is_stmt 1 view .LVU202
 116:daisy_common.cpp ****     } 
 628              		.loc 1 116 26 is_stmt 0 view .LVU203
 629 00da C0F8F021 		str	r2, [r0, #496]
 118:daisy_common.cpp ****     {
 630              		.loc 1 118 5 is_stmt 1 view .LVU204
 125:daisy_common.cpp ****     {
 631              		.loc 1 125 5 view .LVU205
 130:daisy_common.cpp ****     {
 632              		.loc 1 130 5 view .LVU206
 633 00de 9DE7     		b	.L37
 634              	.LVL56:
 635              	.L70:
 118:daisy_common.cpp ****     {
 636              		.loc 1 118 5 view .LVU207
 637 00e0 072A     		cmp	r2, #7
 638 00e2 0CD1     		bne	.L71
 120:daisy_common.cpp ****         in_8_adc_chan = adc_channel_count;
 639              		.loc 1 120 9 view .LVU208
 121:daisy_common.cpp ****         gate_2_in_8_mode = adc_enable;
 640              		.loc 1 121 25 is_stmt 0 view .LVU209
 641 00e4 D0F8F031 		ldr	r3, [r0, #496]
 122:daisy_common.cpp ****         adc_channel_count++;
 642              		.loc 1 122 26 view .LVU210
 643 00e8 0524     		movs	r4, #5
 120:daisy_common.cpp ****         in_8_adc_chan = adc_channel_count;
 644              		.loc 1 120 26 view .LVU211
 645 00ea C0F89C11 		str	r1, [r0, #412]
 121:daisy_common.cpp ****         gate_2_in_8_mode = adc_enable;
 646              		.loc 1 121 9 is_stmt 1 view .LVU212
 123:daisy_common.cpp ****     } 
 647              		.loc 1 123 26 is_stmt 0 view .LVU213
 648 00ee 5A1C     		adds	r2, r3, #1
 649              	.LVL57:
 121:daisy_common.cpp ****         gate_2_in_8_mode = adc_enable;
 650              		.loc 1 121 23 view .LVU214
 651 00f0 C0F8EC31 		str	r3, [r0, #492]
 122:daisy_common.cpp ****         adc_channel_count++;
 652              		.loc 1 122 9 is_stmt 1 view .LVU215
 122:daisy_common.cpp ****         adc_channel_count++;
 653              		.loc 1 122 26 is_stmt 0 view .LVU216
 654 00f4 C0F8B441 		str	r4, [r0, #436]
 123:daisy_common.cpp ****     } 
 655              		.loc 1 123 9 is_stmt 1 view .LVU217
 123:daisy_common.cpp ****     } 
 656              		.loc 1 123 26 is_stmt 0 view .LVU218
 657 00f8 C0F8F021 		str	r2, [r0, #496]
 125:daisy_common.cpp ****     {
 658              		.loc 1 125 5 is_stmt 1 view .LVU219
ARM GAS  C:\Users\samue\AppData\Local\Temp\cc4nCvGK.s 			page 18


 130:daisy_common.cpp ****     {
 659              		.loc 1 130 5 view .LVU220
 660 00fc 8EE7     		b	.L37
 661              	.LVL58:
 662              	.L71:
 125:daisy_common.cpp ****     {
 663              		.loc 1 125 5 view .LVU221
 664 00fe 082A     		cmp	r2, #8
 665 0100 05D1     		bne	.L72
 127:daisy_common.cpp ****         out_1_mode = dac_enable;
 666              		.loc 1 127 9 view .LVU222
 128:daisy_common.cpp ****     }
 667              		.loc 1 128 20 is_stmt 0 view .LVU223
 668 0102 0123     		movs	r3, #1
 127:daisy_common.cpp ****         out_1_mode = dac_enable;
 669              		.loc 1 127 25 view .LVU224
 670 0104 C0F8A011 		str	r1, [r0, #416]
 128:daisy_common.cpp ****     }
 671              		.loc 1 128 9 is_stmt 1 view .LVU225
 128:daisy_common.cpp ****     }
 672              		.loc 1 128 20 is_stmt 0 view .LVU226
 673 0108 C0F8A831 		str	r3, [r0, #424]
 130:daisy_common.cpp ****     {
 674              		.loc 1 130 5 is_stmt 1 view .LVU227
 675 010c 86E7     		b	.L37
 676              	.L72:
 130:daisy_common.cpp ****     {
 677              		.loc 1 130 5 view .LVU228
 678 010e 092A     		cmp	r2, #9
 679 0110 84D1     		bne	.L37
 132:daisy_common.cpp ****         out_2_mode = dac_enable;
 680              		.loc 1 132 9 view .LVU229
 133:daisy_common.cpp ****     }
 681              		.loc 1 133 20 is_stmt 0 view .LVU230
 682 0112 0123     		movs	r3, #1
 132:daisy_common.cpp ****         out_2_mode = dac_enable;
 683              		.loc 1 132 25 view .LVU231
 684 0114 C0F8A411 		str	r1, [r0, #420]
 133:daisy_common.cpp ****     }
 685              		.loc 1 133 9 is_stmt 1 view .LVU232
 133:daisy_common.cpp ****     }
 686              		.loc 1 133 20 is_stmt 0 view .LVU233
 687 0118 C0F8AC31 		str	r3, [r0, #428]
 688              		.loc 1 135 1 view .LVU234
 689 011c 7EE7     		b	.L37
 690              		.cfi_endproc
 691              	.LFE4691:
 693 011e 00BF     		.section	.text._ZN5daisy11daisyCommon16add_dual_controlEiii,"ax",%progbits
 694              		.align	1
 695              		.p2align 2,,3
 696              		.global	_ZN5daisy11daisyCommon16add_dual_controlEiii
 697              		.syntax unified
 698              		.thumb
 699              		.thumb_func
 700              		.fpu fpv5-d16
 702              	_ZN5daisy11daisyCommon16add_dual_controlEiii:
 703              	.LVL59:
ARM GAS  C:\Users\samue\AppData\Local\Temp\cc4nCvGK.s 			page 19


 704              	.LFB4687:
  35:daisy_common.cpp ****     add_cv(user_name, jack_num);
 705              		.loc 1 35 1 is_stmt 1 view -0
 706              		.cfi_startproc
 707              		@ args = 0, pretend = 0, frame = 0
 708              		@ frame_needed = 0, uses_anonymous_args = 0
  36:daisy_common.cpp ****     add_knob(user_name, knob_num);
 709              		.loc 1 36 5 view .LVU236
  35:daisy_common.cpp ****     add_cv(user_name, jack_num);
 710              		.loc 1 35 1 is_stmt 0 view .LVU237
 711 0000 70B5     		push	{r4, r5, r6, lr}
 712              		.cfi_def_cfa_offset 16
 713              		.cfi_offset 4, -16
 714              		.cfi_offset 5, -12
 715              		.cfi_offset 6, -8
 716              		.cfi_offset 14, -4
  35:daisy_common.cpp ****     add_cv(user_name, jack_num);
 717              		.loc 1 35 1 view .LVU238
 718 0002 1C46     		mov	r4, r3
 719 0004 0546     		mov	r5, r0
  36:daisy_common.cpp ****     add_knob(user_name, knob_num);
 720              		.loc 1 36 11 view .LVU239
 721 0006 FFF7FEFF 		bl	_ZN5daisy11daisyCommon6add_cvEii
 722              	.LVL60:
  37:daisy_common.cpp **** }
 723              		.loc 1 37 5 is_stmt 1 view .LVU240
 724              	.LBB100:
 725              	.LBI100:
 136:daisy_common.cpp **** 
 137:daisy_common.cpp **** void daisyCommon::add_gate_in(int user_name, int jack_num)
 138:daisy_common.cpp **** {
 139:daisy_common.cpp ****     if(jack_num == in_1)
 140:daisy_common.cpp ****     {
 141:daisy_common.cpp ****         jack_1_user_name = user_name;
 142:daisy_common.cpp ****         in_1_mode = adc_enable;
 143:daisy_common.cpp ****         add_cv(user_name, in_1);
 144:daisy_common.cpp ****     } 
 145:daisy_common.cpp ****     if(jack_num == in_2)
 146:daisy_common.cpp ****     {
 147:daisy_common.cpp ****         jack_2_user_name = user_name;
 148:daisy_common.cpp ****         in_2_mode = adc_enable;
 149:daisy_common.cpp ****         add_cv(user_name, in_2); 
 150:daisy_common.cpp ****     } 
 151:daisy_common.cpp ****     if(jack_num == in_3)
 152:daisy_common.cpp ****     {
 153:daisy_common.cpp ****         jack_3_user_name = user_name;
 154:daisy_common.cpp ****         in_3_mode = adc_enable;
 155:daisy_common.cpp ****         add_cv(user_name, in_3);
 156:daisy_common.cpp ****     } 
 157:daisy_common.cpp ****     if(jack_num == gate_1_in_4)
 158:daisy_common.cpp ****     {
 159:daisy_common.cpp ****         jack_4_user_name = user_name;
 160:daisy_common.cpp ****         gate_1_in_4_mode = adc_enable;
 161:daisy_common.cpp ****         add_cv(user_name, gate_1_in_4);
 162:daisy_common.cpp ****     } 
 163:daisy_common.cpp ****     if(jack_num == in_5)
 164:daisy_common.cpp ****     {
ARM GAS  C:\Users\samue\AppData\Local\Temp\cc4nCvGK.s 			page 20


 165:daisy_common.cpp ****         jack_5_user_name = user_name;
 166:daisy_common.cpp ****         in_5_mode = adc_enable;
 167:daisy_common.cpp ****         add_cv(user_name, in_5);
 168:daisy_common.cpp ****     } 
 169:daisy_common.cpp ****     if(jack_num == in_6)
 170:daisy_common.cpp ****     {
 171:daisy_common.cpp ****         jack_6_user_name = user_name;
 172:daisy_common.cpp ****         in_6_mode = adc_enable;
 173:daisy_common.cpp ****         add_cv(user_name, in_6);
 174:daisy_common.cpp ****     } 
 175:daisy_common.cpp ****     if(jack_num == in_7)
 176:daisy_common.cpp ****     {
 177:daisy_common.cpp ****         jack_7_user_name = user_name;
 178:daisy_common.cpp ****         in_7_mode = adc_enable;
 179:daisy_common.cpp ****         add_cv(user_name, in_7);
 180:daisy_common.cpp ****     } 
 181:daisy_common.cpp ****     if(jack_num == gate_2_in_8)
 182:daisy_common.cpp ****     {
 183:daisy_common.cpp ****         jack_8_user_name = user_name;
 184:daisy_common.cpp ****         gate_2_in_8_mode = adc_enable;
 185:daisy_common.cpp ****         add_cv(user_name, gate_2_in_8);
 186:daisy_common.cpp ****     } 
 187:daisy_common.cpp **** }
 188:daisy_common.cpp **** 
 189:daisy_common.cpp **** void daisyCommon::print_knob()
 190:daisy_common.cpp **** {
 191:daisy_common.cpp ****     seed.PrintLine("knob_1_user: %d", knob_1_user_name);
 192:daisy_common.cpp ****     seed.PrintLine("knob_2_user: %d", knob_2_user_name);
 193:daisy_common.cpp ****     seed.PrintLine("knob_3_user: %d", knob_3_user_name);
 194:daisy_common.cpp ****     seed.PrintLine("knob_4_user: %d", knob_4_user_name);
 195:daisy_common.cpp ****     seed.PrintLine("knob_5_user: %d", knob_5_user_name);
 196:daisy_common.cpp ****     seed.PrintLine("knob_6_user: %d", knob_6_user_name);
 197:daisy_common.cpp ****     seed.PrintLine("knob_7_user: %d", knob_7_user_name);
 198:daisy_common.cpp ****     seed.PrintLine("knob_8_user: %d", knob_8_user_name);
 199:daisy_common.cpp **** }
 200:daisy_common.cpp **** 
 201:daisy_common.cpp **** float daisyCommon::get_knob(int user_name)
 202:daisy_common.cpp **** {
 203:daisy_common.cpp ****     return seed.adc.GetMuxFloat(get_mux(user_name), get_knob_adc_chan(user_name))*-1+1;
 204:daisy_common.cpp **** }
 205:daisy_common.cpp **** void daisyCommon::add_knob(int user_name, int knob_num)
 726              		.loc 1 205 6 view .LVU241
 727              	.LBB101:
 206:daisy_common.cpp **** {
 207:daisy_common.cpp ****     if(knob_num == knob_1) knob_1_user_name = user_name;
 728              		.loc 1 207 5 view .LVU242
 729 000a 14B9     		cbnz	r4, .L74
 730              		.loc 1 207 28 view .LVU243
 731              		.loc 1 207 45 is_stmt 0 view .LVU244
 732 000c C5F86011 		str	r1, [r5, #352]
 208:daisy_common.cpp ****     if(knob_num == knob_2) knob_2_user_name = user_name;
 733              		.loc 1 208 5 is_stmt 1 view .LVU245
 209:daisy_common.cpp ****     if(knob_num == knob_3) knob_3_user_name = user_name;
 734              		.loc 1 209 5 view .LVU246
 210:daisy_common.cpp ****     if(knob_num == knob_4) knob_4_user_name = user_name;
 735              		.loc 1 210 5 view .LVU247
 211:daisy_common.cpp ****     if(knob_num == knob_5) knob_5_user_name = user_name;
ARM GAS  C:\Users\samue\AppData\Local\Temp\cc4nCvGK.s 			page 21


 736              		.loc 1 211 5 view .LVU248
 737              	.L73:
 738              		.loc 1 211 5 is_stmt 0 view .LVU249
 739              	.LBE101:
 740              	.LBE100:
  38:daisy_common.cpp **** float daisyCommon::get_dual_control(int user_name)
 741              		.loc 1 38 1 view .LVU250
 742 0010 70BD     		pop	{r4, r5, r6, pc}
 743              	.LVL61:
 744              	.L74:
 745              	.LBB109:
 746              	.LBB102:
 208:daisy_common.cpp ****     if(knob_num == knob_3) knob_3_user_name = user_name;
 747              		.loc 1 208 5 is_stmt 1 view .LVU251
 748 0012 012C     		cmp	r4, #1
 749 0014 02D1     		bne	.L95
 208:daisy_common.cpp ****     if(knob_num == knob_3) knob_3_user_name = user_name;
 750              		.loc 1 208 28 view .LVU252
 208:daisy_common.cpp ****     if(knob_num == knob_3) knob_3_user_name = user_name;
 751              		.loc 1 208 45 is_stmt 0 view .LVU253
 752 0016 C5F86411 		str	r1, [r5, #356]
 209:daisy_common.cpp ****     if(knob_num == knob_4) knob_4_user_name = user_name;
 753              		.loc 1 209 5 is_stmt 1 view .LVU254
 210:daisy_common.cpp ****     if(knob_num == knob_5) knob_5_user_name = user_name;
 754              		.loc 1 210 5 view .LVU255
 755              		.loc 1 211 5 view .LVU256
 756              	.LBE102:
 757              	.LBE109:
  38:daisy_common.cpp **** float daisyCommon::get_dual_control(int user_name)
 758              		.loc 1 38 1 is_stmt 0 view .LVU257
 759 001a 70BD     		pop	{r4, r5, r6, pc}
 760              	.LVL62:
 761              	.L95:
 762              	.LBB110:
 763              	.LBB103:
 209:daisy_common.cpp ****     if(knob_num == knob_4) knob_4_user_name = user_name;
 764              		.loc 1 209 5 is_stmt 1 view .LVU258
 765 001c 022C     		cmp	r4, #2
 766 001e 02D1     		bne	.L96
 209:daisy_common.cpp ****     if(knob_num == knob_4) knob_4_user_name = user_name;
 767              		.loc 1 209 28 view .LVU259
 209:daisy_common.cpp ****     if(knob_num == knob_4) knob_4_user_name = user_name;
 768              		.loc 1 209 45 is_stmt 0 view .LVU260
 769 0020 C5F86811 		str	r1, [r5, #360]
 210:daisy_common.cpp ****     if(knob_num == knob_5) knob_5_user_name = user_name;
 770              		.loc 1 210 5 is_stmt 1 view .LVU261
 771              		.loc 1 211 5 view .LVU262
 212:daisy_common.cpp ****     if(knob_num == knob_6) knob_6_user_name = user_name;
 772              		.loc 1 212 5 view .LVU263
 773              	.LBE103:
 774              	.LBE110:
  38:daisy_common.cpp **** float daisyCommon::get_dual_control(int user_name)
 775              		.loc 1 38 1 is_stmt 0 view .LVU264
 776 0024 70BD     		pop	{r4, r5, r6, pc}
 777              	.LVL63:
 778              	.L96:
 779              	.LBB111:
ARM GAS  C:\Users\samue\AppData\Local\Temp\cc4nCvGK.s 			page 22


 780              	.LBB104:
 210:daisy_common.cpp ****     if(knob_num == knob_5) knob_5_user_name = user_name;
 781              		.loc 1 210 5 is_stmt 1 view .LVU265
 782 0026 032C     		cmp	r4, #3
 783 0028 02D1     		bne	.L97
 210:daisy_common.cpp ****     if(knob_num == knob_5) knob_5_user_name = user_name;
 784              		.loc 1 210 28 view .LVU266
 210:daisy_common.cpp ****     if(knob_num == knob_5) knob_5_user_name = user_name;
 785              		.loc 1 210 45 is_stmt 0 view .LVU267
 786 002a C5F86C11 		str	r1, [r5, #364]
 211:daisy_common.cpp ****     if(knob_num == knob_6) knob_6_user_name = user_name;
 787              		.loc 1 211 5 is_stmt 1 view .LVU268
 788              		.loc 1 212 5 view .LVU269
 213:daisy_common.cpp ****     if(knob_num == knob_7) knob_7_user_name = user_name;
 789              		.loc 1 213 5 view .LVU270
 790              	.LBE104:
 791              	.LBE111:
  38:daisy_common.cpp **** float daisyCommon::get_dual_control(int user_name)
 792              		.loc 1 38 1 is_stmt 0 view .LVU271
 793 002e 70BD     		pop	{r4, r5, r6, pc}
 794              	.LVL64:
 795              	.L97:
 796              	.LBB112:
 797              	.LBB105:
 211:daisy_common.cpp ****     if(knob_num == knob_6) knob_6_user_name = user_name;
 798              		.loc 1 211 5 is_stmt 1 view .LVU272
 799 0030 042C     		cmp	r4, #4
 800 0032 02D1     		bne	.L98
 211:daisy_common.cpp ****     if(knob_num == knob_6) knob_6_user_name = user_name;
 801              		.loc 1 211 28 view .LVU273
 211:daisy_common.cpp ****     if(knob_num == knob_6) knob_6_user_name = user_name;
 802              		.loc 1 211 45 is_stmt 0 view .LVU274
 803 0034 C5F87011 		str	r1, [r5, #368]
 212:daisy_common.cpp ****     if(knob_num == knob_7) knob_7_user_name = user_name;
 804              		.loc 1 212 5 is_stmt 1 view .LVU275
 805              		.loc 1 213 5 view .LVU276
 214:daisy_common.cpp ****     if(knob_num == knob_8) knob_8_user_name = user_name;
 806              		.loc 1 214 5 view .LVU277
 807              	.LBE105:
 808              	.LBE112:
  38:daisy_common.cpp **** float daisyCommon::get_dual_control(int user_name)
 809              		.loc 1 38 1 is_stmt 0 view .LVU278
 810 0038 70BD     		pop	{r4, r5, r6, pc}
 811              	.LVL65:
 812              	.L98:
 813              	.LBB113:
 814              	.LBB106:
 212:daisy_common.cpp ****     if(knob_num == knob_7) knob_7_user_name = user_name;
 815              		.loc 1 212 5 is_stmt 1 view .LVU279
 816 003a 052C     		cmp	r4, #5
 817 003c 02D1     		bne	.L99
 212:daisy_common.cpp ****     if(knob_num == knob_7) knob_7_user_name = user_name;
 818              		.loc 1 212 28 view .LVU280
 212:daisy_common.cpp ****     if(knob_num == knob_7) knob_7_user_name = user_name;
 819              		.loc 1 212 45 is_stmt 0 view .LVU281
 820 003e C5F87411 		str	r1, [r5, #372]
 213:daisy_common.cpp ****     if(knob_num == knob_8) knob_8_user_name = user_name;
ARM GAS  C:\Users\samue\AppData\Local\Temp\cc4nCvGK.s 			page 23


 821              		.loc 1 213 5 is_stmt 1 view .LVU282
 822              		.loc 1 214 5 view .LVU283
 823              	.LBE106:
 824              	.LBE113:
  38:daisy_common.cpp **** float daisyCommon::get_dual_control(int user_name)
 825              		.loc 1 38 1 is_stmt 0 view .LVU284
 826 0042 70BD     		pop	{r4, r5, r6, pc}
 827              	.LVL66:
 828              	.L99:
 829              	.LBB114:
 830              	.LBB107:
 213:daisy_common.cpp ****     if(knob_num == knob_8) knob_8_user_name = user_name;
 831              		.loc 1 213 5 is_stmt 1 view .LVU285
 832 0044 062C     		cmp	r4, #6
 833 0046 02D1     		bne	.L100
 213:daisy_common.cpp ****     if(knob_num == knob_8) knob_8_user_name = user_name;
 834              		.loc 1 213 28 view .LVU286
 213:daisy_common.cpp ****     if(knob_num == knob_8) knob_8_user_name = user_name;
 835              		.loc 1 213 45 is_stmt 0 view .LVU287
 836 0048 C5F87811 		str	r1, [r5, #376]
 837              		.loc 1 214 5 is_stmt 1 view .LVU288
 838              	.LBE107:
 839              	.LBE114:
  38:daisy_common.cpp **** float daisyCommon::get_dual_control(int user_name)
 840              		.loc 1 38 1 is_stmt 0 view .LVU289
 841 004c 70BD     		pop	{r4, r5, r6, pc}
 842              	.LVL67:
 843              	.L100:
 844              	.LBB115:
 845              	.LBB108:
 846              		.loc 1 214 5 is_stmt 1 view .LVU290
 847 004e 072C     		cmp	r4, #7
 848 0050 DED1     		bne	.L73
 849              		.loc 1 214 28 view .LVU291
 850              		.loc 1 214 45 is_stmt 0 view .LVU292
 851 0052 C5F87C11 		str	r1, [r5, #380]
 852              	.LVL68:
 853              		.loc 1 214 45 view .LVU293
 854              	.LBE108:
 855              	.LBE115:
  38:daisy_common.cpp **** float daisyCommon::get_dual_control(int user_name)
 856              		.loc 1 38 1 view .LVU294
 857 0056 70BD     		pop	{r4, r5, r6, pc}
  38:daisy_common.cpp **** float daisyCommon::get_dual_control(int user_name)
 858              		.loc 1 38 1 view .LVU295
 859              		.cfi_endproc
 860              	.LFE4687:
 862              		.section	.text._ZN5daisy11daisyCommon11add_gate_inEii,"ax",%progbits
 863              		.align	1
 864              		.p2align 2,,3
 865              		.global	_ZN5daisy11daisyCommon11add_gate_inEii
 866              		.syntax unified
 867              		.thumb
 868              		.thumb_func
 869              		.fpu fpv5-d16
 871              	_ZN5daisy11daisyCommon11add_gate_inEii:
 872              	.LVL69:
ARM GAS  C:\Users\samue\AppData\Local\Temp\cc4nCvGK.s 			page 24


 873              	.LFB4692:
 138:daisy_common.cpp ****     if(jack_num == in_1)
 874              		.loc 1 138 1 is_stmt 1 view -0
 875              		.cfi_startproc
 876              		@ args = 0, pretend = 0, frame = 0
 877              		@ frame_needed = 0, uses_anonymous_args = 0
 878              		@ link register save eliminated.
 139:daisy_common.cpp ****     {
 879              		.loc 1 139 5 view .LVU297
 138:daisy_common.cpp ****     if(jack_num == in_1)
 880              		.loc 1 138 1 is_stmt 0 view .LVU298
 881 0000 10B4     		push	{r4}
 882              		.cfi_def_cfa_offset 4
 883              		.cfi_offset 4, -4
 139:daisy_common.cpp ****     {
 884              		.loc 1 139 5 view .LVU299
 885 0002 72B9     		cbnz	r2, .L102
 141:daisy_common.cpp ****         in_1_mode = adc_enable;
 886              		.loc 1 141 9 is_stmt 1 view .LVU300
 887              	.LBB116:
 888              	.LBB117:
  72:daisy_common.cpp ****         in_1_mode = adc_enable;
 889              		.loc 1 72 25 is_stmt 0 view .LVU301
 890 0004 D0F8F031 		ldr	r3, [r0, #496]
 891              	.LBE117:
 892              	.LBE116:
 142:daisy_common.cpp ****         add_cv(user_name, in_1);
 893              		.loc 1 142 19 view .LVU302
 894 0008 0524     		movs	r4, #5
 141:daisy_common.cpp ****         in_1_mode = adc_enable;
 895              		.loc 1 141 26 view .LVU303
 896 000a C0F88011 		str	r1, [r0, #384]
 142:daisy_common.cpp ****         add_cv(user_name, in_1);
 897              		.loc 1 142 9 is_stmt 1 view .LVU304
 898              	.LBB120:
 899              	.LBB118:
  74:daisy_common.cpp ****     } 
 900              		.loc 1 74 26 is_stmt 0 view .LVU305
 901 000e 5A1C     		adds	r2, r3, #1
 902              	.LVL70:
  74:daisy_common.cpp ****     } 
 903              		.loc 1 74 26 view .LVU306
 904              	.LBE118:
 905              	.LBE120:
 142:daisy_common.cpp ****         add_cv(user_name, in_1);
 906              		.loc 1 142 19 view .LVU307
 907 0010 C0F8B841 		str	r4, [r0, #440]
 143:daisy_common.cpp ****     } 
 908              		.loc 1 143 9 is_stmt 1 view .LVU308
 909              	.LVL71:
 910              	.LBB121:
 911              	.LBI116:
  67:daisy_common.cpp **** {
 912              		.loc 1 67 6 view .LVU309
 913              	.LBB119:
  69:daisy_common.cpp ****     {
 914              		.loc 1 69 5 view .LVU310
ARM GAS  C:\Users\samue\AppData\Local\Temp\cc4nCvGK.s 			page 25


  71:daisy_common.cpp ****         in_1_adc_chan = adc_channel_count;
 915              		.loc 1 71 9 view .LVU311
  72:daisy_common.cpp ****         in_1_mode = adc_enable;
 916              		.loc 1 72 9 view .LVU312
  72:daisy_common.cpp ****         in_1_mode = adc_enable;
 917              		.loc 1 72 23 is_stmt 0 view .LVU313
 918 0014 C0F8D031 		str	r3, [r0, #464]
  73:daisy_common.cpp ****         adc_channel_count++;
 919              		.loc 1 73 9 is_stmt 1 view .LVU314
  74:daisy_common.cpp ****     } 
 920              		.loc 1 74 9 view .LVU315
  74:daisy_common.cpp ****     } 
 921              		.loc 1 74 26 is_stmt 0 view .LVU316
 922 0018 C0F8F021 		str	r2, [r0, #496]
 923              	.LVL72:
  74:daisy_common.cpp ****     } 
 924              		.loc 1 74 26 view .LVU317
 925              	.LBE119:
 926              	.LBE121:
 145:daisy_common.cpp ****     {
 927              		.loc 1 145 5 is_stmt 1 view .LVU318
 151:daisy_common.cpp ****     {
 928              		.loc 1 151 5 view .LVU319
 157:daisy_common.cpp ****     {
 929              		.loc 1 157 5 view .LVU320
 163:daisy_common.cpp ****     {
 930              		.loc 1 163 5 view .LVU321
 931              	.L101:
 187:daisy_common.cpp **** 
 932              		.loc 1 187 1 is_stmt 0 view .LVU322
 933 001c 5DF8044B 		ldr	r4, [sp], #4
 934              		.cfi_remember_state
 935              		.cfi_restore 4
 936              		.cfi_def_cfa_offset 0
 937 0020 7047     		bx	lr
 938              	.LVL73:
 939              	.L102:
 940              		.cfi_restore_state
 145:daisy_common.cpp ****     {
 941              		.loc 1 145 5 is_stmt 1 view .LVU323
 942 0022 012A     		cmp	r2, #1
 943 0024 0ED1     		bne	.L123
 147:daisy_common.cpp ****         in_2_mode = adc_enable;
 944              		.loc 1 147 9 view .LVU324
 945              	.LBB122:
 946              	.LBB123:
  79:daisy_common.cpp ****         in_2_mode = adc_enable;
 947              		.loc 1 79 25 is_stmt 0 view .LVU325
 948 0026 D0F8F031 		ldr	r3, [r0, #496]
 949              	.LBE123:
 950              	.LBE122:
 148:daisy_common.cpp ****         add_cv(user_name, in_2); 
 951              		.loc 1 148 19 view .LVU326
 952 002a 0524     		movs	r4, #5
 147:daisy_common.cpp ****         in_2_mode = adc_enable;
 953              		.loc 1 147 26 view .LVU327
 954 002c C0F88411 		str	r1, [r0, #388]
ARM GAS  C:\Users\samue\AppData\Local\Temp\cc4nCvGK.s 			page 26


 148:daisy_common.cpp ****         add_cv(user_name, in_2); 
 955              		.loc 1 148 9 is_stmt 1 view .LVU328
 956              	.LBB127:
 957              	.LBB124:
  81:daisy_common.cpp ****     } 
 958              		.loc 1 81 26 is_stmt 0 view .LVU329
 959 0030 5A1C     		adds	r2, r3, #1
 960              	.LVL74:
  81:daisy_common.cpp ****     } 
 961              		.loc 1 81 26 view .LVU330
 962              	.LBE124:
 963              	.LBE127:
 148:daisy_common.cpp ****         add_cv(user_name, in_2); 
 964              		.loc 1 148 19 view .LVU331
 965 0032 C0F8BC41 		str	r4, [r0, #444]
 149:daisy_common.cpp ****     } 
 966              		.loc 1 149 9 is_stmt 1 view .LVU332
 967              	.LVL75:
 968              	.LBB128:
 969              	.LBI122:
  67:daisy_common.cpp **** {
 970              		.loc 1 67 6 view .LVU333
 971              	.LBB125:
  69:daisy_common.cpp ****     {
 972              		.loc 1 69 5 view .LVU334
  76:daisy_common.cpp ****     {
 973              		.loc 1 76 5 view .LVU335
  78:daisy_common.cpp ****         in_2_adc_chan = adc_channel_count;
 974              		.loc 1 78 9 view .LVU336
  79:daisy_common.cpp ****         in_2_mode = adc_enable;
 975              		.loc 1 79 9 view .LVU337
  79:daisy_common.cpp ****         in_2_mode = adc_enable;
 976              		.loc 1 79 23 is_stmt 0 view .LVU338
 977 0036 C0F8D431 		str	r3, [r0, #468]
  80:daisy_common.cpp ****         adc_channel_count++; 
 978              		.loc 1 80 9 is_stmt 1 view .LVU339
  81:daisy_common.cpp ****     } 
 979              		.loc 1 81 9 view .LVU340
 980              	.LBE125:
 981              	.LBE128:
 187:daisy_common.cpp **** 
 982              		.loc 1 187 1 is_stmt 0 view .LVU341
 983 003a 5DF8044B 		ldr	r4, [sp], #4
 984              		.cfi_remember_state
 985              		.cfi_restore 4
 986              		.cfi_def_cfa_offset 0
 987              	.LBB129:
 988              	.LBB126:
  81:daisy_common.cpp ****     } 
 989              		.loc 1 81 26 view .LVU342
 990 003e C0F8F021 		str	r2, [r0, #496]
 991              	.LVL76:
  81:daisy_common.cpp ****     } 
 992              		.loc 1 81 26 view .LVU343
 993              	.LBE126:
 994              	.LBE129:
 151:daisy_common.cpp ****     {
ARM GAS  C:\Users\samue\AppData\Local\Temp\cc4nCvGK.s 			page 27


 995              		.loc 1 151 5 is_stmt 1 view .LVU344
 157:daisy_common.cpp ****     {
 996              		.loc 1 157 5 view .LVU345
 163:daisy_common.cpp ****     {
 997              		.loc 1 163 5 view .LVU346
 187:daisy_common.cpp **** 
 998              		.loc 1 187 1 is_stmt 0 view .LVU347
 999 0042 7047     		bx	lr
 1000              	.LVL77:
 1001              	.L123:
 1002              		.cfi_restore_state
 151:daisy_common.cpp ****     {
 1003              		.loc 1 151 5 is_stmt 1 view .LVU348
 1004 0044 022A     		cmp	r2, #2
 1005 0046 0ED1     		bne	.L124
 153:daisy_common.cpp ****         in_3_mode = adc_enable;
 1006              		.loc 1 153 9 view .LVU349
 1007              	.LBB130:
 1008              	.LBB131:
  86:daisy_common.cpp ****         in_3_mode = adc_enable;
 1009              		.loc 1 86 25 is_stmt 0 view .LVU350
 1010 0048 D0F8F031 		ldr	r3, [r0, #496]
 1011              	.LBE131:
 1012              	.LBE130:
 154:daisy_common.cpp ****         add_cv(user_name, in_3);
 1013              		.loc 1 154 19 view .LVU351
 1014 004c 0524     		movs	r4, #5
 153:daisy_common.cpp ****         in_3_mode = adc_enable;
 1015              		.loc 1 153 26 view .LVU352
 1016 004e C0F88811 		str	r1, [r0, #392]
 154:daisy_common.cpp ****         add_cv(user_name, in_3);
 1017              		.loc 1 154 9 is_stmt 1 view .LVU353
 1018              	.LBB135:
 1019              	.LBB132:
  88:daisy_common.cpp ****     } 
 1020              		.loc 1 88 26 is_stmt 0 view .LVU354
 1021 0052 5A1C     		adds	r2, r3, #1
 1022              	.LVL78:
  88:daisy_common.cpp ****     } 
 1023              		.loc 1 88 26 view .LVU355
 1024              	.LBE132:
 1025              	.LBE135:
 154:daisy_common.cpp ****         add_cv(user_name, in_3);
 1026              		.loc 1 154 19 view .LVU356
 1027 0054 C0F8C041 		str	r4, [r0, #448]
 155:daisy_common.cpp ****     } 
 1028              		.loc 1 155 9 is_stmt 1 view .LVU357
 1029              	.LVL79:
 1030              	.LBB136:
 1031              	.LBI130:
  67:daisy_common.cpp **** {
 1032              		.loc 1 67 6 view .LVU358
 1033              	.LBB133:
  69:daisy_common.cpp ****     {
 1034              		.loc 1 69 5 view .LVU359
  76:daisy_common.cpp ****     {
 1035              		.loc 1 76 5 view .LVU360
ARM GAS  C:\Users\samue\AppData\Local\Temp\cc4nCvGK.s 			page 28


  83:daisy_common.cpp ****     {
 1036              		.loc 1 83 5 view .LVU361
  85:daisy_common.cpp ****         in_3_adc_chan = adc_channel_count;
 1037              		.loc 1 85 9 view .LVU362
  86:daisy_common.cpp ****         in_3_mode = adc_enable;
 1038              		.loc 1 86 9 view .LVU363
  86:daisy_common.cpp ****         in_3_mode = adc_enable;
 1039              		.loc 1 86 23 is_stmt 0 view .LVU364
 1040 0058 C0F8D831 		str	r3, [r0, #472]
  87:daisy_common.cpp ****         adc_channel_count++;
 1041              		.loc 1 87 9 is_stmt 1 view .LVU365
  88:daisy_common.cpp ****     } 
 1042              		.loc 1 88 9 view .LVU366
 1043              	.LBE133:
 1044              	.LBE136:
 187:daisy_common.cpp **** 
 1045              		.loc 1 187 1 is_stmt 0 view .LVU367
 1046 005c 5DF8044B 		ldr	r4, [sp], #4
 1047              		.cfi_remember_state
 1048              		.cfi_restore 4
 1049              		.cfi_def_cfa_offset 0
 1050              	.LBB137:
 1051              	.LBB134:
  88:daisy_common.cpp ****     } 
 1052              		.loc 1 88 26 view .LVU368
 1053 0060 C0F8F021 		str	r2, [r0, #496]
 1054              	.LVL80:
  88:daisy_common.cpp ****     } 
 1055              		.loc 1 88 26 view .LVU369
 1056              	.LBE134:
 1057              	.LBE137:
 157:daisy_common.cpp ****     {
 1058              		.loc 1 157 5 is_stmt 1 view .LVU370
 163:daisy_common.cpp ****     {
 1059              		.loc 1 163 5 view .LVU371
 169:daisy_common.cpp ****     {
 1060              		.loc 1 169 5 view .LVU372
 187:daisy_common.cpp **** 
 1061              		.loc 1 187 1 is_stmt 0 view .LVU373
 1062 0064 7047     		bx	lr
 1063              	.LVL81:
 1064              	.L124:
 1065              		.cfi_restore_state
 157:daisy_common.cpp ****     {
 1066              		.loc 1 157 5 is_stmt 1 view .LVU374
 1067 0066 032A     		cmp	r2, #3
 1068 0068 0ED1     		bne	.L125
 159:daisy_common.cpp ****         gate_1_in_4_mode = adc_enable;
 1069              		.loc 1 159 9 view .LVU375
 1070              	.LBB138:
 1071              	.LBB139:
  93:daisy_common.cpp ****         gate_1_in_4_mode = adc_enable;
 1072              		.loc 1 93 25 is_stmt 0 view .LVU376
 1073 006a D0F8F031 		ldr	r3, [r0, #496]
 1074              	.LBE139:
 1075              	.LBE138:
 160:daisy_common.cpp ****         add_cv(user_name, gate_1_in_4);
ARM GAS  C:\Users\samue\AppData\Local\Temp\cc4nCvGK.s 			page 29


 1076              		.loc 1 160 26 view .LVU377
 1077 006e 0524     		movs	r4, #5
 159:daisy_common.cpp ****         gate_1_in_4_mode = adc_enable;
 1078              		.loc 1 159 26 view .LVU378
 1079 0070 C0F88C11 		str	r1, [r0, #396]
 160:daisy_common.cpp ****         add_cv(user_name, gate_1_in_4);
 1080              		.loc 1 160 9 is_stmt 1 view .LVU379
 1081              	.LBB143:
 1082              	.LBB140:
  95:daisy_common.cpp ****     } 
 1083              		.loc 1 95 26 is_stmt 0 view .LVU380
 1084 0074 5A1C     		adds	r2, r3, #1
 1085              	.LVL82:
  95:daisy_common.cpp ****     } 
 1086              		.loc 1 95 26 view .LVU381
 1087              	.LBE140:
 1088              	.LBE143:
 160:daisy_common.cpp ****         add_cv(user_name, gate_1_in_4);
 1089              		.loc 1 160 26 view .LVU382
 1090 0076 C0F8B041 		str	r4, [r0, #432]
 161:daisy_common.cpp ****     } 
 1091              		.loc 1 161 9 is_stmt 1 view .LVU383
 1092              	.LVL83:
 1093              	.LBB144:
 1094              	.LBI138:
  67:daisy_common.cpp **** {
 1095              		.loc 1 67 6 view .LVU384
 1096              	.LBB141:
  69:daisy_common.cpp ****     {
 1097              		.loc 1 69 5 view .LVU385
  76:daisy_common.cpp ****     {
 1098              		.loc 1 76 5 view .LVU386
  83:daisy_common.cpp ****     {
 1099              		.loc 1 83 5 view .LVU387
  90:daisy_common.cpp ****     {
 1100              		.loc 1 90 5 view .LVU388
  92:daisy_common.cpp ****         in_4_adc_chan = adc_channel_count;
 1101              		.loc 1 92 9 view .LVU389
  93:daisy_common.cpp ****         gate_1_in_4_mode = adc_enable;
 1102              		.loc 1 93 9 view .LVU390
  93:daisy_common.cpp ****         gate_1_in_4_mode = adc_enable;
 1103              		.loc 1 93 23 is_stmt 0 view .LVU391
 1104 007a C0F8DC31 		str	r3, [r0, #476]
  94:daisy_common.cpp ****         adc_channel_count++;
 1105              		.loc 1 94 9 is_stmt 1 view .LVU392
  95:daisy_common.cpp ****     } 
 1106              		.loc 1 95 9 view .LVU393
 1107              	.LBE141:
 1108              	.LBE144:
 187:daisy_common.cpp **** 
 1109              		.loc 1 187 1 is_stmt 0 view .LVU394
 1110 007e 5DF8044B 		ldr	r4, [sp], #4
 1111              		.cfi_remember_state
 1112              		.cfi_restore 4
 1113              		.cfi_def_cfa_offset 0
 1114              	.LBB145:
 1115              	.LBB142:
ARM GAS  C:\Users\samue\AppData\Local\Temp\cc4nCvGK.s 			page 30


  95:daisy_common.cpp ****     } 
 1116              		.loc 1 95 26 view .LVU395
 1117 0082 C0F8F021 		str	r2, [r0, #496]
 1118              	.LVL84:
  95:daisy_common.cpp ****     } 
 1119              		.loc 1 95 26 view .LVU396
 1120              	.LBE142:
 1121              	.LBE145:
 163:daisy_common.cpp ****     {
 1122              		.loc 1 163 5 is_stmt 1 view .LVU397
 169:daisy_common.cpp ****     {
 1123              		.loc 1 169 5 view .LVU398
 175:daisy_common.cpp ****     {
 1124              		.loc 1 175 5 view .LVU399
 187:daisy_common.cpp **** 
 1125              		.loc 1 187 1 is_stmt 0 view .LVU400
 1126 0086 7047     		bx	lr
 1127              	.LVL85:
 1128              	.L125:
 1129              		.cfi_restore_state
 163:daisy_common.cpp ****     {
 1130              		.loc 1 163 5 is_stmt 1 view .LVU401
 1131 0088 042A     		cmp	r2, #4
 1132 008a 0CD1     		bne	.L126
 165:daisy_common.cpp ****         in_5_mode = adc_enable;
 1133              		.loc 1 165 9 view .LVU402
 1134              	.LBB146:
 1135              	.LBB147:
 100:daisy_common.cpp ****         in_5_mode = adc_enable;
 1136              		.loc 1 100 25 is_stmt 0 view .LVU403
 1137 008c D0F8F031 		ldr	r3, [r0, #496]
 1138              	.LBE147:
 1139              	.LBE146:
 166:daisy_common.cpp ****         add_cv(user_name, in_5);
 1140              		.loc 1 166 19 view .LVU404
 1141 0090 0524     		movs	r4, #5
 165:daisy_common.cpp ****         in_5_mode = adc_enable;
 1142              		.loc 1 165 26 view .LVU405
 1143 0092 C0F89011 		str	r1, [r0, #400]
 166:daisy_common.cpp ****         add_cv(user_name, in_5);
 1144              		.loc 1 166 9 is_stmt 1 view .LVU406
 1145              	.LBB150:
 1146              	.LBB148:
 102:daisy_common.cpp ****     } 
 1147              		.loc 1 102 26 is_stmt 0 view .LVU407
 1148 0096 5A1C     		adds	r2, r3, #1
 1149              	.LVL86:
 102:daisy_common.cpp ****     } 
 1150              		.loc 1 102 26 view .LVU408
 1151              	.LBE148:
 1152              	.LBE150:
 166:daisy_common.cpp ****         add_cv(user_name, in_5);
 1153              		.loc 1 166 19 view .LVU409
 1154 0098 C0F8C441 		str	r4, [r0, #452]
 167:daisy_common.cpp ****     } 
 1155              		.loc 1 167 9 is_stmt 1 view .LVU410
 1156              	.LVL87:
ARM GAS  C:\Users\samue\AppData\Local\Temp\cc4nCvGK.s 			page 31


 1157              	.LBB151:
 1158              	.LBI146:
  67:daisy_common.cpp **** {
 1159              		.loc 1 67 6 view .LVU411
 1160              	.LBB149:
  69:daisy_common.cpp ****     {
 1161              		.loc 1 69 5 view .LVU412
  76:daisy_common.cpp ****     {
 1162              		.loc 1 76 5 view .LVU413
  83:daisy_common.cpp ****     {
 1163              		.loc 1 83 5 view .LVU414
  90:daisy_common.cpp ****     {
 1164              		.loc 1 90 5 view .LVU415
  97:daisy_common.cpp ****     {
 1165              		.loc 1 97 5 view .LVU416
  99:daisy_common.cpp ****         in_5_adc_chan = adc_channel_count;
 1166              		.loc 1 99 9 view .LVU417
 100:daisy_common.cpp ****         in_5_mode = adc_enable;
 1167              		.loc 1 100 9 view .LVU418
 100:daisy_common.cpp ****         in_5_mode = adc_enable;
 1168              		.loc 1 100 23 is_stmt 0 view .LVU419
 1169 009c C0F8E031 		str	r3, [r0, #480]
 101:daisy_common.cpp ****         adc_channel_count++;
 1170              		.loc 1 101 9 is_stmt 1 view .LVU420
 102:daisy_common.cpp ****     } 
 1171              		.loc 1 102 9 view .LVU421
 102:daisy_common.cpp ****     } 
 1172              		.loc 1 102 26 is_stmt 0 view .LVU422
 1173 00a0 C0F8F021 		str	r2, [r0, #496]
 1174              	.LVL88:
 102:daisy_common.cpp ****     } 
 1175              		.loc 1 102 26 view .LVU423
 1176              	.LBE149:
 1177              	.LBE151:
 169:daisy_common.cpp ****     {
 1178              		.loc 1 169 5 is_stmt 1 view .LVU424
 175:daisy_common.cpp ****     {
 1179              		.loc 1 175 5 view .LVU425
 181:daisy_common.cpp ****     {
 1180              		.loc 1 181 5 view .LVU426
 1181 00a4 BAE7     		b	.L101
 1182              	.LVL89:
 1183              	.L126:
 169:daisy_common.cpp ****     {
 1184              		.loc 1 169 5 view .LVU427
 1185 00a6 052A     		cmp	r2, #5
 1186 00a8 0BD1     		bne	.L127
 171:daisy_common.cpp ****         in_6_mode = adc_enable;
 1187              		.loc 1 171 9 view .LVU428
 1188              	.LBB152:
 1189              	.LBB153:
 107:daisy_common.cpp ****         in_6_mode = adc_enable;
 1190              		.loc 1 107 25 is_stmt 0 view .LVU429
 1191 00aa D0F8F031 		ldr	r3, [r0, #496]
 1192              	.LBE153:
 1193              	.LBE152:
 172:daisy_common.cpp ****         add_cv(user_name, in_6);
ARM GAS  C:\Users\samue\AppData\Local\Temp\cc4nCvGK.s 			page 32


 1194              		.loc 1 172 19 view .LVU430
 1195 00ae C0F8C821 		str	r2, [r0, #456]
 1196              	.LBB156:
 1197              	.LBB154:
 109:daisy_common.cpp ****     } 
 1198              		.loc 1 109 26 view .LVU431
 1199 00b2 5A1C     		adds	r2, r3, #1
 1200              	.LVL90:
 109:daisy_common.cpp ****     } 
 1201              		.loc 1 109 26 view .LVU432
 1202              	.LBE154:
 1203              	.LBE156:
 171:daisy_common.cpp ****         in_6_mode = adc_enable;
 1204              		.loc 1 171 26 view .LVU433
 1205 00b4 C0F89411 		str	r1, [r0, #404]
 172:daisy_common.cpp ****         add_cv(user_name, in_6);
 1206              		.loc 1 172 9 is_stmt 1 view .LVU434
 173:daisy_common.cpp ****     } 
 1207              		.loc 1 173 9 view .LVU435
 1208              	.LVL91:
 1209              	.LBB157:
 1210              	.LBI152:
  67:daisy_common.cpp **** {
 1211              		.loc 1 67 6 view .LVU436
 1212              	.LBB155:
  69:daisy_common.cpp ****     {
 1213              		.loc 1 69 5 view .LVU437
  76:daisy_common.cpp ****     {
 1214              		.loc 1 76 5 view .LVU438
  83:daisy_common.cpp ****     {
 1215              		.loc 1 83 5 view .LVU439
  90:daisy_common.cpp ****     {
 1216              		.loc 1 90 5 view .LVU440
  97:daisy_common.cpp ****     {
 1217              		.loc 1 97 5 view .LVU441
 104:daisy_common.cpp ****     {
 1218              		.loc 1 104 5 view .LVU442
 106:daisy_common.cpp ****         in_6_adc_chan = adc_channel_count;
 1219              		.loc 1 106 9 view .LVU443
 107:daisy_common.cpp ****         in_6_mode = adc_enable;
 1220              		.loc 1 107 9 view .LVU444
 107:daisy_common.cpp ****         in_6_mode = adc_enable;
 1221              		.loc 1 107 23 is_stmt 0 view .LVU445
 1222 00b8 C0F8E431 		str	r3, [r0, #484]
 108:daisy_common.cpp ****         adc_channel_count++;
 1223              		.loc 1 108 9 is_stmt 1 view .LVU446
 109:daisy_common.cpp ****     } 
 1224              		.loc 1 109 9 view .LVU447
 109:daisy_common.cpp ****     } 
 1225              		.loc 1 109 26 is_stmt 0 view .LVU448
 1226 00bc C0F8F021 		str	r2, [r0, #496]
 1227              	.LVL92:
 109:daisy_common.cpp ****     } 
 1228              		.loc 1 109 26 view .LVU449
 1229              	.LBE155:
 1230              	.LBE157:
 175:daisy_common.cpp ****     {
ARM GAS  C:\Users\samue\AppData\Local\Temp\cc4nCvGK.s 			page 33


 1231              		.loc 1 175 5 is_stmt 1 view .LVU450
 181:daisy_common.cpp ****     {
 1232              		.loc 1 181 5 view .LVU451
 1233 00c0 ACE7     		b	.L101
 1234              	.LVL93:
 1235              	.L127:
 175:daisy_common.cpp ****     {
 1236              		.loc 1 175 5 view .LVU452
 1237 00c2 062A     		cmp	r2, #6
 1238 00c4 0CD1     		bne	.L128
 177:daisy_common.cpp ****         in_7_mode = adc_enable;
 1239              		.loc 1 177 9 view .LVU453
 1240              	.LBB158:
 1241              	.LBB159:
 114:daisy_common.cpp ****         in_7_mode = adc_enable;
 1242              		.loc 1 114 25 is_stmt 0 view .LVU454
 1243 00c6 D0F8F031 		ldr	r3, [r0, #496]
 1244              	.LBE159:
 1245              	.LBE158:
 178:daisy_common.cpp ****         add_cv(user_name, in_7);
 1246              		.loc 1 178 19 view .LVU455
 1247 00ca 0524     		movs	r4, #5
 177:daisy_common.cpp ****         in_7_mode = adc_enable;
 1248              		.loc 1 177 26 view .LVU456
 1249 00cc C0F89811 		str	r1, [r0, #408]
 178:daisy_common.cpp ****         add_cv(user_name, in_7);
 1250              		.loc 1 178 9 is_stmt 1 view .LVU457
 1251              	.LBB162:
 1252              	.LBB160:
 116:daisy_common.cpp ****     } 
 1253              		.loc 1 116 26 is_stmt 0 view .LVU458
 1254 00d0 5A1C     		adds	r2, r3, #1
 1255              	.LVL94:
 116:daisy_common.cpp ****     } 
 1256              		.loc 1 116 26 view .LVU459
 1257              	.LBE160:
 1258              	.LBE162:
 178:daisy_common.cpp ****         add_cv(user_name, in_7);
 1259              		.loc 1 178 19 view .LVU460
 1260 00d2 C0F8CC41 		str	r4, [r0, #460]
 179:daisy_common.cpp ****     } 
 1261              		.loc 1 179 9 is_stmt 1 view .LVU461
 1262              	.LVL95:
 1263              	.LBB163:
 1264              	.LBI158:
  67:daisy_common.cpp **** {
 1265              		.loc 1 67 6 view .LVU462
 1266              	.LBB161:
  69:daisy_common.cpp ****     {
 1267              		.loc 1 69 5 view .LVU463
  76:daisy_common.cpp ****     {
 1268              		.loc 1 76 5 view .LVU464
  83:daisy_common.cpp ****     {
 1269              		.loc 1 83 5 view .LVU465
  90:daisy_common.cpp ****     {
 1270              		.loc 1 90 5 view .LVU466
  97:daisy_common.cpp ****     {
ARM GAS  C:\Users\samue\AppData\Local\Temp\cc4nCvGK.s 			page 34


 1271              		.loc 1 97 5 view .LVU467
 104:daisy_common.cpp ****     {
 1272              		.loc 1 104 5 view .LVU468
 111:daisy_common.cpp ****     {
 1273              		.loc 1 111 5 view .LVU469
 113:daisy_common.cpp ****         in_7_adc_chan = adc_channel_count;
 1274              		.loc 1 113 9 view .LVU470
 114:daisy_common.cpp ****         in_7_mode = adc_enable;
 1275              		.loc 1 114 9 view .LVU471
 114:daisy_common.cpp ****         in_7_mode = adc_enable;
 1276              		.loc 1 114 23 is_stmt 0 view .LVU472
 1277 00d6 C0F8E831 		str	r3, [r0, #488]
 115:daisy_common.cpp ****         adc_channel_count++;
 1278              		.loc 1 115 9 is_stmt 1 view .LVU473
 116:daisy_common.cpp ****     } 
 1279              		.loc 1 116 9 view .LVU474
 116:daisy_common.cpp ****     } 
 1280              		.loc 1 116 26 is_stmt 0 view .LVU475
 1281 00da C0F8F021 		str	r2, [r0, #496]
 1282              	.LVL96:
 116:daisy_common.cpp ****     } 
 1283              		.loc 1 116 26 view .LVU476
 1284              	.LBE161:
 1285              	.LBE163:
 181:daisy_common.cpp ****     {
 1286              		.loc 1 181 5 is_stmt 1 view .LVU477
 1287 00de 9DE7     		b	.L101
 1288              	.LVL97:
 1289              	.L128:
 181:daisy_common.cpp ****     {
 1290              		.loc 1 181 5 view .LVU478
 1291 00e0 072A     		cmp	r2, #7
 1292 00e2 9BD1     		bne	.L101
 183:daisy_common.cpp ****         gate_2_in_8_mode = adc_enable;
 1293              		.loc 1 183 9 view .LVU479
 1294              	.LBB164:
 1295              	.LBB165:
 121:daisy_common.cpp ****         gate_2_in_8_mode = adc_enable;
 1296              		.loc 1 121 25 is_stmt 0 view .LVU480
 1297 00e4 D0F8F031 		ldr	r3, [r0, #496]
 1298              	.LBE165:
 1299              	.LBE164:
 184:daisy_common.cpp ****         add_cv(user_name, gate_2_in_8);
 1300              		.loc 1 184 26 view .LVU481
 1301 00e8 0524     		movs	r4, #5
 183:daisy_common.cpp ****         gate_2_in_8_mode = adc_enable;
 1302              		.loc 1 183 26 view .LVU482
 1303 00ea C0F89C11 		str	r1, [r0, #412]
 184:daisy_common.cpp ****         add_cv(user_name, gate_2_in_8);
 1304              		.loc 1 184 9 is_stmt 1 view .LVU483
 1305              	.LBB168:
 1306              	.LBB166:
 123:daisy_common.cpp ****     } 
 1307              		.loc 1 123 26 is_stmt 0 view .LVU484
 1308 00ee 5A1C     		adds	r2, r3, #1
 1309              	.LVL98:
 123:daisy_common.cpp ****     } 
ARM GAS  C:\Users\samue\AppData\Local\Temp\cc4nCvGK.s 			page 35


 1310              		.loc 1 123 26 view .LVU485
 1311              	.LBE166:
 1312              	.LBE168:
 184:daisy_common.cpp ****         add_cv(user_name, gate_2_in_8);
 1313              		.loc 1 184 26 view .LVU486
 1314 00f0 C0F8B441 		str	r4, [r0, #436]
 185:daisy_common.cpp ****     } 
 1315              		.loc 1 185 9 is_stmt 1 view .LVU487
 1316              	.LVL99:
 1317              	.LBB169:
 1318              	.LBI164:
  67:daisy_common.cpp **** {
 1319              		.loc 1 67 6 view .LVU488
 1320              	.LBB167:
  69:daisy_common.cpp ****     {
 1321              		.loc 1 69 5 view .LVU489
  76:daisy_common.cpp ****     {
 1322              		.loc 1 76 5 view .LVU490
  83:daisy_common.cpp ****     {
 1323              		.loc 1 83 5 view .LVU491
  90:daisy_common.cpp ****     {
 1324              		.loc 1 90 5 view .LVU492
  97:daisy_common.cpp ****     {
 1325              		.loc 1 97 5 view .LVU493
 104:daisy_common.cpp ****     {
 1326              		.loc 1 104 5 view .LVU494
 111:daisy_common.cpp ****     {
 1327              		.loc 1 111 5 view .LVU495
 118:daisy_common.cpp ****     {
 1328              		.loc 1 118 5 view .LVU496
 120:daisy_common.cpp ****         in_8_adc_chan = adc_channel_count;
 1329              		.loc 1 120 9 view .LVU497
 121:daisy_common.cpp ****         gate_2_in_8_mode = adc_enable;
 1330              		.loc 1 121 9 view .LVU498
 123:daisy_common.cpp ****     } 
 1331              		.loc 1 123 26 is_stmt 0 view .LVU499
 1332 00f4 C0E97B32 		strd	r3, r2, [r0, #492]
 1333              	.LVL100:
 123:daisy_common.cpp ****     } 
 1334              		.loc 1 123 26 view .LVU500
 1335              	.LBE167:
 1336              	.LBE169:
 187:daisy_common.cpp **** 
 1337              		.loc 1 187 1 view .LVU501
 1338 00f8 90E7     		b	.L101
 1339              		.cfi_endproc
 1340              	.LFE4692:
 1342 00fa 00BF     		.section	.rodata._ZN5daisy11daisyCommon10print_knobEv.str1.4,"aMS",%progbits,1
 1343              		.align	2
 1344              	.LC10:
 1345 0000 6B6E6F62 		.ascii	"knob_1_user: %d\000"
 1345      5F315F75 
 1345      7365723A 
 1345      20256400 
 1346              		.align	2
 1347              	.LC11:
 1348 0010 6B6E6F62 		.ascii	"knob_2_user: %d\000"
ARM GAS  C:\Users\samue\AppData\Local\Temp\cc4nCvGK.s 			page 36


 1348      5F325F75 
 1348      7365723A 
 1348      20256400 
 1349              		.align	2
 1350              	.LC12:
 1351 0020 6B6E6F62 		.ascii	"knob_3_user: %d\000"
 1351      5F335F75 
 1351      7365723A 
 1351      20256400 
 1352              		.align	2
 1353              	.LC13:
 1354 0030 6B6E6F62 		.ascii	"knob_4_user: %d\000"
 1354      5F345F75 
 1354      7365723A 
 1354      20256400 
 1355              		.align	2
 1356              	.LC14:
 1357 0040 6B6E6F62 		.ascii	"knob_5_user: %d\000"
 1357      5F355F75 
 1357      7365723A 
 1357      20256400 
 1358              		.align	2
 1359              	.LC15:
 1360 0050 6B6E6F62 		.ascii	"knob_6_user: %d\000"
 1360      5F365F75 
 1360      7365723A 
 1360      20256400 
 1361              		.align	2
 1362              	.LC16:
 1363 0060 6B6E6F62 		.ascii	"knob_7_user: %d\000"
 1363      5F375F75 
 1363      7365723A 
 1363      20256400 
 1364              		.align	2
 1365              	.LC17:
 1366 0070 6B6E6F62 		.ascii	"knob_8_user: %d\000"
 1366      5F385F75 
 1366      7365723A 
 1366      20256400 
 1367              		.section	.text._ZN5daisy11daisyCommon10print_knobEv,"ax",%progbits
 1368              		.align	1
 1369              		.p2align 2,,3
 1370              		.global	_ZN5daisy11daisyCommon10print_knobEv
 1371              		.syntax unified
 1372              		.thumb
 1373              		.thumb_func
 1374              		.fpu fpv5-d16
 1376              	_ZN5daisy11daisyCommon10print_knobEv:
 1377              	.LVL101:
 1378              	.LFB4693:
 190:daisy_common.cpp ****     seed.PrintLine("knob_1_user: %d", knob_1_user_name);
 1379              		.loc 1 190 1 is_stmt 1 view -0
 1380              		.cfi_startproc
 1381              		@ args = 0, pretend = 0, frame = 0
 1382              		@ frame_needed = 0, uses_anonymous_args = 0
 191:daisy_common.cpp ****     seed.PrintLine("knob_2_user: %d", knob_2_user_name);
 1383              		.loc 1 191 5 view .LVU503
ARM GAS  C:\Users\samue\AppData\Local\Temp\cc4nCvGK.s 			page 37


 190:daisy_common.cpp ****     seed.PrintLine("knob_1_user: %d", knob_1_user_name);
 1384              		.loc 1 190 1 is_stmt 0 view .LVU504
 1385 0000 10B5     		push	{r4, lr}
 1386              		.cfi_def_cfa_offset 8
 1387              		.cfi_offset 4, -8
 1388              		.cfi_offset 14, -4
 190:daisy_common.cpp ****     seed.PrintLine("knob_1_user: %d", knob_1_user_name);
 1389              		.loc 1 190 1 view .LVU505
 1390 0002 0446     		mov	r4, r0
 1391              	.LBB170:
 1392              	.LBB171:
 1393              		.file 2 "../../../../DaisyExamples/libDaisy//src/daisy_seed.h"
   1:../../../../DaisyExamples/libDaisy//src/daisy_seed.h **** #pragma once
   2:../../../../DaisyExamples/libDaisy//src/daisy_seed.h **** #ifndef DSY_SEED_H
   3:../../../../DaisyExamples/libDaisy//src/daisy_seed.h **** #define DSY_SEED_H
   4:../../../../DaisyExamples/libDaisy//src/daisy_seed.h **** 
   5:../../../../DaisyExamples/libDaisy//src/daisy_seed.h **** #include "daisy.h"
   6:../../../../DaisyExamples/libDaisy//src/daisy_seed.h **** 
   7:../../../../DaisyExamples/libDaisy//src/daisy_seed.h **** //Uncomment this out if you're still using the rev2 hardware
   8:../../../../DaisyExamples/libDaisy//src/daisy_seed.h **** //#define SEED_REV2
   9:../../../../DaisyExamples/libDaisy//src/daisy_seed.h **** 
  10:../../../../DaisyExamples/libDaisy//src/daisy_seed.h **** namespace daisy
  11:../../../../DaisyExamples/libDaisy//src/daisy_seed.h **** {
  12:../../../../DaisyExamples/libDaisy//src/daisy_seed.h **** /**
  13:../../../../DaisyExamples/libDaisy//src/daisy_seed.h ****    @brief This is the higher-level interface for the Daisy board. \n 
  14:../../../../DaisyExamples/libDaisy//src/daisy_seed.h ****     All basic peripheral configuration/initialization is setup here. \n
  15:../../../../DaisyExamples/libDaisy//src/daisy_seed.h **** 
  16:../../../../DaisyExamples/libDaisy//src/daisy_seed.h ****    @ingroup boards
  17:../../../../DaisyExamples/libDaisy//src/daisy_seed.h **** */
  18:../../../../DaisyExamples/libDaisy//src/daisy_seed.h **** class DaisySeed
  19:../../../../DaisyExamples/libDaisy//src/daisy_seed.h **** {
  20:../../../../DaisyExamples/libDaisy//src/daisy_seed.h ****   public:
  21:../../../../DaisyExamples/libDaisy//src/daisy_seed.h ****     DaisySeed() {}
  22:../../../../DaisyExamples/libDaisy//src/daisy_seed.h ****     ~DaisySeed() {}
  23:../../../../DaisyExamples/libDaisy//src/daisy_seed.h **** 
  24:../../../../DaisyExamples/libDaisy//src/daisy_seed.h ****     /** This function used to provide a pre-initialization configuraiton 
  25:../../../../DaisyExamples/libDaisy//src/daisy_seed.h ****      *  it has since been deprecated, and does nothing.
  26:../../../../DaisyExamples/libDaisy//src/daisy_seed.h ****      */
  27:../../../../DaisyExamples/libDaisy//src/daisy_seed.h ****     void Configure();
  28:../../../../DaisyExamples/libDaisy//src/daisy_seed.h **** 
  29:../../../../DaisyExamples/libDaisy//src/daisy_seed.h ****     /** 
  30:../../../../DaisyExamples/libDaisy//src/daisy_seed.h ****     Initializes the Daisy Seed and the following peripherals:
  31:../../../../DaisyExamples/libDaisy//src/daisy_seed.h ****     SDRAM, QSPI, 24-bit 48kHz Audio via AK4556, Internal USB,
  32:../../../../DaisyExamples/libDaisy//src/daisy_seed.h ****     as well as the built-in LED and Testpoint.
  33:../../../../DaisyExamples/libDaisy//src/daisy_seed.h **** 
  34:../../../../DaisyExamples/libDaisy//src/daisy_seed.h ****     ADCs, DACs, and other special peripherals (such as I2C, SPI, etc.)
  35:../../../../DaisyExamples/libDaisy//src/daisy_seed.h ****     can be initialized using their specific initializers within libdaisy
  36:../../../../DaisyExamples/libDaisy//src/daisy_seed.h ****     for a specific application.
  37:../../../../DaisyExamples/libDaisy//src/daisy_seed.h ****     */
  38:../../../../DaisyExamples/libDaisy//src/daisy_seed.h ****     void Init(bool boost = false);
  39:../../../../DaisyExamples/libDaisy//src/daisy_seed.h **** 
  40:../../../../DaisyExamples/libDaisy//src/daisy_seed.h ****     /** 
  41:../../../../DaisyExamples/libDaisy//src/daisy_seed.h ****     Deinitializes all peripherals automatically handled by `Init`.
  42:../../../../DaisyExamples/libDaisy//src/daisy_seed.h ****     */
  43:../../../../DaisyExamples/libDaisy//src/daisy_seed.h ****     void DeInit();
  44:../../../../DaisyExamples/libDaisy//src/daisy_seed.h **** 
  45:../../../../DaisyExamples/libDaisy//src/daisy_seed.h ****     /** 
ARM GAS  C:\Users\samue\AppData\Local\Temp\cc4nCvGK.s 			page 38


  46:../../../../DaisyExamples/libDaisy//src/daisy_seed.h ****     Wait some ms before going on.
  47:../../../../DaisyExamples/libDaisy//src/daisy_seed.h ****     \param del Delay time in ms.
  48:../../../../DaisyExamples/libDaisy//src/daisy_seed.h ****     */
  49:../../../../DaisyExamples/libDaisy//src/daisy_seed.h ****     void DelayMs(size_t del);
  50:../../../../DaisyExamples/libDaisy//src/daisy_seed.h **** 
  51:../../../../DaisyExamples/libDaisy//src/daisy_seed.h ****     /** 
  52:../../../../DaisyExamples/libDaisy//src/daisy_seed.h ****     Returns the gpio_pin corresponding to the index 0-31.
  53:../../../../DaisyExamples/libDaisy//src/daisy_seed.h ****     For the given GPIO on the Daisy Seed (labeled 1-32 in docs).
  54:../../../../DaisyExamples/libDaisy//src/daisy_seed.h ****     */
  55:../../../../DaisyExamples/libDaisy//src/daisy_seed.h ****     static dsy_gpio_pin GetPin(uint8_t pin_idx);
  56:../../../../DaisyExamples/libDaisy//src/daisy_seed.h **** 
  57:../../../../DaisyExamples/libDaisy//src/daisy_seed.h ****     /** Begins the audio for the seeds builtin audio.
  58:../../../../DaisyExamples/libDaisy//src/daisy_seed.h ****     the specified callback will get called whenever
  59:../../../../DaisyExamples/libDaisy//src/daisy_seed.h ****     new data is ready to be prepared.
  60:../../../../DaisyExamples/libDaisy//src/daisy_seed.h ****     */
  61:../../../../DaisyExamples/libDaisy//src/daisy_seed.h ****     void StartAudio(AudioHandle::InterleavingAudioCallback cb);
  62:../../../../DaisyExamples/libDaisy//src/daisy_seed.h **** 
  63:../../../../DaisyExamples/libDaisy//src/daisy_seed.h ****     /** Begins the audio for the seeds builtin audio.
  64:../../../../DaisyExamples/libDaisy//src/daisy_seed.h ****     the specified callback will get called whenever
  65:../../../../DaisyExamples/libDaisy//src/daisy_seed.h ****     new data is ready to be prepared.
  66:../../../../DaisyExamples/libDaisy//src/daisy_seed.h ****     This will use the newer non-interleaved callback.
  67:../../../../DaisyExamples/libDaisy//src/daisy_seed.h ****     */
  68:../../../../DaisyExamples/libDaisy//src/daisy_seed.h ****     void StartAudio(AudioHandle::AudioCallback cb);
  69:../../../../DaisyExamples/libDaisy//src/daisy_seed.h **** 
  70:../../../../DaisyExamples/libDaisy//src/daisy_seed.h ****     /** Changes to a new interleaved callback
  71:../../../../DaisyExamples/libDaisy//src/daisy_seed.h ****      */
  72:../../../../DaisyExamples/libDaisy//src/daisy_seed.h ****     void ChangeAudioCallback(AudioHandle::InterleavingAudioCallback cb);
  73:../../../../DaisyExamples/libDaisy//src/daisy_seed.h **** 
  74:../../../../DaisyExamples/libDaisy//src/daisy_seed.h ****     /** Changes to a new multichannel callback
  75:../../../../DaisyExamples/libDaisy//src/daisy_seed.h ****      */
  76:../../../../DaisyExamples/libDaisy//src/daisy_seed.h ****     void ChangeAudioCallback(AudioHandle::AudioCallback cb);
  77:../../../../DaisyExamples/libDaisy//src/daisy_seed.h **** 
  78:../../../../DaisyExamples/libDaisy//src/daisy_seed.h ****     /** Stops the audio if it is running. */
  79:../../../../DaisyExamples/libDaisy//src/daisy_seed.h ****     void StopAudio();
  80:../../../../DaisyExamples/libDaisy//src/daisy_seed.h **** 
  81:../../../../DaisyExamples/libDaisy//src/daisy_seed.h ****     /** Updates the Audio Sample Rate, and reinitializes.
  82:../../../../DaisyExamples/libDaisy//src/daisy_seed.h ****      ** Audio must be stopped for this to work.
  83:../../../../DaisyExamples/libDaisy//src/daisy_seed.h ****      */
  84:../../../../DaisyExamples/libDaisy//src/daisy_seed.h ****     void SetAudioSampleRate(SaiHandle::Config::SampleRate samplerate);
  85:../../../../DaisyExamples/libDaisy//src/daisy_seed.h **** 
  86:../../../../DaisyExamples/libDaisy//src/daisy_seed.h ****     /** Returns the audio sample rate in Hz as a floating point number.
  87:../../../../DaisyExamples/libDaisy//src/daisy_seed.h ****      */
  88:../../../../DaisyExamples/libDaisy//src/daisy_seed.h ****     float AudioSampleRate();
  89:../../../../DaisyExamples/libDaisy//src/daisy_seed.h **** 
  90:../../../../DaisyExamples/libDaisy//src/daisy_seed.h ****     /** Sets the number of samples processed per channel by the audio callback.
  91:../../../../DaisyExamples/libDaisy//src/daisy_seed.h ****      */
  92:../../../../DaisyExamples/libDaisy//src/daisy_seed.h ****     void SetAudioBlockSize(size_t blocksize);
  93:../../../../DaisyExamples/libDaisy//src/daisy_seed.h **** 
  94:../../../../DaisyExamples/libDaisy//src/daisy_seed.h ****     /** Returns the number of samples per channel in a block of audio. */
  95:../../../../DaisyExamples/libDaisy//src/daisy_seed.h ****     size_t AudioBlockSize();
  96:../../../../DaisyExamples/libDaisy//src/daisy_seed.h **** 
  97:../../../../DaisyExamples/libDaisy//src/daisy_seed.h ****     /** Returns the rate in Hz that the Audio callback is called */
  98:../../../../DaisyExamples/libDaisy//src/daisy_seed.h ****     float AudioCallbackRate() const;
  99:../../../../DaisyExamples/libDaisy//src/daisy_seed.h **** 
 100:../../../../DaisyExamples/libDaisy//src/daisy_seed.h ****     /** Returns the SAI Handle for the Daisy Seed 
 101:../../../../DaisyExamples/libDaisy//src/daisy_seed.h ****      *  This can be useful when adding a secondary codec,
 102:../../../../DaisyExamples/libDaisy//src/daisy_seed.h ****      *  the result of this function can be passed to the audio reinit 
ARM GAS  C:\Users\samue\AppData\Local\Temp\cc4nCvGK.s 			page 39


 103:../../../../DaisyExamples/libDaisy//src/daisy_seed.h ****      *  with an SAI2 configuration
 104:../../../../DaisyExamples/libDaisy//src/daisy_seed.h ****      */
 105:../../../../DaisyExamples/libDaisy//src/daisy_seed.h ****     const SaiHandle& AudioSaiHandle() const;
 106:../../../../DaisyExamples/libDaisy//src/daisy_seed.h **** 
 107:../../../../DaisyExamples/libDaisy//src/daisy_seed.h ****     /** Sets the state of the built in LED
 108:../../../../DaisyExamples/libDaisy//src/daisy_seed.h ****      */
 109:../../../../DaisyExamples/libDaisy//src/daisy_seed.h ****     void SetLed(bool state);
 110:../../../../DaisyExamples/libDaisy//src/daisy_seed.h **** 
 111:../../../../DaisyExamples/libDaisy//src/daisy_seed.h ****     /** Sets the state of the test point near pin 10
 112:../../../../DaisyExamples/libDaisy//src/daisy_seed.h ****      */
 113:../../../../DaisyExamples/libDaisy//src/daisy_seed.h ****     void SetTestPoint(bool state);
 114:../../../../DaisyExamples/libDaisy//src/daisy_seed.h **** 
 115:../../../../DaisyExamples/libDaisy//src/daisy_seed.h ****     /** Print formatted debug log message
 116:../../../../DaisyExamples/libDaisy//src/daisy_seed.h ****      */
 117:../../../../DaisyExamples/libDaisy//src/daisy_seed.h ****     template <typename... VA>
 118:../../../../DaisyExamples/libDaisy//src/daisy_seed.h ****     static void Print(const char* format, VA... va)
 119:../../../../DaisyExamples/libDaisy//src/daisy_seed.h ****     {
 120:../../../../DaisyExamples/libDaisy//src/daisy_seed.h ****         Log::Print(format, va...);
 121:../../../../DaisyExamples/libDaisy//src/daisy_seed.h ****     }
 122:../../../../DaisyExamples/libDaisy//src/daisy_seed.h **** 
 123:../../../../DaisyExamples/libDaisy//src/daisy_seed.h ****     /** Print formatted debug log message with automatic line termination
 124:../../../../DaisyExamples/libDaisy//src/daisy_seed.h ****     */
 125:../../../../DaisyExamples/libDaisy//src/daisy_seed.h ****     template <typename... VA>
 126:../../../../DaisyExamples/libDaisy//src/daisy_seed.h ****     static void PrintLine(const char* format, VA... va)
 127:../../../../DaisyExamples/libDaisy//src/daisy_seed.h ****     {
 128:../../../../DaisyExamples/libDaisy//src/daisy_seed.h ****         Log::PrintLine(format, va...);
 1394              		.loc 2 128 23 view .LVU506
 1395 0004 1448     		ldr	r0, .L131
 1396              	.LVL102:
 1397              		.loc 2 128 23 view .LVU507
 1398              	.LBE171:
 1399              	.LBI170:
 126:../../../../DaisyExamples/libDaisy//src/daisy_seed.h ****     {
 1400              		.loc 2 126 17 is_stmt 1 view .LVU508
 1401              	.LBB172:
 1402              		.loc 2 128 23 is_stmt 0 view .LVU509
 1403 0006 D4F86011 		ldr	r1, [r4, #352]
 1404 000a FFF7FEFF 		bl	_ZN5daisy6LoggerILNS_17LoggerDestinationE1EE9PrintLineEPKcz
 1405              	.LVL103:
 1406              		.loc 2 128 23 view .LVU510
 1407              	.LBE172:
 1408              	.LBE170:
 192:daisy_common.cpp ****     seed.PrintLine("knob_3_user: %d", knob_3_user_name);
 1409              		.loc 1 192 5 is_stmt 1 view .LVU511
 1410              	.LBB173:
 1411              	.LBI173:
 126:../../../../DaisyExamples/libDaisy//src/daisy_seed.h ****     {
 1412              		.loc 2 126 17 view .LVU512
 1413              	.LBB174:
 1414              		.loc 2 128 23 is_stmt 0 view .LVU513
 1415 000e D4F86411 		ldr	r1, [r4, #356]
 1416 0012 1248     		ldr	r0, .L131+4
 1417 0014 FFF7FEFF 		bl	_ZN5daisy6LoggerILNS_17LoggerDestinationE1EE9PrintLineEPKcz
 1418              	.LVL104:
 1419              		.loc 2 128 23 view .LVU514
 1420              	.LBE174:
 1421              	.LBE173:
ARM GAS  C:\Users\samue\AppData\Local\Temp\cc4nCvGK.s 			page 40


 193:daisy_common.cpp ****     seed.PrintLine("knob_4_user: %d", knob_4_user_name);
 1422              		.loc 1 193 5 is_stmt 1 view .LVU515
 1423              	.LBB175:
 1424              	.LBI175:
 126:../../../../DaisyExamples/libDaisy//src/daisy_seed.h ****     {
 1425              		.loc 2 126 17 view .LVU516
 1426              	.LBB176:
 1427              		.loc 2 128 23 is_stmt 0 view .LVU517
 1428 0018 D4F86811 		ldr	r1, [r4, #360]
 1429 001c 1048     		ldr	r0, .L131+8
 1430 001e FFF7FEFF 		bl	_ZN5daisy6LoggerILNS_17LoggerDestinationE1EE9PrintLineEPKcz
 1431              	.LVL105:
 1432              		.loc 2 128 23 view .LVU518
 1433              	.LBE176:
 1434              	.LBE175:
 194:daisy_common.cpp ****     seed.PrintLine("knob_5_user: %d", knob_5_user_name);
 1435              		.loc 1 194 5 is_stmt 1 view .LVU519
 1436              	.LBB177:
 1437              	.LBI177:
 126:../../../../DaisyExamples/libDaisy//src/daisy_seed.h ****     {
 1438              		.loc 2 126 17 view .LVU520
 1439              	.LBB178:
 1440              		.loc 2 128 23 is_stmt 0 view .LVU521
 1441 0022 D4F86C11 		ldr	r1, [r4, #364]
 1442 0026 0F48     		ldr	r0, .L131+12
 1443 0028 FFF7FEFF 		bl	_ZN5daisy6LoggerILNS_17LoggerDestinationE1EE9PrintLineEPKcz
 1444              	.LVL106:
 1445              		.loc 2 128 23 view .LVU522
 1446              	.LBE178:
 1447              	.LBE177:
 195:daisy_common.cpp ****     seed.PrintLine("knob_6_user: %d", knob_6_user_name);
 1448              		.loc 1 195 5 is_stmt 1 view .LVU523
 1449              	.LBB179:
 1450              	.LBI179:
 126:../../../../DaisyExamples/libDaisy//src/daisy_seed.h ****     {
 1451              		.loc 2 126 17 view .LVU524
 1452              	.LBB180:
 1453              		.loc 2 128 23 is_stmt 0 view .LVU525
 1454 002c D4F87011 		ldr	r1, [r4, #368]
 1455 0030 0D48     		ldr	r0, .L131+16
 1456 0032 FFF7FEFF 		bl	_ZN5daisy6LoggerILNS_17LoggerDestinationE1EE9PrintLineEPKcz
 1457              	.LVL107:
 1458              		.loc 2 128 23 view .LVU526
 1459              	.LBE180:
 1460              	.LBE179:
 196:daisy_common.cpp ****     seed.PrintLine("knob_7_user: %d", knob_7_user_name);
 1461              		.loc 1 196 5 is_stmt 1 view .LVU527
 1462              	.LBB181:
 1463              	.LBI181:
 126:../../../../DaisyExamples/libDaisy//src/daisy_seed.h ****     {
 1464              		.loc 2 126 17 view .LVU528
 1465              	.LBB182:
 1466              		.loc 2 128 23 is_stmt 0 view .LVU529
 1467 0036 D4F87411 		ldr	r1, [r4, #372]
 1468 003a 0C48     		ldr	r0, .L131+20
 1469 003c FFF7FEFF 		bl	_ZN5daisy6LoggerILNS_17LoggerDestinationE1EE9PrintLineEPKcz
 1470              	.LVL108:
ARM GAS  C:\Users\samue\AppData\Local\Temp\cc4nCvGK.s 			page 41


 1471              		.loc 2 128 23 view .LVU530
 1472              	.LBE182:
 1473              	.LBE181:
 197:daisy_common.cpp ****     seed.PrintLine("knob_8_user: %d", knob_8_user_name);
 1474              		.loc 1 197 5 is_stmt 1 view .LVU531
 1475              	.LBB183:
 1476              	.LBI183:
 126:../../../../DaisyExamples/libDaisy//src/daisy_seed.h ****     {
 1477              		.loc 2 126 17 view .LVU532
 1478              	.LBB184:
 1479              		.loc 2 128 23 is_stmt 0 view .LVU533
 1480 0040 D4F87811 		ldr	r1, [r4, #376]
 1481 0044 0A48     		ldr	r0, .L131+24
 1482 0046 FFF7FEFF 		bl	_ZN5daisy6LoggerILNS_17LoggerDestinationE1EE9PrintLineEPKcz
 1483              	.LVL109:
 1484              		.loc 2 128 23 view .LVU534
 1485              	.LBE184:
 1486              	.LBE183:
 198:daisy_common.cpp **** }
 1487              		.loc 1 198 5 is_stmt 1 view .LVU535
 1488              	.LBB185:
 1489              	.LBI185:
 126:../../../../DaisyExamples/libDaisy//src/daisy_seed.h ****     {
 1490              		.loc 2 126 17 view .LVU536
 1491              	.LBB186:
 1492              		.loc 2 128 23 is_stmt 0 view .LVU537
 1493 004a D4F87C11 		ldr	r1, [r4, #380]
 1494 004e 0948     		ldr	r0, .L131+28
 1495              	.LBE186:
 1496              	.LBE185:
 199:daisy_common.cpp **** 
 1497              		.loc 1 199 1 view .LVU538
 1498 0050 BDE81040 		pop	{r4, lr}
 1499              		.cfi_restore 14
 1500              		.cfi_restore 4
 1501              		.cfi_def_cfa_offset 0
 1502              	.LVL110:
 1503              	.LBB188:
 1504              	.LBB187:
 1505              		.loc 2 128 23 view .LVU539
 1506 0054 FFF7FEBF 		b	_ZN5daisy6LoggerILNS_17LoggerDestinationE1EE9PrintLineEPKcz
 1507              	.LVL111:
 1508              	.L132:
 1509              		.loc 2 128 23 view .LVU540
 1510              		.align	2
 1511              	.L131:
 1512 0058 00000000 		.word	.LC10
 1513 005c 10000000 		.word	.LC11
 1514 0060 20000000 		.word	.LC12
 1515 0064 30000000 		.word	.LC13
 1516 0068 40000000 		.word	.LC14
 1517 006c 50000000 		.word	.LC15
 1518 0070 60000000 		.word	.LC16
 1519 0074 70000000 		.word	.LC17
 1520              	.LBE187:
 1521              	.LBE188:
 1522              		.cfi_endproc
ARM GAS  C:\Users\samue\AppData\Local\Temp\cc4nCvGK.s 			page 42


 1523              	.LFE4693:
 1525              		.section	.text._ZN5daisy11daisyCommon8add_knobEii,"ax",%progbits
 1526              		.align	1
 1527              		.p2align 2,,3
 1528              		.global	_ZN5daisy11daisyCommon8add_knobEii
 1529              		.syntax unified
 1530              		.thumb
 1531              		.thumb_func
 1532              		.fpu fpv5-d16
 1534              	_ZN5daisy11daisyCommon8add_knobEii:
 1535              	.LVL112:
 1536              	.LFB4695:
 206:daisy_common.cpp ****     if(knob_num == knob_1) knob_1_user_name = user_name;
 1537              		.loc 1 206 1 is_stmt 1 view -0
 1538              		.cfi_startproc
 1539              		@ args = 0, pretend = 0, frame = 0
 1540              		@ frame_needed = 0, uses_anonymous_args = 0
 1541              		@ link register save eliminated.
 207:daisy_common.cpp ****     if(knob_num == knob_2) knob_2_user_name = user_name;
 1542              		.loc 1 207 5 view .LVU542
 1543 0000 12B9     		cbnz	r2, .L134
 207:daisy_common.cpp ****     if(knob_num == knob_2) knob_2_user_name = user_name;
 1544              		.loc 1 207 28 discriminator 1 view .LVU543
 207:daisy_common.cpp ****     if(knob_num == knob_2) knob_2_user_name = user_name;
 1545              		.loc 1 207 45 is_stmt 0 discriminator 1 view .LVU544
 1546 0002 C0F86011 		str	r1, [r0, #352]
 208:daisy_common.cpp ****     if(knob_num == knob_3) knob_3_user_name = user_name;
 1547              		.loc 1 208 5 is_stmt 1 discriminator 1 view .LVU545
 209:daisy_common.cpp ****     if(knob_num == knob_4) knob_4_user_name = user_name;
 1548              		.loc 1 209 5 discriminator 1 view .LVU546
 210:daisy_common.cpp ****     if(knob_num == knob_5) knob_5_user_name = user_name;
 1549              		.loc 1 210 5 discriminator 1 view .LVU547
 211:daisy_common.cpp ****     if(knob_num == knob_6) knob_6_user_name = user_name;
 1550              		.loc 1 211 5 discriminator 1 view .LVU548
 1551 0006 7047     		bx	lr
 1552              	.L134:
 208:daisy_common.cpp ****     if(knob_num == knob_3) knob_3_user_name = user_name;
 1553              		.loc 1 208 5 view .LVU549
 1554 0008 012A     		cmp	r2, #1
 1555 000a 02D1     		bne	.L154
 208:daisy_common.cpp ****     if(knob_num == knob_3) knob_3_user_name = user_name;
 1556              		.loc 1 208 28 discriminator 1 view .LVU550
 208:daisy_common.cpp ****     if(knob_num == knob_3) knob_3_user_name = user_name;
 1557              		.loc 1 208 45 is_stmt 0 discriminator 1 view .LVU551
 1558 000c C0F86411 		str	r1, [r0, #356]
 209:daisy_common.cpp ****     if(knob_num == knob_4) knob_4_user_name = user_name;
 1559              		.loc 1 209 5 is_stmt 1 discriminator 1 view .LVU552
 210:daisy_common.cpp ****     if(knob_num == knob_5) knob_5_user_name = user_name;
 1560              		.loc 1 210 5 discriminator 1 view .LVU553
 211:daisy_common.cpp ****     if(knob_num == knob_6) knob_6_user_name = user_name;
 1561              		.loc 1 211 5 discriminator 1 view .LVU554
 1562 0010 7047     		bx	lr
 1563              	.L154:
 209:daisy_common.cpp ****     if(knob_num == knob_4) knob_4_user_name = user_name;
 1564              		.loc 1 209 5 view .LVU555
 1565 0012 022A     		cmp	r2, #2
 1566 0014 02D1     		bne	.L155
ARM GAS  C:\Users\samue\AppData\Local\Temp\cc4nCvGK.s 			page 43


 209:daisy_common.cpp ****     if(knob_num == knob_4) knob_4_user_name = user_name;
 1567              		.loc 1 209 28 discriminator 1 view .LVU556
 209:daisy_common.cpp ****     if(knob_num == knob_4) knob_4_user_name = user_name;
 1568              		.loc 1 209 45 is_stmt 0 discriminator 1 view .LVU557
 1569 0016 C0F86811 		str	r1, [r0, #360]
 210:daisy_common.cpp ****     if(knob_num == knob_5) knob_5_user_name = user_name;
 1570              		.loc 1 210 5 is_stmt 1 discriminator 1 view .LVU558
 211:daisy_common.cpp ****     if(knob_num == knob_6) knob_6_user_name = user_name;
 1571              		.loc 1 211 5 discriminator 1 view .LVU559
 212:daisy_common.cpp ****     if(knob_num == knob_7) knob_7_user_name = user_name;
 1572              		.loc 1 212 5 discriminator 1 view .LVU560
 1573 001a 7047     		bx	lr
 1574              	.L155:
 210:daisy_common.cpp ****     if(knob_num == knob_5) knob_5_user_name = user_name;
 1575              		.loc 1 210 5 view .LVU561
 1576 001c 032A     		cmp	r2, #3
 1577 001e 02D1     		bne	.L156
 210:daisy_common.cpp ****     if(knob_num == knob_5) knob_5_user_name = user_name;
 1578              		.loc 1 210 28 discriminator 1 view .LVU562
 210:daisy_common.cpp ****     if(knob_num == knob_5) knob_5_user_name = user_name;
 1579              		.loc 1 210 45 is_stmt 0 discriminator 1 view .LVU563
 1580 0020 C0F86C11 		str	r1, [r0, #364]
 211:daisy_common.cpp ****     if(knob_num == knob_6) knob_6_user_name = user_name;
 1581              		.loc 1 211 5 is_stmt 1 discriminator 1 view .LVU564
 212:daisy_common.cpp ****     if(knob_num == knob_7) knob_7_user_name = user_name;
 1582              		.loc 1 212 5 discriminator 1 view .LVU565
 213:daisy_common.cpp ****     if(knob_num == knob_8) knob_8_user_name = user_name;
 1583              		.loc 1 213 5 discriminator 1 view .LVU566
 1584 0024 7047     		bx	lr
 1585              	.L156:
 211:daisy_common.cpp ****     if(knob_num == knob_6) knob_6_user_name = user_name;
 1586              		.loc 1 211 5 view .LVU567
 1587 0026 042A     		cmp	r2, #4
 1588 0028 02D1     		bne	.L157
 211:daisy_common.cpp ****     if(knob_num == knob_6) knob_6_user_name = user_name;
 1589              		.loc 1 211 28 discriminator 1 view .LVU568
 211:daisy_common.cpp ****     if(knob_num == knob_6) knob_6_user_name = user_name;
 1590              		.loc 1 211 45 is_stmt 0 discriminator 1 view .LVU569
 1591 002a C0F87011 		str	r1, [r0, #368]
 212:daisy_common.cpp ****     if(knob_num == knob_7) knob_7_user_name = user_name;
 1592              		.loc 1 212 5 is_stmt 1 discriminator 1 view .LVU570
 213:daisy_common.cpp ****     if(knob_num == knob_8) knob_8_user_name = user_name;
 1593              		.loc 1 213 5 discriminator 1 view .LVU571
 1594              		.loc 1 214 5 discriminator 1 view .LVU572
 1595 002e 7047     		bx	lr
 1596              	.L157:
 212:daisy_common.cpp ****     if(knob_num == knob_7) knob_7_user_name = user_name;
 1597              		.loc 1 212 5 view .LVU573
 1598 0030 052A     		cmp	r2, #5
 1599 0032 02D1     		bne	.L158
 212:daisy_common.cpp ****     if(knob_num == knob_7) knob_7_user_name = user_name;
 1600              		.loc 1 212 28 discriminator 1 view .LVU574
 212:daisy_common.cpp ****     if(knob_num == knob_7) knob_7_user_name = user_name;
 1601              		.loc 1 212 45 is_stmt 0 discriminator 1 view .LVU575
 1602 0034 C0F87411 		str	r1, [r0, #372]
 213:daisy_common.cpp ****     if(knob_num == knob_8) knob_8_user_name = user_name;
 1603              		.loc 1 213 5 is_stmt 1 discriminator 1 view .LVU576
ARM GAS  C:\Users\samue\AppData\Local\Temp\cc4nCvGK.s 			page 44


 1604              		.loc 1 214 5 discriminator 1 view .LVU577
 1605 0038 7047     		bx	lr
 1606              	.L158:
 213:daisy_common.cpp ****     if(knob_num == knob_8) knob_8_user_name = user_name;
 1607              		.loc 1 213 5 view .LVU578
 1608 003a 062A     		cmp	r2, #6
 1609 003c 02D1     		bne	.L159
 213:daisy_common.cpp ****     if(knob_num == knob_8) knob_8_user_name = user_name;
 1610              		.loc 1 213 28 discriminator 1 view .LVU579
 213:daisy_common.cpp ****     if(knob_num == knob_8) knob_8_user_name = user_name;
 1611              		.loc 1 213 45 is_stmt 0 discriminator 1 view .LVU580
 1612 003e C0F87811 		str	r1, [r0, #376]
 1613              		.loc 1 214 5 is_stmt 1 discriminator 1 view .LVU581
 1614 0042 7047     		bx	lr
 1615              	.L159:
 1616              		.loc 1 214 5 view .LVU582
 1617 0044 072A     		cmp	r2, #7
 1618 0046 02D1     		bne	.L160
 1619              		.loc 1 214 28 discriminator 1 view .LVU583
 1620              		.loc 1 214 45 is_stmt 0 discriminator 1 view .LVU584
 1621 0048 C0F87C11 		str	r1, [r0, #380]
 215:daisy_common.cpp **** }
 1622              		.loc 1 215 1 discriminator 1 view .LVU585
 1623 004c 7047     		bx	lr
 1624              	.L160:
 1625              		.loc 1 215 1 discriminator 1 view .LVU586
 1626 004e 7047     		bx	lr
 1627              		.cfi_endproc
 1628              	.LFE4695:
 1630              		.section	.text._ZN5daisy11daisyCommon7get_muxEi,"ax",%progbits
 1631              		.align	1
 1632              		.p2align 2,,3
 1633              		.global	_ZN5daisy11daisyCommon7get_muxEi
 1634              		.syntax unified
 1635              		.thumb
 1636              		.thumb_func
 1637              		.fpu fpv5-d16
 1639              	_ZN5daisy11daisyCommon7get_muxEi:
 1640              	.LVL113:
 1641              	.LFB4696:
 216:daisy_common.cpp **** int daisyCommon::get_mux(int knob_user_name)
 217:daisy_common.cpp **** {
 1642              		.loc 1 217 1 is_stmt 1 view -0
 1643              		.cfi_startproc
 1644              		@ args = 0, pretend = 0, frame = 0
 1645              		@ frame_needed = 0, uses_anonymous_args = 0
 1646              		@ link register save eliminated.
 218:daisy_common.cpp ****     if(knob_user_name == knob_1_user_name) return mux_x;
 1647              		.loc 1 218 5 view .LVU588
 1648 0000 D0F86031 		ldr	r3, [r0, #352]
 1649 0004 8B42     		cmp	r3, r1
 1650 0006 1FD0     		beq	.L166
 219:daisy_common.cpp ****     if(knob_user_name == knob_3_user_name) return mux_x;
 1651              		.loc 1 219 5 view .LVU589
 1652 0008 D0F86831 		ldr	r3, [r0, #360]
 1653 000c 8B42     		cmp	r3, r1
 1654 000e 1BD0     		beq	.L166
ARM GAS  C:\Users\samue\AppData\Local\Temp\cc4nCvGK.s 			page 45


 220:daisy_common.cpp ****     if(knob_user_name == knob_4_user_name) return mux_x;
 1655              		.loc 1 220 5 view .LVU590
 1656 0010 D0F86C31 		ldr	r3, [r0, #364]
 1657 0014 8B42     		cmp	r3, r1
 1658 0016 17D0     		beq	.L166
 221:daisy_common.cpp ****     if(knob_user_name == knob_5_user_name) return mux_x;
 1659              		.loc 1 221 5 view .LVU591
 1660 0018 D0F87031 		ldr	r3, [r0, #368]
 1661 001c 8B42     		cmp	r3, r1
 1662 001e 13D0     		beq	.L166
 222:daisy_common.cpp ****     if(knob_user_name == knob_2_user_name) return mux_y;
 1663              		.loc 1 222 5 view .LVU592
 1664 0020 D0F86431 		ldr	r3, [r0, #356]
 1665 0024 8B42     		cmp	r3, r1
 1666 0026 11D0     		beq	.L169
 223:daisy_common.cpp ****     if(knob_user_name == knob_6_user_name) return mux_y;
 1667              		.loc 1 223 5 view .LVU593
 1668 0028 D0F87431 		ldr	r3, [r0, #372]
 1669 002c 8B42     		cmp	r3, r1
 1670 002e 0DD0     		beq	.L169
 1671              	.LVL114:
 1672              	.LBB191:
 1673              	.LBI191:
 216:daisy_common.cpp **** {
 1674              		.loc 1 216 5 view .LVU594
 1675              	.LBB192:
 224:daisy_common.cpp ****     if(knob_user_name == knob_7_user_name) return mux_y;
 1676              		.loc 1 224 5 view .LVU595
 1677 0030 D0F87831 		ldr	r3, [r0, #376]
 1678 0034 9942     		cmp	r1, r3
 1679 0036 09D0     		beq	.L169
 225:daisy_common.cpp ****     if(knob_user_name == knob_8_user_name) return mux_y;
 1680              		.loc 1 225 5 view .LVU596
 1681 0038 D0F87C01 		ldr	r0, [r0, #380]
 1682              	.LVL115:
 226:daisy_common.cpp ****     return -1;
 1683              		.loc 1 226 13 is_stmt 0 view .LVU597
 1684 003c 8142     		cmp	r1, r0
 1685 003e 0CBF     		ite	eq
 1686 0040 0120     		moveq	r0, #1
 1687 0042 4FF0FF30 		movne	r0, #-1
 1688 0046 7047     		bx	lr
 1689              	.LVL116:
 1690              	.L166:
 1691              		.loc 1 226 13 view .LVU598
 1692              	.LBE192:
 1693              	.LBE191:
 218:daisy_common.cpp ****     if(knob_user_name == knob_3_user_name) return mux_x;
 1694              		.loc 1 218 51 view .LVU599
 1695 0048 0020     		movs	r0, #0
 1696              	.LVL117:
 218:daisy_common.cpp ****     if(knob_user_name == knob_3_user_name) return mux_x;
 1697              		.loc 1 218 51 view .LVU600
 1698 004a 7047     		bx	lr
 1699              	.LVL118:
 1700              	.L169:
 1701              	.LBB194:
ARM GAS  C:\Users\samue\AppData\Local\Temp\cc4nCvGK.s 			page 46


 1702              	.LBB193:
 225:daisy_common.cpp ****     if(knob_user_name == knob_8_user_name) return mux_y;
 1703              		.loc 1 225 51 view .LVU601
 1704 004c 0120     		movs	r0, #1
 1705              	.LVL119:
 225:daisy_common.cpp ****     if(knob_user_name == knob_8_user_name) return mux_y;
 1706              		.loc 1 225 51 view .LVU602
 1707              	.LBE193:
 1708              	.LBE194:
 227:daisy_common.cpp **** }
 1709              		.loc 1 227 1 view .LVU603
 1710 004e 7047     		bx	lr
 1711              		.cfi_endproc
 1712              	.LFE4696:
 1714              		.section	.text._ZN5daisy11daisyCommon17get_knob_adc_chanEi,"ax",%progbits
 1715              		.align	1
 1716              		.p2align 2,,3
 1717              		.global	_ZN5daisy11daisyCommon17get_knob_adc_chanEi
 1718              		.syntax unified
 1719              		.thumb
 1720              		.thumb_func
 1721              		.fpu fpv5-d16
 1723              	_ZN5daisy11daisyCommon17get_knob_adc_chanEi:
 1724              	.LVL120:
 1725              	.LFB4697:
 228:daisy_common.cpp **** int daisyCommon::get_knob_adc_chan(int knob_user_name)
 229:daisy_common.cpp **** {
 1726              		.loc 1 229 1 is_stmt 1 view -0
 1727              		.cfi_startproc
 1728              		@ args = 0, pretend = 0, frame = 0
 1729              		@ frame_needed = 0, uses_anonymous_args = 0
 1730              		@ link register save eliminated.
 230:daisy_common.cpp ****     if(knob_user_name == knob_1_user_name) return knob_1_chan;
 1731              		.loc 1 230 5 view .LVU605
 1732 0000 D0F86031 		ldr	r3, [r0, #352]
 1733 0004 8B42     		cmp	r3, r1
 1734 0006 1FD0     		beq	.L177
 231:daisy_common.cpp ****     if(knob_user_name == knob_3_user_name) return knob_3_chan;
 1735              		.loc 1 231 5 view .LVU606
 1736 0008 D0F86831 		ldr	r3, [r0, #360]
 1737 000c 8B42     		cmp	r3, r1
 1738 000e 1FD0     		beq	.L174
 232:daisy_common.cpp ****     if(knob_user_name == knob_4_user_name) return knob_4_chan;
 1739              		.loc 1 232 5 view .LVU607
 1740 0010 D0F86C31 		ldr	r3, [r0, #364]
 1741 0014 8B42     		cmp	r3, r1
 1742 0016 1DD0     		beq	.L179
 233:daisy_common.cpp ****     if(knob_user_name == knob_5_user_name) return knob_5_chan;
 1743              		.loc 1 233 5 view .LVU608
 1744 0018 D0F87031 		ldr	r3, [r0, #368]
 1745 001c 8B42     		cmp	r3, r1
 1746 001e 15D0     		beq	.L178
 234:daisy_common.cpp ****     if(knob_user_name == knob_2_user_name) return knob_2_chan;
 1747              		.loc 1 234 5 view .LVU609
 1748 0020 D0F86431 		ldr	r3, [r0, #356]
 1749 0024 8B42     		cmp	r3, r1
 1750 0026 0FD0     		beq	.L177
ARM GAS  C:\Users\samue\AppData\Local\Temp\cc4nCvGK.s 			page 47


 235:daisy_common.cpp ****     if(knob_user_name == knob_6_user_name) return knob_6_chan;
 1751              		.loc 1 235 5 view .LVU610
 1752 0028 D0F87431 		ldr	r3, [r0, #372]
 1753 002c 8B42     		cmp	r3, r1
 1754 002e 0DD0     		beq	.L178
 1755              	.LVL121:
 1756              	.LBB197:
 1757              	.LBI197:
 228:daisy_common.cpp **** {
 1758              		.loc 1 228 5 view .LVU611
 1759              	.LBB198:
 236:daisy_common.cpp ****     if(knob_user_name == knob_7_user_name) return knob_7_chan;
 1760              		.loc 1 236 5 view .LVU612
 1761 0030 D0F87831 		ldr	r3, [r0, #376]
 1762 0034 9942     		cmp	r1, r3
 1763 0036 0DD0     		beq	.L179
 237:daisy_common.cpp ****     if(knob_user_name == knob_8_user_name) return knob_8_chan;
 1764              		.loc 1 237 5 view .LVU613
 1765 0038 D0F87C01 		ldr	r0, [r0, #380]
 1766              	.LVL122:
 238:daisy_common.cpp ****     return -1;
 1767              		.loc 1 238 13 is_stmt 0 view .LVU614
 1768 003c 8142     		cmp	r1, r0
 1769 003e 0CBF     		ite	eq
 1770 0040 0120     		moveq	r0, #1
 1771 0042 4FF0FF30 		movne	r0, #-1
 1772 0046 7047     		bx	lr
 1773              	.LVL123:
 1774              	.L177:
 1775              		.loc 1 238 13 view .LVU615
 1776              	.LBE198:
 1777              	.LBE197:
 230:daisy_common.cpp ****     if(knob_user_name == knob_3_user_name) return knob_3_chan;
 1778              		.loc 1 230 51 view .LVU616
 1779 0048 0020     		movs	r0, #0
 1780              	.LVL124:
 230:daisy_common.cpp ****     if(knob_user_name == knob_3_user_name) return knob_3_chan;
 1781              		.loc 1 230 51 view .LVU617
 1782 004a 7047     		bx	lr
 1783              	.LVL125:
 1784              	.L178:
 233:daisy_common.cpp ****     if(knob_user_name == knob_2_user_name) return knob_2_chan;
 1785              		.loc 1 233 51 view .LVU618
 1786 004c 0220     		movs	r0, #2
 1787              	.LVL126:
 233:daisy_common.cpp ****     if(knob_user_name == knob_2_user_name) return knob_2_chan;
 1788              		.loc 1 233 51 view .LVU619
 1789 004e 7047     		bx	lr
 1790              	.LVL127:
 1791              	.L174:
 1792              	.LBB200:
 1793              	.LBB199:
 237:daisy_common.cpp ****     return -1;
 1794              		.loc 1 237 51 view .LVU620
 1795 0050 0120     		movs	r0, #1
 1796              	.LVL128:
 237:daisy_common.cpp ****     return -1;
ARM GAS  C:\Users\samue\AppData\Local\Temp\cc4nCvGK.s 			page 48


 1797              		.loc 1 237 51 view .LVU621
 1798 0052 7047     		bx	lr
 1799              	.LVL129:
 1800              	.L179:
 237:daisy_common.cpp ****     return -1;
 1801              		.loc 1 237 51 view .LVU622
 1802              	.LBE199:
 1803              	.LBE200:
 232:daisy_common.cpp ****     if(knob_user_name == knob_5_user_name) return knob_5_chan;
 1804              		.loc 1 232 51 view .LVU623
 1805 0054 0320     		movs	r0, #3
 1806              	.LVL130:
 239:daisy_common.cpp **** }
 1807              		.loc 1 239 1 view .LVU624
 1808 0056 7047     		bx	lr
 1809              		.cfi_endproc
 1810              	.LFE4697:
 1812              		.section	.text._ZN5daisy11daisyCommon8get_knobEi,"ax",%progbits
 1813              		.align	1
 1814              		.p2align 2,,3
 1815              		.global	_ZN5daisy11daisyCommon8get_knobEi
 1816              		.syntax unified
 1817              		.thumb
 1818              		.thumb_func
 1819              		.fpu fpv5-d16
 1821              	_ZN5daisy11daisyCommon8get_knobEi:
 1822              	.LVL131:
 1823              	.LFB4694:
 202:daisy_common.cpp ****     return seed.adc.GetMuxFloat(get_mux(user_name), get_knob_adc_chan(user_name))*-1+1;
 1824              		.loc 1 202 1 is_stmt 1 view -0
 1825              		.cfi_startproc
 1826              		@ args = 0, pretend = 0, frame = 0
 1827              		@ frame_needed = 0, uses_anonymous_args = 0
 203:daisy_common.cpp **** }
 1828              		.loc 1 203 5 view .LVU626
 202:daisy_common.cpp ****     return seed.adc.GetMuxFloat(get_mux(user_name), get_knob_adc_chan(user_name))*-1+1;
 1829              		.loc 1 202 1 is_stmt 0 view .LVU627
 1830 0000 38B5     		push	{r3, r4, r5, lr}
 1831              		.cfi_def_cfa_offset 16
 1832              		.cfi_offset 3, -16
 1833              		.cfi_offset 4, -12
 1834              		.cfi_offset 5, -8
 1835              		.cfi_offset 14, -4
 202:daisy_common.cpp ****     return seed.adc.GetMuxFloat(get_mux(user_name), get_knob_adc_chan(user_name))*-1+1;
 1836              		.loc 1 202 1 view .LVU628
 1837 0002 0446     		mov	r4, r0
 203:daisy_common.cpp **** }
 1838              		.loc 1 203 40 view .LVU629
 1839 0004 FFF7FEFF 		bl	_ZN5daisy11daisyCommon7get_muxEi
 1840              	.LVL132:
 203:daisy_common.cpp **** }
 1841              		.loc 1 203 40 view .LVU630
 1842 0008 0546     		mov	r5, r0
 203:daisy_common.cpp **** }
 1843              		.loc 1 203 70 view .LVU631
 1844 000a 2046     		mov	r0, r4
 1845 000c FFF7FEFF 		bl	_ZN5daisy11daisyCommon17get_knob_adc_chanEi
ARM GAS  C:\Users\samue\AppData\Local\Temp\cc4nCvGK.s 			page 49


 1846              	.LVL133:
 1847 0010 0246     		mov	r2, r0
 203:daisy_common.cpp **** }
 1848              		.loc 1 203 32 view .LVU632
 1849 0012 E9B2     		uxtb	r1, r5
 1850              	.LVL134:
 203:daisy_common.cpp **** }
 1851              		.loc 1 203 32 view .LVU633
 1852 0014 04F59C70 		add	r0, r4, #312
 1853 0018 D2B2     		uxtb	r2, r2
 1854 001a FFF7FEFF 		bl	_ZNK5daisy9AdcHandle11GetMuxFloatEhh
 1855              	.LVL135:
 203:daisy_common.cpp **** }
 1856              		.loc 1 203 86 view .LVU634
 1857 001e F7EE007A 		vmov.f32	s15, #1.0e+0
 204:daisy_common.cpp **** void daisyCommon::add_knob(int user_name, int knob_num)
 1858              		.loc 1 204 1 view .LVU635
 1859 0022 37EEC00A 		vsub.f32	s0, s15, s0
 1860 0026 38BD     		pop	{r3, r4, r5, pc}
 204:daisy_common.cpp **** void daisyCommon::add_knob(int user_name, int knob_num)
 1861              		.loc 1 204 1 view .LVU636
 1862              		.cfi_endproc
 1863              	.LFE4694:
 1865              		.section	.text._ZN5daisy11daisyCommon16get_dual_controlEi,"ax",%progbits
 1866              		.align	1
 1867              		.p2align 2,,3
 1868              		.global	_ZN5daisy11daisyCommon16get_dual_controlEi
 1869              		.syntax unified
 1870              		.thumb
 1871              		.thumb_func
 1872              		.fpu fpv5-d16
 1874              	_ZN5daisy11daisyCommon16get_dual_controlEi:
 1875              	.LVL136:
 1876              	.LFB4688:
  40:daisy_common.cpp ****     float ret;
 1877              		.loc 1 40 1 is_stmt 1 view -0
 1878              		.cfi_startproc
 1879              		@ args = 0, pretend = 0, frame = 0
 1880              		@ frame_needed = 0, uses_anonymous_args = 0
  41:daisy_common.cpp ****     ret = get_cv(user_name)-0.5f;
 1881              		.loc 1 41 5 view .LVU638
  42:daisy_common.cpp ****     ret = ret + get_knob(user_name);
 1882              		.loc 1 42 5 view .LVU639
  40:daisy_common.cpp ****     float ret;
 1883              		.loc 1 40 1 is_stmt 0 view .LVU640
 1884 0000 70B5     		push	{r4, r5, r6, lr}
 1885              		.cfi_def_cfa_offset 16
 1886              		.cfi_offset 4, -16
 1887              		.cfi_offset 5, -12
 1888              		.cfi_offset 6, -8
 1889              		.cfi_offset 14, -4
 1890 0002 0446     		mov	r4, r0
 1891              	.LVL137:
  40:daisy_common.cpp ****     float ret;
 1892              		.loc 1 40 1 view .LVU641
 1893 0004 0D46     		mov	r5, r1
 1894              	.LVL138:
ARM GAS  C:\Users\samue\AppData\Local\Temp\cc4nCvGK.s 			page 50


 1895              	.LBB210:
 1896              	.LBI210:
  49:daisy_common.cpp **** {
 1897              		.loc 1 49 7 is_stmt 1 view .LVU642
 1898              	.LBB211:
  51:daisy_common.cpp **** }
 1899              		.loc 1 51 5 view .LVU643
  51:daisy_common.cpp **** }
 1900              		.loc 1 51 29 is_stmt 0 view .LVU644
 1901 0006 04F59C76 		add	r6, r4, #312
 1902              	.LBE211:
 1903              	.LBE210:
  40:daisy_common.cpp ****     float ret;
 1904              		.loc 1 40 1 view .LVU645
 1905 000a 2DED028B 		vpush.64	{d8}
 1906              		.cfi_def_cfa_offset 24
 1907              		.cfi_offset 80, -24
 1908              		.cfi_offset 81, -20
 1909              	.LBB214:
 1910              	.LBB212:
  51:daisy_common.cpp **** }
 1911              		.loc 1 51 45 view .LVU646
 1912 000e FFF7FEFF 		bl	_ZN5daisy11daisyCommon15get_cv_adc_chanEi
 1913              	.LVL139:
  51:daisy_common.cpp **** }
 1914              		.loc 1 51 61 view .LVU647
 1915 0012 F7EE008A 		vmov.f32	s17, #1.0e+0
  51:daisy_common.cpp **** }
 1916              		.loc 1 51 29 view .LVU648
 1917 0016 C1B2     		uxtb	r1, r0
 1918              	.LVL140:
  51:daisy_common.cpp **** }
 1919              		.loc 1 51 29 view .LVU649
 1920 0018 3046     		mov	r0, r6
 1921 001a FFF7FEFF 		bl	_ZNK5daisy9AdcHandle8GetFloatEh
 1922              	.LVL141:
  51:daisy_common.cpp **** }
 1923              		.loc 1 51 29 view .LVU650
 1924              	.LBE212:
 1925              	.LBE214:
 1926              	.LBB215:
 1927              	.LBB216:
 203:daisy_common.cpp **** }
 1928              		.loc 1 203 40 view .LVU651
 1929 001e 2946     		mov	r1, r5
 1930 0020 2046     		mov	r0, r4
 1931              	.LBE216:
 1932              	.LBE215:
 1933              	.LBB220:
 1934              	.LBB213:
  51:daisy_common.cpp **** }
 1935              		.loc 1 51 61 view .LVU652
 1936 0022 38EEC00A 		vsub.f32	s0, s17, s0
 1937              	.LBE213:
 1938              	.LBE220:
 1939              	.LBB221:
 1940              	.LBB217:
ARM GAS  C:\Users\samue\AppData\Local\Temp\cc4nCvGK.s 			page 51


 203:daisy_common.cpp **** }
 1941              		.loc 1 203 40 view .LVU653
 1942 0026 FFF7FEFF 		bl	_ZN5daisy11daisyCommon7get_muxEi
 1943              	.LVL142:
 1944 002a 0346     		mov	r3, r0
 203:daisy_common.cpp **** }
 1945              		.loc 1 203 70 view .LVU654
 1946 002c 2046     		mov	r0, r4
 1947              	.LBE217:
 1948              	.LBE221:
  42:daisy_common.cpp ****     ret = ret + get_knob(user_name);
 1949              		.loc 1 42 9 view .LVU655
 1950 002e B6EE008A 		vmov.f32	s16, #5.0e-1
 1951              	.LBB222:
 1952              	.LBB218:
 203:daisy_common.cpp **** }
 1953              		.loc 1 203 40 view .LVU656
 1954 0032 1C46     		mov	r4, r3
 1955              	.LVL143:
 203:daisy_common.cpp **** }
 1956              		.loc 1 203 70 view .LVU657
 1957 0034 FFF7FEFF 		bl	_ZN5daisy11daisyCommon17get_knob_adc_chanEi
 1958              	.LVL144:
 203:daisy_common.cpp **** }
 1959              		.loc 1 203 70 view .LVU658
 1960 0038 0246     		mov	r2, r0
 203:daisy_common.cpp **** }
 1961              		.loc 1 203 32 view .LVU659
 1962 003a 3046     		mov	r0, r6
 1963 003c E1B2     		uxtb	r1, r4
 1964              	.LBE218:
 1965              	.LBE222:
  42:daisy_common.cpp ****     ret = ret + get_knob(user_name);
 1966              		.loc 1 42 9 view .LVU660
 1967 003e 30EE488A 		vsub.f32	s16, s0, s16
 1968              	.LVL145:
  43:daisy_common.cpp ****     daisysp::fclamp(ret, 0.0f, 1.0f);
 1969              		.loc 1 43 5 is_stmt 1 view .LVU661
 1970              	.LBB223:
 1971              	.LBI215:
 201:daisy_common.cpp **** {
 1972              		.loc 1 201 7 view .LVU662
 1973              	.LBB219:
 203:daisy_common.cpp **** }
 1974              		.loc 1 203 5 view .LVU663
 203:daisy_common.cpp **** }
 1975              		.loc 1 203 32 is_stmt 0 view .LVU664
 1976 0042 D2B2     		uxtb	r2, r2
 1977 0044 FFF7FEFF 		bl	_ZNK5daisy9AdcHandle11GetMuxFloatEhh
 1978              	.LVL146:
 203:daisy_common.cpp **** }
 1979              		.loc 1 203 86 view .LVU665
 1980 0048 38EEC00A 		vsub.f32	s0, s17, s0
 1981              	.LVL147:
 203:daisy_common.cpp **** }
 1982              		.loc 1 203 86 view .LVU666
 1983              	.LBE219:
ARM GAS  C:\Users\samue\AppData\Local\Temp\cc4nCvGK.s 			page 52


 1984              	.LBE223:
  44:daisy_common.cpp ****     return ret;
 1985              		.loc 1 44 5 is_stmt 1 view .LVU667
 1986              	.LBB224:
 1987              	.LBI224:
 1988              		.file 3 "../../../../DaisyExamples/DaisySP//Source/Utility/dsp.h"
   1:../../../../DaisyExamples/DaisySP//Source/Utility/dsp.h **** /*
   2:../../../../DaisyExamples/DaisySP//Source/Utility/dsp.h **** Copyright (c) 2020 Electrosmith, Corp, Emilie Gillet
   3:../../../../DaisyExamples/DaisySP//Source/Utility/dsp.h **** 
   4:../../../../DaisyExamples/DaisySP//Source/Utility/dsp.h **** Use of this source code is governed by an MIT-style
   5:../../../../DaisyExamples/DaisySP//Source/Utility/dsp.h **** license that can be found in the LICENSE file or at
   6:../../../../DaisyExamples/DaisySP//Source/Utility/dsp.h **** https://opensource.org/licenses/MIT.
   7:../../../../DaisyExamples/DaisySP//Source/Utility/dsp.h **** */
   8:../../../../DaisyExamples/DaisySP//Source/Utility/dsp.h **** 
   9:../../../../DaisyExamples/DaisySP//Source/Utility/dsp.h **** /** Helpful defines, functions, and other utilities for use in/with daisysp modules.
  10:../../../../DaisyExamples/DaisySP//Source/Utility/dsp.h **** */
  11:../../../../DaisyExamples/DaisySP//Source/Utility/dsp.h **** #pragma once
  12:../../../../DaisyExamples/DaisySP//Source/Utility/dsp.h **** #ifndef DSY_CORE_DSP
  13:../../../../DaisyExamples/DaisySP//Source/Utility/dsp.h **** #define DSY_CORE_DSP
  14:../../../../DaisyExamples/DaisySP//Source/Utility/dsp.h **** #include <cassert>
  15:../../../../DaisyExamples/DaisySP//Source/Utility/dsp.h **** #include <cstdint>
  16:../../../../DaisyExamples/DaisySP//Source/Utility/dsp.h **** #include <random>
  17:../../../../DaisyExamples/DaisySP//Source/Utility/dsp.h **** #include <cmath>
  18:../../../../DaisyExamples/DaisySP//Source/Utility/dsp.h **** 
  19:../../../../DaisyExamples/DaisySP//Source/Utility/dsp.h **** /** PIs
  20:../../../../DaisyExamples/DaisySP//Source/Utility/dsp.h **** */
  21:../../../../DaisyExamples/DaisySP//Source/Utility/dsp.h **** #define PI_F 3.1415927410125732421875f
  22:../../../../DaisyExamples/DaisySP//Source/Utility/dsp.h **** #define TWOPI_F (2.0f * PI_F)
  23:../../../../DaisyExamples/DaisySP//Source/Utility/dsp.h **** #define HALFPI_F (PI_F * 0.5f)
  24:../../../../DaisyExamples/DaisySP//Source/Utility/dsp.h **** #define DSY_MIN(in, mn) (in < mn ? in : mn)
  25:../../../../DaisyExamples/DaisySP//Source/Utility/dsp.h **** #define DSY_MAX(in, mx) (in > mx ? in : mx)
  26:../../../../DaisyExamples/DaisySP//Source/Utility/dsp.h **** #define DSY_CLAMP(in, mn, mx) (DSY_MIN(DSY_MAX(in, mn), mx))
  27:../../../../DaisyExamples/DaisySP//Source/Utility/dsp.h **** #define DSY_COUNTOF(_arr) (sizeof(_arr) / sizeof(_arr[0]))
  28:../../../../DaisyExamples/DaisySP//Source/Utility/dsp.h **** 
  29:../../../../DaisyExamples/DaisySP//Source/Utility/dsp.h **** namespace daisysp
  30:../../../../DaisyExamples/DaisySP//Source/Utility/dsp.h **** {
  31:../../../../DaisyExamples/DaisySP//Source/Utility/dsp.h **** //Avoids division for random floats. e.g. rand() * kRandFrac
  32:../../../../DaisyExamples/DaisySP//Source/Utility/dsp.h **** static constexpr float kRandFrac = 1.f / (float)RAND_MAX;
  33:../../../../DaisyExamples/DaisySP//Source/Utility/dsp.h **** 
  34:../../../../DaisyExamples/DaisySP//Source/Utility/dsp.h **** //Convert from semitones to other units. e.g. 2 ^ (kOneTwelfth * x)
  35:../../../../DaisyExamples/DaisySP//Source/Utility/dsp.h **** static constexpr float kOneTwelfth = 1.f / 12.f;
  36:../../../../DaisyExamples/DaisySP//Source/Utility/dsp.h **** 
  37:../../../../DaisyExamples/DaisySP//Source/Utility/dsp.h **** /** efficient floating point min/max
  38:../../../../DaisyExamples/DaisySP//Source/Utility/dsp.h **** c/o stephen mccaul
  39:../../../../DaisyExamples/DaisySP//Source/Utility/dsp.h **** */
  40:../../../../DaisyExamples/DaisySP//Source/Utility/dsp.h **** inline float fmax(float a, float b)
  41:../../../../DaisyExamples/DaisySP//Source/Utility/dsp.h **** {
  42:../../../../DaisyExamples/DaisySP//Source/Utility/dsp.h ****     float r;
  43:../../../../DaisyExamples/DaisySP//Source/Utility/dsp.h **** #ifdef __arm__
  44:../../../../DaisyExamples/DaisySP//Source/Utility/dsp.h ****     asm("vmaxnm.f32 %[d], %[n], %[m]" : [d] "=t"(r) : [n] "t"(a), [m] "t"(b) :);
  45:../../../../DaisyExamples/DaisySP//Source/Utility/dsp.h **** #else
  46:../../../../DaisyExamples/DaisySP//Source/Utility/dsp.h ****     r = (a > b) ? a : b;
  47:../../../../DaisyExamples/DaisySP//Source/Utility/dsp.h **** #endif // __arm__
  48:../../../../DaisyExamples/DaisySP//Source/Utility/dsp.h ****     return r;
  49:../../../../DaisyExamples/DaisySP//Source/Utility/dsp.h **** }
  50:../../../../DaisyExamples/DaisySP//Source/Utility/dsp.h **** 
  51:../../../../DaisyExamples/DaisySP//Source/Utility/dsp.h **** inline float fmin(float a, float b)
ARM GAS  C:\Users\samue\AppData\Local\Temp\cc4nCvGK.s 			page 53


  52:../../../../DaisyExamples/DaisySP//Source/Utility/dsp.h **** {
  53:../../../../DaisyExamples/DaisySP//Source/Utility/dsp.h ****     float r;
  54:../../../../DaisyExamples/DaisySP//Source/Utility/dsp.h **** #ifdef __arm__
  55:../../../../DaisyExamples/DaisySP//Source/Utility/dsp.h ****     asm("vminnm.f32 %[d], %[n], %[m]" : [d] "=t"(r) : [n] "t"(a), [m] "t"(b) :);
  56:../../../../DaisyExamples/DaisySP//Source/Utility/dsp.h **** #else
  57:../../../../DaisyExamples/DaisySP//Source/Utility/dsp.h ****     r = (a < b) ? a : b;
  58:../../../../DaisyExamples/DaisySP//Source/Utility/dsp.h **** #endif // __arm__
  59:../../../../DaisyExamples/DaisySP//Source/Utility/dsp.h ****     return r;
  60:../../../../DaisyExamples/DaisySP//Source/Utility/dsp.h **** }
  61:../../../../DaisyExamples/DaisySP//Source/Utility/dsp.h **** 
  62:../../../../DaisyExamples/DaisySP//Source/Utility/dsp.h **** /** quick fp clamp
  63:../../../../DaisyExamples/DaisySP//Source/Utility/dsp.h **** */
  64:../../../../DaisyExamples/DaisySP//Source/Utility/dsp.h **** inline float fclamp(float in, float min, float max)
 1989              		.loc 3 64 14 view .LVU668
 1990              	.LBE224:
  65:../../../../DaisyExamples/DaisySP//Source/Utility/dsp.h **** {
  66:../../../../DaisyExamples/DaisySP//Source/Utility/dsp.h ****     return fmin(fmax(in, min), max);
 1991              		.loc 3 66 5 view .LVU669
 1992              	.LBB229:
 1993              	.LBB225:
 1994              	.LBI225:
  40:../../../../DaisyExamples/DaisySP//Source/Utility/dsp.h **** {
 1995              		.loc 3 40 14 view .LVU670
 1996              	.LBB226:
  42:../../../../DaisyExamples/DaisySP//Source/Utility/dsp.h **** #ifdef __arm__
 1997              		.loc 3 42 5 view .LVU671
  44:../../../../DaisyExamples/DaisySP//Source/Utility/dsp.h **** #else
 1998              		.loc 3 44 5 view .LVU672
  48:../../../../DaisyExamples/DaisySP//Source/Utility/dsp.h **** }
 1999              		.loc 3 48 5 view .LVU673
  48:../../../../DaisyExamples/DaisySP//Source/Utility/dsp.h **** }
 2000              		.loc 3 48 5 is_stmt 0 view .LVU674
 2001              	.LBE226:
 2002              	.LBE225:
 2003              	.LBB227:
 2004              	.LBI227:
  51:../../../../DaisyExamples/DaisySP//Source/Utility/dsp.h **** {
 2005              		.loc 3 51 14 is_stmt 1 view .LVU675
 2006              	.LBB228:
  53:../../../../DaisyExamples/DaisySP//Source/Utility/dsp.h **** #ifdef __arm__
 2007              		.loc 3 53 5 view .LVU676
  55:../../../../DaisyExamples/DaisySP//Source/Utility/dsp.h **** #else
 2008              		.loc 3 55 5 view .LVU677
  59:../../../../DaisyExamples/DaisySP//Source/Utility/dsp.h **** }
 2009              		.loc 3 59 5 view .LVU678
  59:../../../../DaisyExamples/DaisySP//Source/Utility/dsp.h **** }
 2010              		.loc 3 59 5 is_stmt 0 view .LVU679
 2011              	.LBE228:
 2012              	.LBE227:
 2013              	.LBE229:
  45:daisy_common.cpp **** }
 2014              		.loc 1 45 5 is_stmt 1 view .LVU680
  46:daisy_common.cpp **** 
 2015              		.loc 1 46 1 is_stmt 0 view .LVU681
 2016 004c 30EE080A 		vadd.f32	s0, s0, s16
 2017              	.LVL148:
  46:daisy_common.cpp **** 
ARM GAS  C:\Users\samue\AppData\Local\Temp\cc4nCvGK.s 			page 54


 2018              		.loc 1 46 1 view .LVU682
 2019 0050 BDEC028B 		vldm	sp!, {d8}
 2020              		.cfi_restore 80
 2021              		.cfi_restore 81
 2022              		.cfi_def_cfa_offset 16
 2023 0054 70BD     		pop	{r4, r5, r6, pc}
  46:daisy_common.cpp **** 
 2024              		.loc 1 46 1 view .LVU683
 2025              		.cfi_endproc
 2026              	.LFE4688:
 2028 0056 00BF     		.section	.text._ZN5daisy11daisyCommon11get_gate_inEi,"ax",%progbits
 2029              		.align	1
 2030              		.p2align 2,,3
 2031              		.global	_ZN5daisy11daisyCommon11get_gate_inEi
 2032              		.syntax unified
 2033              		.thumb
 2034              		.thumb_func
 2035              		.fpu fpv5-d16
 2037              	_ZN5daisy11daisyCommon11get_gate_inEi:
 2038              	.LVL149:
 2039              	.LFB4698:
 240:daisy_common.cpp **** 
 241:daisy_common.cpp **** bool daisyCommon::get_gate_in(int user_name)
 242:daisy_common.cpp **** {
 2040              		.loc 1 242 1 is_stmt 1 view -0
 2041              		.cfi_startproc
 2042              		@ args = 0, pretend = 0, frame = 0
 2043              		@ frame_needed = 0, uses_anonymous_args = 0
 243:daisy_common.cpp ****     float cv = get_cv(user_name);
 2044              		.loc 1 243 5 view .LVU685
 2045              	.LBB236:
 2046              	.LBB237:
 2047              	.LBB238:
 2048              	.LBB239:
  56:daisy_common.cpp ****     if(adc_user_name == jack_2_user_name) return in_2_adc_chan;
 2049              		.loc 1 56 5 is_stmt 0 view .LVU686
 2050 0000 D0F88021 		ldr	r2, [r0, #384]
 2051 0004 9142     		cmp	r1, r2
 2052              	.LBE239:
 2053              	.LBE238:
 2054              	.LBE237:
 2055              	.LBE236:
 242:daisy_common.cpp ****     float cv = get_cv(user_name);
 2056              		.loc 1 242 1 view .LVU687
 2057 0006 08B5     		push	{r3, lr}
 2058              		.cfi_def_cfa_offset 8
 2059              		.cfi_offset 3, -8
 2060              		.cfi_offset 14, -4
 242:daisy_common.cpp ****     float cv = get_cv(user_name);
 2061              		.loc 1 242 1 view .LVU688
 2062 0008 0346     		mov	r3, r0
 2063              	.LVL150:
 2064              	.LBB276:
 2065              	.LBI236:
  49:daisy_common.cpp **** {
 2066              		.loc 1 49 7 is_stmt 1 view .LVU689
 2067              	.LBB272:
ARM GAS  C:\Users\samue\AppData\Local\Temp\cc4nCvGK.s 			page 55


  51:daisy_common.cpp **** }
 2068              		.loc 1 51 5 view .LVU690
  51:daisy_common.cpp **** }
 2069              		.loc 1 51 29 is_stmt 0 view .LVU691
 2070 000a 00F59C70 		add	r0, r0, #312
 2071              	.LVL151:
 2072              	.LBB263:
 2073              	.LBI238:
  54:daisy_common.cpp **** {
 2074              		.loc 1 54 5 is_stmt 1 view .LVU692
 2075              	.LBB254:
  56:daisy_common.cpp ****     if(adc_user_name == jack_2_user_name) return in_2_adc_chan;
 2076              		.loc 1 56 5 view .LVU693
 2077 000e 1FD0     		beq	.L196
  57:daisy_common.cpp ****     if(adc_user_name == jack_3_user_name) return in_3_adc_chan;
 2078              		.loc 1 57 5 view .LVU694
 2079 0010 D3F88421 		ldr	r2, [r3, #388]
 2080 0014 9142     		cmp	r1, r2
 2081 0016 33D0     		beq	.L197
  58:daisy_common.cpp ****     if(adc_user_name == jack_4_user_name) return in_4_adc_chan;
 2082              		.loc 1 58 5 view .LVU695
 2083 0018 D3F88821 		ldr	r2, [r3, #392]
 2084 001c 9142     		cmp	r1, r2
 2085 001e 29D0     		beq	.L198
  59:daisy_common.cpp ****     if(adc_user_name == jack_5_user_name) return in_5_adc_chan;
 2086              		.loc 1 59 5 view .LVU696
 2087 0020 D3F88C21 		ldr	r2, [r3, #396]
 2088 0024 9142     		cmp	r1, r2
 2089 0026 2ED0     		beq	.L199
 2090              	.LVL152:
 2091              	.LBB240:
 2092              	.LBI240:
  54:daisy_common.cpp **** {
 2093              		.loc 1 54 5 view .LVU697
 2094              	.LBB241:
  60:daisy_common.cpp ****     if(adc_user_name == jack_6_user_name) return in_6_adc_chan;
 2095              		.loc 1 60 5 view .LVU698
 2096 0028 D3F89021 		ldr	r2, [r3, #400]
 2097 002c 9142     		cmp	r1, r2
 2098 002e 2DD0     		beq	.L200
  61:daisy_common.cpp ****     if(adc_user_name == jack_7_user_name) return in_7_adc_chan;
 2099              		.loc 1 61 5 view .LVU699
 2100 0030 D3F89421 		ldr	r2, [r3, #404]
 2101 0034 9142     		cmp	r1, r2
 2102 0036 2CD0     		beq	.L201
  62:daisy_common.cpp ****     if(adc_user_name == jack_8_user_name) return in_8_adc_chan;
 2103              		.loc 1 62 5 view .LVU700
 2104 0038 D3F89821 		ldr	r2, [r3, #408]
 2105 003c 9142     		cmp	r1, r2
 2106 003e 1CD0     		beq	.L202
  63:daisy_common.cpp ****     return -1;
 2107              		.loc 1 63 5 view .LVU701
  63:daisy_common.cpp ****     return -1;
 2108              		.loc 1 63 43 view .LVU702
  63:daisy_common.cpp ****     return -1;
 2109              		.loc 1 63 5 is_stmt 0 view .LVU703
 2110 0040 D3F89C21 		ldr	r2, [r3, #412]
ARM GAS  C:\Users\samue\AppData\Local\Temp\cc4nCvGK.s 			page 56


 2111 0044 9142     		cmp	r1, r2
 2112              	.LBE241:
 2113              	.LBE240:
 2114              	.LBE254:
 2115              	.LBE263:
  51:daisy_common.cpp **** }
 2116              		.loc 1 51 29 view .LVU704
 2117 0046 0CBF     		ite	eq
 2118 0048 93F8EC11 		ldrbeq	r1, [r3, #492]	@ zero_extendqisi2
 2119              	.LVL153:
 2120              	.LBB264:
 2121              	.LBB255:
 2122              	.LBB248:
 2123              	.LBB242:
  51:daisy_common.cpp **** }
 2124              		.loc 1 51 29 view .LVU705
 2125 004c FF21     		movne	r1, #255
 2126 004e 01E0     		b	.L187
 2127              	.LVL154:
 2128              	.L196:
  51:daisy_common.cpp **** }
 2129              		.loc 1 51 29 view .LVU706
 2130              	.LBE242:
 2131              	.LBE248:
  56:daisy_common.cpp ****     if(adc_user_name == jack_2_user_name) return in_2_adc_chan;
 2132              		.loc 1 56 43 is_stmt 1 view .LVU707
 2133              	.LBE255:
 2134              	.LBE264:
  51:daisy_common.cpp **** }
 2135              		.loc 1 51 29 is_stmt 0 view .LVU708
 2136 0050 93F8D011 		ldrb	r1, [r3, #464]	@ zero_extendqisi2
 2137              	.LVL155:
 2138              	.L187:
  51:daisy_common.cpp **** }
 2139              		.loc 1 51 29 view .LVU709
 2140 0054 FFF7FEFF 		bl	_ZNK5daisy9AdcHandle8GetFloatEh
 2141              	.LVL156:
  51:daisy_common.cpp **** }
 2142              		.loc 1 51 29 view .LVU710
 2143              	.LBE272:
 2144              	.LBE276:
 244:daisy_common.cpp ****     if(cv > 0.75)
 2145              		.loc 1 244 5 is_stmt 1 view .LVU711
 2146              	.LBB277:
 2147              	.LBB273:
  51:daisy_common.cpp **** }
 2148              		.loc 1 51 61 is_stmt 0 view .LVU712
 2149 0058 F7EE007A 		vmov.f32	s15, #1.0e+0
 2150              	.LBE273:
 2151              	.LBE277:
 2152              		.loc 1 244 5 view .LVU713
 2153 005c B6EE087A 		vmov.f32	s14, #7.5e-1
 2154              	.LBB278:
 2155              	.LBB274:
  51:daisy_common.cpp **** }
 2156              		.loc 1 51 61 view .LVU714
 2157 0060 37EEC00A 		vsub.f32	s0, s15, s0
ARM GAS  C:\Users\samue\AppData\Local\Temp\cc4nCvGK.s 			page 57


 2158              	.LVL157:
  51:daisy_common.cpp **** }
 2159              		.loc 1 51 61 view .LVU715
 2160              	.LBE274:
 2161              	.LBE278:
 2162              		.loc 1 244 5 view .LVU716
 2163 0064 B4EEC70A 		vcmpe.f32	s0, s14
 2164 0068 F1EE10FA 		vmrs	APSR_nzcv, FPSCR
 245:daisy_common.cpp ****     {
 246:daisy_common.cpp ****         return true;
 247:daisy_common.cpp ****     }
 248:daisy_common.cpp ****     return false;
 249:daisy_common.cpp **** }
 2165              		.loc 1 249 1 view .LVU717
 2166 006c CCBF     		ite	gt
 2167 006e 0120     		movgt	r0, #1
 2168 0070 0020     		movle	r0, #0
 2169 0072 08BD     		pop	{r3, pc}
 2170              	.LVL158:
 2171              	.L198:
 2172              	.LBB279:
 2173              	.LBB275:
 2174              	.LBB265:
 2175              	.LBB256:
  58:daisy_common.cpp ****     if(adc_user_name == jack_4_user_name) return in_4_adc_chan;
 2176              		.loc 1 58 43 is_stmt 1 view .LVU718
 2177              	.LBE256:
 2178              	.LBE265:
  51:daisy_common.cpp **** }
 2179              		.loc 1 51 29 is_stmt 0 view .LVU719
 2180 0074 93F8D811 		ldrb	r1, [r3, #472]	@ zero_extendqisi2
 2181              	.LVL159:
 2182              	.LBB266:
 2183              	.LBB257:
  58:daisy_common.cpp ****     if(adc_user_name == jack_4_user_name) return in_4_adc_chan;
 2184              		.loc 1 58 50 view .LVU720
 2185 0078 ECE7     		b	.L187
 2186              	.LVL160:
 2187              	.L202:
 2188              	.LBB249:
 2189              	.LBB243:
  62:daisy_common.cpp ****     if(adc_user_name == jack_8_user_name) return in_8_adc_chan;
 2190              		.loc 1 62 43 is_stmt 1 view .LVU721
 2191              	.LBE243:
 2192              	.LBE249:
 2193              	.LBE257:
 2194              	.LBE266:
  51:daisy_common.cpp **** }
 2195              		.loc 1 51 29 is_stmt 0 view .LVU722
 2196 007a 93F8E811 		ldrb	r1, [r3, #488]	@ zero_extendqisi2
 2197              	.LVL161:
 2198              	.LBB267:
 2199              	.LBB258:
 2200              	.LBB250:
 2201              	.LBB244:
  62:daisy_common.cpp ****     if(adc_user_name == jack_8_user_name) return in_8_adc_chan;
 2202              		.loc 1 62 50 view .LVU723
ARM GAS  C:\Users\samue\AppData\Local\Temp\cc4nCvGK.s 			page 58


 2203 007e E9E7     		b	.L187
 2204              	.LVL162:
 2205              	.L197:
  62:daisy_common.cpp ****     if(adc_user_name == jack_8_user_name) return in_8_adc_chan;
 2206              		.loc 1 62 50 view .LVU724
 2207              	.LBE244:
 2208              	.LBE250:
  57:daisy_common.cpp ****     if(adc_user_name == jack_3_user_name) return in_3_adc_chan;
 2209              		.loc 1 57 43 is_stmt 1 view .LVU725
 2210              	.LBE258:
 2211              	.LBE267:
  51:daisy_common.cpp **** }
 2212              		.loc 1 51 29 is_stmt 0 view .LVU726
 2213 0080 93F8D411 		ldrb	r1, [r3, #468]	@ zero_extendqisi2
 2214              	.LVL163:
 2215              	.LBB268:
 2216              	.LBB259:
  57:daisy_common.cpp ****     if(adc_user_name == jack_3_user_name) return in_3_adc_chan;
 2217              		.loc 1 57 50 view .LVU727
 2218 0084 E6E7     		b	.L187
 2219              	.LVL164:
 2220              	.L199:
  59:daisy_common.cpp ****     if(adc_user_name == jack_5_user_name) return in_5_adc_chan;
 2221              		.loc 1 59 43 is_stmt 1 view .LVU728
 2222              	.LBE259:
 2223              	.LBE268:
  51:daisy_common.cpp **** }
 2224              		.loc 1 51 29 is_stmt 0 view .LVU729
 2225 0086 93F8DC11 		ldrb	r1, [r3, #476]	@ zero_extendqisi2
 2226              	.LVL165:
 2227              	.LBB269:
 2228              	.LBB260:
  59:daisy_common.cpp ****     if(adc_user_name == jack_5_user_name) return in_5_adc_chan;
 2229              		.loc 1 59 50 view .LVU730
 2230 008a E3E7     		b	.L187
 2231              	.LVL166:
 2232              	.L200:
 2233              	.LBB251:
 2234              	.LBB245:
  60:daisy_common.cpp ****     if(adc_user_name == jack_6_user_name) return in_6_adc_chan;
 2235              		.loc 1 60 43 is_stmt 1 view .LVU731
 2236              	.LBE245:
 2237              	.LBE251:
 2238              	.LBE260:
 2239              	.LBE269:
  51:daisy_common.cpp **** }
 2240              		.loc 1 51 29 is_stmt 0 view .LVU732
 2241 008c 93F8E011 		ldrb	r1, [r3, #480]	@ zero_extendqisi2
 2242              	.LVL167:
 2243              	.LBB270:
 2244              	.LBB261:
 2245              	.LBB252:
 2246              	.LBB246:
  60:daisy_common.cpp ****     if(adc_user_name == jack_6_user_name) return in_6_adc_chan;
 2247              		.loc 1 60 50 view .LVU733
 2248 0090 E0E7     		b	.L187
 2249              	.LVL168:
ARM GAS  C:\Users\samue\AppData\Local\Temp\cc4nCvGK.s 			page 59


 2250              	.L201:
  61:daisy_common.cpp ****     if(adc_user_name == jack_7_user_name) return in_7_adc_chan;
 2251              		.loc 1 61 43 is_stmt 1 view .LVU734
 2252              	.LBE246:
 2253              	.LBE252:
 2254              	.LBE261:
 2255              	.LBE270:
  51:daisy_common.cpp **** }
 2256              		.loc 1 51 29 is_stmt 0 view .LVU735
 2257 0092 93F8E411 		ldrb	r1, [r3, #484]	@ zero_extendqisi2
 2258              	.LVL169:
 2259              	.LBB271:
 2260              	.LBB262:
 2261              	.LBB253:
 2262              	.LBB247:
  61:daisy_common.cpp ****     if(adc_user_name == jack_7_user_name) return in_7_adc_chan;
 2263              		.loc 1 61 50 view .LVU736
 2264 0096 DDE7     		b	.L187
 2265              	.LBE247:
 2266              	.LBE253:
 2267              	.LBE262:
 2268              	.LBE271:
 2269              	.LBE275:
 2270              	.LBE279:
 2271              		.cfi_endproc
 2272              	.LFE4698:
 2274              		.section	.text._ZN5daisy11daisyCommon9write_dacEfi,"ax",%progbits
 2275              		.align	1
 2276              		.p2align 2,,3
 2277              		.global	_ZN5daisy11daisyCommon9write_dacEfi
 2278              		.syntax unified
 2279              		.thumb
 2280              		.thumb_func
 2281              		.fpu fpv5-d16
 2283              	_ZN5daisy11daisyCommon9write_dacEfi:
 2284              	.LVL170:
 2285              	.LFB4699:
 250:daisy_common.cpp **** 
 251:daisy_common.cpp **** void daisyCommon::write_dac(float value, int user_name)
 252:daisy_common.cpp **** {
 2286              		.loc 1 252 1 is_stmt 1 view -0
 2287              		.cfi_startproc
 2288              		@ args = 0, pretend = 0, frame = 8
 2289              		@ frame_needed = 0, uses_anonymous_args = 0
 253:daisy_common.cpp ****     value = -1.0f*value + 1.0f;
 2290              		.loc 1 253 5 view .LVU738
 2291              		.loc 1 253 11 is_stmt 0 view .LVU739
 2292 0000 F7EE007A 		vmov.f32	s15, #1.0e+0
 254:daisy_common.cpp ****     daisysp::fclamp(value, 0.0f, 1.0f);
 255:daisy_common.cpp ****     value = static_cast<int>(value*4096);
 256:daisy_common.cpp ****     if(value > 4095)
 2293              		.loc 1 256 5 view .LVU740
 2294 0004 9FED267A 		vldr.32	s14, .L214
 252:daisy_common.cpp ****     value = -1.0f*value + 1.0f;
 2295              		.loc 1 252 1 view .LVU741
 2296 0008 30B5     		push	{r4, r5, lr}
 2297              		.cfi_def_cfa_offset 12
ARM GAS  C:\Users\samue\AppData\Local\Temp\cc4nCvGK.s 			page 60


 2298              		.cfi_offset 4, -12
 2299              		.cfi_offset 5, -8
 2300              		.cfi_offset 14, -4
 253:daisy_common.cpp ****     value = -1.0f*value + 1.0f;
 2301              		.loc 1 253 11 view .LVU742
 2302 000a 77EEC07A 		vsub.f32	s15, s15, s0
 2303              	.LVL171:
 254:daisy_common.cpp ****     daisysp::fclamp(value, 0.0f, 1.0f);
 2304              		.loc 1 254 5 is_stmt 1 view .LVU743
 2305              	.LBB280:
 2306              	.LBI280:
  64:../../../../DaisyExamples/DaisySP//Source/Utility/dsp.h **** {
 2307              		.loc 3 64 14 view .LVU744
 2308              	.LBE280:
 2309              		.loc 3 66 5 view .LVU745
 2310              	.LBB285:
 2311              	.LBB281:
 2312              	.LBI281:
  40:../../../../DaisyExamples/DaisySP//Source/Utility/dsp.h **** {
 2313              		.loc 3 40 14 view .LVU746
 2314              	.LBB282:
  42:../../../../DaisyExamples/DaisySP//Source/Utility/dsp.h **** #ifdef __arm__
 2315              		.loc 3 42 5 view .LVU747
  44:../../../../DaisyExamples/DaisySP//Source/Utility/dsp.h **** #else
 2316              		.loc 3 44 5 view .LVU748
  48:../../../../DaisyExamples/DaisySP//Source/Utility/dsp.h **** }
 2317              		.loc 3 48 5 view .LVU749
  48:../../../../DaisyExamples/DaisySP//Source/Utility/dsp.h **** }
 2318              		.loc 3 48 5 is_stmt 0 view .LVU750
 2319              	.LBE282:
 2320              	.LBE281:
 2321              	.LBB283:
 2322              	.LBI283:
  51:../../../../DaisyExamples/DaisySP//Source/Utility/dsp.h **** {
 2323              		.loc 3 51 14 is_stmt 1 view .LVU751
 2324              	.LBB284:
  53:../../../../DaisyExamples/DaisySP//Source/Utility/dsp.h **** #ifdef __arm__
 2325              		.loc 3 53 5 view .LVU752
  55:../../../../DaisyExamples/DaisySP//Source/Utility/dsp.h **** #else
 2326              		.loc 3 55 5 view .LVU753
  59:../../../../DaisyExamples/DaisySP//Source/Utility/dsp.h **** }
 2327              		.loc 3 59 5 view .LVU754
  59:../../../../DaisyExamples/DaisySP//Source/Utility/dsp.h **** }
 2328              		.loc 3 59 5 is_stmt 0 view .LVU755
 2329              	.LBE284:
 2330              	.LBE283:
 2331              	.LBE285:
 255:daisy_common.cpp ****     if(value > 4095)
 2332              		.loc 1 255 5 is_stmt 1 view .LVU756
 252:daisy_common.cpp ****     value = -1.0f*value + 1.0f;
 2333              		.loc 1 252 1 is_stmt 0 view .LVU757
 2334 000e 0446     		mov	r4, r0
 2335 0010 0D46     		mov	r5, r1
 255:daisy_common.cpp ****     if(value > 4095)
 2336              		.loc 1 255 13 view .LVU758
 2337 0012 FEEECA7A 		vcvt.s32.f32	s15, s15, #12
 2338              	.LVL172:
ARM GAS  C:\Users\samue\AppData\Local\Temp\cc4nCvGK.s 			page 61


 252:daisy_common.cpp ****     value = -1.0f*value + 1.0f;
 2339              		.loc 1 252 1 view .LVU759
 2340 0016 2DED028B 		vpush.64	{d8}
 2341              		.cfi_def_cfa_offset 20
 2342              		.cfi_offset 80, -20
 2343              		.cfi_offset 81, -16
 255:daisy_common.cpp ****     if(value > 4095)
 2344              		.loc 1 255 11 view .LVU760
 2345 001a B8EEE78A 		vcvt.f32.s32	s16, s15
 2346              	.LVL173:
 2347              		.loc 1 256 5 is_stmt 1 view .LVU761
 252:daisy_common.cpp ****     value = -1.0f*value + 1.0f;
 2348              		.loc 1 252 1 is_stmt 0 view .LVU762
 2349 001e 83B0     		sub	sp, sp, #12
 2350              		.cfi_def_cfa_offset 32
 2351              		.loc 1 256 5 view .LVU763
 2352 0020 B4EEC78A 		vcmpe.f32	s16, s14
 2353 0024 F1EE10FA 		vmrs	APSR_nzcv, FPSCR
 2354 0028 10DC     		bgt	.L208
 257:daisy_common.cpp ****     {
 258:daisy_common.cpp ****         value = 4095;
 259:daisy_common.cpp ****     }else if (value < 0)
 2355              		.loc 1 259 11 is_stmt 1 view .LVU764
 2356 002a B5EEC08A 		vcmpe.f32	s16, #0
 2357 002e F1EE10FA 		vmrs	APSR_nzcv, FPSCR
 2358 0032 31D4     		bmi	.L211
 2359              	.LVL174:
 2360              	.L204:
 260:daisy_common.cpp ****     {
 261:daisy_common.cpp ****         value = 0;
 262:daisy_common.cpp ****     }
 263:daisy_common.cpp ****     
 264:daisy_common.cpp **** 
 265:daisy_common.cpp ****     if(user_name == out_1_user_name)
 2361              		.loc 1 265 5 view .LVU765
 2362 0034 D4F8A031 		ldr	r3, [r4, #416]
 2363 0038 AB42     		cmp	r3, r5
 2364 003a 0DD0     		beq	.L212
 2365              	.L206:
 266:daisy_common.cpp ****     {
 267:daisy_common.cpp ****         seed.dac.WriteValue(out_1_dac, value);
 268:daisy_common.cpp ****     }
 269:daisy_common.cpp ****     if(user_name == out_2_user_name)
 2366              		.loc 1 269 5 view .LVU766
 2367 003c D4F8A431 		ldr	r3, [r4, #420]
 2368 0040 AB42     		cmp	r3, r5
 2369 0042 19D0     		beq	.L213
 2370              	.LVL175:
 2371              	.L203:
 270:daisy_common.cpp ****     {
 271:daisy_common.cpp ****         seed.dac.WriteValue(out_2_dac, value);
 272:daisy_common.cpp ****     }
 273:daisy_common.cpp **** }
 2372              		.loc 1 273 1 is_stmt 0 view .LVU767
 2373 0044 03B0     		add	sp, sp, #12
 2374              		.cfi_remember_state
 2375              		.cfi_def_cfa_offset 20
ARM GAS  C:\Users\samue\AppData\Local\Temp\cc4nCvGK.s 			page 62


 2376              		@ sp needed
 2377 0046 BDEC028B 		vldm	sp!, {d8}
 2378              		.cfi_restore 80
 2379              		.cfi_restore 81
 2380              		.cfi_def_cfa_offset 12
 2381              	.LVL176:
 2382              		.loc 1 273 1 view .LVU768
 2383 004a 30BD     		pop	{r4, r5, pc}
 2384              	.LVL177:
 2385              	.L208:
 2386              		.cfi_restore_state
 265:daisy_common.cpp ****     {
 2387              		.loc 1 265 5 view .LVU769
 2388 004c D4F8A031 		ldr	r3, [r4, #416]
 258:daisy_common.cpp ****     }else if (value < 0)
 2389              		.loc 1 258 15 view .LVU770
 2390 0050 B0EE478A 		vmov.f32	s16, s14
 2391              	.LVL178:
 265:daisy_common.cpp ****     {
 2392              		.loc 1 265 5 is_stmt 1 view .LVU771
 2393 0054 AB42     		cmp	r3, r5
 2394 0056 F1D1     		bne	.L206
 2395              	.L212:
 267:daisy_common.cpp ****     }
 2396              		.loc 1 267 9 view .LVU772
 267:daisy_common.cpp ****     }
 2397              		.loc 1 267 28 is_stmt 0 view .LVU773
 2398 0058 FCEEC87A 		vcvt.u32.f32	s15, s16
 2399 005c D4F81811 		ldr	r1, [r4, #280]
 2400              	.LVL179:
 267:daisy_common.cpp ****     }
 2401              		.loc 1 267 28 view .LVU774
 2402 0060 04F5A070 		add	r0, r4, #320
 2403              	.LVL180:
 267:daisy_common.cpp ****     }
 2404              		.loc 1 267 28 view .LVU775
 2405 0064 CDED017A 		vstr.32	s15, [sp, #4]	@ int
 2406 0068 BDF80420 		ldrh	r2, [sp, #4]
 2407 006c FFF7FEFF 		bl	_ZN5daisy9DacHandle10WriteValueENS0_7ChannelEt
 2408              	.LVL181:
 269:daisy_common.cpp ****     {
 2409              		.loc 1 269 5 is_stmt 1 view .LVU776
 2410 0070 D4F8A431 		ldr	r3, [r4, #420]
 2411 0074 AB42     		cmp	r3, r5
 2412 0076 E5D1     		bne	.L203
 2413              	.L213:
 271:daisy_common.cpp ****     }
 2414              		.loc 1 271 9 view .LVU777
 271:daisy_common.cpp ****     }
 2415              		.loc 1 271 28 is_stmt 0 view .LVU778
 2416 0078 BCEEC88A 		vcvt.u32.f32	s16, s16
 2417              	.LVL182:
 271:daisy_common.cpp ****     }
 2418              		.loc 1 271 28 view .LVU779
 2419 007c D4F81C11 		ldr	r1, [r4, #284]
 2420 0080 04F5A070 		add	r0, r4, #320
 2421 0084 18EE103A 		vmov	r3, s16	@ int
ARM GAS  C:\Users\samue\AppData\Local\Temp\cc4nCvGK.s 			page 63


 2422 0088 9AB2     		uxth	r2, r3
 2423              		.loc 1 273 1 view .LVU780
 2424 008a 03B0     		add	sp, sp, #12
 2425              		.cfi_remember_state
 2426              		.cfi_def_cfa_offset 20
 2427              		@ sp needed
 2428 008c BDEC028B 		vldm	sp!, {d8}
 2429              		.cfi_restore 80
 2430              		.cfi_restore 81
 2431              		.cfi_def_cfa_offset 12
 2432 0090 BDE83040 		pop	{r4, r5, lr}
 2433              		.cfi_restore 14
 2434              		.cfi_restore 5
 2435              		.cfi_restore 4
 2436              		.cfi_def_cfa_offset 0
 2437              	.LVL183:
 271:daisy_common.cpp ****     }
 2438              		.loc 1 271 28 view .LVU781
 2439 0094 FFF7FEBF 		b	_ZN5daisy9DacHandle10WriteValueENS0_7ChannelEt
 2440              	.LVL184:
 2441              	.L211:
 2442              		.cfi_restore_state
 261:daisy_common.cpp ****     }
 2443              		.loc 1 261 15 view .LVU782
 2444 0098 9FED028A 		vldr.32	s16, .L214+4
 2445              	.LVL185:
 261:daisy_common.cpp ****     }
 2446              		.loc 1 261 15 view .LVU783
 2447 009c CAE7     		b	.L204
 2448              	.L215:
 2449 009e 00BF     		.align	2
 2450              	.L214:
 2451 00a0 00F07F45 		.word	1166012416
 2452 00a4 00000000 		.word	0
 2453              		.cfi_endproc
 2454              	.LFE4699:
 2456              		.section	.text._ZN5daisy11daisyCommon14dac_enable_muxEi,"ax",%progbits
 2457              		.align	1
 2458              		.p2align 2,,3
 2459              		.global	_ZN5daisy11daisyCommon14dac_enable_muxEi
 2460              		.syntax unified
 2461              		.thumb
 2462              		.thumb_func
 2463              		.fpu fpv5-d16
 2465              	_ZN5daisy11daisyCommon14dac_enable_muxEi:
 2466              	.LVL186:
 2467              	.LFB4701:
 274:daisy_common.cpp **** 
 275:daisy_common.cpp **** void daisyCommon::Init(bool boost)
 276:daisy_common.cpp **** {
 277:daisy_common.cpp ****     //seed.Configure();
 278:daisy_common.cpp ****     seed.Init(boost);
 279:daisy_common.cpp ****     //seed.StartLog(true);
 280:daisy_common.cpp ****     InitGPIO();
 281:daisy_common.cpp ****     InitDAC();
 282:daisy_common.cpp ****     InitMux();
 283:daisy_common.cpp ****     InitToggle();
ARM GAS  C:\Users\samue\AppData\Local\Temp\cc4nCvGK.s 			page 64


 284:daisy_common.cpp ****     InitButton();
 285:daisy_common.cpp ****     InitADC();
 286:daisy_common.cpp ****     seed.SetLed(false);
 287:daisy_common.cpp **** }
 288:daisy_common.cpp **** 
 289:daisy_common.cpp **** /*
 290:daisy_common.cpp **** *channels are
 291:daisy_common.cpp **** *DacHandle::Channel::ONE
 292:daisy_common.cpp **** *DacHandle::Channel::TWO
 293:daisy_common.cpp **** *DacHandle::Channel::BOTH
 294:daisy_common.cpp **** */
 295:daisy_common.cpp **** void daisyCommon::dac_enable_mux(int user_name)
 296:daisy_common.cpp **** {
 2468              		.loc 1 296 1 is_stmt 1 view -0
 2469              		.cfi_startproc
 2470              		@ args = 0, pretend = 0, frame = 0
 2471              		@ frame_needed = 0, uses_anonymous_args = 0
 297:daisy_common.cpp ****     if(user_name == out_1_user_name)
 2472              		.loc 1 297 5 view .LVU785
 296:daisy_common.cpp ****     if(user_name == out_1_user_name)
 2473              		.loc 1 296 1 is_stmt 0 view .LVU786
 2474 0000 38B5     		push	{r3, r4, r5, lr}
 2475              		.cfi_def_cfa_offset 16
 2476              		.cfi_offset 3, -16
 2477              		.cfi_offset 4, -12
 2478              		.cfi_offset 5, -8
 2479              		.cfi_offset 14, -4
 2480              		.loc 1 297 5 view .LVU787
 2481 0002 D0F8A031 		ldr	r3, [r0, #416]
 296:daisy_common.cpp ****     if(user_name == out_1_user_name)
 2482              		.loc 1 296 1 view .LVU788
 2483 0006 0446     		mov	r4, r0
 2484 0008 0D46     		mov	r5, r1
 2485              		.loc 1 297 5 view .LVU789
 2486 000a 8B42     		cmp	r3, r1
 2487 000c 12D0     		beq	.L220
 2488              	.LVL187:
 2489              	.L217:
 298:daisy_common.cpp ****     {
 299:daisy_common.cpp ****         OUT_1_AUDIO_EN.Write(false);
 300:daisy_common.cpp ****         OUT_1_DAC_EN.Write(true);
 301:daisy_common.cpp ****         out_1_mode = dac_enable;
 302:daisy_common.cpp ****     }   
 303:daisy_common.cpp **** 
 304:daisy_common.cpp ****     if(user_name == out_2_user_name)
 2490              		.loc 1 304 5 is_stmt 1 view .LVU790
 2491 000e D4F8A431 		ldr	r3, [r4, #420]
 2492 0012 AB42     		cmp	r3, r5
 2493 0014 00D0     		beq	.L221
 305:daisy_common.cpp ****     {
 306:daisy_common.cpp ****         OUT_2_AUDIO_EN.Write(false);
 307:daisy_common.cpp ****         OUT_2_DAC_EN.Write(true);
 308:daisy_common.cpp ****         out_2_mode = dac_enable;
 309:daisy_common.cpp ****     }
 310:daisy_common.cpp **** }
 2494              		.loc 1 310 1 is_stmt 0 view .LVU791
 2495 0016 38BD     		pop	{r3, r4, r5, pc}
ARM GAS  C:\Users\samue\AppData\Local\Temp\cc4nCvGK.s 			page 65


 2496              	.LVL188:
 2497              	.L221:
 306:daisy_common.cpp ****         OUT_2_DAC_EN.Write(true);
 2498              		.loc 1 306 9 is_stmt 1 view .LVU792
 306:daisy_common.cpp ****         OUT_2_DAC_EN.Write(true);
 2499              		.loc 1 306 29 is_stmt 0 view .LVU793
 2500 0018 0021     		movs	r1, #0
 2501 001a 04F11800 		add	r0, r4, #24
 2502 001e FFF7FEFF 		bl	_ZN5daisy4GPIO5WriteEb
 2503              	.LVL189:
 307:daisy_common.cpp ****         out_2_mode = dac_enable;
 2504              		.loc 1 307 9 is_stmt 1 view .LVU794
 307:daisy_common.cpp ****         out_2_mode = dac_enable;
 2505              		.loc 1 307 27 is_stmt 0 view .LVU795
 2506 0022 0121     		movs	r1, #1
 2507 0024 04F14000 		add	r0, r4, #64
 2508 0028 FFF7FEFF 		bl	_ZN5daisy4GPIO5WriteEb
 2509              	.LVL190:
 308:daisy_common.cpp ****     }
 2510              		.loc 1 308 9 is_stmt 1 view .LVU796
 308:daisy_common.cpp ****     }
 2511              		.loc 1 308 20 is_stmt 0 view .LVU797
 2512 002c 0123     		movs	r3, #1
 2513 002e C4F8AC31 		str	r3, [r4, #428]
 2514              		.loc 1 310 1 view .LVU798
 2515 0032 38BD     		pop	{r3, r4, r5, pc}
 2516              	.LVL191:
 2517              	.L220:
 299:daisy_common.cpp ****         OUT_1_DAC_EN.Write(true);
 2518              		.loc 1 299 9 is_stmt 1 view .LVU799
 299:daisy_common.cpp ****         OUT_1_DAC_EN.Write(true);
 2519              		.loc 1 299 29 is_stmt 0 view .LVU800
 2520 0034 0021     		movs	r1, #0
 2521              	.LVL192:
 299:daisy_common.cpp ****         OUT_1_DAC_EN.Write(true);
 2522              		.loc 1 299 29 view .LVU801
 2523 0036 0430     		adds	r0, r0, #4
 2524              	.LVL193:
 299:daisy_common.cpp ****         OUT_1_DAC_EN.Write(true);
 2525              		.loc 1 299 29 view .LVU802
 2526 0038 FFF7FEFF 		bl	_ZN5daisy4GPIO5WriteEb
 2527              	.LVL194:
 300:daisy_common.cpp ****         out_1_mode = dac_enable;
 2528              		.loc 1 300 9 is_stmt 1 view .LVU803
 300:daisy_common.cpp ****         out_1_mode = dac_enable;
 2529              		.loc 1 300 27 is_stmt 0 view .LVU804
 2530 003c 0121     		movs	r1, #1
 2531 003e 04F12C00 		add	r0, r4, #44
 2532 0042 FFF7FEFF 		bl	_ZN5daisy4GPIO5WriteEb
 2533              	.LVL195:
 301:daisy_common.cpp ****     }   
 2534              		.loc 1 301 9 is_stmt 1 view .LVU805
 301:daisy_common.cpp ****     }   
 2535              		.loc 1 301 20 is_stmt 0 view .LVU806
 2536 0046 0123     		movs	r3, #1
 2537 0048 C4F8A831 		str	r3, [r4, #424]
 2538 004c DFE7     		b	.L217
ARM GAS  C:\Users\samue\AppData\Local\Temp\cc4nCvGK.s 			page 66


 2539              		.cfi_endproc
 2540              	.LFE4701:
 2542 004e 00BF     		.section	.text._ZN5daisy11daisyCommon16audio_enable_muxEi,"ax",%progbits
 2543              		.align	1
 2544              		.p2align 2,,3
 2545              		.global	_ZN5daisy11daisyCommon16audio_enable_muxEi
 2546              		.syntax unified
 2547              		.thumb
 2548              		.thumb_func
 2549              		.fpu fpv5-d16
 2551              	_ZN5daisy11daisyCommon16audio_enable_muxEi:
 2552              	.LVL196:
 2553              	.LFB4702:
 311:daisy_common.cpp **** 
 312:daisy_common.cpp **** void daisyCommon::audio_enable_mux(int user_name)
 313:daisy_common.cpp **** {
 2554              		.loc 1 313 1 is_stmt 1 view -0
 2555              		.cfi_startproc
 2556              		@ args = 0, pretend = 0, frame = 0
 2557              		@ frame_needed = 0, uses_anonymous_args = 0
 314:daisy_common.cpp ****     if(user_name == out_1_user_name)
 2558              		.loc 1 314 5 view .LVU808
 313:daisy_common.cpp ****     if(user_name == out_1_user_name)
 2559              		.loc 1 313 1 is_stmt 0 view .LVU809
 2560 0000 38B5     		push	{r3, r4, r5, lr}
 2561              		.cfi_def_cfa_offset 16
 2562              		.cfi_offset 3, -16
 2563              		.cfi_offset 4, -12
 2564              		.cfi_offset 5, -8
 2565              		.cfi_offset 14, -4
 2566              		.loc 1 314 5 view .LVU810
 2567 0002 D0F8A031 		ldr	r3, [r0, #416]
 313:daisy_common.cpp ****     if(user_name == out_1_user_name)
 2568              		.loc 1 313 1 view .LVU811
 2569 0006 0446     		mov	r4, r0
 2570 0008 0D46     		mov	r5, r1
 2571              		.loc 1 314 5 view .LVU812
 2572 000a 8B42     		cmp	r3, r1
 2573 000c 12D0     		beq	.L226
 2574              	.LVL197:
 2575              	.L223:
 315:daisy_common.cpp ****     {
 316:daisy_common.cpp ****         OUT_1_AUDIO_EN.Write(true);
 317:daisy_common.cpp ****         OUT_1_DAC_EN.Write(false);
 318:daisy_common.cpp ****         out_1_mode = audio_enable;
 319:daisy_common.cpp ****     }   
 320:daisy_common.cpp **** 
 321:daisy_common.cpp ****     if(user_name == out_2_user_name)
 2576              		.loc 1 321 5 is_stmt 1 view .LVU813
 2577 000e D4F8A431 		ldr	r3, [r4, #420]
 2578 0012 AB42     		cmp	r3, r5
 2579 0014 00D0     		beq	.L227
 322:daisy_common.cpp ****     {
 323:daisy_common.cpp ****         OUT_2_AUDIO_EN.Write(true);
 324:daisy_common.cpp ****         OUT_2_DAC_EN.Write(false);
 325:daisy_common.cpp ****         out_2_mode = audio_enable;
 326:daisy_common.cpp ****     }
ARM GAS  C:\Users\samue\AppData\Local\Temp\cc4nCvGK.s 			page 67


 327:daisy_common.cpp **** }
 2580              		.loc 1 327 1 is_stmt 0 view .LVU814
 2581 0016 38BD     		pop	{r3, r4, r5, pc}
 2582              	.LVL198:
 2583              	.L227:
 323:daisy_common.cpp ****         OUT_2_DAC_EN.Write(false);
 2584              		.loc 1 323 9 is_stmt 1 view .LVU815
 323:daisy_common.cpp ****         OUT_2_DAC_EN.Write(false);
 2585              		.loc 1 323 29 is_stmt 0 view .LVU816
 2586 0018 0121     		movs	r1, #1
 2587 001a 04F11800 		add	r0, r4, #24
 2588 001e FFF7FEFF 		bl	_ZN5daisy4GPIO5WriteEb
 2589              	.LVL199:
 324:daisy_common.cpp ****         out_2_mode = audio_enable;
 2590              		.loc 1 324 9 is_stmt 1 view .LVU817
 324:daisy_common.cpp ****         out_2_mode = audio_enable;
 2591              		.loc 1 324 27 is_stmt 0 view .LVU818
 2592 0022 0021     		movs	r1, #0
 2593 0024 04F14000 		add	r0, r4, #64
 2594 0028 FFF7FEFF 		bl	_ZN5daisy4GPIO5WriteEb
 2595              	.LVL200:
 325:daisy_common.cpp ****     }
 2596              		.loc 1 325 9 is_stmt 1 view .LVU819
 325:daisy_common.cpp ****     }
 2597              		.loc 1 325 20 is_stmt 0 view .LVU820
 2598 002c 0023     		movs	r3, #0
 2599 002e C4F8AC31 		str	r3, [r4, #428]
 2600              		.loc 1 327 1 view .LVU821
 2601 0032 38BD     		pop	{r3, r4, r5, pc}
 2602              	.LVL201:
 2603              	.L226:
 316:daisy_common.cpp ****         OUT_1_DAC_EN.Write(false);
 2604              		.loc 1 316 9 is_stmt 1 view .LVU822
 316:daisy_common.cpp ****         OUT_1_DAC_EN.Write(false);
 2605              		.loc 1 316 29 is_stmt 0 view .LVU823
 2606 0034 0121     		movs	r1, #1
 2607              	.LVL202:
 316:daisy_common.cpp ****         OUT_1_DAC_EN.Write(false);
 2608              		.loc 1 316 29 view .LVU824
 2609 0036 0430     		adds	r0, r0, #4
 2610              	.LVL203:
 316:daisy_common.cpp ****         OUT_1_DAC_EN.Write(false);
 2611              		.loc 1 316 29 view .LVU825
 2612 0038 FFF7FEFF 		bl	_ZN5daisy4GPIO5WriteEb
 2613              	.LVL204:
 317:daisy_common.cpp ****         out_1_mode = audio_enable;
 2614              		.loc 1 317 9 is_stmt 1 view .LVU826
 317:daisy_common.cpp ****         out_1_mode = audio_enable;
 2615              		.loc 1 317 27 is_stmt 0 view .LVU827
 2616 003c 0021     		movs	r1, #0
 2617 003e 04F12C00 		add	r0, r4, #44
 2618 0042 FFF7FEFF 		bl	_ZN5daisy4GPIO5WriteEb
 2619              	.LVL205:
 318:daisy_common.cpp ****     }   
 2620              		.loc 1 318 9 is_stmt 1 view .LVU828
 318:daisy_common.cpp ****     }   
 2621              		.loc 1 318 20 is_stmt 0 view .LVU829
ARM GAS  C:\Users\samue\AppData\Local\Temp\cc4nCvGK.s 			page 68


 2622 0046 0023     		movs	r3, #0
 2623 0048 C4F8A831 		str	r3, [r4, #424]
 2624 004c DFE7     		b	.L223
 2625              		.cfi_endproc
 2626              	.LFE4702:
 2628 004e 00BF     		.section	.text._ZN5daisy11daisyCommon7InitDACEv,"ax",%progbits
 2629              		.align	1
 2630              		.p2align 2,,3
 2631              		.global	_ZN5daisy11daisyCommon7InitDACEv
 2632              		.syntax unified
 2633              		.thumb
 2634              		.thumb_func
 2635              		.fpu fpv5-d16
 2637              	_ZN5daisy11daisyCommon7InitDACEv:
 2638              	.LVL206:
 2639              	.LFB4703:
 328:daisy_common.cpp **** 
 329:daisy_common.cpp **** void daisyCommon::InitDAC()
 330:daisy_common.cpp **** {
 2640              		.loc 1 330 1 is_stmt 1 view -0
 2641              		.cfi_startproc
 2642              		@ args = 0, pretend = 0, frame = 24
 2643              		@ frame_needed = 0, uses_anonymous_args = 0
 331:daisy_common.cpp ****     DacHandle::Config dac_cfg;
 2644              		.loc 1 331 5 view .LVU831
 332:daisy_common.cpp **** 	dac_cfg.bitdepth = DacHandle::BitDepth::BITS_12;
 2645              		.loc 1 332 2 view .LVU832
 330:daisy_common.cpp ****     DacHandle::Config dac_cfg;
 2646              		.loc 1 330 1 is_stmt 0 view .LVU833
 2647 0000 10B5     		push	{r4, lr}
 2648              		.cfi_def_cfa_offset 8
 2649              		.cfi_offset 4, -8
 2650              		.cfi_offset 14, -4
 2651 0002 86B0     		sub	sp, sp, #24
 2652              		.cfi_def_cfa_offset 32
 333:daisy_common.cpp ****     dac_cfg.buff_state = DacHandle::BufferState::ENABLED;
 2653              		.loc 1 333 24 view .LVU834
 2654 0004 0023     		movs	r3, #0
 334:daisy_common.cpp ****     dac_cfg.mode       = DacHandle::Mode::POLLING;
 335:daisy_common.cpp ****     dac_cfg.chn        = DacHandle::Channel::BOTH;
 2655              		.loc 1 335 24 view .LVU835
 2656 0006 0222     		movs	r2, #2
 332:daisy_common.cpp ****     dac_cfg.buff_state = DacHandle::BufferState::ENABLED;
 2657              		.loc 1 332 19 view .LVU836
 2658 0008 0124     		movs	r4, #1
 336:daisy_common.cpp ****     seed.dac.Init(dac_cfg);
 2659              		.loc 1 336 18 view .LVU837
 2660 000a 01A9     		add	r1, sp, #4
 2661 000c 00F5A070 		add	r0, r0, #320
 2662              	.LVL207:
 333:daisy_common.cpp ****     dac_cfg.mode       = DacHandle::Mode::POLLING;
 2663              		.loc 1 333 24 view .LVU838
 2664 0010 CDE90443 		strd	r4, r3, [sp, #16]
 334:daisy_common.cpp ****     dac_cfg.chn        = DacHandle::Channel::BOTH;
 2665              		.loc 1 334 5 is_stmt 1 view .LVU839
 335:daisy_common.cpp ****     seed.dac.Init(dac_cfg);
 2666              		.loc 1 335 24 is_stmt 0 view .LVU840
ARM GAS  C:\Users\samue\AppData\Local\Temp\cc4nCvGK.s 			page 69


 2667 0014 CDE90223 		strd	r2, r3, [sp, #8]
 2668              		.loc 1 336 5 is_stmt 1 view .LVU841
 2669              		.loc 1 336 18 is_stmt 0 view .LVU842
 2670 0018 FFF7FEFF 		bl	_ZN5daisy9DacHandle4InitERKNS0_6ConfigE
 2671              	.LVL208:
 337:daisy_common.cpp **** }
 2672              		.loc 1 337 1 view .LVU843
 2673 001c 06B0     		add	sp, sp, #24
 2674              		.cfi_def_cfa_offset 8
 2675              		@ sp needed
 2676 001e 10BD     		pop	{r4, pc}
 2677              		.cfi_endproc
 2678              	.LFE4703:
 2680              		.section	.text._ZN5daisy11daisyCommon8InitGPIOEv,"ax",%progbits
 2681              		.align	1
 2682              		.p2align 2,,3
 2683              		.global	_ZN5daisy11daisyCommon8InitGPIOEv
 2684              		.syntax unified
 2685              		.thumb
 2686              		.thumb_func
 2687              		.fpu fpv5-d16
 2689              	_ZN5daisy11daisyCommon8InitGPIOEv:
 2690              	.LVL209:
 2691              	.LFB4704:
 338:daisy_common.cpp **** 
 339:daisy_common.cpp **** void daisyCommon::InitGPIO()
 340:daisy_common.cpp **** {
 2692              		.loc 1 340 1 is_stmt 1 view -0
 2693              		.cfi_startproc
 2694              		@ args = 0, pretend = 0, frame = 0
 2695              		@ frame_needed = 0, uses_anonymous_args = 0
 341:daisy_common.cpp ****     OUT_1_AUDIO_EN.Init(D3, GPIO::Mode::OUTPUT);
 2696              		.loc 1 341 5 view .LVU845
 340:daisy_common.cpp ****     OUT_1_AUDIO_EN.Init(D3, GPIO::Mode::OUTPUT);
 2697              		.loc 1 340 1 is_stmt 0 view .LVU846
 2698 0000 30B5     		push	{r4, r5, lr}
 2699              		.cfi_def_cfa_offset 12
 2700              		.cfi_offset 4, -12
 2701              		.cfi_offset 5, -8
 2702              		.cfi_offset 14, -4
 2703              		.loc 1 341 24 view .LVU847
 2704 0002 2F49     		ldr	r1, .L232
 340:daisy_common.cpp ****     OUT_1_AUDIO_EN.Init(D3, GPIO::Mode::OUTPUT);
 2705              		.loc 1 340 1 view .LVU848
 2706 0004 83B0     		sub	sp, sp, #12
 2707              		.cfi_def_cfa_offset 24
 2708              		.loc 1 341 24 view .LVU849
 2709 0006 0024     		movs	r4, #0
 340:daisy_common.cpp ****     OUT_1_AUDIO_EN.Init(D3, GPIO::Mode::OUTPUT);
 2710              		.loc 1 340 1 view .LVU850
 2711 0008 0546     		mov	r5, r0
 2712              		.loc 1 341 24 view .LVU851
 2713 000a 0122     		movs	r2, #1
 2714 000c 0968     		ldr	r1, [r1]
 2715 000e 2346     		mov	r3, r4
 2716 0010 0430     		adds	r0, r0, #4
 2717              	.LVL210:
ARM GAS  C:\Users\samue\AppData\Local\Temp\cc4nCvGK.s 			page 70


 2718              		.loc 1 341 24 view .LVU852
 2719 0012 0094     		str	r4, [sp]
 2720 0014 FFF7FEFF 		bl	_ZN5daisy4GPIO4InitENS_3PinENS0_4ModeENS0_4PullENS0_5SpeedE
 2721              	.LVL211:
 342:daisy_common.cpp **** 	OUT_2_AUDIO_EN.Init(D5, GPIO::Mode::OUTPUT);
 2722              		.loc 1 342 2 is_stmt 1 view .LVU853
 2723              		.loc 1 342 21 is_stmt 0 view .LVU854
 2724 0018 2A49     		ldr	r1, .L232+4
 2725 001a 2346     		mov	r3, r4
 2726 001c 05F11800 		add	r0, r5, #24
 2727 0020 0122     		movs	r2, #1
 2728 0022 0968     		ldr	r1, [r1]
 2729 0024 0094     		str	r4, [sp]
 2730 0026 FFF7FEFF 		bl	_ZN5daisy4GPIO4InitENS_3PinENS0_4ModeENS0_4PullENS0_5SpeedE
 2731              	.LVL212:
 343:daisy_common.cpp **** 	OUT_1_DAC_EN.Init(D2, GPIO::Mode::OUTPUT);
 2732              		.loc 1 343 2 is_stmt 1 view .LVU855
 2733              		.loc 1 343 19 is_stmt 0 view .LVU856
 2734 002a 2749     		ldr	r1, .L232+8
 2735 002c 2346     		mov	r3, r4
 2736 002e 05F12C00 		add	r0, r5, #44
 2737 0032 0122     		movs	r2, #1
 2738 0034 0968     		ldr	r1, [r1]
 2739 0036 0094     		str	r4, [sp]
 2740 0038 FFF7FEFF 		bl	_ZN5daisy4GPIO4InitENS_3PinENS0_4ModeENS0_4PullENS0_5SpeedE
 2741              	.LVL213:
 344:daisy_common.cpp **** 	OUT_2_DAC_EN.Init(D4, GPIO::Mode::OUTPUT);
 2742              		.loc 1 344 2 is_stmt 1 view .LVU857
 2743              		.loc 1 344 19 is_stmt 0 view .LVU858
 2744 003c 2349     		ldr	r1, .L232+12
 2745 003e 2346     		mov	r3, r4
 2746 0040 05F14000 		add	r0, r5, #64
 2747 0044 0122     		movs	r2, #1
 2748 0046 0968     		ldr	r1, [r1]
 2749 0048 0094     		str	r4, [sp]
 2750 004a FFF7FEFF 		bl	_ZN5daisy4GPIO4InitENS_3PinENS0_4ModeENS0_4PullENS0_5SpeedE
 2751              	.LVL214:
 345:daisy_common.cpp ****     
 346:daisy_common.cpp ****     GATE_1_EN.Init(D27, GPIO::Mode::OUTPUT);
 2752              		.loc 1 346 5 is_stmt 1 view .LVU859
 2753              		.loc 1 346 19 is_stmt 0 view .LVU860
 2754 004e 2049     		ldr	r1, .L232+16
 2755 0050 2346     		mov	r3, r4
 2756 0052 05F15400 		add	r0, r5, #84
 2757 0056 0122     		movs	r2, #1
 2758 0058 0968     		ldr	r1, [r1]
 2759 005a 0094     		str	r4, [sp]
 2760 005c FFF7FEFF 		bl	_ZN5daisy4GPIO4InitENS_3PinENS0_4ModeENS0_4PullENS0_5SpeedE
 2761              	.LVL215:
 347:daisy_common.cpp **** 	GATE_2_EN.Init(D30, GPIO::Mode::OUTPUT);
 2762              		.loc 1 347 2 is_stmt 1 view .LVU861
 2763              		.loc 1 347 16 is_stmt 0 view .LVU862
 2764 0060 1C49     		ldr	r1, .L232+20
 2765 0062 2346     		mov	r3, r4
 2766 0064 05F16800 		add	r0, r5, #104
 2767 0068 0122     		movs	r2, #1
 2768 006a 0968     		ldr	r1, [r1]
ARM GAS  C:\Users\samue\AppData\Local\Temp\cc4nCvGK.s 			page 71


 2769 006c 0094     		str	r4, [sp]
 2770 006e FFF7FEFF 		bl	_ZN5daisy4GPIO4InitENS_3PinENS0_4ModeENS0_4PullENS0_5SpeedE
 2771              	.LVL216:
 348:daisy_common.cpp **** 	IN_4_EN.Init(D26, GPIO::Mode::OUTPUT);
 2772              		.loc 1 348 2 is_stmt 1 view .LVU863
 2773              		.loc 1 348 14 is_stmt 0 view .LVU864
 2774 0072 1949     		ldr	r1, .L232+24
 2775 0074 2346     		mov	r3, r4
 2776 0076 05F17C00 		add	r0, r5, #124
 2777 007a 0122     		movs	r2, #1
 2778 007c 0968     		ldr	r1, [r1]
 2779 007e 0094     		str	r4, [sp]
 2780 0080 FFF7FEFF 		bl	_ZN5daisy4GPIO4InitENS_3PinENS0_4ModeENS0_4PullENS0_5SpeedE
 2781              	.LVL217:
 349:daisy_common.cpp **** 	IN_8_EN.Init(D29, GPIO::Mode::OUTPUT);
 2782              		.loc 1 349 2 is_stmt 1 view .LVU865
 2783              		.loc 1 349 14 is_stmt 0 view .LVU866
 2784 0084 1549     		ldr	r1, .L232+28
 2785 0086 2346     		mov	r3, r4
 2786 0088 05F19000 		add	r0, r5, #144
 2787 008c 0122     		movs	r2, #1
 2788 008e 0968     		ldr	r1, [r1]
 2789 0090 0094     		str	r4, [sp]
 2790 0092 FFF7FEFF 		bl	_ZN5daisy4GPIO4InitENS_3PinENS0_4ModeENS0_4PullENS0_5SpeedE
 2791              	.LVL218:
 350:daisy_common.cpp **** 
 351:daisy_common.cpp ****     LED_LEFT.Init(LED_LEFT_PIN, GPIO::Mode::OUTPUT);
 2792              		.loc 1 351 5 is_stmt 1 view .LVU867
 2793              		.loc 1 351 18 is_stmt 0 view .LVU868
 2794 0096 1249     		ldr	r1, .L232+32
 2795 0098 2346     		mov	r3, r4
 2796 009a 05F1A400 		add	r0, r5, #164
 2797 009e 0122     		movs	r2, #1
 2798 00a0 0968     		ldr	r1, [r1]
 2799 00a2 0094     		str	r4, [sp]
 2800 00a4 FFF7FEFF 		bl	_ZN5daisy4GPIO4InitENS_3PinENS0_4ModeENS0_4PullENS0_5SpeedE
 2801              	.LVL219:
 352:daisy_common.cpp ****     LED_RIGHT.Init(LED_RIGHT_PIN, GPIO::Mode::OUTPUT);
 2802              		.loc 1 352 5 is_stmt 1 view .LVU869
 2803              		.loc 1 352 19 is_stmt 0 view .LVU870
 2804 00a8 0E49     		ldr	r1, .L232+36
 2805 00aa 2346     		mov	r3, r4
 2806 00ac 0122     		movs	r2, #1
 2807 00ae 0968     		ldr	r1, [r1]
 2808 00b0 05F1B800 		add	r0, r5, #184
 2809 00b4 0094     		str	r4, [sp]
 2810 00b6 FFF7FEFF 		bl	_ZN5daisy4GPIO4InitENS_3PinENS0_4ModeENS0_4PullENS0_5SpeedE
 2811              	.LVL220:
 353:daisy_common.cpp **** }
 2812              		.loc 1 353 1 view .LVU871
 2813 00ba 03B0     		add	sp, sp, #12
 2814              		.cfi_def_cfa_offset 12
 2815              		@ sp needed
 2816 00bc 30BD     		pop	{r4, r5, pc}
 2817              	.LVL221:
 2818              	.L233:
 2819              		.loc 1 353 1 view .LVU872
ARM GAS  C:\Users\samue\AppData\Local\Temp\cc4nCvGK.s 			page 72


 2820 00be 00BF     		.align	2
 2821              	.L232:
 2822 00c0 00000000 		.word	.LANCHOR0
 2823 00c4 00000000 		.word	.LANCHOR1
 2824 00c8 00000000 		.word	.LANCHOR2
 2825 00cc 00000000 		.word	.LANCHOR3
 2826 00d0 00000000 		.word	.LANCHOR4
 2827 00d4 00000000 		.word	.LANCHOR5
 2828 00d8 00000000 		.word	.LANCHOR6
 2829 00dc 00000000 		.word	.LANCHOR7
 2830 00e0 00000000 		.word	.LANCHOR8
 2831 00e4 00000000 		.word	.LANCHOR9
 2832              		.cfi_endproc
 2833              	.LFE4704:
 2835              		.section	.text._ZN5daisy11daisyCommon7InitMuxEv,"ax",%progbits
 2836              		.align	1
 2837              		.p2align 2,,3
 2838              		.global	_ZN5daisy11daisyCommon7InitMuxEv
 2839              		.syntax unified
 2840              		.thumb
 2841              		.thumb_func
 2842              		.fpu fpv5-d16
 2844              	_ZN5daisy11daisyCommon7InitMuxEv:
 2845              	.LVL222:
 2846              	.LFB4705:
 354:daisy_common.cpp **** 
 355:daisy_common.cpp **** void daisyCommon::InitMux()
 356:daisy_common.cpp **** {
 2847              		.loc 1 356 1 is_stmt 1 view -0
 2848              		.cfi_startproc
 2849              		@ args = 0, pretend = 0, frame = 0
 2850              		@ frame_needed = 0, uses_anonymous_args = 0
 357:daisy_common.cpp **** 
 358:daisy_common.cpp **** 
 359:daisy_common.cpp ****     if(out_1_mode == audio_enable)
 2851              		.loc 1 359 5 view .LVU874
 356:daisy_common.cpp **** 
 2852              		.loc 1 356 1 is_stmt 0 view .LVU875
 2853 0000 38B5     		push	{r3, r4, r5, lr}
 2854              		.cfi_def_cfa_offset 16
 2855              		.cfi_offset 3, -16
 2856              		.cfi_offset 4, -12
 2857              		.cfi_offset 5, -8
 2858              		.cfi_offset 14, -4
 2859              		.loc 1 359 8 view .LVU876
 2860 0002 D0F8A851 		ldr	r5, [r0, #424]
 356:daisy_common.cpp **** 
 2861              		.loc 1 356 1 view .LVU877
 2862 0006 0446     		mov	r4, r0
 2863              		.loc 1 359 5 view .LVU878
 2864 0008 ADB1     		cbz	r5, .L244
 360:daisy_common.cpp ****     {
 361:daisy_common.cpp ****         OUT_1_AUDIO_EN.Write(true);
 362:daisy_common.cpp ****         OUT_1_DAC_EN.Write(false);
 363:daisy_common.cpp ****     } 
 364:daisy_common.cpp ****     else if(out_1_mode == dac_enable)
 2865              		.loc 1 364 10 is_stmt 1 view .LVU879
ARM GAS  C:\Users\samue\AppData\Local\Temp\cc4nCvGK.s 			page 73


 2866 000a 012D     		cmp	r5, #1
 2867 000c 61D0     		beq	.L245
 2868              	.LVL223:
 2869              	.L236:
 365:daisy_common.cpp ****     {
 366:daisy_common.cpp ****         OUT_1_AUDIO_EN.Write(false);
 367:daisy_common.cpp ****         OUT_1_DAC_EN.Write(true);
 368:daisy_common.cpp ****     }
 369:daisy_common.cpp **** 
 370:daisy_common.cpp ****     if(out_2_mode == audio_enable)
 2870              		.loc 1 370 5 view .LVU880
 2871              		.loc 1 370 8 is_stmt 0 view .LVU881
 2872 000e D4F8AC51 		ldr	r5, [r4, #428]
 2873              		.loc 1 370 5 view .LVU882
 2874 0012 EDB1     		cbz	r5, .L246
 2875              	.L237:
 371:daisy_common.cpp ****     {
 372:daisy_common.cpp ****         OUT_2_AUDIO_EN.Write(true);
 373:daisy_common.cpp ****         OUT_2_DAC_EN.Write(false);
 374:daisy_common.cpp ****     } 
 375:daisy_common.cpp ****     else if(out_2_mode == dac_enable)
 2876              		.loc 1 375 10 is_stmt 1 view .LVU883
 2877 0014 012D     		cmp	r5, #1
 2878 0016 66D0     		beq	.L247
 2879              	.L238:
 376:daisy_common.cpp ****     {
 377:daisy_common.cpp ****         OUT_2_AUDIO_EN.Write(false);
 378:daisy_common.cpp ****         OUT_2_DAC_EN.Write(true);
 379:daisy_common.cpp ****     }
 380:daisy_common.cpp **** 
 381:daisy_common.cpp ****     if((gate_1_in_4_mode == adc_enable) || (gate_1_in_4_mode == gpio_enable))
 2880              		.loc 1 381 5 view .LVU884
 2881              		.loc 1 381 9 is_stmt 0 view .LVU885
 2882 0018 D4F8B031 		ldr	r3, [r4, #432]
 2883              		.loc 1 381 41 view .LVU886
 2884 001c 1A1F     		subs	r2, r3, #4
 2885              		.loc 1 381 5 view .LVU887
 2886 001e 012A     		cmp	r2, #1
 2887 0020 25D9     		bls	.L248
 2888              	.L239:
 382:daisy_common.cpp ****     {
 383:daisy_common.cpp ****         IN_4_EN.Write(true);
 384:daisy_common.cpp ****         GATE_1_EN.Write(false);
 385:daisy_common.cpp ****     }
 386:daisy_common.cpp ****     else if(gate_1_in_4_mode == gate_out_enable)
 2889              		.loc 1 386 10 is_stmt 1 view .LVU888
 2890 0022 032B     		cmp	r3, #3
 2891 0024 3ED0     		beq	.L249
 2892              	.L240:
 387:daisy_common.cpp ****     {
 388:daisy_common.cpp ****         IN_4_EN.Write(false);
 389:daisy_common.cpp ****         GATE_1_EN.Write(true);       
 390:daisy_common.cpp ****     }
 391:daisy_common.cpp **** 
 392:daisy_common.cpp ****     if((gate_2_in_8_mode == adc_enable) || (gate_2_in_8_mode == gpio_enable))
 2893              		.loc 1 392 5 view .LVU889
 2894              		.loc 1 392 9 is_stmt 0 view .LVU890
ARM GAS  C:\Users\samue\AppData\Local\Temp\cc4nCvGK.s 			page 74


 2895 0026 D4F8B431 		ldr	r3, [r4, #436]
 2896              		.loc 1 392 41 view .LVU891
 2897 002a 1A1F     		subs	r2, r3, #4
 2898              		.loc 1 392 5 view .LVU892
 2899 002c 012A     		cmp	r2, #1
 2900 002e 2DD9     		bls	.L250
 2901              	.L241:
 393:daisy_common.cpp ****     {
 394:daisy_common.cpp ****         IN_8_EN.Write(true);
 395:daisy_common.cpp ****         GATE_2_EN.Write(false);
 396:daisy_common.cpp ****     }
 397:daisy_common.cpp ****     else if(gate_2_in_8_mode == gate_out_enable)
 2902              		.loc 1 397 10 is_stmt 1 view .LVU893
 2903 0030 032B     		cmp	r3, #3
 2904 0032 42D0     		beq	.L251
 398:daisy_common.cpp ****     {
 399:daisy_common.cpp ****         IN_8_EN.Write(false);
 400:daisy_common.cpp ****         GATE_2_EN.Write(true);       
 401:daisy_common.cpp ****     }
 402:daisy_common.cpp **** }
 2905              		.loc 1 402 1 is_stmt 0 view .LVU894
 2906 0034 38BD     		pop	{r3, r4, r5, pc}
 2907              	.LVL224:
 2908              	.L244:
 361:daisy_common.cpp ****         OUT_1_DAC_EN.Write(false);
 2909              		.loc 1 361 9 is_stmt 1 view .LVU895
 361:daisy_common.cpp ****         OUT_1_DAC_EN.Write(false);
 2910              		.loc 1 361 29 is_stmt 0 view .LVU896
 2911 0036 0430     		adds	r0, r0, #4
 2912              	.LVL225:
 361:daisy_common.cpp ****         OUT_1_DAC_EN.Write(false);
 2913              		.loc 1 361 29 view .LVU897
 2914 0038 0121     		movs	r1, #1
 2915 003a FFF7FEFF 		bl	_ZN5daisy4GPIO5WriteEb
 2916              	.LVL226:
 362:daisy_common.cpp ****     } 
 2917              		.loc 1 362 9 is_stmt 1 view .LVU898
 362:daisy_common.cpp ****     } 
 2918              		.loc 1 362 27 is_stmt 0 view .LVU899
 2919 003e 2946     		mov	r1, r5
 2920 0040 04F12C00 		add	r0, r4, #44
 2921 0044 FFF7FEFF 		bl	_ZN5daisy4GPIO5WriteEb
 2922              	.LVL227:
 370:daisy_common.cpp ****     {
 2923              		.loc 1 370 5 is_stmt 1 view .LVU900
 370:daisy_common.cpp ****     {
 2924              		.loc 1 370 8 is_stmt 0 view .LVU901
 2925 0048 D4F8AC51 		ldr	r5, [r4, #428]
 370:daisy_common.cpp ****     {
 2926              		.loc 1 370 5 view .LVU902
 2927 004c 002D     		cmp	r5, #0
 2928 004e E1D1     		bne	.L237
 2929              	.L246:
 372:daisy_common.cpp ****         OUT_2_DAC_EN.Write(false);
 2930              		.loc 1 372 9 is_stmt 1 view .LVU903
 372:daisy_common.cpp ****         OUT_2_DAC_EN.Write(false);
 2931              		.loc 1 372 29 is_stmt 0 view .LVU904
ARM GAS  C:\Users\samue\AppData\Local\Temp\cc4nCvGK.s 			page 75


 2932 0050 04F11800 		add	r0, r4, #24
 2933 0054 0121     		movs	r1, #1
 2934 0056 FFF7FEFF 		bl	_ZN5daisy4GPIO5WriteEb
 2935              	.LVL228:
 373:daisy_common.cpp ****     } 
 2936              		.loc 1 373 9 is_stmt 1 view .LVU905
 373:daisy_common.cpp ****     } 
 2937              		.loc 1 373 27 is_stmt 0 view .LVU906
 2938 005a 2946     		mov	r1, r5
 2939 005c 04F14000 		add	r0, r4, #64
 2940 0060 FFF7FEFF 		bl	_ZN5daisy4GPIO5WriteEb
 2941              	.LVL229:
 381:daisy_common.cpp ****     {
 2942              		.loc 1 381 5 is_stmt 1 view .LVU907
 381:daisy_common.cpp ****     {
 2943              		.loc 1 381 9 is_stmt 0 view .LVU908
 2944 0064 D4F8B031 		ldr	r3, [r4, #432]
 381:daisy_common.cpp ****     {
 2945              		.loc 1 381 41 view .LVU909
 2946 0068 1A1F     		subs	r2, r3, #4
 381:daisy_common.cpp ****     {
 2947              		.loc 1 381 5 view .LVU910
 2948 006a 012A     		cmp	r2, #1
 2949 006c D9D8     		bhi	.L239
 2950              	.L248:
 383:daisy_common.cpp ****         GATE_1_EN.Write(false);
 2951              		.loc 1 383 9 is_stmt 1 view .LVU911
 383:daisy_common.cpp ****         GATE_1_EN.Write(false);
 2952              		.loc 1 383 22 is_stmt 0 view .LVU912
 2953 006e 04F17C00 		add	r0, r4, #124
 2954 0072 0121     		movs	r1, #1
 2955 0074 FFF7FEFF 		bl	_ZN5daisy4GPIO5WriteEb
 2956              	.LVL230:
 384:daisy_common.cpp ****     }
 2957              		.loc 1 384 9 is_stmt 1 view .LVU913
 384:daisy_common.cpp ****     }
 2958              		.loc 1 384 24 is_stmt 0 view .LVU914
 2959 0078 0021     		movs	r1, #0
 2960 007a 04F15400 		add	r0, r4, #84
 2961 007e FFF7FEFF 		bl	_ZN5daisy4GPIO5WriteEb
 2962              	.LVL231:
 392:daisy_common.cpp ****     {
 2963              		.loc 1 392 5 is_stmt 1 view .LVU915
 392:daisy_common.cpp ****     {
 2964              		.loc 1 392 9 is_stmt 0 view .LVU916
 2965 0082 D4F8B431 		ldr	r3, [r4, #436]
 392:daisy_common.cpp ****     {
 2966              		.loc 1 392 41 view .LVU917
 2967 0086 1A1F     		subs	r2, r3, #4
 392:daisy_common.cpp ****     {
 2968              		.loc 1 392 5 view .LVU918
 2969 0088 012A     		cmp	r2, #1
 2970 008a D1D8     		bhi	.L241
 2971              	.L250:
 394:daisy_common.cpp ****         GATE_2_EN.Write(false);
 2972              		.loc 1 394 9 is_stmt 1 view .LVU919
 394:daisy_common.cpp ****         GATE_2_EN.Write(false);
ARM GAS  C:\Users\samue\AppData\Local\Temp\cc4nCvGK.s 			page 76


 2973              		.loc 1 394 22 is_stmt 0 view .LVU920
 2974 008c 04F19000 		add	r0, r4, #144
 2975 0090 0121     		movs	r1, #1
 2976 0092 FFF7FEFF 		bl	_ZN5daisy4GPIO5WriteEb
 2977              	.LVL232:
 395:daisy_common.cpp ****     }
 2978              		.loc 1 395 9 is_stmt 1 view .LVU921
 395:daisy_common.cpp ****     }
 2979              		.loc 1 395 24 is_stmt 0 view .LVU922
 2980 0096 04F16800 		add	r0, r4, #104
 2981 009a 0021     		movs	r1, #0
 2982              		.loc 1 402 1 view .LVU923
 2983 009c BDE83840 		pop	{r3, r4, r5, lr}
 2984              		.cfi_remember_state
 2985              		.cfi_restore 14
 2986              		.cfi_restore 5
 2987              		.cfi_restore 4
 2988              		.cfi_restore 3
 2989              		.cfi_def_cfa_offset 0
 2990              	.LVL233:
 395:daisy_common.cpp ****     }
 2991              		.loc 1 395 24 view .LVU924
 2992 00a0 FFF7FEBF 		b	_ZN5daisy4GPIO5WriteEb
 2993              	.LVL234:
 2994              	.L249:
 2995              		.cfi_restore_state
 388:daisy_common.cpp ****         GATE_1_EN.Write(true);       
 2996              		.loc 1 388 9 is_stmt 1 view .LVU925
 388:daisy_common.cpp ****         GATE_1_EN.Write(true);       
 2997              		.loc 1 388 22 is_stmt 0 view .LVU926
 2998 00a4 04F17C00 		add	r0, r4, #124
 2999 00a8 0021     		movs	r1, #0
 3000 00aa FFF7FEFF 		bl	_ZN5daisy4GPIO5WriteEb
 3001              	.LVL235:
 389:daisy_common.cpp ****     }
 3002              		.loc 1 389 9 is_stmt 1 view .LVU927
 389:daisy_common.cpp ****     }
 3003              		.loc 1 389 24 is_stmt 0 view .LVU928
 3004 00ae 0121     		movs	r1, #1
 3005 00b0 04F15400 		add	r0, r4, #84
 3006 00b4 FFF7FEFF 		bl	_ZN5daisy4GPIO5WriteEb
 3007              	.LVL236:
 3008 00b8 B5E7     		b	.L240
 3009              	.L251:
 399:daisy_common.cpp ****         GATE_2_EN.Write(true);       
 3010              		.loc 1 399 9 is_stmt 1 view .LVU929
 399:daisy_common.cpp ****         GATE_2_EN.Write(true);       
 3011              		.loc 1 399 22 is_stmt 0 view .LVU930
 3012 00ba 04F19000 		add	r0, r4, #144
 3013 00be 0021     		movs	r1, #0
 3014 00c0 FFF7FEFF 		bl	_ZN5daisy4GPIO5WriteEb
 3015              	.LVL237:
 400:daisy_common.cpp ****     }
 3016              		.loc 1 400 9 is_stmt 1 view .LVU931
 400:daisy_common.cpp ****     }
 3017              		.loc 1 400 24 is_stmt 0 view .LVU932
 3018 00c4 04F16800 		add	r0, r4, #104
ARM GAS  C:\Users\samue\AppData\Local\Temp\cc4nCvGK.s 			page 77


 3019 00c8 0121     		movs	r1, #1
 3020              		.loc 1 402 1 view .LVU933
 3021 00ca BDE83840 		pop	{r3, r4, r5, lr}
 3022              		.cfi_remember_state
 3023              		.cfi_restore 14
 3024              		.cfi_restore 5
 3025              		.cfi_restore 4
 3026              		.cfi_restore 3
 3027              		.cfi_def_cfa_offset 0
 3028              	.LVL238:
 400:daisy_common.cpp ****     }
 3029              		.loc 1 400 24 view .LVU934
 3030 00ce FFF7FEBF 		b	_ZN5daisy4GPIO5WriteEb
 3031              	.LVL239:
 3032              	.L245:
 3033              		.cfi_restore_state
 366:daisy_common.cpp ****         OUT_1_DAC_EN.Write(true);
 3034              		.loc 1 366 9 is_stmt 1 view .LVU935
 366:daisy_common.cpp ****         OUT_1_DAC_EN.Write(true);
 3035              		.loc 1 366 29 is_stmt 0 view .LVU936
 3036 00d2 0430     		adds	r0, r0, #4
 3037              	.LVL240:
 366:daisy_common.cpp ****         OUT_1_DAC_EN.Write(true);
 3038              		.loc 1 366 29 view .LVU937
 3039 00d4 0021     		movs	r1, #0
 3040 00d6 FFF7FEFF 		bl	_ZN5daisy4GPIO5WriteEb
 3041              	.LVL241:
 367:daisy_common.cpp ****     }
 3042              		.loc 1 367 9 is_stmt 1 view .LVU938
 367:daisy_common.cpp ****     }
 3043              		.loc 1 367 27 is_stmt 0 view .LVU939
 3044 00da 2946     		mov	r1, r5
 3045 00dc 04F12C00 		add	r0, r4, #44
 3046 00e0 FFF7FEFF 		bl	_ZN5daisy4GPIO5WriteEb
 3047              	.LVL242:
 3048 00e4 93E7     		b	.L236
 3049              	.L247:
 377:daisy_common.cpp ****         OUT_2_DAC_EN.Write(true);
 3050              		.loc 1 377 9 is_stmt 1 view .LVU940
 377:daisy_common.cpp ****         OUT_2_DAC_EN.Write(true);
 3051              		.loc 1 377 29 is_stmt 0 view .LVU941
 3052 00e6 04F11800 		add	r0, r4, #24
 3053 00ea 0021     		movs	r1, #0
 3054 00ec FFF7FEFF 		bl	_ZN5daisy4GPIO5WriteEb
 3055              	.LVL243:
 378:daisy_common.cpp ****     }
 3056              		.loc 1 378 9 is_stmt 1 view .LVU942
 378:daisy_common.cpp ****     }
 3057              		.loc 1 378 27 is_stmt 0 view .LVU943
 3058 00f0 2946     		mov	r1, r5
 3059 00f2 04F14000 		add	r0, r4, #64
 3060 00f6 FFF7FEFF 		bl	_ZN5daisy4GPIO5WriteEb
 3061              	.LVL244:
 3062 00fa 8DE7     		b	.L238
 3063              		.cfi_endproc
 3064              	.LFE4705:
 3066              		.section	.text._ZN5daisy11daisyCommon10InitToggleEv,"ax",%progbits
ARM GAS  C:\Users\samue\AppData\Local\Temp\cc4nCvGK.s 			page 78


 3067              		.align	1
 3068              		.p2align 2,,3
 3069              		.global	_ZN5daisy11daisyCommon10InitToggleEv
 3070              		.syntax unified
 3071              		.thumb
 3072              		.thumb_func
 3073              		.fpu fpv5-d16
 3075              	_ZN5daisy11daisyCommon10InitToggleEv:
 3076              	.LVL245:
 3077              	.LFB4706:
 403:daisy_common.cpp **** 
 404:daisy_common.cpp **** void daisyCommon::InitToggle()
 405:daisy_common.cpp **** {
 3078              		.loc 1 405 1 is_stmt 1 view -0
 3079              		.cfi_startproc
 3080              		@ args = 0, pretend = 0, frame = 0
 3081              		@ frame_needed = 0, uses_anonymous_args = 0
 406:daisy_common.cpp ****     toggle_left.Init(TOGGLE_LEFT_PIN_1, TOGGLE_LEFT_PIN_2);
 3082              		.loc 1 406 5 view .LVU945
 405:daisy_common.cpp ****     toggle_left.Init(TOGGLE_LEFT_PIN_1, TOGGLE_LEFT_PIN_2);
 3083              		.loc 1 405 1 is_stmt 0 view .LVU946
 3084 0000 F8B5     		push	{r3, r4, r5, r6, r7, lr}
 3085              		.cfi_def_cfa_offset 24
 3086              		.cfi_offset 3, -24
 3087              		.cfi_offset 4, -20
 3088              		.cfi_offset 5, -16
 3089              		.cfi_offset 6, -12
 3090              		.cfi_offset 7, -8
 3091              		.cfi_offset 14, -4
 405:daisy_common.cpp ****     toggle_left.Init(TOGGLE_LEFT_PIN_1, TOGGLE_LEFT_PIN_2);
 3092              		.loc 1 405 1 view .LVU947
 3093 0002 0446     		mov	r4, r0
 3094              	.LVL246:
 3095              	.LBB290:
 3096              	.LBI290:
 3097              		.file 4 "../../../../DaisyExamples/libDaisy//src/hid/switch3.h"
   1:../../../../DaisyExamples/libDaisy//src/hid/switch3.h **** #pragma once
   2:../../../../DaisyExamples/libDaisy//src/hid/switch3.h **** #include "daisy_core.h"
   3:../../../../DaisyExamples/libDaisy//src/hid/switch3.h **** #include "per/gpio.h"
   4:../../../../DaisyExamples/libDaisy//src/hid/switch3.h **** 
   5:../../../../DaisyExamples/libDaisy//src/hid/switch3.h **** namespace daisy
   6:../../../../DaisyExamples/libDaisy//src/hid/switch3.h **** {
   7:../../../../DaisyExamples/libDaisy//src/hid/switch3.h **** class Switch3
   8:../../../../DaisyExamples/libDaisy//src/hid/switch3.h **** {
   9:../../../../DaisyExamples/libDaisy//src/hid/switch3.h ****   public:
  10:../../../../DaisyExamples/libDaisy//src/hid/switch3.h ****     enum
  11:../../../../DaisyExamples/libDaisy//src/hid/switch3.h ****     {
  12:../../../../DaisyExamples/libDaisy//src/hid/switch3.h ****         POS_CENTER = 0,
  13:../../../../DaisyExamples/libDaisy//src/hid/switch3.h ****         POS_LEFT   = 1,
  14:../../../../DaisyExamples/libDaisy//src/hid/switch3.h ****         POS_UP     = 1,
  15:../../../../DaisyExamples/libDaisy//src/hid/switch3.h ****         POS_RIGHT  = 2,
  16:../../../../DaisyExamples/libDaisy//src/hid/switch3.h ****         POS_DOWN   = 2,
  17:../../../../DaisyExamples/libDaisy//src/hid/switch3.h ****     };
  18:../../../../DaisyExamples/libDaisy//src/hid/switch3.h **** 
  19:../../../../DaisyExamples/libDaisy//src/hid/switch3.h **** 
  20:../../../../DaisyExamples/libDaisy//src/hid/switch3.h ****     Switch3() {}
  21:../../../../DaisyExamples/libDaisy//src/hid/switch3.h ****     ~Switch3() {}
ARM GAS  C:\Users\samue\AppData\Local\Temp\cc4nCvGK.s 			page 79


  22:../../../../DaisyExamples/libDaisy//src/hid/switch3.h **** 
  23:../../../../DaisyExamples/libDaisy//src/hid/switch3.h ****     void Init(dsy_gpio_pin pina, dsy_gpio_pin pinb)
 3098              		.loc 4 23 10 is_stmt 1 view .LVU948
 3099              	.LBB291:
  24:../../../../DaisyExamples/libDaisy//src/hid/switch3.h ****     {
  25:../../../../DaisyExamples/libDaisy//src/hid/switch3.h ****         pina_gpio_.pin  = pina;
 3100              		.loc 4 25 9 view .LVU949
 3101              		.loc 4 25 25 is_stmt 0 view .LVU950
 3102 0004 0125     		movs	r5, #1
  26:../../../../DaisyExamples/libDaisy//src/hid/switch3.h ****         pina_gpio_.mode = DSY_GPIO_MODE_INPUT;
 3103              		.loc 4 26 25 view .LVU951
 3104 0006 0026     		movs	r6, #0
  25:../../../../DaisyExamples/libDaisy//src/hid/switch3.h ****         pina_gpio_.mode = DSY_GPIO_MODE_INPUT;
 3105              		.loc 4 25 25 view .LVU952
 3106 0008 0423     		movs	r3, #4
  27:../../../../DaisyExamples/libDaisy//src/hid/switch3.h ****         pina_gpio_.pull = DSY_GPIO_PULLUP;
  28:../../../../DaisyExamples/libDaisy//src/hid/switch3.h ****         dsy_gpio_init(&pina_gpio_);
 3107              		.loc 4 28 22 view .LVU953
 3108 000a F430     		adds	r0, r0, #244
 3109              	.LVL247:
  25:../../../../DaisyExamples/libDaisy//src/hid/switch3.h ****         pina_gpio_.mode = DSY_GPIO_MODE_INPUT;
 3110              		.loc 4 25 25 view .LVU954
 3111 000c 84F8F450 		strb	r5, [r4, #244]
 3112 0010 84F8F530 		strb	r3, [r4, #245]
  26:../../../../DaisyExamples/libDaisy//src/hid/switch3.h ****         pina_gpio_.pull = DSY_GPIO_PULLUP;
 3113              		.loc 4 26 9 is_stmt 1 view .LVU955
  29:../../../../DaisyExamples/libDaisy//src/hid/switch3.h **** 
  30:../../../../DaisyExamples/libDaisy//src/hid/switch3.h ****         pinb_gpio_.pin  = pinb;
 3114              		.loc 4 30 25 is_stmt 0 view .LVU956
 3115 0014 0627     		movs	r7, #6
  26:../../../../DaisyExamples/libDaisy//src/hid/switch3.h ****         pina_gpio_.pull = DSY_GPIO_PULLUP;
 3116              		.loc 4 26 25 view .LVU957
 3117 0016 84F8F660 		strb	r6, [r4, #246]
  27:../../../../DaisyExamples/libDaisy//src/hid/switch3.h ****         dsy_gpio_init(&pina_gpio_);
 3118              		.loc 4 27 9 is_stmt 1 view .LVU958
  27:../../../../DaisyExamples/libDaisy//src/hid/switch3.h ****         dsy_gpio_init(&pina_gpio_);
 3119              		.loc 4 27 25 is_stmt 0 view .LVU959
 3120 001a 84F8F750 		strb	r5, [r4, #247]
  28:../../../../DaisyExamples/libDaisy//src/hid/switch3.h **** 
 3121              		.loc 4 28 9 is_stmt 1 view .LVU960
  28:../../../../DaisyExamples/libDaisy//src/hid/switch3.h **** 
 3122              		.loc 4 28 22 is_stmt 0 view .LVU961
 3123 001e FFF7FEFF 		bl	dsy_gpio_init
 3124              	.LVL248:
 3125              		.loc 4 30 9 is_stmt 1 view .LVU962
 3126              		.loc 4 30 25 is_stmt 0 view .LVU963
 3127 0022 0B23     		movs	r3, #11
  31:../../../../DaisyExamples/libDaisy//src/hid/switch3.h ****         pinb_gpio_.mode = DSY_GPIO_MODE_INPUT;
  32:../../../../DaisyExamples/libDaisy//src/hid/switch3.h ****         pinb_gpio_.pull = DSY_GPIO_PULLUP;
  33:../../../../DaisyExamples/libDaisy//src/hid/switch3.h ****         dsy_gpio_init(&pinb_gpio_);
 3128              		.loc 4 33 22 view .LVU964
 3129 0024 04F1F800 		add	r0, r4, #248
  30:../../../../DaisyExamples/libDaisy//src/hid/switch3.h ****         pinb_gpio_.mode = DSY_GPIO_MODE_INPUT;
 3130              		.loc 4 30 25 view .LVU965
 3131 0028 84F8F870 		strb	r7, [r4, #248]
 3132 002c 84F8F930 		strb	r3, [r4, #249]
  31:../../../../DaisyExamples/libDaisy//src/hid/switch3.h ****         pinb_gpio_.mode = DSY_GPIO_MODE_INPUT;
ARM GAS  C:\Users\samue\AppData\Local\Temp\cc4nCvGK.s 			page 80


 3133              		.loc 4 31 9 is_stmt 1 view .LVU966
  32:../../../../DaisyExamples/libDaisy//src/hid/switch3.h ****         dsy_gpio_init(&pinb_gpio_);
 3134              		.loc 4 32 9 view .LVU967
  31:../../../../DaisyExamples/libDaisy//src/hid/switch3.h ****         pinb_gpio_.mode = DSY_GPIO_MODE_INPUT;
 3135              		.loc 4 31 25 is_stmt 0 view .LVU968
 3136 0030 84F8FA60 		strb	r6, [r4, #250]
  32:../../../../DaisyExamples/libDaisy//src/hid/switch3.h ****         dsy_gpio_init(&pinb_gpio_);
 3137              		.loc 4 32 25 view .LVU969
 3138 0034 84F8FB50 		strb	r5, [r4, #251]
 3139              		.loc 4 33 9 is_stmt 1 view .LVU970
 3140              		.loc 4 33 22 is_stmt 0 view .LVU971
 3141 0038 FFF7FEFF 		bl	dsy_gpio_init
 3142              	.LVL249:
 3143              		.loc 4 33 22 view .LVU972
 3144              	.LBE291:
 3145              	.LBE290:
 407:daisy_common.cpp **** 	toggle_right.Init(TOGGLE_RIGHT_PIN_1, TOGGLE_RIGHT_PIN_2);
 3146              		.loc 1 407 2 is_stmt 1 view .LVU973
 3147              	.LBB292:
 3148              	.LBI292:
  23:../../../../DaisyExamples/libDaisy//src/hid/switch3.h ****     {
 3149              		.loc 4 23 10 view .LVU974
 3150              	.LBB293:
  25:../../../../DaisyExamples/libDaisy//src/hid/switch3.h ****         pina_gpio_.mode = DSY_GPIO_MODE_INPUT;
 3151              		.loc 4 25 9 view .LVU975
  25:../../../../DaisyExamples/libDaisy//src/hid/switch3.h ****         pina_gpio_.mode = DSY_GPIO_MODE_INPUT;
 3152              		.loc 4 25 25 is_stmt 0 view .LVU976
 3153 003c 0723     		movs	r3, #7
  28:../../../../DaisyExamples/libDaisy//src/hid/switch3.h **** 
 3154              		.loc 4 28 22 view .LVU977
 3155 003e 04F1FC00 		add	r0, r4, #252
 3156              	.LVL250:
  25:../../../../DaisyExamples/libDaisy//src/hid/switch3.h ****         pina_gpio_.mode = DSY_GPIO_MODE_INPUT;
 3157              		.loc 4 25 25 view .LVU978
 3158 0042 84F8FC50 		strb	r5, [r4, #252]
  26:../../../../DaisyExamples/libDaisy//src/hid/switch3.h ****         pina_gpio_.pull = DSY_GPIO_PULLUP;
 3159              		.loc 4 26 25 view .LVU979
 3160 0046 84F8FE60 		strb	r6, [r4, #254]
  25:../../../../DaisyExamples/libDaisy//src/hid/switch3.h ****         pina_gpio_.mode = DSY_GPIO_MODE_INPUT;
 3161              		.loc 4 25 25 view .LVU980
 3162 004a 84F8FD30 		strb	r3, [r4, #253]
  26:../../../../DaisyExamples/libDaisy//src/hid/switch3.h ****         pina_gpio_.pull = DSY_GPIO_PULLUP;
 3163              		.loc 4 26 9 is_stmt 1 view .LVU981
  27:../../../../DaisyExamples/libDaisy//src/hid/switch3.h ****         dsy_gpio_init(&pina_gpio_);
 3164              		.loc 4 27 9 view .LVU982
  27:../../../../DaisyExamples/libDaisy//src/hid/switch3.h ****         dsy_gpio_init(&pina_gpio_);
 3165              		.loc 4 27 25 is_stmt 0 view .LVU983
 3166 004e 84F8FF50 		strb	r5, [r4, #255]
  28:../../../../DaisyExamples/libDaisy//src/hid/switch3.h **** 
 3167              		.loc 4 28 9 is_stmt 1 view .LVU984
  28:../../../../DaisyExamples/libDaisy//src/hid/switch3.h **** 
 3168              		.loc 4 28 22 is_stmt 0 view .LVU985
 3169 0052 FFF7FEFF 		bl	dsy_gpio_init
 3170              	.LVL251:
  30:../../../../DaisyExamples/libDaisy//src/hid/switch3.h ****         pinb_gpio_.mode = DSY_GPIO_MODE_INPUT;
 3171              		.loc 4 30 9 is_stmt 1 view .LVU986
 3172              		.loc 4 33 22 is_stmt 0 view .LVU987
ARM GAS  C:\Users\samue\AppData\Local\Temp\cc4nCvGK.s 			page 81


 3173 0056 04F58070 		add	r0, r4, #256
  30:../../../../DaisyExamples/libDaisy//src/hid/switch3.h ****         pinb_gpio_.mode = DSY_GPIO_MODE_INPUT;
 3174              		.loc 4 30 25 view .LVU988
 3175 005a 84F80051 		strb	r5, [r4, #256]
 3176 005e 84F80171 		strb	r7, [r4, #257]
  31:../../../../DaisyExamples/libDaisy//src/hid/switch3.h ****         pinb_gpio_.pull = DSY_GPIO_PULLUP;
 3177              		.loc 4 31 9 is_stmt 1 view .LVU989
  31:../../../../DaisyExamples/libDaisy//src/hid/switch3.h ****         pinb_gpio_.pull = DSY_GPIO_PULLUP;
 3178              		.loc 4 31 25 is_stmt 0 view .LVU990
 3179 0062 84F80261 		strb	r6, [r4, #258]
  32:../../../../DaisyExamples/libDaisy//src/hid/switch3.h ****         dsy_gpio_init(&pinb_gpio_);
 3180              		.loc 4 32 9 is_stmt 1 view .LVU991
  32:../../../../DaisyExamples/libDaisy//src/hid/switch3.h ****         dsy_gpio_init(&pinb_gpio_);
 3181              		.loc 4 32 25 is_stmt 0 view .LVU992
 3182 0066 84F80351 		strb	r5, [r4, #259]
 3183              		.loc 4 33 9 is_stmt 1 view .LVU993
 3184              	.LBE293:
 3185              	.LBE292:
 408:daisy_common.cpp **** }
 3186              		.loc 1 408 1 is_stmt 0 view .LVU994
 3187 006a BDE8F840 		pop	{r3, r4, r5, r6, r7, lr}
 3188              		.cfi_restore 14
 3189              		.cfi_restore 7
 3190              		.cfi_restore 6
 3191              		.cfi_restore 5
 3192              		.cfi_restore 4
 3193              		.cfi_restore 3
 3194              		.cfi_def_cfa_offset 0
 3195              	.LVL252:
 3196              	.LBB295:
 3197              	.LBB294:
 3198              		.loc 4 33 22 view .LVU995
 3199 006e FFF7FEBF 		b	dsy_gpio_init
 3200              	.LVL253:
 3201              		.loc 4 33 22 view .LVU996
 3202              	.LBE294:
 3203              	.LBE295:
 3204              		.cfi_endproc
 3205              	.LFE4706:
 3207 0072 00BF     		.section	.text._ZN5daisy11daisyCommon10InitButtonEv,"ax",%progbits
 3208              		.align	1
 3209              		.p2align 2,,3
 3210              		.global	_ZN5daisy11daisyCommon10InitButtonEv
 3211              		.syntax unified
 3212              		.thumb
 3213              		.thumb_func
 3214              		.fpu fpv5-d16
 3216              	_ZN5daisy11daisyCommon10InitButtonEv:
 3217              	.LVL254:
 3218              	.LFB4707:
 409:daisy_common.cpp **** 
 410:daisy_common.cpp **** void daisyCommon::InitButton()
 411:daisy_common.cpp **** {
 3219              		.loc 1 411 1 is_stmt 1 view -0
 3220              		.cfi_startproc
 3221              		@ args = 0, pretend = 0, frame = 8
 3222              		@ frame_needed = 0, uses_anonymous_args = 0
ARM GAS  C:\Users\samue\AppData\Local\Temp\cc4nCvGK.s 			page 82


 3223              		@ link register save eliminated.
 412:daisy_common.cpp ****     button.Init(D10);
 3224              		.loc 1 412 5 view .LVU998
 411:daisy_common.cpp ****     button.Init(D10);
 3225              		.loc 1 411 1 is_stmt 0 view .LVU999
 3226 0000 82B0     		sub	sp, sp, #8
 3227              		.cfi_def_cfa_offset 8
 3228              		.loc 1 412 16 view .LVU1000
 3229 0002 0122     		movs	r2, #1
 3230 0004 0523     		movs	r3, #5
 3231 0006 9FED060A 		vldr.32	s0, .L256
 3232 000a 8DF80420 		strb	r2, [sp, #4]
 3233 000e 00F58270 		add	r0, r0, #260
 3234              	.LVL255:
 3235              		.loc 1 412 16 view .LVU1001
 3236 0012 8DF80530 		strb	r3, [sp, #5]
 3237 0016 0199     		ldr	r1, [sp, #4]
 413:daisy_common.cpp **** }
 3238              		.loc 1 413 1 view .LVU1002
 3239 0018 02B0     		add	sp, sp, #8
 3240              		.cfi_def_cfa_offset 0
 3241              		@ sp needed
 412:daisy_common.cpp ****     button.Init(D10);
 3242              		.loc 1 412 16 view .LVU1003
 3243 001a FFF7FEBF 		b	_ZN5daisy6Switch4InitE12dsy_gpio_pinf
 3244              	.LVL256:
 3245              	.L257:
 412:daisy_common.cpp ****     button.Init(D10);
 3246              		.loc 1 412 16 view .LVU1004
 3247 001e 00BF     		.align	2
 3248              	.L256:
 3249 0020 00000000 		.word	0
 3250              		.cfi_endproc
 3251              	.LFE4707:
 3253              		.section	.text._ZN5daisy11daisyCommon7InitADCEv,"ax",%progbits
 3254              		.align	1
 3255              		.p2align 2,,3
 3256              		.global	_ZN5daisy11daisyCommon7InitADCEv
 3257              		.syntax unified
 3258              		.thumb
 3259              		.thumb_func
 3260              		.fpu fpv5-d16
 3262              	_ZN5daisy11daisyCommon7InitADCEv:
 3263              	.LVL257:
 3264              	.LFB4708:
 414:daisy_common.cpp **** 
 415:daisy_common.cpp **** void daisyCommon::InitADC()
 416:daisy_common.cpp **** {
 3265              		.loc 1 416 1 is_stmt 1 view -0
 3266              		.cfi_startproc
 3267              		@ args = 0, pretend = 0, frame = 72
 3268              		@ frame_needed = 1, uses_anonymous_args = 0
 417:daisy_common.cpp ****     AdcChannelConfig adc_config[adc_channel_count];
 3269              		.loc 1 417 5 view .LVU1006
 416:daisy_common.cpp ****     AdcChannelConfig adc_config[adc_channel_count];
 3270              		.loc 1 416 1 is_stmt 0 view .LVU1007
 3271 0000 2DE9F04F 		push	{r4, r5, r6, r7, r8, r9, r10, fp, lr}
ARM GAS  C:\Users\samue\AppData\Local\Temp\cc4nCvGK.s 			page 83


 3272              		.cfi_def_cfa_offset 36
 3273              		.cfi_offset 4, -36
 3274              		.cfi_offset 5, -32
 3275              		.cfi_offset 6, -28
 3276              		.cfi_offset 7, -24
 3277              		.cfi_offset 8, -20
 3278              		.cfi_offset 9, -16
 3279              		.cfi_offset 10, -12
 3280              		.cfi_offset 11, -8
 3281              		.cfi_offset 14, -4
 3282 0004 97B0     		sub	sp, sp, #92
 3283              		.cfi_def_cfa_offset 128
 418:daisy_common.cpp ****     adc_config[mux_x].InitMux(MUX_X_ADC_PIN, 4, D6, D7);
 3284              		.loc 1 418 30 view .LVU1008
 3285 0006 0026     		movs	r6, #0
 3286 0008 4FF00B02 		mov	r2, #11
 3287 000c 4FF0060B 		mov	fp, #6
 416:daisy_common.cpp ****     AdcChannelConfig adc_config[adc_channel_count];
 3288              		.loc 1 416 1 view .LVU1009
 417:daisy_common.cpp ****     AdcChannelConfig adc_config[adc_channel_count];
 3289              		.loc 1 417 22 view .LVU1010
 3290 0010 D0F8F031 		ldr	r3, [r0, #496]
 416:daisy_common.cpp ****     AdcChannelConfig adc_config[adc_channel_count];
 3291              		.loc 1 416 1 view .LVU1011
 3292 0014 04AF     		add	r7, sp, #16
 3293              		.cfi_def_cfa 7, 112
 3294              		.loc 1 418 30 view .LVU1012
 3295 0016 4FF00A0A 		mov	r10, #10
 417:daisy_common.cpp ****     AdcChannelConfig adc_config[adc_channel_count];
 3296              		.loc 1 417 22 view .LVU1013
 3297 001a 03EBC303 		add	r3, r3, r3, lsl #3
 3298              		.loc 1 418 30 view .LVU1014
 3299 001e 0225     		movs	r5, #2
 3300 0020 87F84020 		strb	r2, [r7, #64]
 3301 0024 4FF00C09 		mov	r9, #12
 417:daisy_common.cpp ****     AdcChannelConfig adc_config[adc_channel_count];
 3302              		.loc 1 417 22 view .LVU1015
 3303 0028 5B00     		lsls	r3, r3, #1
 3304              		.loc 1 418 30 view .LVU1016
 3305 002a 87F84160 		strb	r6, [r7, #65]
 3306 002e 87F810B0 		strb	fp, [r7, #16]
 416:daisy_common.cpp ****     AdcChannelConfig adc_config[adc_channel_count];
 3307              		.loc 1 416 1 view .LVU1017
 3308 0032 0446     		mov	r4, r0
 3309              	.LVL258:
 417:daisy_common.cpp ****     AdcChannelConfig adc_config[adc_channel_count];
 3310              		.loc 1 417 22 view .LVU1018
 3311 0034 0733     		adds	r3, r3, #7
 3312              		.loc 1 418 30 view .LVU1019
 3313 0036 87F811A0 		strb	r10, [r7, #17]
 3314 003a 3E72     		strb	r6, [r7, #8]
 3315 003c 0422     		movs	r2, #4
 417:daisy_common.cpp ****     AdcChannelConfig adc_config[adc_channel_count];
 3316              		.loc 1 417 22 view .LVU1020
 3317 003e 23F00703 		bic	r3, r3, #7
 3318              		.loc 1 418 30 view .LVU1021
 3319 0042 7D72     		strb	r5, [r7, #9]
ARM GAS  C:\Users\samue\AppData\Local\Temp\cc4nCvGK.s 			page 84


 3320 0044 3D73     		strb	r5, [r7, #12]
 417:daisy_common.cpp ****     AdcChannelConfig adc_config[adc_channel_count];
 3321              		.loc 1 417 22 view .LVU1022
 3322 0046 ADEB030D 		sub	sp, sp, r3
 3323              		.loc 1 418 30 view .LVU1023
 3324 004a B7F84030 		ldrh	r3, [r7, #64]
 3325 004e 87F80D90 		strb	r9, [r7, #13]
 3326 0052 ADF80430 		strh	r3, [sp, #4]	@ movhi
 3327              	.LVL259:
 417:daisy_common.cpp ****     AdcChannelConfig adc_config[adc_channel_count];
 3328              		.loc 1 417 22 view .LVU1024
 3329 0056 0DF11008 		add	r8, sp, #16
 3330              	.LVL260:
 3331              		.loc 1 418 5 is_stmt 1 view .LVU1025
 3332              		.loc 1 418 30 is_stmt 0 view .LVU1026
 3333 005a 3B8A     		ldrh	r3, [r7, #16]
 3334 005c B968     		ldr	r1, [r7, #8]
 3335 005e 4046     		mov	r0, r8
 3336              	.LVL261:
 3337              		.loc 1 418 30 view .LVU1027
 3338 0060 ADF80030 		strh	r3, [sp]	@ movhi
 3339 0064 0295     		str	r5, [sp, #8]
 3340 0066 FB68     		ldr	r3, [r7, #12]
 3341 0068 FFF7FEFF 		bl	_ZN5daisy16AdcChannelConfig7InitMuxE12dsy_gpio_pinjS1_S1_S1_NS0_15ConversionSpeedE
 3342              	.LVL262:
 419:daisy_common.cpp **** 	adc_config[mux_y].InitMux(MUX_Y_ADC_PIN, 4, D6, D7);
 3343              		.loc 1 419 2 is_stmt 1 view .LVU1028
 3344              		.loc 1 419 27 is_stmt 0 view .LVU1029
 3345 006c 4FF00B02 		mov	r2, #11
 3346 0070 87F81CB0 		strb	fp, [r7, #28]
 3347 0074 0DF12200 		add	r0, sp, #34
 3348 0078 87F81DA0 		strb	r10, [r7, #29]
 3349 007c 87F84420 		strb	r2, [r7, #68]
 3350 0080 BB8B     		ldrh	r3, [r7, #28]
 3351 0082 87F84560 		strb	r6, [r7, #69]
 3352 0086 B7F84420 		ldrh	r2, [r7, #68]
 3353 008a 87F81990 		strb	r9, [r7, #25]
 3354 008e 3E75     		strb	r6, [r7, #20]
 3355 0090 7E75     		strb	r6, [r7, #21]
 3356 0092 3D76     		strb	r5, [r7, #24]
 3357 0094 ADF80420 		strh	r2, [sp, #4]	@ movhi
 3358 0098 0422     		movs	r2, #4
 3359 009a ADF80030 		strh	r3, [sp]	@ movhi
 3360 009e 7969     		ldr	r1, [r7, #20]
 3361 00a0 BB69     		ldr	r3, [r7, #24]
 3362 00a2 0295     		str	r5, [sp, #8]
 3363 00a4 FFF7FEFF 		bl	_ZN5daisy16AdcChannelConfig7InitMuxE12dsy_gpio_pinjS1_S1_S1_NS0_15ConversionSpeedE
 3364              	.LVL263:
 420:daisy_common.cpp ****     if(in_1_mode == adc_enable)
 3365              		.loc 1 420 5 is_stmt 1 view .LVU1030
 3366 00a8 D4F8B831 		ldr	r3, [r4, #440]
 3367 00ac 052B     		cmp	r3, #5
 3368 00ae 2DD0     		beq	.L268
 421:daisy_common.cpp ****     {
 422:daisy_common.cpp ****         adc_config[in_1_adc_chan].InitSingle(IN_1_ADC_PIN);
 423:daisy_common.cpp ****     }
 424:daisy_common.cpp ****     if(in_2_mode == adc_enable)
ARM GAS  C:\Users\samue\AppData\Local\Temp\cc4nCvGK.s 			page 85


 3369              		.loc 1 424 5 view .LVU1031
 3370 00b0 D4F8BC31 		ldr	r3, [r4, #444]
 3371 00b4 052B     		cmp	r3, #5
 3372 00b6 3BD0     		beq	.L269
 3373              	.L260:
 425:daisy_common.cpp ****     {
 426:daisy_common.cpp ****         adc_config[in_2_adc_chan].InitSingle(IN_2_ADC_PIN);
 427:daisy_common.cpp ****     }
 428:daisy_common.cpp ****     if(in_3_mode == adc_enable)
 3374              		.loc 1 428 5 view .LVU1032
 3375 00b8 D4F8C031 		ldr	r3, [r4, #448]
 3376 00bc 052B     		cmp	r3, #5
 3377 00be 4BD0     		beq	.L270
 3378              	.L261:
 429:daisy_common.cpp ****     {
 430:daisy_common.cpp ****         adc_config[in_3_adc_chan].InitSingle(IN_3_ADC_PIN);
 431:daisy_common.cpp ****     }
 432:daisy_common.cpp ****     if(gate_1_in_4_mode == adc_enable)
 3379              		.loc 1 432 5 view .LVU1033
 3380 00c0 D4F8B031 		ldr	r3, [r4, #432]
 3381 00c4 052B     		cmp	r3, #5
 3382 00c6 5BD0     		beq	.L271
 3383              	.L262:
 433:daisy_common.cpp ****     {
 434:daisy_common.cpp ****         adc_config[in_4_adc_chan].InitSingle(IN_4_ADC_PIN);
 435:daisy_common.cpp ****     }
 436:daisy_common.cpp ****     if(in_5_mode == adc_enable)
 3384              		.loc 1 436 5 view .LVU1034
 3385 00c8 D4F8C431 		ldr	r3, [r4, #452]
 3386 00cc 052B     		cmp	r3, #5
 3387 00ce 6AD0     		beq	.L272
 3388              	.L263:
 437:daisy_common.cpp ****     {
 438:daisy_common.cpp ****         adc_config[in_5_adc_chan].InitSingle(IN_5_ADC_PIN);
 439:daisy_common.cpp ****     }
 440:daisy_common.cpp ****     if(in_6_mode == adc_enable)
 3389              		.loc 1 440 5 view .LVU1035
 3390 00d0 D4F8C831 		ldr	r3, [r4, #456]
 3391 00d4 052B     		cmp	r3, #5
 3392 00d6 7AD0     		beq	.L273
 3393              	.L264:
 441:daisy_common.cpp ****     {
 442:daisy_common.cpp ****         adc_config[in_6_adc_chan].InitSingle(IN_6_ADC_PIN);
 443:daisy_common.cpp ****     }
 444:daisy_common.cpp ****     if(in_7_mode == adc_enable)
 3394              		.loc 1 444 5 view .LVU1036
 3395 00d8 D4F8CC31 		ldr	r3, [r4, #460]
 3396 00dc 052B     		cmp	r3, #5
 3397 00de 00F08A80 		beq	.L274
 3398              	.L265:
 445:daisy_common.cpp ****     {
 446:daisy_common.cpp ****         adc_config[in_7_adc_chan].InitSingle(IN_7_ADC_PIN);
 447:daisy_common.cpp ****     }
 448:daisy_common.cpp ****     if(gate_2_in_8_mode == adc_enable)
 3399              		.loc 1 448 5 view .LVU1037
 3400 00e2 D4F8B431 		ldr	r3, [r4, #436]
 3401 00e6 052B     		cmp	r3, #5
ARM GAS  C:\Users\samue\AppData\Local\Temp\cc4nCvGK.s 			page 86


 3402 00e8 00F09980 		beq	.L275
 3403              	.L266:
 449:daisy_common.cpp ****     {
 450:daisy_common.cpp ****         adc_config[in_8_adc_chan].InitSingle(IN_8_ADC_PIN);
 451:daisy_common.cpp ****     }
 452:daisy_common.cpp ****     seed.adc.Init(adc_config, adc_channel_count);
 3404              		.loc 1 452 5 view .LVU1038
 3405              		.loc 1 452 18 is_stmt 0 view .LVU1039
 3406 00ec 04F59C70 		add	r0, r4, #312
 3407 00f0 0423     		movs	r3, #4
 3408 00f2 D4F8F021 		ldr	r2, [r4, #496]
 3409 00f6 4146     		mov	r1, r8
 3410 00f8 7860     		str	r0, [r7, #4]
 3411 00fa FFF7FEFF 		bl	_ZN5daisy9AdcHandle4InitEPNS_16AdcChannelConfigEjNS0_12OverSamplingE
 3412              	.LVL264:
 453:daisy_common.cpp ****     seed.adc.Start();
 3413              		.loc 1 453 5 is_stmt 1 view .LVU1040
 3414              		.loc 1 453 19 is_stmt 0 view .LVU1041
 3415 00fe 7868     		ldr	r0, [r7, #4]
 3416 0100 FFF7FEFF 		bl	_ZN5daisy9AdcHandle5StartEv
 3417              	.LVL265:
 454:daisy_common.cpp **** }...
 3418              		.loc 1 454 1 view .LVU1042
 3419 0104 4C37     		adds	r7, r7, #76
 3420              		.cfi_remember_state
 3421              		.cfi_def_cfa_offset 36
 3422 0106 BD46     		mov	sp, r7
 3423              		.cfi_def_cfa_register 13
 3424              		@ sp needed
 3425 0108 BDE8F08F 		pop	{r4, r5, r6, r7, r8, r9, r10, fp, pc}
 3426              	.LVL266:
 3427              	.L268:
 3428              		.cfi_restore_state
 422:daisy_common.cpp ****         adc_config[in_1_adc_chan].InitSingle(IN_1_ADC_PIN);
 3429              		.loc 1 422 9 is_stmt 1 view .LVU1043
 422:daisy_common.cpp ****         adc_config[in_1_adc_chan].InitSingle(IN_1_ADC_PIN);
 3430              		.loc 1 422 45 is_stmt 0 view .LVU1044
 3431 010c D4F8D001 		ldr	r0, [r4, #464]
 3432 0110 2A46     		mov	r2, r5
 3433 0112 87F82050 		strb	r5, [r7, #32]
 3434 0116 00EBC000 		add	r0, r0, r0, lsl #3
 3435 011a 87F82160 		strb	r6, [r7, #33]
 3436 011e 396A     		ldr	r1, [r7, #32]
 3437 0120 08EB4000 		add	r0, r8, r0, lsl #1
 3438 0124 FFF7FEFF 		bl	_ZN5daisy16AdcChannelConfig10InitSingleE12dsy_gpio_pinNS0_15ConversionSpeedE
 3439              	.LVL267:
 424:daisy_common.cpp ****     if(in_2_mode == adc_enable)
 3440              		.loc 1 424 5 is_stmt 1 view .LVU1045
 3441 0128 D4F8BC31 		ldr	r3, [r4, #444]
 3442 012c 052B     		cmp	r3, #5
 3443 012e C3D1     		bne	.L260
 3444              	.L269:
 426:daisy_common.cpp ****         adc_config[in_2_adc_chan].InitSingle(IN_2_ADC_PIN);
 3445              		.loc 1 426 9 view .LVU1046
 426:daisy_common.cpp ****         adc_config[in_2_adc_chan].InitSingle(IN_2_ADC_PIN);
 3446              		.loc 1 426 45 is_stmt 0 view .LVU1047
 3447 0130 D4F8D401 		ldr	r0, [r4, #468]
ARM GAS  C:\Users\samue\AppData\Local\Temp\cc4nCvGK.s 			page 87


 3448 0134 0623     		movs	r3, #6
 3449 0136 0021     		movs	r1, #0
 3450 0138 0222     		movs	r2, #2
 3451 013a 00EBC000 		add	r0, r0, r0, lsl #3
 3452 013e 87F82530 		strb	r3, [r7, #37]
 3453 0142 87F82410 		strb	r1, [r7, #36]
 3454 0146 796A     		ldr	r1, [r7, #36]
 3455 0148 08EB4000 		add	r0, r8, r0, lsl #1
 3456 014c FFF7FEFF 		bl	_ZN5daisy16AdcChannelConfig10InitSingleE12dsy_gpio_pinNS0_15ConversionSpeedE
 3457              	.LVL268:
 428:daisy_common.cpp ****     if(in_3_mode == adc_enable)
 3458              		.loc 1 428 5 is_stmt 1 view .LVU1048
 3459 0150 D4F8C031 		ldr	r3, [r4, #448]
 3460 0154 052B     		cmp	r3, #5
 3461 0156 B3D1     		bne	.L261
 3462              	.L270:
 430:daisy_common.cpp ****         adc_config[in_3_adc_chan].InitSingle(IN_3_ADC_PIN);
 3463              		.loc 1 430 9 view .LVU1049
 430:daisy_common.cpp ****         adc_config[in_3_adc_chan].InitSingle(IN_3_ADC_PIN);
 3464              		.loc 1 430 45 is_stmt 0 view .LVU1050
 3465 0158 D4F8D801 		ldr	r0, [r4, #472]
 3466 015c 0123     		movs	r3, #1
 3467 015e 0021     		movs	r1, #0
 3468 0160 0222     		movs	r2, #2
 3469 0162 00EBC000 		add	r0, r0, r0, lsl #3
 3470 0166 87F82930 		strb	r3, [r7, #41]
 3471 016a 87F82810 		strb	r1, [r7, #40]
 3472 016e B96A     		ldr	r1, [r7, #40]
 3473 0170 08EB4000 		add	r0, r8, r0, lsl #1
 3474 0174 FFF7FEFF 		bl	_ZN5daisy16AdcChannelConfig10InitSingleE12dsy_gpio_pinNS0_15ConversionSpeedE
 3475              	.LVL269:
 432:daisy_common.cpp ****     if(gate_1_in_4_mode == adc_enable)
 3476              		.loc 1 432 5 is_stmt 1 view .LVU1051
 3477 0178 D4F8B031 		ldr	r3, [r4, #432]
 3478 017c 052B     		cmp	r3, #5
 3479 017e A3D1     		bne	.L262
 3480              	.L271:
 434:daisy_common.cpp ****         adc_config[in_4_adc_chan].InitSingle(IN_4_ADC_PIN);
 3481              		.loc 1 434 9 view .LVU1052
 434:daisy_common.cpp ****         adc_config[in_4_adc_chan].InitSingle(IN_4_ADC_PIN);
 3482              		.loc 1 434 45 is_stmt 0 view .LVU1053
 3483 0180 D4F8DC01 		ldr	r0, [r4, #476]
 3484 0184 0423     		movs	r3, #4
 3485 0186 0222     		movs	r2, #2
 3486 0188 00EBC000 		add	r0, r0, r0, lsl #3
 3487 018c 87F82D30 		strb	r3, [r7, #45]
 3488 0190 87F82C20 		strb	r2, [r7, #44]
 3489 0194 F96A     		ldr	r1, [r7, #44]
 3490 0196 08EB4000 		add	r0, r8, r0, lsl #1
 3491 019a FFF7FEFF 		bl	_ZN5daisy16AdcChannelConfig10InitSingleE12dsy_gpio_pinNS0_15ConversionSpeedE
 3492              	.LVL270:
 436:daisy_common.cpp ****     if(in_5_mode == adc_enable)
 3493              		.loc 1 436 5 is_stmt 1 view .LVU1054
 3494 019e D4F8C431 		ldr	r3, [r4, #452]
 3495 01a2 052B     		cmp	r3, #5
 3496 01a4 94D1     		bne	.L263
 3497              	.L272:
ARM GAS  C:\Users\samue\AppData\Local\Temp\cc4nCvGK.s 			page 88


 438:daisy_common.cpp ****         adc_config[in_5_adc_chan].InitSingle(IN_5_ADC_PIN);
 3498              		.loc 1 438 9 view .LVU1055
 438:daisy_common.cpp ****         adc_config[in_5_adc_chan].InitSingle(IN_5_ADC_PIN);
 3499              		.loc 1 438 45 is_stmt 0 view .LVU1056
 3500 01a6 D4F8E001 		ldr	r0, [r4, #480]
 3501 01aa 0323     		movs	r3, #3
 3502 01ac 0021     		movs	r1, #0
 3503 01ae 0222     		movs	r2, #2
 3504 01b0 00EBC000 		add	r0, r0, r0, lsl #3
 3505 01b4 87F83130 		strb	r3, [r7, #49]
 3506 01b8 87F83010 		strb	r1, [r7, #48]
 3507 01bc 396B     		ldr	r1, [r7, #48]
 3508 01be 08EB4000 		add	r0, r8, r0, lsl #1
 3509 01c2 FFF7FEFF 		bl	_ZN5daisy16AdcChannelConfig10InitSingleE12dsy_gpio_pinNS0_15ConversionSpeedE
 3510              	.LVL271:
 440:daisy_common.cpp ****     if(in_6_mode == adc_enable)
 3511              		.loc 1 440 5 is_stmt 1 view .LVU1057
 3512 01c6 D4F8C831 		ldr	r3, [r4, #456]
 3513 01ca 052B     		cmp	r3, #5
 3514 01cc 84D1     		bne	.L264
 3515              	.L273:
 442:daisy_common.cpp ****         adc_config[in_6_adc_chan].InitSingle(IN_6_ADC_PIN);
 3516              		.loc 1 442 9 view .LVU1058
 442:daisy_common.cpp ****         adc_config[in_6_adc_chan].InitSingle(IN_6_ADC_PIN);
 3517              		.loc 1 442 45 is_stmt 0 view .LVU1059
 3518 01ce D4F8E401 		ldr	r0, [r4, #484]
 3519 01d2 0123     		movs	r3, #1
 3520 01d4 0222     		movs	r2, #2
 3521 01d6 00EBC000 		add	r0, r0, r0, lsl #3
 3522 01da 87F83530 		strb	r3, [r7, #53]
 3523 01de 87F83420 		strb	r2, [r7, #52]
 3524 01e2 796B     		ldr	r1, [r7, #52]
 3525 01e4 08EB4000 		add	r0, r8, r0, lsl #1
 3526 01e8 FFF7FEFF 		bl	_ZN5daisy16AdcChannelConfig10InitSingleE12dsy_gpio_pinNS0_15ConversionSpeedE
 3527              	.LVL272:
 444:daisy_common.cpp ****     if(in_7_mode == adc_enable)
 3528              		.loc 1 444 5 is_stmt 1 view .LVU1060
 3529 01ec D4F8CC31 		ldr	r3, [r4, #460]
 3530 01f0 052B     		cmp	r3, #5
 3531 01f2 7FF476AF 		bne	.L265
 3532              	.L274:
 446:daisy_common.cpp ****         adc_config[in_7_adc_chan].InitSingle(IN_7_ADC_PIN);
 3533              		.loc 1 446 9 view .LVU1061
 446:daisy_common.cpp ****         adc_config[in_7_adc_chan].InitSingle(IN_7_ADC_PIN);
 3534              		.loc 1 446 45 is_stmt 0 view .LVU1062
 3535 01f6 D4F8E801 		ldr	r0, [r4, #488]
 3536 01fa 0123     		movs	r3, #1
 3537 01fc 0222     		movs	r2, #2
 3538 01fe 00EBC000 		add	r0, r0, r0, lsl #3
 3539 0202 87F83830 		strb	r3, [r7, #56]
 3540 0206 87F83930 		strb	r3, [r7, #57]
 3541 020a B96B     		ldr	r1, [r7, #56]
 3542 020c 08EB4000 		add	r0, r8, r0, lsl #1
 3543 0210 FFF7FEFF 		bl	_ZN5daisy16AdcChannelConfig10InitSingleE12dsy_gpio_pinNS0_15ConversionSpeedE
 3544              	.LVL273:
 448:daisy_common.cpp ****     if(gate_2_in_8_mode == adc_enable)
 3545              		.loc 1 448 5 is_stmt 1 view .LVU1063
ARM GAS  C:\Users\samue\AppData\Local\Temp\cc4nCvGK.s 			page 89


 3546 0214 D4F8B431 		ldr	r3, [r4, #436]
 3547 0218 052B     		cmp	r3, #5
 3548 021a 7FF467AF 		bne	.L266
 3549              	.L275:
 450:daisy_common.cpp ****         adc_config[in_8_adc_chan].InitSingle(IN_8_ADC_PIN);
 3550              		.loc 1 450 9 view .LVU1064
 450:daisy_common.cpp ****         adc_config[in_8_adc_chan].InitSingle(IN_8_ADC_PIN);
 3551              		.loc 1 450 45 is_stmt 0 view .LVU1065
 3552 021e D4F8EC01 		ldr	r0, [r4, #492]
 3553 0222 0021     		movs	r1, #0
 3554 0224 0723     		movs	r3, #7
 3555 0226 0222     		movs	r2, #2
 3556 0228 00EBC000 		add	r0, r0, r0, lsl #3
 3557 022c 87F83C10 		strb	r1, [r7, #60]
 3558 0230 87F83D30 		strb	r3, [r7, #61]
 3559 0234 F96B     		ldr	r1, [r7, #60]
 3560 0236 08EB4000 		add	r0, r8, r0, lsl #1
 3561 023a FFF7FEFF 		bl	_ZN5daisy16AdcChannelConfig10InitSingleE12dsy_gpio_pinNS0_15ConversionSpeedE
 3562              	.LVL274:
 3563 023e 55E7     		b	.L266
 3564              		.cfi_endproc
 3565              	.LFE4708:
 3567              		.section	.text._ZN5daisy11daisyCommon4InitEb,"ax",%progbits
 3568              		.align	1
 3569              		.p2align 2,,3
 3570              		.global	_ZN5daisy11daisyCommon4InitEb
 3571              		.syntax unified
 3572              		.thumb
 3573              		.thumb_func
 3574              		.fpu fpv5-d16
 3576              	_ZN5daisy11daisyCommon4InitEb:
 3577              	.LVL275:
 3578              	.LFB4700:
 276:daisy_common.cpp **** {
 3579              		.loc 1 276 1 is_stmt 1 view -0
 3580              		.cfi_startproc
 3581              		@ args = 0, pretend = 0, frame = 24
 3582              		@ frame_needed = 0, uses_anonymous_args = 0
 278:daisy_common.cpp ****     seed.Init(boost);
 3583              		.loc 1 278 5 view .LVU1067
 276:daisy_common.cpp **** {
 3584              		.loc 1 276 1 is_stmt 0 view .LVU1068
 3585 0000 F0B5     		push	{r4, r5, r6, r7, lr}
 3586              		.cfi_def_cfa_offset 20
 3587              		.cfi_offset 4, -20
 3588              		.cfi_offset 5, -16
 3589              		.cfi_offset 6, -12
 3590              		.cfi_offset 7, -8
 3591              		.cfi_offset 14, -4
 278:daisy_common.cpp ****     seed.Init(boost);
 3592              		.loc 1 278 14 view .LVU1069
 3593 0002 00F59076 		add	r6, r0, #288
 276:daisy_common.cpp **** {
 3594              		.loc 1 276 1 view .LVU1070
 3595 0006 0446     		mov	r4, r0
 3596 0008 87B0     		sub	sp, sp, #28
 3597              		.cfi_def_cfa_offset 48
ARM GAS  C:\Users\samue\AppData\Local\Temp\cc4nCvGK.s 			page 90


 3598              	.LBB300:
 3599              	.LBB301:
 333:daisy_common.cpp ****     dac_cfg.buff_state = DacHandle::BufferState::ENABLED;
 3600              		.loc 1 333 24 view .LVU1071
 3601 000a 0025     		movs	r5, #0
 3602              	.LBE301:
 3603              	.LBE300:
 278:daisy_common.cpp ****     seed.Init(boost);
 3604              		.loc 1 278 14 view .LVU1072
 3605 000c 3046     		mov	r0, r6
 3606              	.LVL276:
 3607              	.LBB304:
 3608              	.LBB302:
 332:daisy_common.cpp **** 	dac_cfg.bitdepth = DacHandle::BitDepth::BITS_12;
 3609              		.loc 1 332 19 view .LVU1073
 3610 000e 0127     		movs	r7, #1
 3611              	.LBE302:
 3612              	.LBE304:
 278:daisy_common.cpp ****     seed.Init(boost);
 3613              		.loc 1 278 14 view .LVU1074
 3614 0010 FFF7FEFF 		bl	_ZN5daisy9DaisySeed4InitEb
 3615              	.LVL277:
 280:daisy_common.cpp ****     InitGPIO();
 3616              		.loc 1 280 5 is_stmt 1 view .LVU1075
 280:daisy_common.cpp ****     InitGPIO();
 3617              		.loc 1 280 13 is_stmt 0 view .LVU1076
 3618 0014 2046     		mov	r0, r4
 3619 0016 FFF7FEFF 		bl	_ZN5daisy11daisyCommon8InitGPIOEv
 3620              	.LVL278:
 281:daisy_common.cpp ****     InitDAC();
 3621              		.loc 1 281 5 is_stmt 1 view .LVU1077
 3622              	.LBB305:
 3623              	.LBI300:
 329:daisy_common.cpp **** void daisyCommon::InitDAC()
 3624              		.loc 1 329 6 view .LVU1078
 3625              	.LBB303:
 331:daisy_common.cpp ****     DacHandle::Config dac_cfg;
 3626              		.loc 1 331 5 view .LVU1079
 332:daisy_common.cpp **** 	dac_cfg.bitdepth = DacHandle::BitDepth::BITS_12;
 3627              		.loc 1 332 2 view .LVU1080
 335:daisy_common.cpp ****     dac_cfg.chn        = DacHandle::Channel::BOTH;
 3628              		.loc 1 335 24 is_stmt 0 view .LVU1081
 3629 001a 0223     		movs	r3, #2
 336:daisy_common.cpp ****     seed.dac.Init(dac_cfg);
 3630              		.loc 1 336 18 view .LVU1082
 3631 001c 01A9     		add	r1, sp, #4
 3632 001e 04F5A070 		add	r0, r4, #320
 335:daisy_common.cpp ****     dac_cfg.chn        = DacHandle::Channel::BOTH;
 3633              		.loc 1 335 24 view .LVU1083
 3634 0022 CDE90235 		strd	r3, r5, [sp, #8]
 333:daisy_common.cpp ****     dac_cfg.buff_state = DacHandle::BufferState::ENABLED;
 3635              		.loc 1 333 24 view .LVU1084
 3636 0026 CDE90475 		strd	r7, r5, [sp, #16]
 334:daisy_common.cpp ****     dac_cfg.mode       = DacHandle::Mode::POLLING;
 3637              		.loc 1 334 5 is_stmt 1 view .LVU1085
 336:daisy_common.cpp ****     seed.dac.Init(dac_cfg);
 3638              		.loc 1 336 5 view .LVU1086
ARM GAS  C:\Users\samue\AppData\Local\Temp\cc4nCvGK.s 			page 91


 336:daisy_common.cpp ****     seed.dac.Init(dac_cfg);
 3639              		.loc 1 336 18 is_stmt 0 view .LVU1087
 3640 002a FFF7FEFF 		bl	_ZN5daisy9DacHandle4InitERKNS0_6ConfigE
 3641              	.LVL279:
 336:daisy_common.cpp ****     seed.dac.Init(dac_cfg);
 3642              		.loc 1 336 18 view .LVU1088
 3643              	.LBE303:
 3644              	.LBE305:
 282:daisy_common.cpp ****     InitMux();
 3645              		.loc 1 282 5 is_stmt 1 view .LVU1089
 282:daisy_common.cpp ****     InitMux();
 3646              		.loc 1 282 12 is_stmt 0 view .LVU1090
 3647 002e 2046     		mov	r0, r4
 3648 0030 FFF7FEFF 		bl	_ZN5daisy11daisyCommon7InitMuxEv
 3649              	.LVL280:
 283:daisy_common.cpp ****     InitToggle();
 3650              		.loc 1 283 5 is_stmt 1 view .LVU1091
 283:daisy_common.cpp ****     InitToggle();
 3651              		.loc 1 283 15 is_stmt 0 view .LVU1092
 3652 0034 2046     		mov	r0, r4
 3653 0036 FFF7FEFF 		bl	_ZN5daisy11daisyCommon10InitToggleEv
 3654              	.LVL281:
 284:daisy_common.cpp ****     InitButton();
 3655              		.loc 1 284 5 is_stmt 1 view .LVU1093
 3656              	.LBB306:
 3657              	.LBI306:
 410:daisy_common.cpp **** void daisyCommon::InitButton()
 3658              		.loc 1 410 6 view .LVU1094
 3659              	.LBB307:
 412:daisy_common.cpp ****     button.Init(D10);
 3660              		.loc 1 412 5 view .LVU1095
 412:daisy_common.cpp ****     button.Init(D10);
 3661              		.loc 1 412 16 is_stmt 0 view .LVU1096
 3662 003a 0523     		movs	r3, #5
 3663 003c 8DF80470 		strb	r7, [sp, #4]
 3664 0040 04F58270 		add	r0, r4, #260
 3665 0044 8DF80530 		strb	r3, [sp, #5]
 3666 0048 0199     		ldr	r1, [sp, #4]
 3667 004a 9FED070A 		vldr.32	s0, .L278
 3668 004e FFF7FEFF 		bl	_ZN5daisy6Switch4InitE12dsy_gpio_pinf
 3669              	.LVL282:
 412:daisy_common.cpp ****     button.Init(D10);
 3670              		.loc 1 412 16 view .LVU1097
 3671              	.LBE307:
 3672              	.LBE306:
 285:daisy_common.cpp ****     InitADC();
 3673              		.loc 1 285 5 is_stmt 1 view .LVU1098
 285:daisy_common.cpp ****     InitADC();
 3674              		.loc 1 285 12 is_stmt 0 view .LVU1099
 3675 0052 2046     		mov	r0, r4
 3676 0054 FFF7FEFF 		bl	_ZN5daisy11daisyCommon7InitADCEv
 3677              	.LVL283:
 286:daisy_common.cpp ****     seed.SetLed(false);
 3678              		.loc 1 286 5 is_stmt 1 view .LVU1100
 286:daisy_common.cpp ****     seed.SetLed(false);
 3679              		.loc 1 286 16 is_stmt 0 view .LVU1101
 3680 0058 2946     		mov	r1, r5
ARM GAS  C:\Users\samue\AppData\Local\Temp\cc4nCvGK.s 			page 92


 3681 005a 3046     		mov	r0, r6
 287:daisy_common.cpp **** }
 3682              		.loc 1 287 1 view .LVU1102
 3683 005c 07B0     		add	sp, sp, #28
 3684              		.cfi_def_cfa_offset 20
 3685              		@ sp needed
 3686 005e BDE8F040 		pop	{r4, r5, r6, r7, lr}
 3687              		.cfi_restore 14
 3688              		.cfi_restore 7
 3689              		.cfi_restore 6
 3690              		.cfi_restore 5
 3691              		.cfi_restore 4
 3692              		.cfi_def_cfa_offset 0
 3693              	.LVL284:
 286:daisy_common.cpp ****     seed.SetLed(false);
 3694              		.loc 1 286 16 view .LVU1103
 3695 0062 FFF7FEBF 		b	_ZN5daisy9DaisySeed6SetLedEb
 3696              	.LVL285:
 3697              	.L279:
 286:daisy_common.cpp ****     seed.SetLed(false);
 3698              		.loc 1 286 16 view .LVU1104
 3699 0066 00BF     		.align	2
 3700              	.L278:
 3701 0068 00000000 		.word	0
 3702              		.cfi_endproc
 3703              	.LFE4700:
 3705              		.section	.rodata._ZL12LED_LEFT_PIN,"a"
 3706              		.align	2
 3707              		.set	.LANCHOR8,. + 0
 3710              	_ZL12LED_LEFT_PIN:
 3711 0000 01       		.byte	1
 3712 0001 08       		.byte	8
 3713              		.section	.rodata._ZL13LED_RIGHT_PIN,"a"
 3714              		.align	2
 3715              		.set	.LANCHOR9,. + 0
 3718              	_ZL13LED_RIGHT_PIN:
 3719 0000 01       		.byte	1
 3720 0001 09       		.byte	9
 3721              		.section	.rodata._ZN5daisy4seedL2D2E,"a"
 3722              		.align	2
