ARM GAS  C:\Users\samue\AppData\Local\Temp\ccSMt6Jg.s 			page 1


   1              		.cpu cortex-m7
   2              		.eabi_attribute 28, 1
   3              		.eabi_attribute 20, 1
   4              		.eabi_attribute 21, 1
   5              		.eabi_attribute 23, 3
   6              		.eabi_attribute 24, 1
   7              		.eabi_attribute 25, 1
   8              		.eabi_attribute 26, 1
   9              		.eabi_attribute 30, 2
  10              		.eabi_attribute 34, 1
  11              		.eabi_attribute 18, 4
  12              		.file	"voice.cpp"
  13              		.text
  14              	.Ltext0:
  15              		.cfi_sections	.debug_frame
  16              		.section	.rodata._ZN7daisysp9FIRMemoryILj0ELj0EE5ResetEv.part.0.str1.4,"aMS",%progbits,1
  17              		.align	2
  18              	.LC0:
  19 0000 3020213D 		.ascii	"0 != state_size_\000"
  19      20737461 
  19      74655F73 
  19      697A655F 
  19      00
  20 0011 000000   		.align	2
  21              	.LC1:
  22 0014 766F6964 		.ascii	"void daisysp::FIRMemory<0, 0>::Reset()\000"
  22      20646169 
  22      73797370 
  22      3A3A4649 
  22      524D656D 
  23 003b 00       		.align	2
  24              	.LC2:
  25 003c 2E2E2F2E 		.ascii	"../../../../DaisyExamples/DaisySP//Source/Filters/f"
  25      2E2F2E2E 
  25      2F2E2E2F 
  25      44616973 
  25      79457861 
  26 006f 69722E68 		.ascii	"ir.h\000"
  26      00
  27              		.section	.text._ZN7daisysp9FIRMemoryILj0ELj0EE5ResetEv.part.0,"ax",%progbits
  28              		.align	1
  29              		.p2align 2,,3
  30              		.arch armv7e-m
  31              		.syntax unified
  32              		.thumb
  33              		.thumb_func
  34              		.fpu fpv5-d16
  36              	_ZN7daisysp9FIRMemoryILj0ELj0EE5ResetEv.part.0:
  37              	.LFB4249:
  38              		.file 1 "../../../../DaisyExamples/DaisySP//Source/Filters/fir.h"
   1:../../../../DaisyExamples/DaisySP//Source/Filters/fir.h **** /*
   2:../../../../DaisyExamples/DaisySP//Source/Filters/fir.h **** Copyright (c) 2020 Electrosmith, Corp, Alexander Petrov-Savchenko
   3:../../../../DaisyExamples/DaisySP//Source/Filters/fir.h **** 
   4:../../../../DaisyExamples/DaisySP//Source/Filters/fir.h **** Use of this source code is governed by an MIT-style
   5:../../../../DaisyExamples/DaisySP//Source/Filters/fir.h **** license that can be found in the LICENSE file or at
   6:../../../../DaisyExamples/DaisySP//Source/Filters/fir.h **** https://opensource.org/licenses/MIT.
   7:../../../../DaisyExamples/DaisySP//Source/Filters/fir.h **** */
ARM GAS  C:\Users\samue\AppData\Local\Temp\ccSMt6Jg.s 			page 2


   8:../../../../DaisyExamples/DaisySP//Source/Filters/fir.h **** 
   9:../../../../DaisyExamples/DaisySP//Source/Filters/fir.h **** #pragma once
  10:../../../../DaisyExamples/DaisySP//Source/Filters/fir.h **** #ifndef DSY_FIRFILTER_H
  11:../../../../DaisyExamples/DaisySP//Source/Filters/fir.h **** #define DSY_FIRFILTER_H
  12:../../../../DaisyExamples/DaisySP//Source/Filters/fir.h **** 
  13:../../../../DaisyExamples/DaisySP//Source/Filters/fir.h **** #include <cstdint>
  14:../../../../DaisyExamples/DaisySP//Source/Filters/fir.h **** #include <cstring> // for memset
  15:../../../../DaisyExamples/DaisySP//Source/Filters/fir.h **** #include <cassert>
  16:../../../../DaisyExamples/DaisySP//Source/Filters/fir.h **** #include <utility>
  17:../../../../DaisyExamples/DaisySP//Source/Filters/fir.h **** 
  18:../../../../DaisyExamples/DaisySP//Source/Filters/fir.h **** #ifdef USE_ARM_DSP
  19:../../../../DaisyExamples/DaisySP//Source/Filters/fir.h **** #include <arm_math.h> // required for platform-optimized version
  20:../../../../DaisyExamples/DaisySP//Source/Filters/fir.h **** #endif
  21:../../../../DaisyExamples/DaisySP//Source/Filters/fir.h **** 
  22:../../../../DaisyExamples/DaisySP//Source/Filters/fir.h **** /**   @brief FIR Filter implementation, generic and ARM CMSIS DSP based
  23:../../../../DaisyExamples/DaisySP//Source/Filters/fir.h ****  *    @author Alexander Petrov-Savchenko (axp@soft-amp.com)
  24:../../../../DaisyExamples/DaisySP//Source/Filters/fir.h ****  *    @date February 2021
  25:../../../../DaisyExamples/DaisySP//Source/Filters/fir.h ****  */
  26:../../../../DaisyExamples/DaisySP//Source/Filters/fir.h **** 
  27:../../../../DaisyExamples/DaisySP//Source/Filters/fir.h **** namespace daisysp
  28:../../../../DaisyExamples/DaisySP//Source/Filters/fir.h **** {
  29:../../../../DaisyExamples/DaisySP//Source/Filters/fir.h **** /* use this as a template parameter to indicate user-provided memory storage */
  30:../../../../DaisyExamples/DaisySP//Source/Filters/fir.h **** #define FIRFILTER_USER_MEMORY 0, 0
  31:../../../../DaisyExamples/DaisySP//Source/Filters/fir.h **** 
  32:../../../../DaisyExamples/DaisySP//Source/Filters/fir.h **** /** Helper class that defines the memory model - internal or user-provided 
  33:../../../../DaisyExamples/DaisySP//Source/Filters/fir.h ****  * \param max_size - maximal filter length
  34:../../../../DaisyExamples/DaisySP//Source/Filters/fir.h ****  * \param max_block - maximal length of the block processing
  35:../../../../DaisyExamples/DaisySP//Source/Filters/fir.h ****  * if both parameters are 0, does NOT allocate any memory and instead
  36:../../../../DaisyExamples/DaisySP//Source/Filters/fir.h ****  * requires user-provided memory blocks to be passed as parameters.
  37:../../../../DaisyExamples/DaisySP//Source/Filters/fir.h ****  *
  38:../../../../DaisyExamples/DaisySP//Source/Filters/fir.h ****  * Not intended to be used directly, so constructor is not exposed
  39:../../../../DaisyExamples/DaisySP//Source/Filters/fir.h ****  */
  40:../../../../DaisyExamples/DaisySP//Source/Filters/fir.h **** template <size_t max_size, size_t max_block>
  41:../../../../DaisyExamples/DaisySP//Source/Filters/fir.h **** struct FIRMemory
  42:../../../../DaisyExamples/DaisySP//Source/Filters/fir.h **** {
  43:../../../../DaisyExamples/DaisySP//Source/Filters/fir.h ****     /* Public part of the API to be passed through to the FIR users */
  44:../../../../DaisyExamples/DaisySP//Source/Filters/fir.h ****   public:
  45:../../../../DaisyExamples/DaisySP//Source/Filters/fir.h ****     /* Reset the internal filter state (but not the coefficients) */
  46:../../../../DaisyExamples/DaisySP//Source/Filters/fir.h ****     void Reset() { memset(state_, 0, state_size_ * sizeof(state_[0])); }
  47:../../../../DaisyExamples/DaisySP//Source/Filters/fir.h **** 
  48:../../../../DaisyExamples/DaisySP//Source/Filters/fir.h **** 
  49:../../../../DaisyExamples/DaisySP//Source/Filters/fir.h ****   protected:
  50:../../../../DaisyExamples/DaisySP//Source/Filters/fir.h ****     FIRMemory() : state_{0}, coefs_{0}, size_(0) {}
  51:../../../../DaisyExamples/DaisySP//Source/Filters/fir.h **** 
  52:../../../../DaisyExamples/DaisySP//Source/Filters/fir.h ****     /* Expression for the maximum block size */
  53:../../../../DaisyExamples/DaisySP//Source/Filters/fir.h ****     static constexpr size_t MaxBlock() { return max_block; }
  54:../../../../DaisyExamples/DaisySP//Source/Filters/fir.h **** 
  55:../../../../DaisyExamples/DaisySP//Source/Filters/fir.h ****     /** Configure the filter coefficients
  56:../../../../DaisyExamples/DaisySP//Source/Filters/fir.h ****      * \param coefs - pointer to coefficients (tail-first order)
  57:../../../../DaisyExamples/DaisySP//Source/Filters/fir.h ****      * \param size - number of coefficients pointed by coefs (filter length)
  58:../../../../DaisyExamples/DaisySP//Source/Filters/fir.h ****      * \param reverse - flag to perform reversing of the filter
  59:../../../../DaisyExamples/DaisySP//Source/Filters/fir.h ****      * \return true if all conditions are met and the filter is configured
  60:../../../../DaisyExamples/DaisySP//Source/Filters/fir.h ****      */
  61:../../../../DaisyExamples/DaisySP//Source/Filters/fir.h ****     bool SetCoefs(const float coefs[], size_t size, bool reverse)
  62:../../../../DaisyExamples/DaisySP//Source/Filters/fir.h ****     {
  63:../../../../DaisyExamples/DaisySP//Source/Filters/fir.h ****         /* truncate silently */
  64:../../../../DaisyExamples/DaisySP//Source/Filters/fir.h ****         size_ = DSY_MIN(size, max_size);
ARM GAS  C:\Users\samue\AppData\Local\Temp\ccSMt6Jg.s 			page 3


  65:../../../../DaisyExamples/DaisySP//Source/Filters/fir.h **** 
  66:../../../../DaisyExamples/DaisySP//Source/Filters/fir.h ****         if(reverse)
  67:../../../../DaisyExamples/DaisySP//Source/Filters/fir.h ****         {
  68:../../../../DaisyExamples/DaisySP//Source/Filters/fir.h ****             /* reverse the IR */
  69:../../../../DaisyExamples/DaisySP//Source/Filters/fir.h ****             for(size_t i = 0; i < size_; i++)
  70:../../../../DaisyExamples/DaisySP//Source/Filters/fir.h ****             {
  71:../../../../DaisyExamples/DaisySP//Source/Filters/fir.h ****                 /* start from size, not size_! */
  72:../../../../DaisyExamples/DaisySP//Source/Filters/fir.h ****                 coefs_[i] = coefs[size - 1u - i];
  73:../../../../DaisyExamples/DaisySP//Source/Filters/fir.h ****             }
  74:../../../../DaisyExamples/DaisySP//Source/Filters/fir.h ****         }
  75:../../../../DaisyExamples/DaisySP//Source/Filters/fir.h ****         else
  76:../../../../DaisyExamples/DaisySP//Source/Filters/fir.h ****         {
  77:../../../../DaisyExamples/DaisySP//Source/Filters/fir.h ****             /* just copy as is */
  78:../../../../DaisyExamples/DaisySP//Source/Filters/fir.h ****             memcpy(coefs_, coefs, size_ * sizeof(coefs[0]));
  79:../../../../DaisyExamples/DaisySP//Source/Filters/fir.h ****         }
  80:../../../../DaisyExamples/DaisySP//Source/Filters/fir.h **** 
  81:../../../../DaisyExamples/DaisySP//Source/Filters/fir.h ****         return true;
  82:../../../../DaisyExamples/DaisySP//Source/Filters/fir.h ****     }
  83:../../../../DaisyExamples/DaisySP//Source/Filters/fir.h **** 
  84:../../../../DaisyExamples/DaisySP//Source/Filters/fir.h ****     static constexpr size_t state_size_ = max_size + max_block - 1u;
  85:../../../../DaisyExamples/DaisySP//Source/Filters/fir.h ****     float                   state_[state_size_]; /*< Internal state buffer */
  86:../../../../DaisyExamples/DaisySP//Source/Filters/fir.h ****     float                   coefs_[max_size];    /*< Filter coefficients */
  87:../../../../DaisyExamples/DaisySP//Source/Filters/fir.h ****     size_t                  size_; /*< Active filter length (<= max_size) */
  88:../../../../DaisyExamples/DaisySP//Source/Filters/fir.h **** };
  89:../../../../DaisyExamples/DaisySP//Source/Filters/fir.h **** 
  90:../../../../DaisyExamples/DaisySP//Source/Filters/fir.h **** /* Specialization for user-provided memory */
  91:../../../../DaisyExamples/DaisySP//Source/Filters/fir.h **** template <>
  92:../../../../DaisyExamples/DaisySP//Source/Filters/fir.h **** struct FIRMemory<FIRFILTER_USER_MEMORY>
  93:../../../../DaisyExamples/DaisySP//Source/Filters/fir.h **** {
  94:../../../../DaisyExamples/DaisySP//Source/Filters/fir.h ****     /* Public part of the API to be passed through to the FIRFilter user */
  95:../../../../DaisyExamples/DaisySP//Source/Filters/fir.h ****   public:
  96:../../../../DaisyExamples/DaisySP//Source/Filters/fir.h ****     /** Set user-provided state buffer
  97:../../../../DaisyExamples/DaisySP//Source/Filters/fir.h ****      * \param state - pointer to the allocated memory block
  98:../../../../DaisyExamples/DaisySP//Source/Filters/fir.h ****      * \param length - length of the provided memory block (in elements)
  99:../../../../DaisyExamples/DaisySP//Source/Filters/fir.h ****      * The length should be determined as follows 
 100:../../../../DaisyExamples/DaisySP//Source/Filters/fir.h ****      * length >= max_filter_size + max_processing_block - 1
 101:../../../../DaisyExamples/DaisySP//Source/Filters/fir.h ****      */
 102:../../../../DaisyExamples/DaisySP//Source/Filters/fir.h ****     void SetStateBuffer(float state[], size_t length)
 103:../../../../DaisyExamples/DaisySP//Source/Filters/fir.h ****     {
 104:../../../../DaisyExamples/DaisySP//Source/Filters/fir.h ****         state_      = state;
 105:../../../../DaisyExamples/DaisySP//Source/Filters/fir.h ****         state_size_ = length;
 106:../../../../DaisyExamples/DaisySP//Source/Filters/fir.h ****     }
 107:../../../../DaisyExamples/DaisySP//Source/Filters/fir.h ****     /* Reset the internal filter state (but not the coefficients) */
 108:../../../../DaisyExamples/DaisySP//Source/Filters/fir.h ****     void Reset()
  39              		.loc 1 108 10 view -0
  40              		.cfi_startproc
  41              		@ Volatile: function does not return.
  42              		@ args = 0, pretend = 0, frame = 0
  43              		@ frame_needed = 0, uses_anonymous_args = 0
  44              	.LVL0:
  45              		.loc 1 108 10 is_stmt 0 view .LVU1
  46 0000 08B5     		push	{r3, lr}
  47              		.cfi_def_cfa_offset 8
  48              		.cfi_offset 3, -8
  49              		.cfi_offset 14, -4
 109:../../../../DaisyExamples/DaisySP//Source/Filters/fir.h ****     {
 110:../../../../DaisyExamples/DaisySP//Source/Filters/fir.h ****         assert(nullptr != state_);
ARM GAS  C:\Users\samue\AppData\Local\Temp\ccSMt6Jg.s 			page 4


 111:../../../../DaisyExamples/DaisySP//Source/Filters/fir.h ****         assert(0 != state_size_);
  50              		.loc 1 111 9 view .LVU2
  51 0002 034A     		ldr	r2, .L4
  52 0004 6F21     		movs	r1, #111
  53 0006 034B     		ldr	r3, .L4+4
  54 0008 0348     		ldr	r0, .L4+8
  55 000a FFF7FEFF 		bl	__assert_func
  56              	.LVL1:
  57              	.L5:
  58 000e 00BF     		.align	2
  59              	.L4:
  60 0010 14000000 		.word	.LC1
  61 0014 00000000 		.word	.LC0
  62 0018 3C000000 		.word	.LC2
  63              		.cfi_endproc
  64              	.LFE4249:
  66              		.section	.rodata._ZN7daisysp9FIRMemoryILj0ELj0EE8SetCoefsEPKfjb.part.0.str1.4,"aMS",%progbits,1
  67              		.align	2
  68              	.LC3:
  69 0000 6E756C6C 		.ascii	"nullptr != coefs || 0 == size\000"
  69      70747220 
  69      213D2063 
  69      6F656673 
  69      207C7C20 
  70 001e 0000     		.align	2
  71              	.LC4:
  72 0020 626F6F6C 		.ascii	"bool daisysp::FIRMemory<0, 0>::SetCoefs(const float"
  72      20646169 
  72      73797370 
  72      3A3A4649 
  72      524D656D 
  73 0053 2A2C2073 		.ascii	"*, size_t, bool)\000"
  73      697A655F 
  73      742C2062 
  73      6F6F6C29 
  73      00
  74              		.section	.text._ZN7daisysp9FIRMemoryILj0ELj0EE8SetCoefsEPKfjb.part.0,"ax",%progbits
  75              		.align	1
  76              		.p2align 2,,3
  77              		.syntax unified
  78              		.thumb
  79              		.thumb_func
  80              		.fpu fpv5-d16
  82              	_ZN7daisysp9FIRMemoryILj0ELj0EE8SetCoefsEPKfjb.part.0:
  83              	.LFB4250:
 112:../../../../DaisyExamples/DaisySP//Source/Filters/fir.h ****         if(nullptr != state_)
 113:../../../../DaisyExamples/DaisySP//Source/Filters/fir.h ****         {
 114:../../../../DaisyExamples/DaisySP//Source/Filters/fir.h ****             memset(state_, 0, state_size_ * sizeof(state_[0]));
 115:../../../../DaisyExamples/DaisySP//Source/Filters/fir.h ****         }
 116:../../../../DaisyExamples/DaisySP//Source/Filters/fir.h ****     }
 117:../../../../DaisyExamples/DaisySP//Source/Filters/fir.h **** 
 118:../../../../DaisyExamples/DaisySP//Source/Filters/fir.h ****   protected:
 119:../../../../DaisyExamples/DaisySP//Source/Filters/fir.h ****     FIRMemory() : state_(nullptr), coefs_(nullptr), size_(0), state_size_(0) {}
 120:../../../../DaisyExamples/DaisySP//Source/Filters/fir.h **** 
 121:../../../../DaisyExamples/DaisySP//Source/Filters/fir.h ****     /* Expression for the maximum processing block size currently supported */
 122:../../../../DaisyExamples/DaisySP//Source/Filters/fir.h ****     size_t MaxBlock() const
 123:../../../../DaisyExamples/DaisySP//Source/Filters/fir.h ****     {
ARM GAS  C:\Users\samue\AppData\Local\Temp\ccSMt6Jg.s 			page 5


 124:../../../../DaisyExamples/DaisySP//Source/Filters/fir.h ****         return state_size_ + 1u > size_ ? state_size_ + 1u - size_ : 0;
 125:../../../../DaisyExamples/DaisySP//Source/Filters/fir.h ****     }
 126:../../../../DaisyExamples/DaisySP//Source/Filters/fir.h **** 
 127:../../../../DaisyExamples/DaisySP//Source/Filters/fir.h ****     /** Configure the filter coefficients
 128:../../../../DaisyExamples/DaisySP//Source/Filters/fir.h ****      * \param coefs - pointer to coefficients (tail-first order)
 129:../../../../DaisyExamples/DaisySP//Source/Filters/fir.h ****      * \param size - number of coefficients pointed by coefs (filter length)
 130:../../../../DaisyExamples/DaisySP//Source/Filters/fir.h ****      * \param reverse - flag to perform reversing of the filter
 131:../../../../DaisyExamples/DaisySP//Source/Filters/fir.h ****      * \return true if all conditions are met and the filter is configured
 132:../../../../DaisyExamples/DaisySP//Source/Filters/fir.h ****      */
 133:../../../../DaisyExamples/DaisySP//Source/Filters/fir.h ****     bool SetCoefs(const float coefs[], size_t size, bool reverse)
  84              		.loc 1 133 10 is_stmt 1 view -0
  85              		.cfi_startproc
  86              		@ Volatile: function does not return.
  87              		@ args = 0, pretend = 0, frame = 0
  88              		@ frame_needed = 0, uses_anonymous_args = 0
  89              	.LVL2:
  90              		.loc 1 133 10 is_stmt 0 view .LVU4
  91 0000 08B5     		push	{r3, lr}
  92              		.cfi_def_cfa_offset 8
  93              		.cfi_offset 3, -8
  94              		.cfi_offset 14, -4
 134:../../../../DaisyExamples/DaisySP//Source/Filters/fir.h ****     {
 135:../../../../DaisyExamples/DaisySP//Source/Filters/fir.h ****         /* reversing of external IR is not supported*/
 136:../../../../DaisyExamples/DaisySP//Source/Filters/fir.h ****         assert(false == reverse);
 137:../../../../DaisyExamples/DaisySP//Source/Filters/fir.h ****         assert(nullptr != coefs || 0 == size);
  95              		.loc 1 137 9 view .LVU5
  96 0002 034A     		ldr	r2, .L8
  97 0004 8921     		movs	r1, #137
  98 0006 034B     		ldr	r3, .L8+4
  99 0008 0348     		ldr	r0, .L8+8
 100 000a FFF7FEFF 		bl	__assert_func
 101              	.LVL3:
 102              	.L9:
 103 000e 00BF     		.align	2
 104              	.L8:
 105 0010 20000000 		.word	.LC4
 106 0014 00000000 		.word	.LC3
 107 0018 3C000000 		.word	.LC2
 108              		.cfi_endproc
 109              	.LFE4250:
 111              		.section	.rodata._ZN7daisysp20FIRFilterImplGenericILj0ELj0EE7ProcessEf.part.0.str1.4,"aMS",%progbi
 112              		.align	2
 113              	.LC5:
 114 0000 73697A65 		.ascii	"size_ > 0u\000"
 114      5F203E20 
 114      307500
 115 000b 00       		.align	2
 116              	.LC6:
 117 000c 666C6F61 		.ascii	"float daisysp::FIRFilterImplGeneric<max_size, max_b"
 117      74206461 
 117      69737973 
 117      703A3A46 
 117      49524669 
 118 003f 6C6F636B 		.ascii	"lock>::Process(float) [with unsigned int max_size ="
 118      3E3A3A50 
 118      726F6365 
 118      73732866 
ARM GAS  C:\Users\samue\AppData\Local\Temp\ccSMt6Jg.s 			page 6


 118      6C6F6174 
 119 0072 20303B20 		.ascii	" 0; unsigned int max_block = 0]\000"
 119      756E7369 
 119      676E6564 
 119      20696E74 
 119      206D6178 
 120              		.section	.text._ZN7daisysp20FIRFilterImplGenericILj0ELj0EE7ProcessEf.part.0,"ax",%progbits
 121              		.align	1
 122              		.p2align 2,,3
 123              		.syntax unified
 124              		.thumb
 125              		.thumb_func
 126              		.fpu fpv5-d16
 128              	_ZN7daisysp20FIRFilterImplGenericILj0ELj0EE7ProcessEf.part.0:
 129              	.LFB4252:
 138:../../../../DaisyExamples/DaisySP//Source/Filters/fir.h **** 
 139:../../../../DaisyExamples/DaisySP//Source/Filters/fir.h ****         if(false == reverse && (nullptr != coefs || 0 == size))
 140:../../../../DaisyExamples/DaisySP//Source/Filters/fir.h ****         {
 141:../../../../DaisyExamples/DaisySP//Source/Filters/fir.h ****             coefs_ = coefs;
 142:../../../../DaisyExamples/DaisySP//Source/Filters/fir.h ****             size_  = size;
 143:../../../../DaisyExamples/DaisySP//Source/Filters/fir.h ****             return true;
 144:../../../../DaisyExamples/DaisySP//Source/Filters/fir.h ****         }
 145:../../../../DaisyExamples/DaisySP//Source/Filters/fir.h **** 
 146:../../../../DaisyExamples/DaisySP//Source/Filters/fir.h ****         return false;
 147:../../../../DaisyExamples/DaisySP//Source/Filters/fir.h ****     }
 148:../../../../DaisyExamples/DaisySP//Source/Filters/fir.h **** 
 149:../../../../DaisyExamples/DaisySP//Source/Filters/fir.h ****     /* Internal member variables */
 150:../../../../DaisyExamples/DaisySP//Source/Filters/fir.h **** 
 151:../../../../DaisyExamples/DaisySP//Source/Filters/fir.h ****     float*       state_;      /*< Internal state buffer */
 152:../../../../DaisyExamples/DaisySP//Source/Filters/fir.h ****     const float* coefs_;      /*< Filter coefficients */
 153:../../../../DaisyExamples/DaisySP//Source/Filters/fir.h ****     size_t       size_;       /*< number of filter coefficients */
 154:../../../../DaisyExamples/DaisySP//Source/Filters/fir.h ****     size_t       state_size_; /*< length of the state buffer */
 155:../../../../DaisyExamples/DaisySP//Source/Filters/fir.h **** };
 156:../../../../DaisyExamples/DaisySP//Source/Filters/fir.h **** 
 157:../../../../DaisyExamples/DaisySP//Source/Filters/fir.h **** 
 158:../../../../DaisyExamples/DaisySP//Source/Filters/fir.h **** /** Generic FIR implementation is always available
 159:../../../../DaisyExamples/DaisySP//Source/Filters/fir.h ****  * \param max_size - maximal filter length
 160:../../../../DaisyExamples/DaisySP//Source/Filters/fir.h ****  * \param max_block - maximal block size for ProcessBlock()
 161:../../../../DaisyExamples/DaisySP//Source/Filters/fir.h ****  * if both parameters are 0 (via FIRFILTER_USER_MEMORY macro)
 162:../../../../DaisyExamples/DaisySP//Source/Filters/fir.h ****  * Assumes the user will provide own memory buffers
 163:../../../../DaisyExamples/DaisySP//Source/Filters/fir.h ****  * via SetIR() and SetStateBuffer() functions
 164:../../../../DaisyExamples/DaisySP//Source/Filters/fir.h ****  * Otherwise statically allocates the necessary buffers itself
 165:../../../../DaisyExamples/DaisySP//Source/Filters/fir.h ****  */
 166:../../../../DaisyExamples/DaisySP//Source/Filters/fir.h **** template <size_t max_size, size_t max_block>
 167:../../../../DaisyExamples/DaisySP//Source/Filters/fir.h **** class FIRFilterImplGeneric : public FIRMemory<max_size, max_block>
 168:../../../../DaisyExamples/DaisySP//Source/Filters/fir.h **** {
 169:../../../../DaisyExamples/DaisySP//Source/Filters/fir.h ****   private:
 170:../../../../DaisyExamples/DaisySP//Source/Filters/fir.h ****     using FIRMem = FIRMemory<max_size, max_block>; // just a shorthand
 171:../../../../DaisyExamples/DaisySP//Source/Filters/fir.h **** 
 172:../../../../DaisyExamples/DaisySP//Source/Filters/fir.h ****   public:
 173:../../../../DaisyExamples/DaisySP//Source/Filters/fir.h ****     /* Default constructor */
 174:../../../../DaisyExamples/DaisySP//Source/Filters/fir.h ****     FIRFilterImplGeneric() {}
 175:../../../../DaisyExamples/DaisySP//Source/Filters/fir.h **** 
 176:../../../../DaisyExamples/DaisySP//Source/Filters/fir.h ****     /* Reset filter state (but not the coefficients) */
 177:../../../../DaisyExamples/DaisySP//Source/Filters/fir.h ****     using FIRMem::Reset;
 178:../../../../DaisyExamples/DaisySP//Source/Filters/fir.h **** 
 179:../../../../DaisyExamples/DaisySP//Source/Filters/fir.h ****     /* FIR Latency is always 0, but API is unified with FFT and fast convolution */
ARM GAS  C:\Users\samue\AppData\Local\Temp\ccSMt6Jg.s 			page 7


 180:../../../../DaisyExamples/DaisySP//Source/Filters/fir.h ****     static constexpr size_t GetLatency() { return 0; }
 181:../../../../DaisyExamples/DaisySP//Source/Filters/fir.h **** 
 182:../../../../DaisyExamples/DaisySP//Source/Filters/fir.h ****     /* Process one sample at a time */
 183:../../../../DaisyExamples/DaisySP//Source/Filters/fir.h ****     float Process(float in)
 130              		.loc 1 183 11 is_stmt 1 view -0
 131              		.cfi_startproc
 132              		@ Volatile: function does not return.
 133              		@ args = 0, pretend = 0, frame = 0
 134              		@ frame_needed = 0, uses_anonymous_args = 0
 135              	.LVL4:
 136              		.loc 1 183 11 is_stmt 0 view .LVU7
 137 0000 08B5     		push	{r3, lr}
 138              		.cfi_def_cfa_offset 8
 139              		.cfi_offset 3, -8
 140              		.cfi_offset 14, -4
 184:../../../../DaisyExamples/DaisySP//Source/Filters/fir.h ****     {
 185:../../../../DaisyExamples/DaisySP//Source/Filters/fir.h ****         assert(size_ > 0u);
 141              		.loc 1 185 9 view .LVU8
 142 0002 034A     		ldr	r2, .L12
 143 0004 B921     		movs	r1, #185
 144 0006 034B     		ldr	r3, .L12+4
 145 0008 0348     		ldr	r0, .L12+8
 146 000a FFF7FEFF 		bl	__assert_func
 147              	.LVL5:
 148              	.L13:
 149 000e 00BF     		.align	2
 150              	.L12:
 151 0010 0C000000 		.word	.LC6
 152 0014 00000000 		.word	.LC5
 153 0018 3C000000 		.word	.LC2
 154              		.cfi_endproc
 155              	.LFE4252:
 157              		.section	.text._ZN5voice4InitEf,"ax",%progbits
 158              		.align	1
 159              		.p2align 2,,3
 160              		.global	_ZN5voice4InitEf
 161              		.syntax unified
 162              		.thumb
 163              		.thumb_func
 164              		.fpu fpv5-d16
 166              	_ZN5voice4InitEf:
 167              	.LVL6:
 168              	.LFB3677:
 169              		.file 2 "voice.cpp"
   1:voice.cpp     **** #include "voice.h"
   2:voice.cpp     **** 
   3:voice.cpp     **** void voice::Init(float fs)
   4:voice.cpp     **** {
 170              		.loc 2 4 1 is_stmt 1 view -0
 171              		.cfi_startproc
 172              		@ args = 0, pretend = 0, frame = 0
 173              		@ frame_needed = 0, uses_anonymous_args = 0
   5:voice.cpp     ****     osc_.Init(fs);
 174              		.loc 2 5 5 view .LVU10
   4:voice.cpp     ****     osc_.Init(fs);
 175              		.loc 2 4 1 is_stmt 0 view .LVU11
 176 0000 2DE9F041 		push	{r4, r5, r6, r7, r8, lr}
ARM GAS  C:\Users\samue\AppData\Local\Temp\ccSMt6Jg.s 			page 8


 177              		.cfi_def_cfa_offset 24
 178              		.cfi_offset 4, -24
 179              		.cfi_offset 5, -20
 180              		.cfi_offset 6, -16
 181              		.cfi_offset 7, -12
 182              		.cfi_offset 8, -8
 183              		.cfi_offset 14, -4
 184 0004 2DED048B 		vpush.64	{d8, d9}
 185              		.cfi_def_cfa_offset 40
 186              		.cfi_offset 80, -40
 187              		.cfi_offset 81, -36
 188              		.cfi_offset 82, -32
 189              		.cfi_offset 83, -28
   4:voice.cpp     ****     osc_.Init(fs);
 190              		.loc 2 4 1 view .LVU12
 191 0008 B0EE408A 		vmov.f32	s16, s0
 192 000c 0446     		mov	r4, r0
 193              	.LVL7:
 194              	.LBB221:
 195              	.LBI221:
 196              		.file 3 "../../../../DaisyExamples/DaisySP//Source/Synthesis/oscillator.h"
   1:../../../../DaisyExamples/DaisySP//Source/Synthesis/oscillator.h **** /*
   2:../../../../DaisyExamples/DaisySP//Source/Synthesis/oscillator.h **** Copyright (c) 2020 Electrosmith, Corp
   3:../../../../DaisyExamples/DaisySP//Source/Synthesis/oscillator.h **** 
   4:../../../../DaisyExamples/DaisySP//Source/Synthesis/oscillator.h **** Use of this source code is governed by an MIT-style
   5:../../../../DaisyExamples/DaisySP//Source/Synthesis/oscillator.h **** license that can be found in the LICENSE file or at
   6:../../../../DaisyExamples/DaisySP//Source/Synthesis/oscillator.h **** https://opensource.org/licenses/MIT.
   7:../../../../DaisyExamples/DaisySP//Source/Synthesis/oscillator.h **** */
   8:../../../../DaisyExamples/DaisySP//Source/Synthesis/oscillator.h **** 
   9:../../../../DaisyExamples/DaisySP//Source/Synthesis/oscillator.h **** #pragma once
  10:../../../../DaisyExamples/DaisySP//Source/Synthesis/oscillator.h **** #ifndef DSY_OSCILLATOR_H
  11:../../../../DaisyExamples/DaisySP//Source/Synthesis/oscillator.h **** #define DSY_OSCILLATOR_H
  12:../../../../DaisyExamples/DaisySP//Source/Synthesis/oscillator.h **** #include <stdint.h>
  13:../../../../DaisyExamples/DaisySP//Source/Synthesis/oscillator.h **** #include "Utility/dsp.h"
  14:../../../../DaisyExamples/DaisySP//Source/Synthesis/oscillator.h **** #ifdef __cplusplus
  15:../../../../DaisyExamples/DaisySP//Source/Synthesis/oscillator.h **** 
  16:../../../../DaisyExamples/DaisySP//Source/Synthesis/oscillator.h **** namespace daisysp
  17:../../../../DaisyExamples/DaisySP//Source/Synthesis/oscillator.h **** {
  18:../../../../DaisyExamples/DaisySP//Source/Synthesis/oscillator.h **** /** Synthesis of several waveforms, including polyBLEP bandlimited waveforms.
  19:../../../../DaisyExamples/DaisySP//Source/Synthesis/oscillator.h **** */
  20:../../../../DaisyExamples/DaisySP//Source/Synthesis/oscillator.h **** class Oscillator
  21:../../../../DaisyExamples/DaisySP//Source/Synthesis/oscillator.h **** {
  22:../../../../DaisyExamples/DaisySP//Source/Synthesis/oscillator.h ****   public:
  23:../../../../DaisyExamples/DaisySP//Source/Synthesis/oscillator.h ****     Oscillator() {}
  24:../../../../DaisyExamples/DaisySP//Source/Synthesis/oscillator.h ****     ~Oscillator() {}
  25:../../../../DaisyExamples/DaisySP//Source/Synthesis/oscillator.h ****     /** Choices for output waveforms, POLYBLEP are appropriately labeled. Others are naive forms.
  26:../../../../DaisyExamples/DaisySP//Source/Synthesis/oscillator.h ****     */
  27:../../../../DaisyExamples/DaisySP//Source/Synthesis/oscillator.h ****     enum
  28:../../../../DaisyExamples/DaisySP//Source/Synthesis/oscillator.h ****     {
  29:../../../../DaisyExamples/DaisySP//Source/Synthesis/oscillator.h ****         WAVE_SIN,
  30:../../../../DaisyExamples/DaisySP//Source/Synthesis/oscillator.h ****         WAVE_TRI,
  31:../../../../DaisyExamples/DaisySP//Source/Synthesis/oscillator.h ****         WAVE_SAW,
  32:../../../../DaisyExamples/DaisySP//Source/Synthesis/oscillator.h ****         WAVE_RAMP,
  33:../../../../DaisyExamples/DaisySP//Source/Synthesis/oscillator.h ****         WAVE_SQUARE,
  34:../../../../DaisyExamples/DaisySP//Source/Synthesis/oscillator.h ****         WAVE_POLYBLEP_TRI,
  35:../../../../DaisyExamples/DaisySP//Source/Synthesis/oscillator.h ****         WAVE_POLYBLEP_SAW,
  36:../../../../DaisyExamples/DaisySP//Source/Synthesis/oscillator.h ****         WAVE_POLYBLEP_SQUARE,
ARM GAS  C:\Users\samue\AppData\Local\Temp\ccSMt6Jg.s 			page 9


  37:../../../../DaisyExamples/DaisySP//Source/Synthesis/oscillator.h ****         WAVE_LAST,
  38:../../../../DaisyExamples/DaisySP//Source/Synthesis/oscillator.h ****     };
  39:../../../../DaisyExamples/DaisySP//Source/Synthesis/oscillator.h **** 
  40:../../../../DaisyExamples/DaisySP//Source/Synthesis/oscillator.h **** 
  41:../../../../DaisyExamples/DaisySP//Source/Synthesis/oscillator.h ****     /** Initializes the Oscillator
  42:../../../../DaisyExamples/DaisySP//Source/Synthesis/oscillator.h **** 
  43:../../../../DaisyExamples/DaisySP//Source/Synthesis/oscillator.h ****         \param sample_rate - sample rate of the audio engine being run, and the frequency that the 
  44:../../../../DaisyExamples/DaisySP//Source/Synthesis/oscillator.h **** 
  45:../../../../DaisyExamples/DaisySP//Source/Synthesis/oscillator.h ****         Defaults:
  46:../../../../DaisyExamples/DaisySP//Source/Synthesis/oscillator.h ****         - freq_ = 100 Hz
  47:../../../../DaisyExamples/DaisySP//Source/Synthesis/oscillator.h ****         - amp_ = 0.5
  48:../../../../DaisyExamples/DaisySP//Source/Synthesis/oscillator.h ****         - waveform_ = sine wave.
  49:../../../../DaisyExamples/DaisySP//Source/Synthesis/oscillator.h ****     */
  50:../../../../DaisyExamples/DaisySP//Source/Synthesis/oscillator.h ****     void Init(float sample_rate)
 197              		.loc 3 50 10 is_stmt 1 view .LVU13
 198              	.LBB222:
  51:../../../../DaisyExamples/DaisySP//Source/Synthesis/oscillator.h ****     {
  52:../../../../DaisyExamples/DaisySP//Source/Synthesis/oscillator.h ****         sr_        = sample_rate;
 199              		.loc 3 52 9 view .LVU14
  53:../../../../DaisyExamples/DaisySP//Source/Synthesis/oscillator.h ****         sr_recip_  = 1.0f / sample_rate;
 200              		.loc 3 53 27 is_stmt 0 view .LVU15
 201 000e B7EE009A 		vmov.f32	s18, #1.0e+0
  54:../../../../DaisyExamples/DaisySP//Source/Synthesis/oscillator.h ****         freq_      = 100.0f;
  55:../../../../DaisyExamples/DaisySP//Source/Synthesis/oscillator.h ****         amp_       = 0.5f;
  56:../../../../DaisyExamples/DaisySP//Source/Synthesis/oscillator.h ****         pw_        = 0.5f;
  57:../../../../DaisyExamples/DaisySP//Source/Synthesis/oscillator.h ****         phase_     = 0.0f;
 202              		.loc 3 57 20 view .LVU16
 203 0012 0025     		movs	r5, #0
  55:../../../../DaisyExamples/DaisySP//Source/Synthesis/oscillator.h ****         pw_        = 0.5f;
 204              		.loc 3 55 20 view .LVU17
 205 0014 F6EE008A 		vmov.f32	s17, #5.0e-1
  54:../../../../DaisyExamples/DaisySP//Source/Synthesis/oscillator.h ****         freq_      = 100.0f;
 206              		.loc 3 54 20 view .LVU18
 207 0018 9FED3B0A 		vldr.32	s0, .L16
 208              	.LVL8:
  52:../../../../DaisyExamples/DaisySP//Source/Synthesis/oscillator.h ****         sr_recip_  = 1.0f / sample_rate;
 209              		.loc 3 52 20 view .LVU19
 210 001c 84ED1F8A 		vstr.32	s16, [r4, #124]
  53:../../../../DaisyExamples/DaisySP//Source/Synthesis/oscillator.h ****         freq_      = 100.0f;
 211              		.loc 3 53 9 is_stmt 1 view .LVU20
  58:../../../../DaisyExamples/DaisySP//Source/Synthesis/oscillator.h ****         phase_inc_ = CalcPhaseInc(freq_);
 212              		.loc 3 58 34 is_stmt 0 view .LVU21
 213 0020 6C30     		adds	r0, r0, #108
 214              	.LVL9:
  53:../../../../DaisyExamples/DaisySP//Source/Synthesis/oscillator.h ****         freq_      = 100.0f;
 215              		.loc 3 53 27 view .LVU22
 216 0022 C9EE087A 		vdiv.f32	s15, s18, s16
  54:../../../../DaisyExamples/DaisySP//Source/Synthesis/oscillator.h ****         amp_       = 0.5f;
 217              		.loc 3 54 20 view .LVU23
 218 0026 84ED1D0A 		vstr.32	s0, [r4, #116]
  55:../../../../DaisyExamples/DaisySP//Source/Synthesis/oscillator.h ****         pw_        = 0.5f;
 219              		.loc 3 55 20 view .LVU24
 220 002a C4ED1C8A 		vstr.32	s17, [r4, #112]
 221              	.LBE222:
 222              	.LBE221:
 223              	.LBB227:
 224              	.LBB228:
ARM GAS  C:\Users\samue\AppData\Local\Temp\ccSMt6Jg.s 			page 10


  59:../../../../DaisyExamples/DaisySP//Source/Synthesis/oscillator.h ****         waveform_  = WAVE_SIN;
  60:../../../../DaisyExamples/DaisySP//Source/Synthesis/oscillator.h ****         eoc_       = true;
  61:../../../../DaisyExamples/DaisySP//Source/Synthesis/oscillator.h ****         eor_       = true;
  62:../../../../DaisyExamples/DaisySP//Source/Synthesis/oscillator.h ****     }
  63:../../../../DaisyExamples/DaisySP//Source/Synthesis/oscillator.h **** 
  64:../../../../DaisyExamples/DaisySP//Source/Synthesis/oscillator.h **** 
  65:../../../../DaisyExamples/DaisySP//Source/Synthesis/oscillator.h ****     /** Changes the frequency of the Oscillator, and recalculates phase increment.
  66:../../../../DaisyExamples/DaisySP//Source/Synthesis/oscillator.h ****     */
  67:../../../../DaisyExamples/DaisySP//Source/Synthesis/oscillator.h ****     inline void SetFreq(const float f)
  68:../../../../DaisyExamples/DaisySP//Source/Synthesis/oscillator.h ****     {
  69:../../../../DaisyExamples/DaisySP//Source/Synthesis/oscillator.h ****         freq_      = f;
  70:../../../../DaisyExamples/DaisySP//Source/Synthesis/oscillator.h ****         phase_inc_ = CalcPhaseInc(f);
  71:../../../../DaisyExamples/DaisySP//Source/Synthesis/oscillator.h ****     }
  72:../../../../DaisyExamples/DaisySP//Source/Synthesis/oscillator.h **** 
  73:../../../../DaisyExamples/DaisySP//Source/Synthesis/oscillator.h **** 
  74:../../../../DaisyExamples/DaisySP//Source/Synthesis/oscillator.h ****     /** Sets the amplitude of the waveform.
  75:../../../../DaisyExamples/DaisySP//Source/Synthesis/oscillator.h ****     */
  76:../../../../DaisyExamples/DaisySP//Source/Synthesis/oscillator.h ****     inline void SetAmp(const float a) { amp_ = a; }
  77:../../../../DaisyExamples/DaisySP//Source/Synthesis/oscillator.h ****     /** Sets the waveform to be synthesized by the Process() function.
  78:../../../../DaisyExamples/DaisySP//Source/Synthesis/oscillator.h ****     */
  79:../../../../DaisyExamples/DaisySP//Source/Synthesis/oscillator.h ****     inline void SetWaveform(const uint8_t wf)
  80:../../../../DaisyExamples/DaisySP//Source/Synthesis/oscillator.h ****     {
  81:../../../../DaisyExamples/DaisySP//Source/Synthesis/oscillator.h ****         waveform_ = wf < WAVE_LAST ? wf : WAVE_SIN;
 225              		.loc 3 81 19 view .LVU25
 226 002e 0126     		movs	r6, #1
 227              	.LBE228:
 228              	.LBE227:
 229              	.LBB231:
 230              	.LBB223:
  56:../../../../DaisyExamples/DaisySP//Source/Synthesis/oscillator.h ****         phase_     = 0.0f;
 231              		.loc 3 56 20 view .LVU26
 232 0030 C4ED1E8A 		vstr.32	s17, [r4, #120]
 233              	.LBE223:
 234              	.LBE231:
 235              	.LBB232:
 236              	.LBB233:
 105:../../../../DaisyExamples/DaisySP//Source/Filters/fir.h ****     }
 237              		.loc 1 105 21 view .LVU27
 238 0034 4FF01E08 		mov	r8, #30
 239              	.LBE233:
 240              	.LBE232:
 241              	.LBB237:
 242              	.LBB224:
  57:../../../../DaisyExamples/DaisySP//Source/Synthesis/oscillator.h ****         phase_inc_ = CalcPhaseInc(freq_);
 243              		.loc 3 57 20 view .LVU28
 244 0038 C4F88450 		str	r5, [r4, #132]	@ float
 245              	.LBE224:
 246              	.LBE237:
 247              	.LBB238:
 248              	.LBB239:
 249              		.file 4 "../../../../DaisyExamples/DaisySP//Source/Control/adenv.h"
   1:../../../../DaisyExamples/DaisySP//Source/Control/adenv.h **** /*
   2:../../../../DaisyExamples/DaisySP//Source/Control/adenv.h **** Copyright (c) 2020 Electrosmith, Corp
   3:../../../../DaisyExamples/DaisySP//Source/Control/adenv.h **** 
   4:../../../../DaisyExamples/DaisySP//Source/Control/adenv.h **** Use of this source code is governed by an MIT-style
   5:../../../../DaisyExamples/DaisySP//Source/Control/adenv.h **** license that can be found in the LICENSE file or at
   6:../../../../DaisyExamples/DaisySP//Source/Control/adenv.h **** https://opensource.org/licenses/MIT.
ARM GAS  C:\Users\samue\AppData\Local\Temp\ccSMt6Jg.s 			page 11


   7:../../../../DaisyExamples/DaisySP//Source/Control/adenv.h **** */
   8:../../../../DaisyExamples/DaisySP//Source/Control/adenv.h **** 
   9:../../../../DaisyExamples/DaisySP//Source/Control/adenv.h **** #pragma once
  10:../../../../DaisyExamples/DaisySP//Source/Control/adenv.h **** #ifndef ADENV_H
  11:../../../../DaisyExamples/DaisySP//Source/Control/adenv.h **** #define ADENV_H
  12:../../../../DaisyExamples/DaisySP//Source/Control/adenv.h **** #include <stdint.h>
  13:../../../../DaisyExamples/DaisySP//Source/Control/adenv.h **** #ifdef __cplusplus
  14:../../../../DaisyExamples/DaisySP//Source/Control/adenv.h **** 
  15:../../../../DaisyExamples/DaisySP//Source/Control/adenv.h **** namespace daisysp
  16:../../../../DaisyExamples/DaisySP//Source/Control/adenv.h **** {
  17:../../../../DaisyExamples/DaisySP//Source/Control/adenv.h **** /** Distinct stages that the phase of the envelope can be located in.
  18:../../../../DaisyExamples/DaisySP//Source/Control/adenv.h ****     @see AdEnv
  19:../../../../DaisyExamples/DaisySP//Source/Control/adenv.h **** */
  20:../../../../DaisyExamples/DaisySP//Source/Control/adenv.h **** enum AdEnvSegment
  21:../../../../DaisyExamples/DaisySP//Source/Control/adenv.h **** {
  22:../../../../DaisyExamples/DaisySP//Source/Control/adenv.h ****     /** located at phase location 0, and not currently running */
  23:../../../../DaisyExamples/DaisySP//Source/Control/adenv.h ****     ADENV_SEG_IDLE,
  24:../../../../DaisyExamples/DaisySP//Source/Control/adenv.h ****     /** First segment of envelope where phase moves from MIN value to MAX value */
  25:../../../../DaisyExamples/DaisySP//Source/Control/adenv.h ****     ADENV_SEG_ATTACK,
  26:../../../../DaisyExamples/DaisySP//Source/Control/adenv.h ****     /** Second segment of envelope where phase moves from MAX to MIN value */
  27:../../../../DaisyExamples/DaisySP//Source/Control/adenv.h ****     ADENV_SEG_DECAY,
  28:../../../../DaisyExamples/DaisySP//Source/Control/adenv.h ****     /** The final segment of the envelope (currently decay) */
  29:../../../../DaisyExamples/DaisySP//Source/Control/adenv.h ****     ADENV_SEG_LAST,
  30:../../../../DaisyExamples/DaisySP//Source/Control/adenv.h **** };
  31:../../../../DaisyExamples/DaisySP//Source/Control/adenv.h **** 
  32:../../../../DaisyExamples/DaisySP//Source/Control/adenv.h **** /** Trigger-able envelope with adjustable min/max, and independent per-segment time control.
  33:../../../../DaisyExamples/DaisySP//Source/Control/adenv.h **** 
  34:../../../../DaisyExamples/DaisySP//Source/Control/adenv.h ****     \author shensley
  35:../../../../DaisyExamples/DaisySP//Source/Control/adenv.h ****     \todo - Add Cycling
  36:../../../../DaisyExamples/DaisySP//Source/Control/adenv.h ****     \todo - Implement Curve (its only linear for now).
  37:../../../../DaisyExamples/DaisySP//Source/Control/adenv.h ****     \todo - Maybe make this an ADsr_ that has AD/AR/Asr_ modes.
  38:../../../../DaisyExamples/DaisySP//Source/Control/adenv.h ****  */
  39:../../../../DaisyExamples/DaisySP//Source/Control/adenv.h **** class AdEnv
  40:../../../../DaisyExamples/DaisySP//Source/Control/adenv.h **** {
  41:../../../../DaisyExamples/DaisySP//Source/Control/adenv.h ****   public:
  42:../../../../DaisyExamples/DaisySP//Source/Control/adenv.h ****     AdEnv() {}
  43:../../../../DaisyExamples/DaisySP//Source/Control/adenv.h ****     ~AdEnv() {}
  44:../../../../DaisyExamples/DaisySP//Source/Control/adenv.h ****     /** Initializes the ad envelope.
  45:../../../../DaisyExamples/DaisySP//Source/Control/adenv.h **** 
  46:../../../../DaisyExamples/DaisySP//Source/Control/adenv.h ****         Defaults:
  47:../../../../DaisyExamples/DaisySP//Source/Control/adenv.h ****             - current segment = idle
  48:../../../../DaisyExamples/DaisySP//Source/Control/adenv.h ****             - curve = linear
  49:../../../../DaisyExamples/DaisySP//Source/Control/adenv.h ****             - phase = 0
  50:../../../../DaisyExamples/DaisySP//Source/Control/adenv.h ****             - min = 0
  51:../../../../DaisyExamples/DaisySP//Source/Control/adenv.h ****             - max = 1
  52:../../../../DaisyExamples/DaisySP//Source/Control/adenv.h **** 
  53:../../../../DaisyExamples/DaisySP//Source/Control/adenv.h ****         \param sample_rate      sample rate of the audio engine being run
  54:../../../../DaisyExamples/DaisySP//Source/Control/adenv.h ****     */
  55:../../../../DaisyExamples/DaisySP//Source/Control/adenv.h ****     void Init(float sample_rate);
  56:../../../../DaisyExamples/DaisySP//Source/Control/adenv.h **** 
  57:../../../../DaisyExamples/DaisySP//Source/Control/adenv.h ****     /** Processes the current sample of the envelope. This should be called once
  58:../../../../DaisyExamples/DaisySP//Source/Control/adenv.h ****         per sample period.
  59:../../../../DaisyExamples/DaisySP//Source/Control/adenv.h ****         \return the current envelope value.
  60:../../../../DaisyExamples/DaisySP//Source/Control/adenv.h ****     */
  61:../../../../DaisyExamples/DaisySP//Source/Control/adenv.h ****     float Process();
  62:../../../../DaisyExamples/DaisySP//Source/Control/adenv.h **** 
  63:../../../../DaisyExamples/DaisySP//Source/Control/adenv.h ****     /** Starts or retriggers the envelope.*/
ARM GAS  C:\Users\samue\AppData\Local\Temp\ccSMt6Jg.s 			page 12


  64:../../../../DaisyExamples/DaisySP//Source/Control/adenv.h ****     inline void Trigger() { trigger_ = 1; }
  65:../../../../DaisyExamples/DaisySP//Source/Control/adenv.h ****     /** Sets the length of time (in seconds) for a specific segment. */
  66:../../../../DaisyExamples/DaisySP//Source/Control/adenv.h ****     inline void SetTime(uint8_t seg, float time) { segment_time_[seg] = time; }
 250              		.loc 4 66 71 view .LVU29
 251 003c 334F     		ldr	r7, .L16+4
 252              	.LBE239:
 253              	.LBE238:
 254              	.LBB242:
 255              	.LBB225:
  53:../../../../DaisyExamples/DaisySP//Source/Synthesis/oscillator.h ****         freq_      = 100.0f;
 256              		.loc 3 53 20 view .LVU30
 257 003e C4ED207A 		vstr.32	s15, [r4, #128]
  54:../../../../DaisyExamples/DaisySP//Source/Synthesis/oscillator.h ****         amp_       = 0.5f;
 258              		.loc 3 54 9 is_stmt 1 view .LVU31
  55:../../../../DaisyExamples/DaisySP//Source/Synthesis/oscillator.h ****         pw_        = 0.5f;
 259              		.loc 3 55 9 view .LVU32
  56:../../../../DaisyExamples/DaisySP//Source/Synthesis/oscillator.h ****         phase_     = 0.0f;
 260              		.loc 3 56 9 view .LVU33
  57:../../../../DaisyExamples/DaisySP//Source/Synthesis/oscillator.h ****         phase_inc_ = CalcPhaseInc(freq_);
 261              		.loc 3 57 9 view .LVU34
  58:../../../../DaisyExamples/DaisySP//Source/Synthesis/oscillator.h ****         waveform_  = WAVE_SIN;
 262              		.loc 3 58 9 view .LVU35
  58:../../../../DaisyExamples/DaisySP//Source/Synthesis/oscillator.h ****         waveform_  = WAVE_SIN;
 263              		.loc 3 58 34 is_stmt 0 view .LVU36
 264 0042 FFF7FEFF 		bl	_ZN7daisysp10Oscillator12CalcPhaseIncEf
 265              	.LVL10:
  58:../../../../DaisyExamples/DaisySP//Source/Synthesis/oscillator.h ****         waveform_  = WAVE_SIN;
 266              		.loc 3 58 34 view .LVU37
 267 0046 F0EE407A 		vmov.f32	s15, s0
  61:../../../../DaisyExamples/DaisySP//Source/Synthesis/oscillator.h ****     }
 268              		.loc 3 61 20 view .LVU38
 269 004a 40F20113 		movw	r3, #257
 270              	.LBE225:
 271              	.LBE242:
   6:voice.cpp     ****     osc_.SetWaveform(osc_.WAVE_TRI);
   7:voice.cpp     ****     amp_env_.Init(fs);
 272              		.loc 2 7 18 view .LVU39
 273 004e B0EE480A 		vmov.f32	s0, s16
 274 0052 04F19800 		add	r0, r4, #152
 275              	.LBB243:
 276              	.LBB229:
 277              		.loc 3 81 19 view .LVU40
 278 0056 84F86C60 		strb	r6, [r4, #108]
 279              	.LBE229:
 280              	.LBE243:
 281              	.LBB244:
 282              	.LBB226:
  58:../../../../DaisyExamples/DaisySP//Source/Synthesis/oscillator.h ****         waveform_  = WAVE_SIN;
 283              		.loc 3 58 20 view .LVU41
 284 005a C4ED227A 		vstr.32	s15, [r4, #136]
  59:../../../../DaisyExamples/DaisySP//Source/Synthesis/oscillator.h ****         eoc_       = true;
 285              		.loc 3 59 9 is_stmt 1 view .LVU42
  60:../../../../DaisyExamples/DaisySP//Source/Synthesis/oscillator.h ****         eor_       = true;
 286              		.loc 3 60 9 view .LVU43
  61:../../../../DaisyExamples/DaisySP//Source/Synthesis/oscillator.h ****     }
 287              		.loc 3 61 9 view .LVU44
  61:../../../../DaisyExamples/DaisySP//Source/Synthesis/oscillator.h ****     }
ARM GAS  C:\Users\samue\AppData\Local\Temp\ccSMt6Jg.s 			page 13


 288              		.loc 3 61 20 is_stmt 0 view .LVU45
 289 005e A4F89430 		strh	r3, [r4, #148]	@ movhi
 290              	.LVL11:
  61:../../../../DaisyExamples/DaisySP//Source/Synthesis/oscillator.h ****     }
 291              		.loc 3 61 20 view .LVU46
 292              	.LBE226:
 293              	.LBE244:
   6:voice.cpp     ****     amp_env_.Init(fs);
 294              		.loc 2 6 5 is_stmt 1 view .LVU47
 295              	.LBB245:
 296              	.LBI227:
  79:../../../../DaisyExamples/DaisySP//Source/Synthesis/oscillator.h ****     {
 297              		.loc 3 79 17 view .LVU48
 298              	.LBB230:
 299              		.loc 3 81 9 view .LVU49
 300              		.loc 3 81 9 is_stmt 0 view .LVU50
 301              	.LBE230:
 302              	.LBE245:
 303              		.loc 2 7 5 is_stmt 1 view .LVU51
 304              		.loc 2 7 18 is_stmt 0 view .LVU52
 305 0062 FFF7FEFF 		bl	_ZN7daisysp5AdEnv4InitEf
 306              	.LVL12:
   8:voice.cpp     ****     amp_env_.SetTime(ADENV_SEG_ATTACK, 0.002f);
 307              		.loc 2 8 5 is_stmt 1 view .LVU53
 308              	.LBB246:
 309              	.LBI238:
 310              		.loc 4 66 17 view .LVU54
 311              	.LBB240:
 312              		.loc 4 66 52 view .LVU55
 313              	.LBE240:
 314              	.LBE246:
   9:voice.cpp     ****     freq_env_.Init(fs);
 315              		.loc 2 9 19 is_stmt 0 view .LVU56
 316 0066 B0EE480A 		vmov.f32	s0, s16
 317 006a 04F1D000 		add	r0, r4, #208
 318              	.LBB247:
 319              	.LBB241:
 320              		.loc 4 66 71 view .LVU57
 321 006e C4F8A070 		str	r7, [r4, #160]	@ float
 322              	.LVL13:
 323              		.loc 4 66 71 view .LVU58
 324              	.LBE241:
 325              	.LBE247:
 326              		.loc 2 9 5 is_stmt 1 view .LVU59
 327              		.loc 2 9 19 is_stmt 0 view .LVU60
 328 0072 FFF7FEFF 		bl	_ZN7daisysp5AdEnv4InitEf
 329              	.LVL14:
  10:voice.cpp     ****     freq_env_.SetMin(1.0f);
 330              		.loc 2 10 5 is_stmt 1 view .LVU61
 331              	.LBB248:
 332              	.LBI248:
  67:../../../../DaisyExamples/DaisySP//Source/Control/adenv.h ****     /** Sets the amount of curve applied. A positve value will create a log
  68:../../../../DaisyExamples/DaisySP//Source/Control/adenv.h ****         curve. Input range: -100 to 100.  (or more)
  69:../../../../DaisyExamples/DaisySP//Source/Control/adenv.h ****     */
  70:../../../../DaisyExamples/DaisySP//Source/Control/adenv.h ****     inline void SetCurve(float scalar) { curve_scalar_ = scalar; }
  71:../../../../DaisyExamples/DaisySP//Source/Control/adenv.h ****     /** Sets the minimum value of the envelope output.
  72:../../../../DaisyExamples/DaisySP//Source/Control/adenv.h ****         Input range: -FLTmax_, to FLTmax_
ARM GAS  C:\Users\samue\AppData\Local\Temp\ccSMt6Jg.s 			page 14


  73:../../../../DaisyExamples/DaisySP//Source/Control/adenv.h ****     */
  74:../../../../DaisyExamples/DaisySP//Source/Control/adenv.h ****     inline void SetMin(float min) { min_ = min; }
 333              		.loc 4 74 17 view .LVU62
 334              	.LBB249:
 335              		.loc 4 74 37 view .LVU63
 336              	.LBE249:
 337              	.LBE248:
  11:voice.cpp     ****     freq_env_.SetTime(ADENV_SEG_ATTACK, 0.002f);
  12:voice.cpp     ****     
  13:voice.cpp     **** 
  14:voice.cpp     ****     filter_up_.SetStateBuffer(filter_state_up_, DSY_COUNTOF(filter_state_up_));
  15:voice.cpp     ****     filter_up_.Init(taps_up_, ntaps_, false);
 338              		.loc 2 15 21 is_stmt 0 view .LVU64
 339 0076 04F53973 		add	r3, r4, #740
  14:voice.cpp     ****     filter_up_.Init(taps_up_, ntaps_, false);
 340              		.loc 2 14 31 view .LVU65
 341 007a 04F5BE70 		add	r0, r4, #380
 342              	.LBB251:
 343              	.LBB252:
  66:../../../../DaisyExamples/DaisySP//Source/Control/adenv.h ****     /** Sets the amount of curve applied. A positve value will create a log
 344              		.loc 4 66 71 view .LVU66
 345 007e C4F8D870 		str	r7, [r4, #216]	@ float
 346 0082 D4F87871 		ldr	r7, [r4, #376]
 347              	.LBE252:
 348              	.LBE251:
 349              	.LBB254:
 350              	.LBB255:
 351              	.LBB256:
 352              	.LBB257:
 353              	.LBB258:
 114:../../../../DaisyExamples/DaisySP//Source/Filters/fir.h ****         }
 354              		.loc 1 114 19 view .LVU67
 355 0086 7822     		movs	r2, #120
 356              	.LBE258:
 357              	.LBE257:
 358              	.LBE256:
 359              	.LBE255:
 360              	.LBE254:
 361              	.LBB275:
 362              	.LBB250:
 363              		.loc 4 74 42 view .LVU68
 364 0088 84ED399A 		vstr.32	s18, [r4, #228]
 365              	.LVL15:
 366              		.loc 4 74 42 view .LVU69
 367              	.LBE250:
 368              	.LBE275:
  11:voice.cpp     ****     
 369              		.loc 2 11 5 is_stmt 1 view .LVU70
 370              	.LBB276:
 371              	.LBI251:
  66:../../../../DaisyExamples/DaisySP//Source/Control/adenv.h ****     /** Sets the amount of curve applied. A positve value will create a log
 372              		.loc 4 66 17 view .LVU71
 373              	.LBB253:
  66:../../../../DaisyExamples/DaisySP//Source/Control/adenv.h ****     /** Sets the amount of curve applied. A positve value will create a log
 374              		.loc 4 66 52 view .LVU72
  66:../../../../DaisyExamples/DaisySP//Source/Control/adenv.h ****     /** Sets the amount of curve applied. A positve value will create a log
 375              		.loc 4 66 52 is_stmt 0 view .LVU73
ARM GAS  C:\Users\samue\AppData\Local\Temp\ccSMt6Jg.s 			page 15


 376              	.LBE253:
 377              	.LBE276:
  14:voice.cpp     ****     filter_up_.Init(taps_up_, ntaps_, false);
 378              		.loc 2 14 5 is_stmt 1 view .LVU74
 379              	.LBB277:
 380              	.LBI232:
 102:../../../../DaisyExamples/DaisySP//Source/Filters/fir.h ****     {
 381              		.loc 1 102 10 view .LVU75
 382              	.LBB234:
 104:../../../../DaisyExamples/DaisySP//Source/Filters/fir.h ****         state_size_ = length;
 383              		.loc 1 104 9 view .LVU76
 384              	.LBE234:
 385              	.LBE277:
 386              	.LBB278:
 387              	.LBB272:
 388              	.LBB269:
 389              	.LBB261:
 390              	.LBB259:
 114:../../../../DaisyExamples/DaisySP//Source/Filters/fir.h ****         }
 391              		.loc 1 114 19 is_stmt 0 view .LVU77
 392 008c 0021     		movs	r1, #0
 393              	.LBE259:
 394              	.LBE261:
 395              	.LBB262:
 396              	.LBB263:
 141:../../../../DaisyExamples/DaisySP//Source/Filters/fir.h ****             size_  = size;
 397              		.loc 1 141 20 view .LVU78
 398 008e C4F85C31 		str	r3, [r4, #348]
 399              	.LBE263:
 400              	.LBE262:
 401              	.LBE269:
 402              	.LBE272:
 403              	.LBE278:
 404              	.LBB279:
 405              	.LBB235:
 104:../../../../DaisyExamples/DaisySP//Source/Filters/fir.h ****         state_size_ = length;
 406              		.loc 1 104 21 view .LVU79
 407 0092 C4F85801 		str	r0, [r4, #344]
 105:../../../../DaisyExamples/DaisySP//Source/Filters/fir.h ****     }
 408              		.loc 1 105 9 is_stmt 1 view .LVU80
 409              	.LBE235:
 410              	.LBE279:
 411              	.LBB280:
 412              	.LBB273:
 413              	.LBB270:
 414              	.LBB266:
 415              	.LBB264:
 142:../../../../DaisyExamples/DaisySP//Source/Filters/fir.h ****             return true;
 416              		.loc 1 142 20 is_stmt 0 view .LVU81
 417 0096 C4F86071 		str	r7, [r4, #352]
 418              	.LBE264:
 419              	.LBE266:
 420              	.LBE270:
 421              	.LBE273:
 422              	.LBE280:
 423              	.LBB281:
 424              	.LBB236:
ARM GAS  C:\Users\samue\AppData\Local\Temp\ccSMt6Jg.s 			page 16


 105:../../../../DaisyExamples/DaisySP//Source/Filters/fir.h ****     }
 425              		.loc 1 105 21 view .LVU82
 426 009a C4F86481 		str	r8, [r4, #356]
 427              	.LVL16:
 105:../../../../DaisyExamples/DaisySP//Source/Filters/fir.h ****     }
 428              		.loc 1 105 21 view .LVU83
 429              	.LBE236:
 430              	.LBE281:
 431              		.loc 2 15 5 is_stmt 1 view .LVU84
 432              	.LBB282:
 433              	.LBI254:
 186:../../../../DaisyExamples/DaisySP//Source/Filters/fir.h ****         /* Feed data into the buffer */
 187:../../../../DaisyExamples/DaisySP//Source/Filters/fir.h ****         state_[size_ - 1u] = in;
 188:../../../../DaisyExamples/DaisySP//Source/Filters/fir.h **** 
 189:../../../../DaisyExamples/DaisySP//Source/Filters/fir.h ****         /* Convolution loop */
 190:../../../../DaisyExamples/DaisySP//Source/Filters/fir.h ****         float acc(0);
 191:../../../../DaisyExamples/DaisySP//Source/Filters/fir.h ****         for(size_t i = 0; i < size_ - 1; i++)
 192:../../../../DaisyExamples/DaisySP//Source/Filters/fir.h ****         {
 193:../../../../DaisyExamples/DaisySP//Source/Filters/fir.h ****             acc += state_[i] * coefs_[i];
 194:../../../../DaisyExamples/DaisySP//Source/Filters/fir.h ****             /** Shift the state simulatenously 
 195:../../../../DaisyExamples/DaisySP//Source/Filters/fir.h ****              * (note: better solutions are available) 
 196:../../../../DaisyExamples/DaisySP//Source/Filters/fir.h ****              */
 197:../../../../DaisyExamples/DaisySP//Source/Filters/fir.h ****             state_[i] = state_[1 + i];
 198:../../../../DaisyExamples/DaisySP//Source/Filters/fir.h ****         }
 199:../../../../DaisyExamples/DaisySP//Source/Filters/fir.h ****         acc += in * coefs_[size_ - 1u];
 200:../../../../DaisyExamples/DaisySP//Source/Filters/fir.h **** 
 201:../../../../DaisyExamples/DaisySP//Source/Filters/fir.h ****         return acc;
 202:../../../../DaisyExamples/DaisySP//Source/Filters/fir.h ****     }
 203:../../../../DaisyExamples/DaisySP//Source/Filters/fir.h **** 
 204:../../../../DaisyExamples/DaisySP//Source/Filters/fir.h ****     /* Process a block of data */
 205:../../../../DaisyExamples/DaisySP//Source/Filters/fir.h ****     void ProcessBlock(const float* pSrc, float* pDst, size_t block)
 206:../../../../DaisyExamples/DaisySP//Source/Filters/fir.h ****     {
 207:../../../../DaisyExamples/DaisySP//Source/Filters/fir.h ****         /* be sure to run debug version from time to time */
 208:../../../../DaisyExamples/DaisySP//Source/Filters/fir.h ****         assert(block <= FIRMem::MaxBlock());
 209:../../../../DaisyExamples/DaisySP//Source/Filters/fir.h ****         assert(size_ > 0u);
 210:../../../../DaisyExamples/DaisySP//Source/Filters/fir.h ****         assert(nullptr != pSrc);
 211:../../../../DaisyExamples/DaisySP//Source/Filters/fir.h ****         assert(nullptr != pDst);
 212:../../../../DaisyExamples/DaisySP//Source/Filters/fir.h **** 
 213:../../../../DaisyExamples/DaisySP//Source/Filters/fir.h ****         /* Process the block of data */
 214:../../../../DaisyExamples/DaisySP//Source/Filters/fir.h ****         for(size_t j = 0; j < block; j++)
 215:../../../../DaisyExamples/DaisySP//Source/Filters/fir.h ****         {
 216:../../../../DaisyExamples/DaisySP//Source/Filters/fir.h ****             /* Feed data into the buffer */
 217:../../../../DaisyExamples/DaisySP//Source/Filters/fir.h ****             state_[size_ - 1u + j] = pSrc[j];
 218:../../../../DaisyExamples/DaisySP//Source/Filters/fir.h **** 
 219:../../../../DaisyExamples/DaisySP//Source/Filters/fir.h ****             /* Convolution loop */
 220:../../../../DaisyExamples/DaisySP//Source/Filters/fir.h ****             float acc = 0.0f;
 221:../../../../DaisyExamples/DaisySP//Source/Filters/fir.h ****             for(size_t i = 0; i < size_; i++)
 222:../../../../DaisyExamples/DaisySP//Source/Filters/fir.h ****             {
 223:../../../../DaisyExamples/DaisySP//Source/Filters/fir.h ****                 acc += state_[j + i] * coefs_[i];
 224:../../../../DaisyExamples/DaisySP//Source/Filters/fir.h ****             }
 225:../../../../DaisyExamples/DaisySP//Source/Filters/fir.h **** 
 226:../../../../DaisyExamples/DaisySP//Source/Filters/fir.h ****             /* Write output */
 227:../../../../DaisyExamples/DaisySP//Source/Filters/fir.h ****             pDst[j] = acc;
 228:../../../../DaisyExamples/DaisySP//Source/Filters/fir.h ****         }
 229:../../../../DaisyExamples/DaisySP//Source/Filters/fir.h **** 
 230:../../../../DaisyExamples/DaisySP//Source/Filters/fir.h ****         /* Copy data tail for the next block */
 231:../../../../DaisyExamples/DaisySP//Source/Filters/fir.h ****         for(size_t i = 0; i < size_ - 1u; i++)
ARM GAS  C:\Users\samue\AppData\Local\Temp\ccSMt6Jg.s 			page 17


 232:../../../../DaisyExamples/DaisySP//Source/Filters/fir.h ****         {
 233:../../../../DaisyExamples/DaisySP//Source/Filters/fir.h ****             state_[i] = state_[block + i];
 234:../../../../DaisyExamples/DaisySP//Source/Filters/fir.h ****         }
 235:../../../../DaisyExamples/DaisySP//Source/Filters/fir.h ****     }
 236:../../../../DaisyExamples/DaisySP//Source/Filters/fir.h **** 
 237:../../../../DaisyExamples/DaisySP//Source/Filters/fir.h ****     /** Set filter coefficients (aka Impulse Response)
 238:../../../../DaisyExamples/DaisySP//Source/Filters/fir.h ****      * Coefficients need to be in reversed order (tail-first)
 239:../../../../DaisyExamples/DaisySP//Source/Filters/fir.h ****      * If internal storage is used, makes a local copy
 240:../../../../DaisyExamples/DaisySP//Source/Filters/fir.h ****      * and allows reversing the impulse response
 241:../../../../DaisyExamples/DaisySP//Source/Filters/fir.h ****      */
 242:../../../../DaisyExamples/DaisySP//Source/Filters/fir.h ****     bool SetIR(const float* ir, size_t len, bool reverse)
 243:../../../../DaisyExamples/DaisySP//Source/Filters/fir.h ****     {
 244:../../../../DaisyExamples/DaisySP//Source/Filters/fir.h ****         /* Function order is important */
 245:../../../../DaisyExamples/DaisySP//Source/Filters/fir.h ****         const bool result = FIRMem::SetCoefs(ir, len, reverse);
 246:../../../../DaisyExamples/DaisySP//Source/Filters/fir.h ****         Reset();
 247:../../../../DaisyExamples/DaisySP//Source/Filters/fir.h ****         return result;
 248:../../../../DaisyExamples/DaisySP//Source/Filters/fir.h ****     }
 249:../../../../DaisyExamples/DaisySP//Source/Filters/fir.h **** 
 250:../../../../DaisyExamples/DaisySP//Source/Filters/fir.h ****     /* Create an alias to comply with DaisySP API conventions */
 251:../../../../DaisyExamples/DaisySP//Source/Filters/fir.h ****     template <typename... Args>
 252:../../../../DaisyExamples/DaisySP//Source/Filters/fir.h ****     inline auto Init(Args&&... args)
 434              		.loc 1 252 17 view .LVU85
 435              	.LBB274:
 436              	.LBI255:
 242:../../../../DaisyExamples/DaisySP//Source/Filters/fir.h ****     {
 437              		.loc 1 242 10 view .LVU86
 438              	.LBB271:
 439              	.LBB267:
 440              	.LBI262:
 133:../../../../DaisyExamples/DaisySP//Source/Filters/fir.h ****     {
 441              		.loc 1 133 10 view .LVU87
 442              	.LBB265:
 136:../../../../DaisyExamples/DaisySP//Source/Filters/fir.h ****         assert(nullptr != coefs || 0 == size);
 443              		.loc 1 136 9 view .LVU88
 137:../../../../DaisyExamples/DaisySP//Source/Filters/fir.h **** 
 444              		.loc 1 137 9 view .LVU89
 139:../../../../DaisyExamples/DaisySP//Source/Filters/fir.h ****         {
 445              		.loc 1 139 9 view .LVU90
 141:../../../../DaisyExamples/DaisySP//Source/Filters/fir.h ****             size_  = size;
 446              		.loc 1 141 13 view .LVU91
 142:../../../../DaisyExamples/DaisySP//Source/Filters/fir.h ****             return true;
 447              		.loc 1 142 13 view .LVU92
 143:../../../../DaisyExamples/DaisySP//Source/Filters/fir.h ****         }
 448              		.loc 1 143 13 view .LVU93
 143:../../../../DaisyExamples/DaisySP//Source/Filters/fir.h ****         }
 449              		.loc 1 143 13 is_stmt 0 view .LVU94
 450              	.LBE265:
 451              	.LBE267:
 452              	.LBB268:
 453              	.LBI257:
 108:../../../../DaisyExamples/DaisySP//Source/Filters/fir.h ****     {
 454              		.loc 1 108 10 is_stmt 1 view .LVU95
 455              	.LBB260:
 110:../../../../DaisyExamples/DaisySP//Source/Filters/fir.h ****         assert(0 != state_size_);
 456              		.loc 1 110 9 view .LVU96
 111:../../../../DaisyExamples/DaisySP//Source/Filters/fir.h ****         if(nullptr != state_)
 457              		.loc 1 111 9 view .LVU97
ARM GAS  C:\Users\samue\AppData\Local\Temp\ccSMt6Jg.s 			page 18


 112:../../../../DaisyExamples/DaisySP//Source/Filters/fir.h ****         {
 458              		.loc 1 112 9 view .LVU98
 114:../../../../DaisyExamples/DaisySP//Source/Filters/fir.h ****         }
 459              		.loc 1 114 13 view .LVU99
 114:../../../../DaisyExamples/DaisySP//Source/Filters/fir.h ****         }
 460              		.loc 1 114 19 is_stmt 0 view .LVU100
 461 009e FFF7FEFF 		bl	memset
 462              	.LVL17:
 114:../../../../DaisyExamples/DaisySP//Source/Filters/fir.h ****         }
 463              		.loc 1 114 19 view .LVU101
 464              	.LBE260:
 465              	.LBE268:
 466              	.LBE271:
 467              	.LBE274:
 468              	.LBE282:
  16:voice.cpp     **** 
  17:voice.cpp     ****     filter_down_.SetStateBuffer(filter_state_down_, DSY_COUNTOF(filter_state_down_));
 469              		.loc 2 17 5 is_stmt 1 view .LVU102
  18:voice.cpp     ****     filter_down_.Init(taps_down_, ntaps_, false);
 470              		.loc 2 18 23 is_stmt 0 view .LVU103
 471 00a2 04F55673 		add	r3, r4, #856
  17:voice.cpp     ****     filter_down_.Init(taps_down_, ntaps_, false);
 472              		.loc 2 17 33 view .LVU104
 473 00a6 04F5FA70 		add	r0, r4, #500
 474              	.LVL18:
 475              	.LBB283:
 476              	.LBI283:
 102:../../../../DaisyExamples/DaisySP//Source/Filters/fir.h ****     {
 477              		.loc 1 102 10 is_stmt 1 view .LVU105
 478              	.LBB284:
 104:../../../../DaisyExamples/DaisySP//Source/Filters/fir.h ****         state_size_ = length;
 479              		.loc 1 104 9 view .LVU106
 480              	.LBE284:
 481              	.LBE283:
 482              	.LBB286:
 483              	.LBB287:
 484              	.LBB288:
 485              	.LBB289:
 486              	.LBB290:
 114:../../../../DaisyExamples/DaisySP//Source/Filters/fir.h ****         }
 487              		.loc 1 114 19 is_stmt 0 view .LVU107
 488 00aa 7822     		movs	r2, #120
 489              	.LBE290:
 490              	.LBE289:
 491              	.LBB294:
 492              	.LBB295:
 141:../../../../DaisyExamples/DaisySP//Source/Filters/fir.h ****             size_  = size;
 493              		.loc 1 141 20 view .LVU108
 494 00ac C4F86C31 		str	r3, [r4, #364]
 495              	.LBE295:
 496              	.LBE294:
 497              	.LBB298:
 498              	.LBB291:
 114:../../../../DaisyExamples/DaisySP//Source/Filters/fir.h ****         }
 499              		.loc 1 114 19 view .LVU109
 500 00b0 0021     		movs	r1, #0
 501              	.LBE291:
ARM GAS  C:\Users\samue\AppData\Local\Temp\ccSMt6Jg.s 			page 19


 502              	.LBE298:
 503              	.LBE288:
 504              	.LBE287:
 505              	.LBE286:
 506              	.LBB305:
 507              	.LBB285:
 104:../../../../DaisyExamples/DaisySP//Source/Filters/fir.h ****         state_size_ = length;
 508              		.loc 1 104 21 view .LVU110
 509 00b2 C4F86801 		str	r0, [r4, #360]
 105:../../../../DaisyExamples/DaisySP//Source/Filters/fir.h ****     }
 510              		.loc 1 105 9 is_stmt 1 view .LVU111
 511              	.LVL19:
 105:../../../../DaisyExamples/DaisySP//Source/Filters/fir.h ****     }
 512              		.loc 1 105 9 is_stmt 0 view .LVU112
 513              	.LBE285:
 514              	.LBE305:
 515              		.loc 2 18 5 is_stmt 1 view .LVU113
 516              	.LBB306:
 517              	.LBI286:
 518              		.loc 1 252 17 view .LVU114
 519              	.LBB304:
 520              	.LBI287:
 242:../../../../DaisyExamples/DaisySP//Source/Filters/fir.h ****     {
 521              		.loc 1 242 10 view .LVU115
 522              	.LBB303:
 523              	.LBB299:
 524              	.LBI294:
 133:../../../../DaisyExamples/DaisySP//Source/Filters/fir.h ****     {
 525              		.loc 1 133 10 view .LVU116
 526              	.LBB296:
 136:../../../../DaisyExamples/DaisySP//Source/Filters/fir.h ****         assert(nullptr != coefs || 0 == size);
 527              		.loc 1 136 9 view .LVU117
 137:../../../../DaisyExamples/DaisySP//Source/Filters/fir.h **** 
 528              		.loc 1 137 9 view .LVU118
 139:../../../../DaisyExamples/DaisySP//Source/Filters/fir.h ****         {
 529              		.loc 1 139 9 view .LVU119
 141:../../../../DaisyExamples/DaisySP//Source/Filters/fir.h ****             size_  = size;
 530              		.loc 1 141 13 view .LVU120
 142:../../../../DaisyExamples/DaisySP//Source/Filters/fir.h ****             return true;
 531              		.loc 1 142 13 view .LVU121
 143:../../../../DaisyExamples/DaisySP//Source/Filters/fir.h ****         }
 532              		.loc 1 143 13 view .LVU122
 143:../../../../DaisyExamples/DaisySP//Source/Filters/fir.h ****         }
 533              		.loc 1 143 13 is_stmt 0 view .LVU123
 534              	.LBE296:
 535              	.LBE299:
 536              	.LBB300:
 537              	.LBI289:
 108:../../../../DaisyExamples/DaisySP//Source/Filters/fir.h ****     {
 538              		.loc 1 108 10 is_stmt 1 view .LVU124
 539              	.LBB292:
 110:../../../../DaisyExamples/DaisySP//Source/Filters/fir.h ****         assert(0 != state_size_);
 540              		.loc 1 110 9 view .LVU125
 111:../../../../DaisyExamples/DaisySP//Source/Filters/fir.h ****         if(nullptr != state_)
 541              		.loc 1 111 9 view .LVU126
 112:../../../../DaisyExamples/DaisySP//Source/Filters/fir.h ****         {
 542              		.loc 1 112 9 view .LVU127
ARM GAS  C:\Users\samue\AppData\Local\Temp\ccSMt6Jg.s 			page 20


 114:../../../../DaisyExamples/DaisySP//Source/Filters/fir.h ****         }
 543              		.loc 1 114 13 view .LVU128
 544              	.LBE292:
 545              	.LBE300:
 546              	.LBB301:
 547              	.LBB297:
 142:../../../../DaisyExamples/DaisySP//Source/Filters/fir.h ****             return true;
 548              		.loc 1 142 20 is_stmt 0 view .LVU129
 549 00b6 C4E95C78 		strd	r7, r8, [r4, #368]
 550              	.LBE297:
 551              	.LBE301:
 552              	.LBB302:
 553              	.LBB293:
 114:../../../../DaisyExamples/DaisySP//Source/Filters/fir.h ****         }
 554              		.loc 1 114 19 view .LVU130
 555 00ba FFF7FEFF 		bl	memset
 556              	.LVL20:
 114:../../../../DaisyExamples/DaisySP//Source/Filters/fir.h ****         }
 557              		.loc 1 114 19 view .LVU131
 558              	.LBE293:
 559              	.LBE302:
 560              	.LBE303:
 561              	.LBE304:
 562              	.LBE306:
  19:voice.cpp     **** 
  20:voice.cpp     ****     noise_.Init();
 563              		.loc 2 20 5 is_stmt 1 view .LVU132
 564              	.LBB307:
 565              	.LBI307:
 566              		.file 5 "../../../../DaisyExamples/DaisySP//Source/Noise/whitenoise.h"
   1:../../../../DaisyExamples/DaisySP//Source/Noise/whitenoise.h **** /*
   2:../../../../DaisyExamples/DaisySP//Source/Noise/whitenoise.h **** Copyright (c) 2020 Electrosmith, Corp
   3:../../../../DaisyExamples/DaisySP//Source/Noise/whitenoise.h **** 
   4:../../../../DaisyExamples/DaisySP//Source/Noise/whitenoise.h **** Use of this source code is governed by an MIT-style
   5:../../../../DaisyExamples/DaisySP//Source/Noise/whitenoise.h **** license that can be found in the LICENSE file or at
   6:../../../../DaisyExamples/DaisySP//Source/Noise/whitenoise.h **** https://opensource.org/licenses/MIT.
   7:../../../../DaisyExamples/DaisySP//Source/Noise/whitenoise.h **** */
   8:../../../../DaisyExamples/DaisySP//Source/Noise/whitenoise.h **** 
   9:../../../../DaisyExamples/DaisySP//Source/Noise/whitenoise.h **** #pragma once
  10:../../../../DaisyExamples/DaisySP//Source/Noise/whitenoise.h **** #ifndef DSY_WHITENOISE_H
  11:../../../../DaisyExamples/DaisySP//Source/Noise/whitenoise.h **** #define DSY_WHITENOISE_H
  12:../../../../DaisyExamples/DaisySP//Source/Noise/whitenoise.h **** #include <stdint.h>
  13:../../../../DaisyExamples/DaisySP//Source/Noise/whitenoise.h **** #ifdef __cplusplus
  14:../../../../DaisyExamples/DaisySP//Source/Noise/whitenoise.h **** namespace daisysp
  15:../../../../DaisyExamples/DaisySP//Source/Noise/whitenoise.h **** {
  16:../../../../DaisyExamples/DaisySP//Source/Noise/whitenoise.h **** /** fast white noise generator
  17:../../../../DaisyExamples/DaisySP//Source/Noise/whitenoise.h **** 
  18:../../../../DaisyExamples/DaisySP//Source/Noise/whitenoise.h ****     I think this came from musicdsp.org at some point
  19:../../../../DaisyExamples/DaisySP//Source/Noise/whitenoise.h **** */
  20:../../../../DaisyExamples/DaisySP//Source/Noise/whitenoise.h **** class WhiteNoise
  21:../../../../DaisyExamples/DaisySP//Source/Noise/whitenoise.h **** {
  22:../../../../DaisyExamples/DaisySP//Source/Noise/whitenoise.h ****   public:
  23:../../../../DaisyExamples/DaisySP//Source/Noise/whitenoise.h ****     WhiteNoise() {}
  24:../../../../DaisyExamples/DaisySP//Source/Noise/whitenoise.h ****     ~WhiteNoise() {}
  25:../../../../DaisyExamples/DaisySP//Source/Noise/whitenoise.h ****     /** Initializes the WhiteNoise object
  26:../../../../DaisyExamples/DaisySP//Source/Noise/whitenoise.h ****     */
  27:../../../../DaisyExamples/DaisySP//Source/Noise/whitenoise.h ****     void Init()
ARM GAS  C:\Users\samue\AppData\Local\Temp\ccSMt6Jg.s 			page 21


 567              		.loc 5 27 10 view .LVU133
 568              	.LBB308:
  28:../../../../DaisyExamples/DaisySP//Source/Noise/whitenoise.h ****     {
  29:../../../../DaisyExamples/DaisySP//Source/Noise/whitenoise.h ****         amp_      = 1.0f;
 569              		.loc 5 29 9 view .LVU134
 570              	.LBE308:
 571              	.LBE307:
 572              	.LBB310:
 573              	.LBB311:
 574              		.file 6 "../../../../DaisyExamples/DaisySP//Source/Filters/onepole.h"
   1:../../../../DaisyExamples/DaisySP//Source/Filters/onepole.h **** /*
   2:../../../../DaisyExamples/DaisySP//Source/Filters/onepole.h **** Copyright (c) 2020 Electrosmith, Corp, Emilie Gillet
   3:../../../../DaisyExamples/DaisySP//Source/Filters/onepole.h **** 
   4:../../../../DaisyExamples/DaisySP//Source/Filters/onepole.h **** Use of this source code is governed by an MIT-style
   5:../../../../DaisyExamples/DaisySP//Source/Filters/onepole.h **** license that can be found in the LICENSE file or at
   6:../../../../DaisyExamples/DaisySP//Source/Filters/onepole.h **** https://opensource.org/licenses/MIT.
   7:../../../../DaisyExamples/DaisySP//Source/Filters/onepole.h **** */
   8:../../../../DaisyExamples/DaisySP//Source/Filters/onepole.h **** 
   9:../../../../DaisyExamples/DaisySP//Source/Filters/onepole.h **** #ifndef DSY_ONEPOLE_H
  10:../../../../DaisyExamples/DaisySP//Source/Filters/onepole.h **** #define DSY_ONEPOLE_H
  11:../../../../DaisyExamples/DaisySP//Source/Filters/onepole.h **** 
  12:../../../../DaisyExamples/DaisySP//Source/Filters/onepole.h **** #include "Utility/dsp.h"
  13:../../../../DaisyExamples/DaisySP//Source/Filters/onepole.h **** #include <cmath>
  14:../../../../DaisyExamples/DaisySP//Source/Filters/onepole.h **** #include <algorithm>
  15:../../../../DaisyExamples/DaisySP//Source/Filters/onepole.h **** 
  16:../../../../DaisyExamples/DaisySP//Source/Filters/onepole.h **** namespace daisysp
  17:../../../../DaisyExamples/DaisySP//Source/Filters/onepole.h **** {
  18:../../../../DaisyExamples/DaisySP//Source/Filters/onepole.h **** /**         
  19:../../../../DaisyExamples/DaisySP//Source/Filters/onepole.h ****     @brief One Pole Lowpass / Highpass Filter
  20:../../../../DaisyExamples/DaisySP//Source/Filters/onepole.h ****     @author beserge
  21:../../../../DaisyExamples/DaisySP//Source/Filters/onepole.h ****     @date Dec 2023 
  22:../../../../DaisyExamples/DaisySP//Source/Filters/onepole.h ****     Ported from pichenettes/stmlib/dsp/filter.h \n 
  23:../../../../DaisyExamples/DaisySP//Source/Filters/onepole.h ****     \n to an independent module. \n
  24:../../../../DaisyExamples/DaisySP//Source/Filters/onepole.h ****     Original code written by Emilie Gillet. \n
  25:../../../../DaisyExamples/DaisySP//Source/Filters/onepole.h **** */
  26:../../../../DaisyExamples/DaisySP//Source/Filters/onepole.h **** class OnePole
  27:../../../../DaisyExamples/DaisySP//Source/Filters/onepole.h **** {
  28:../../../../DaisyExamples/DaisySP//Source/Filters/onepole.h ****   public:
  29:../../../../DaisyExamples/DaisySP//Source/Filters/onepole.h ****     OnePole() {}
  30:../../../../DaisyExamples/DaisySP//Source/Filters/onepole.h ****     ~OnePole() {}
  31:../../../../DaisyExamples/DaisySP//Source/Filters/onepole.h **** 
  32:../../../../DaisyExamples/DaisySP//Source/Filters/onepole.h ****     /**
  33:../../../../DaisyExamples/DaisySP//Source/Filters/onepole.h ****      * @brief Operational modes of the filter
  34:../../../../DaisyExamples/DaisySP//Source/Filters/onepole.h ****      * - LOW_PASS = cuts out high frequency sound, lets low frequency sound pass through
  35:../../../../DaisyExamples/DaisySP//Source/Filters/onepole.h ****      * - HIGH_PASS = cuts out low frequency sound, lets high frequency sound pass through
  36:../../../../DaisyExamples/DaisySP//Source/Filters/onepole.h ****      */
  37:../../../../DaisyExamples/DaisySP//Source/Filters/onepole.h ****     enum FilterMode
  38:../../../../DaisyExamples/DaisySP//Source/Filters/onepole.h ****     {
  39:../../../../DaisyExamples/DaisySP//Source/Filters/onepole.h ****         FILTER_MODE_LOW_PASS,
  40:../../../../DaisyExamples/DaisySP//Source/Filters/onepole.h ****         FILTER_MODE_HIGH_PASS
  41:../../../../DaisyExamples/DaisySP//Source/Filters/onepole.h ****     };
  42:../../../../DaisyExamples/DaisySP//Source/Filters/onepole.h **** 
  43:../../../../DaisyExamples/DaisySP//Source/Filters/onepole.h ****     /** Initializes the module */
  44:../../../../DaisyExamples/DaisySP//Source/Filters/onepole.h ****     void Init()
  45:../../../../DaisyExamples/DaisySP//Source/Filters/onepole.h ****     {
  46:../../../../DaisyExamples/DaisySP//Source/Filters/onepole.h ****         Reset();
  47:../../../../DaisyExamples/DaisySP//Source/Filters/onepole.h ****         mode_ = FILTER_MODE_LOW_PASS;
ARM GAS  C:\Users\samue\AppData\Local\Temp\ccSMt6Jg.s 			page 22


  48:../../../../DaisyExamples/DaisySP//Source/Filters/onepole.h ****     }
  49:../../../../DaisyExamples/DaisySP//Source/Filters/onepole.h **** 
  50:../../../../DaisyExamples/DaisySP//Source/Filters/onepole.h ****     /** Reset the module to its default state */
  51:../../../../DaisyExamples/DaisySP//Source/Filters/onepole.h ****     inline void Reset() { state_ = 0.0f; }
  52:../../../../DaisyExamples/DaisySP//Source/Filters/onepole.h **** 
  53:../../../../DaisyExamples/DaisySP//Source/Filters/onepole.h ****     /** Set the filter cutoff frequency
  54:../../../../DaisyExamples/DaisySP//Source/Filters/onepole.h ****     *   \param freq Cutoff frequency. Valid range from 0 to .497f
  55:../../../../DaisyExamples/DaisySP//Source/Filters/onepole.h ****     */
  56:../../../../DaisyExamples/DaisySP//Source/Filters/onepole.h ****     inline void SetFrequency(float freq)
  57:../../../../DaisyExamples/DaisySP//Source/Filters/onepole.h ****     {
  58:../../../../DaisyExamples/DaisySP//Source/Filters/onepole.h ****         // Clip coefficient to about 100.
  59:../../../../DaisyExamples/DaisySP//Source/Filters/onepole.h ****         freq = freq < 0.497f ? freq : 0.497f;
  60:../../../../DaisyExamples/DaisySP//Source/Filters/onepole.h **** 
  61:../../../../DaisyExamples/DaisySP//Source/Filters/onepole.h ****         g_  = tanf(PI_F * freq);
 575              		.loc 6 61 13 is_stmt 0 view .LVU135
 576 00be 144A     		ldr	r2, .L16+8
  62:../../../../DaisyExamples/DaisySP//Source/Filters/onepole.h ****         gi_ = 1.f / (1.f + g_);
 577              		.loc 6 62 13 view .LVU136
 578 00c0 144B     		ldr	r3, .L16+12
 579              	.LBE311:
 580              	.LBE310:
  21:voice.cpp     ****     noise_hpf_.Init();
  22:voice.cpp     ****     noise_hpf_.SetFrequency(0.005f);
  23:voice.cpp     ****     noise_hpf_.SetFilterMode(noise_hpf_.FILTER_MODE_HIGH_PASS);
  24:voice.cpp     ****     noise_lpf_.Init();
  25:voice.cpp     ****     noise_lpf_.SetFrequency(0.005f);
  26:voice.cpp     **** 
  27:voice.cpp     ****     fm_.Init(fs);
 581              		.loc 2 27 13 view .LVU137
 582 00c2 B0EE480A 		vmov.f32	s0, s16
 583              	.LBB314:
 584              	.LBB312:
  61:../../../../DaisyExamples/DaisySP//Source/Filters/onepole.h ****         gi_ = 1.f / (1.f + g_);
 585              		.loc 6 61 13 view .LVU138
 586 00c6 C4F82021 		str	r2, [r4, #288]	@ float
 587              	.LBE312:
 588              	.LBE314:
 589              		.loc 2 27 13 view .LVU139
 590 00ca 2046     		mov	r0, r4
 591              	.LBB315:
 592              	.LBB316:
  61:../../../../DaisyExamples/DaisySP//Source/Filters/onepole.h ****         gi_ = 1.f / (1.f + g_);
 593              		.loc 6 61 13 view .LVU140
 594 00cc C4F81021 		str	r2, [r4, #272]	@ float
 595              	.LBE316:
 596              	.LBE315:
 597              	.LBB319:
 598              	.LBB320:
  47:../../../../DaisyExamples/DaisySP//Source/Filters/onepole.h ****     }
 599              		.loc 6 47 15 view .LVU141
 600 00d0 0022     		movs	r2, #0
 601              	.LBE320:
 602              	.LBE319:
 603              	.LBB325:
 604              	.LBB309:
 605              		.loc 5 29 19 view .LVU142
 606 00d2 84ED429A 		vstr.32	s18, [r4, #264]
ARM GAS  C:\Users\samue\AppData\Local\Temp\ccSMt6Jg.s 			page 23


  30:../../../../DaisyExamples/DaisySP//Source/Noise/whitenoise.h ****         randseed_ = 1;
 607              		.loc 5 30 9 is_stmt 1 view .LVU143
 608              		.loc 5 30 19 is_stmt 0 view .LVU144
 609 00d6 C4F80C61 		str	r6, [r4, #268]
 610              	.LVL21:
 611              		.loc 5 30 19 view .LVU145
 612              	.LBE309:
 613              	.LBE325:
  21:voice.cpp     ****     noise_hpf_.SetFrequency(0.005f);
 614              		.loc 2 21 5 is_stmt 1 view .LVU146
 615              	.LBB326:
 616              	.LBI326:
  44:../../../../DaisyExamples/DaisySP//Source/Filters/onepole.h ****     {
 617              		.loc 6 44 10 view .LVU147
 618              	.LBE326:
  46:../../../../DaisyExamples/DaisySP//Source/Filters/onepole.h ****         mode_ = FILTER_MODE_LOW_PASS;
 619              		.loc 6 46 9 view .LVU148
 620              	.LBB329:
 621              	.LBB327:
 622              	.LBI327:
  51:../../../../DaisyExamples/DaisySP//Source/Filters/onepole.h **** 
 623              		.loc 6 51 17 view .LVU149
 624              	.LBB328:
  51:../../../../DaisyExamples/DaisySP//Source/Filters/onepole.h **** 
 625              		.loc 6 51 27 view .LVU150
  51:../../../../DaisyExamples/DaisySP//Source/Filters/onepole.h **** 
 626              		.loc 6 51 34 is_stmt 0 view .LVU151
 627 00da C4F82851 		str	r5, [r4, #296]	@ float
 628              	.LVL22:
  51:../../../../DaisyExamples/DaisySP//Source/Filters/onepole.h **** 
 629              		.loc 6 51 34 view .LVU152
 630              	.LBE328:
 631              	.LBE327:
 632              	.LBE329:
  47:../../../../DaisyExamples/DaisySP//Source/Filters/onepole.h ****     }
 633              		.loc 6 47 9 is_stmt 1 view .LVU153
  22:voice.cpp     ****     noise_hpf_.SetFilterMode(noise_hpf_.FILTER_MODE_HIGH_PASS);
 634              		.loc 2 22 5 view .LVU154
 635              	.LBB330:
 636              	.LBI310:
  56:../../../../DaisyExamples/DaisySP//Source/Filters/onepole.h ****     {
 637              		.loc 6 56 17 view .LVU155
 638              	.LBB313:
  59:../../../../DaisyExamples/DaisySP//Source/Filters/onepole.h **** 
 639              		.loc 6 59 9 view .LVU156
  61:../../../../DaisyExamples/DaisySP//Source/Filters/onepole.h ****         gi_ = 1.f / (1.f + g_);
 640              		.loc 6 61 9 view .LVU157
 641              		.loc 6 62 9 view .LVU158
 642              		.loc 6 62 13 is_stmt 0 view .LVU159
 643 00de C4F82431 		str	r3, [r4, #292]	@ float
 644              	.LVL23:
 645              		.loc 6 62 13 view .LVU160
 646              	.LBE313:
 647              	.LBE330:
  23:voice.cpp     ****     noise_lpf_.Init();
 648              		.loc 2 23 5 is_stmt 1 view .LVU161
 649              	.LBB331:
ARM GAS  C:\Users\samue\AppData\Local\Temp\ccSMt6Jg.s 			page 24


 650              	.LBI331:
  63:../../../../DaisyExamples/DaisySP//Source/Filters/onepole.h ****     }
  64:../../../../DaisyExamples/DaisySP//Source/Filters/onepole.h **** 
  65:../../../../DaisyExamples/DaisySP//Source/Filters/onepole.h ****     /** Set the filter mode
  66:../../../../DaisyExamples/DaisySP//Source/Filters/onepole.h ****     *   \param mode Filter mode. Can be lowpass or highpass
  67:../../../../DaisyExamples/DaisySP//Source/Filters/onepole.h ****     */
  68:../../../../DaisyExamples/DaisySP//Source/Filters/onepole.h ****     inline void SetFilterMode(FilterMode mode) { mode_ = mode; }
 651              		.loc 6 68 17 view .LVU162
 652              	.LBB332:
 653              		.loc 6 68 50 view .LVU163
 654              		.loc 6 68 56 is_stmt 0 view .LVU164
 655 00e2 84F82C61 		strb	r6, [r4, #300]
 656              	.LVL24:
 657              		.loc 6 68 56 view .LVU165
 658              	.LBE332:
 659              	.LBE331:
  24:voice.cpp     ****     noise_lpf_.SetFrequency(0.005f);
 660              		.loc 2 24 5 is_stmt 1 view .LVU166
 661              	.LBB333:
 662              	.LBI319:
  44:../../../../DaisyExamples/DaisySP//Source/Filters/onepole.h ****     {
 663              		.loc 6 44 10 view .LVU167
 664              	.LBB323:
  46:../../../../DaisyExamples/DaisySP//Source/Filters/onepole.h ****         mode_ = FILTER_MODE_LOW_PASS;
 665              		.loc 6 46 9 view .LVU168
 666              	.LBB321:
 667              	.LBI321:
  51:../../../../DaisyExamples/DaisySP//Source/Filters/onepole.h **** 
 668              		.loc 6 51 17 view .LVU169
 669              	.LBB322:
  51:../../../../DaisyExamples/DaisySP//Source/Filters/onepole.h **** 
 670              		.loc 6 51 27 view .LVU170
  51:../../../../DaisyExamples/DaisySP//Source/Filters/onepole.h **** 
 671              		.loc 6 51 34 is_stmt 0 view .LVU171
 672 00e6 C4F81851 		str	r5, [r4, #280]	@ float
 673              	.LVL25:
  51:../../../../DaisyExamples/DaisySP//Source/Filters/onepole.h **** 
 674              		.loc 6 51 34 view .LVU172
 675              	.LBE322:
 676              	.LBE321:
  47:../../../../DaisyExamples/DaisySP//Source/Filters/onepole.h ****     }
 677              		.loc 6 47 9 is_stmt 1 view .LVU173
 678              	.LBE323:
 679              	.LBE333:
 680              	.LBB334:
 681              	.LBB317:
  62:../../../../DaisyExamples/DaisySP//Source/Filters/onepole.h ****     }
 682              		.loc 6 62 13 is_stmt 0 view .LVU174
 683 00ea C4F81431 		str	r3, [r4, #276]	@ float
 684              	.LBE317:
 685              	.LBE334:
 686              	.LBB335:
 687              	.LBB324:
  47:../../../../DaisyExamples/DaisySP//Source/Filters/onepole.h ****     }
 688              		.loc 6 47 15 view .LVU175
 689 00ee 84F81C21 		strb	r2, [r4, #284]
 690              	.LVL26:
ARM GAS  C:\Users\samue\AppData\Local\Temp\ccSMt6Jg.s 			page 25


  47:../../../../DaisyExamples/DaisySP//Source/Filters/onepole.h ****     }
 691              		.loc 6 47 15 view .LVU176
 692              	.LBE324:
 693              	.LBE335:
  25:voice.cpp     **** 
 694              		.loc 2 25 5 is_stmt 1 view .LVU177
 695              	.LBB336:
 696              	.LBI315:
  56:../../../../DaisyExamples/DaisySP//Source/Filters/onepole.h ****     {
 697              		.loc 6 56 17 view .LVU178
 698              	.LBB318:
  59:../../../../DaisyExamples/DaisySP//Source/Filters/onepole.h **** 
 699              		.loc 6 59 9 view .LVU179
  61:../../../../DaisyExamples/DaisySP//Source/Filters/onepole.h ****         gi_ = 1.f / (1.f + g_);
 700              		.loc 6 61 9 view .LVU180
  62:../../../../DaisyExamples/DaisySP//Source/Filters/onepole.h ****     }
 701              		.loc 6 62 9 view .LVU181
  62:../../../../DaisyExamples/DaisySP//Source/Filters/onepole.h ****     }
 702              		.loc 6 62 9 is_stmt 0 view .LVU182
 703              	.LBE318:
 704              	.LBE336:
 705              		.loc 2 27 5 is_stmt 1 view .LVU183
 706              		.loc 2 27 13 is_stmt 0 view .LVU184
 707 00f2 FFF7FEFF 		bl	_ZN7daisysp3Fm24InitEf
 708              	.LVL27:
  28:voice.cpp     ****     fm_.SetRatio(0.5f);
 709              		.loc 2 28 5 is_stmt 1 view .LVU185
 710              		.loc 2 28 17 is_stmt 0 view .LVU186
 711 00f6 B0EE680A 		vmov.f32	s0, s17
 712 00fa 2046     		mov	r0, r4
  29:voice.cpp     ****     //filter_dist.SetStateBuffer(filter_state_dist, DSY_COUNTOF(filter_state_dist));
  30:voice.cpp     ****     //filter_dist.Init(taps_down, ntaps, false);    
  31:voice.cpp     **** }
 713              		.loc 2 31 1 view .LVU187
 714 00fc BDEC048B 		vldm	sp!, {d8-d9}
 715              		.cfi_restore 82
 716              		.cfi_restore 83
 717              		.cfi_restore 80
 718              		.cfi_restore 81
 719              		.cfi_def_cfa_offset 24
 720              	.LVL28:
 721              		.loc 2 31 1 view .LVU188
 722 0100 BDE8F041 		pop	{r4, r5, r6, r7, r8, lr}
 723              		.cfi_restore 14
 724              		.cfi_restore 8
 725              		.cfi_restore 7
 726              		.cfi_restore 6
 727              		.cfi_restore 5
 728              		.cfi_restore 4
 729              		.cfi_def_cfa_offset 0
 730              	.LVL29:
  28:voice.cpp     ****     fm_.SetRatio(0.5f);
 731              		.loc 2 28 17 view .LVU189
 732 0104 FFF7FEBF 		b	_ZN7daisysp3Fm28SetRatioEf
 733              	.LVL30:
 734              	.L17:
  28:voice.cpp     ****     fm_.SetRatio(0.5f);
ARM GAS  C:\Users\samue\AppData\Local\Temp\ccSMt6Jg.s 			page 26


 735              		.loc 2 28 17 view .LVU190
 736              		.align	2
 737              	.L16:
 738 0108 0000C842 		.word	1120403456
 739 010c 6F12033B 		.word	990057071
 740 0110 B3B0803C 		.word	1015066803
 741 0114 660A7C3F 		.word	1065093734
 742              		.cfi_endproc
 743              	.LFE3677:
 745              		.section	.text._ZN5voice13set_noise_mixEf,"ax",%progbits
 746              		.align	1
 747              		.p2align 2,,3
 748              		.global	_ZN5voice13set_noise_mixEf
 749              		.syntax unified
 750              		.thumb
 751              		.thumb_func
 752              		.fpu fpv5-d16
 754              	_ZN5voice13set_noise_mixEf:
 755              	.LVL31:
 756              	.LFB3681:
  32:voice.cpp     **** 
  33:voice.cpp     **** void voice::set_noise_mix(float mix)
  34:voice.cpp     **** {
 757              		.loc 2 34 1 is_stmt 1 view -0
 758              		.cfi_startproc
 759              		@ args = 0, pretend = 0, frame = 0
 760              		@ frame_needed = 0, uses_anonymous_args = 0
 761              		@ link register save eliminated.
  35:voice.cpp     ****     fmap(mix, -0.05f, 1.05f);
 762              		.loc 2 35 5 view .LVU192
 763              	.LBB337:
 764              	.LBI337:
 765              		.file 7 "../../../../DaisyExamples/DaisySP//Source/Utility/dsp.h"
   1:../../../../DaisyExamples/DaisySP//Source/Utility/dsp.h **** /*
   2:../../../../DaisyExamples/DaisySP//Source/Utility/dsp.h **** Copyright (c) 2020 Electrosmith, Corp, Emilie Gillet
   3:../../../../DaisyExamples/DaisySP//Source/Utility/dsp.h **** 
   4:../../../../DaisyExamples/DaisySP//Source/Utility/dsp.h **** Use of this source code is governed by an MIT-style
   5:../../../../DaisyExamples/DaisySP//Source/Utility/dsp.h **** license that can be found in the LICENSE file or at
   6:../../../../DaisyExamples/DaisySP//Source/Utility/dsp.h **** https://opensource.org/licenses/MIT.
   7:../../../../DaisyExamples/DaisySP//Source/Utility/dsp.h **** */
   8:../../../../DaisyExamples/DaisySP//Source/Utility/dsp.h **** 
   9:../../../../DaisyExamples/DaisySP//Source/Utility/dsp.h **** /** Helpful defines, functions, and other utilities for use in/with daisysp modules.
  10:../../../../DaisyExamples/DaisySP//Source/Utility/dsp.h **** */
  11:../../../../DaisyExamples/DaisySP//Source/Utility/dsp.h **** #pragma once
  12:../../../../DaisyExamples/DaisySP//Source/Utility/dsp.h **** #ifndef DSY_CORE_DSP
  13:../../../../DaisyExamples/DaisySP//Source/Utility/dsp.h **** #define DSY_CORE_DSP
  14:../../../../DaisyExamples/DaisySP//Source/Utility/dsp.h **** #include <cassert>
  15:../../../../DaisyExamples/DaisySP//Source/Utility/dsp.h **** #include <cstdint>
  16:../../../../DaisyExamples/DaisySP//Source/Utility/dsp.h **** #include <random>
  17:../../../../DaisyExamples/DaisySP//Source/Utility/dsp.h **** #include <cmath>
  18:../../../../DaisyExamples/DaisySP//Source/Utility/dsp.h **** 
  19:../../../../DaisyExamples/DaisySP//Source/Utility/dsp.h **** /** PIs
  20:../../../../DaisyExamples/DaisySP//Source/Utility/dsp.h **** */
  21:../../../../DaisyExamples/DaisySP//Source/Utility/dsp.h **** #define PI_F 3.1415927410125732421875f
  22:../../../../DaisyExamples/DaisySP//Source/Utility/dsp.h **** #define TWOPI_F (2.0f * PI_F)
  23:../../../../DaisyExamples/DaisySP//Source/Utility/dsp.h **** #define HALFPI_F (PI_F * 0.5f)
  24:../../../../DaisyExamples/DaisySP//Source/Utility/dsp.h **** #define DSY_MIN(in, mn) (in < mn ? in : mn)
ARM GAS  C:\Users\samue\AppData\Local\Temp\ccSMt6Jg.s 			page 27


  25:../../../../DaisyExamples/DaisySP//Source/Utility/dsp.h **** #define DSY_MAX(in, mx) (in > mx ? in : mx)
  26:../../../../DaisyExamples/DaisySP//Source/Utility/dsp.h **** #define DSY_CLAMP(in, mn, mx) (DSY_MIN(DSY_MAX(in, mn), mx))
  27:../../../../DaisyExamples/DaisySP//Source/Utility/dsp.h **** #define DSY_COUNTOF(_arr) (sizeof(_arr) / sizeof(_arr[0]))
  28:../../../../DaisyExamples/DaisySP//Source/Utility/dsp.h **** 
  29:../../../../DaisyExamples/DaisySP//Source/Utility/dsp.h **** namespace daisysp
  30:../../../../DaisyExamples/DaisySP//Source/Utility/dsp.h **** {
  31:../../../../DaisyExamples/DaisySP//Source/Utility/dsp.h **** //Avoids division for random floats. e.g. rand() * kRandFrac
  32:../../../../DaisyExamples/DaisySP//Source/Utility/dsp.h **** static constexpr float kRandFrac = 1.f / (float)RAND_MAX;
  33:../../../../DaisyExamples/DaisySP//Source/Utility/dsp.h **** 
  34:../../../../DaisyExamples/DaisySP//Source/Utility/dsp.h **** //Convert from semitones to other units. e.g. 2 ^ (kOneTwelfth * x)
  35:../../../../DaisyExamples/DaisySP//Source/Utility/dsp.h **** static constexpr float kOneTwelfth = 1.f / 12.f;
  36:../../../../DaisyExamples/DaisySP//Source/Utility/dsp.h **** 
  37:../../../../DaisyExamples/DaisySP//Source/Utility/dsp.h **** /** efficient floating point min/max
  38:../../../../DaisyExamples/DaisySP//Source/Utility/dsp.h **** c/o stephen mccaul
  39:../../../../DaisyExamples/DaisySP//Source/Utility/dsp.h **** */
  40:../../../../DaisyExamples/DaisySP//Source/Utility/dsp.h **** inline float fmax(float a, float b)
  41:../../../../DaisyExamples/DaisySP//Source/Utility/dsp.h **** {
  42:../../../../DaisyExamples/DaisySP//Source/Utility/dsp.h ****     float r;
  43:../../../../DaisyExamples/DaisySP//Source/Utility/dsp.h **** #ifdef __arm__
  44:../../../../DaisyExamples/DaisySP//Source/Utility/dsp.h ****     asm("vmaxnm.f32 %[d], %[n], %[m]" : [d] "=t"(r) : [n] "t"(a), [m] "t"(b) :);
  45:../../../../DaisyExamples/DaisySP//Source/Utility/dsp.h **** #else
  46:../../../../DaisyExamples/DaisySP//Source/Utility/dsp.h ****     r = (a > b) ? a : b;
  47:../../../../DaisyExamples/DaisySP//Source/Utility/dsp.h **** #endif // __arm__
  48:../../../../DaisyExamples/DaisySP//Source/Utility/dsp.h ****     return r;
  49:../../../../DaisyExamples/DaisySP//Source/Utility/dsp.h **** }
  50:../../../../DaisyExamples/DaisySP//Source/Utility/dsp.h **** 
  51:../../../../DaisyExamples/DaisySP//Source/Utility/dsp.h **** inline float fmin(float a, float b)
  52:../../../../DaisyExamples/DaisySP//Source/Utility/dsp.h **** {
  53:../../../../DaisyExamples/DaisySP//Source/Utility/dsp.h ****     float r;
  54:../../../../DaisyExamples/DaisySP//Source/Utility/dsp.h **** #ifdef __arm__
  55:../../../../DaisyExamples/DaisySP//Source/Utility/dsp.h ****     asm("vminnm.f32 %[d], %[n], %[m]" : [d] "=t"(r) : [n] "t"(a), [m] "t"(b) :);
  56:../../../../DaisyExamples/DaisySP//Source/Utility/dsp.h **** #else
  57:../../../../DaisyExamples/DaisySP//Source/Utility/dsp.h ****     r = (a < b) ? a : b;
  58:../../../../DaisyExamples/DaisySP//Source/Utility/dsp.h **** #endif // __arm__
  59:../../../../DaisyExamples/DaisySP//Source/Utility/dsp.h ****     return r;
  60:../../../../DaisyExamples/DaisySP//Source/Utility/dsp.h **** }
  61:../../../../DaisyExamples/DaisySP//Source/Utility/dsp.h **** 
  62:../../../../DaisyExamples/DaisySP//Source/Utility/dsp.h **** /** quick fp clamp
  63:../../../../DaisyExamples/DaisySP//Source/Utility/dsp.h **** */
  64:../../../../DaisyExamples/DaisySP//Source/Utility/dsp.h **** inline float fclamp(float in, float min, float max)
  65:../../../../DaisyExamples/DaisySP//Source/Utility/dsp.h **** {
  66:../../../../DaisyExamples/DaisySP//Source/Utility/dsp.h ****     return fmin(fmax(in, min), max);
  67:../../../../DaisyExamples/DaisySP//Source/Utility/dsp.h **** }
  68:../../../../DaisyExamples/DaisySP//Source/Utility/dsp.h **** 
  69:../../../../DaisyExamples/DaisySP//Source/Utility/dsp.h **** /** From Musicdsp.org "Fast power and root estimates for 32bit floats)
  70:../../../../DaisyExamples/DaisySP//Source/Utility/dsp.h **** Original code by Stefan Stenzel
  71:../../../../DaisyExamples/DaisySP//Source/Utility/dsp.h **** These are approximations
  72:../../../../DaisyExamples/DaisySP//Source/Utility/dsp.h **** */
  73:../../../../DaisyExamples/DaisySP//Source/Utility/dsp.h **** inline float fastpower(float f, int n)
  74:../../../../DaisyExamples/DaisySP//Source/Utility/dsp.h **** {
  75:../../../../DaisyExamples/DaisySP//Source/Utility/dsp.h ****     long *lp, l;
  76:../../../../DaisyExamples/DaisySP//Source/Utility/dsp.h ****     lp = (long *)(&f);
  77:../../../../DaisyExamples/DaisySP//Source/Utility/dsp.h ****     l  = *lp;
  78:../../../../DaisyExamples/DaisySP//Source/Utility/dsp.h ****     l -= 0x3F800000;
  79:../../../../DaisyExamples/DaisySP//Source/Utility/dsp.h ****     l <<= (n - 1);
  80:../../../../DaisyExamples/DaisySP//Source/Utility/dsp.h ****     l += 0x3F800000;
  81:../../../../DaisyExamples/DaisySP//Source/Utility/dsp.h ****     *lp = l;
ARM GAS  C:\Users\samue\AppData\Local\Temp\ccSMt6Jg.s 			page 28


  82:../../../../DaisyExamples/DaisySP//Source/Utility/dsp.h ****     return f;
  83:../../../../DaisyExamples/DaisySP//Source/Utility/dsp.h **** }
  84:../../../../DaisyExamples/DaisySP//Source/Utility/dsp.h **** 
  85:../../../../DaisyExamples/DaisySP//Source/Utility/dsp.h **** inline float fastroot(float f, int n)
  86:../../../../DaisyExamples/DaisySP//Source/Utility/dsp.h **** {
  87:../../../../DaisyExamples/DaisySP//Source/Utility/dsp.h ****     long *lp, l;
  88:../../../../DaisyExamples/DaisySP//Source/Utility/dsp.h ****     lp = (long *)(&f);
  89:../../../../DaisyExamples/DaisySP//Source/Utility/dsp.h ****     l  = *lp;
  90:../../../../DaisyExamples/DaisySP//Source/Utility/dsp.h ****     l -= 0x3F800000;
  91:../../../../DaisyExamples/DaisySP//Source/Utility/dsp.h ****     l >>= (n - 1);
  92:../../../../DaisyExamples/DaisySP//Source/Utility/dsp.h ****     l += 0x3F800000;
  93:../../../../DaisyExamples/DaisySP//Source/Utility/dsp.h ****     *lp = l;
  94:../../../../DaisyExamples/DaisySP//Source/Utility/dsp.h ****     return f;
  95:../../../../DaisyExamples/DaisySP//Source/Utility/dsp.h **** }
  96:../../../../DaisyExamples/DaisySP//Source/Utility/dsp.h **** 
  97:../../../../DaisyExamples/DaisySP//Source/Utility/dsp.h **** /** Significantly more efficient than fmodf(x, 1.0f) for calculating
  98:../../../../DaisyExamples/DaisySP//Source/Utility/dsp.h ****  *  the decimal part of a floating point value.
  99:../../../../DaisyExamples/DaisySP//Source/Utility/dsp.h ****  */
 100:../../../../DaisyExamples/DaisySP//Source/Utility/dsp.h **** inline float fastmod1f(float x)
 101:../../../../DaisyExamples/DaisySP//Source/Utility/dsp.h **** {
 102:../../../../DaisyExamples/DaisySP//Source/Utility/dsp.h ****     return x - static_cast<int>(x);
 103:../../../../DaisyExamples/DaisySP//Source/Utility/dsp.h **** }
 104:../../../../DaisyExamples/DaisySP//Source/Utility/dsp.h **** 
 105:../../../../DaisyExamples/DaisySP//Source/Utility/dsp.h **** /** From http://openaudio.blogspot.com/2017/02/faster-log10-and-pow.html
 106:../../../../DaisyExamples/DaisySP//Source/Utility/dsp.h **** No approximation, pow10f(x) gives a 90% speed increase over powf(10.f, x)
 107:../../../../DaisyExamples/DaisySP//Source/Utility/dsp.h **** */
 108:../../../../DaisyExamples/DaisySP//Source/Utility/dsp.h **** inline float pow10f(float f)
 109:../../../../DaisyExamples/DaisySP//Source/Utility/dsp.h **** {
 110:../../../../DaisyExamples/DaisySP//Source/Utility/dsp.h ****     return expf(2.302585092994046f * f);
 111:../../../../DaisyExamples/DaisySP//Source/Utility/dsp.h **** }
 112:../../../../DaisyExamples/DaisySP//Source/Utility/dsp.h **** 
 113:../../../../DaisyExamples/DaisySP//Source/Utility/dsp.h **** /* Original code for fastlog2f by Dr. Paul Beckmann from the ARM community forum, adapted from the 
 114:../../../../DaisyExamples/DaisySP//Source/Utility/dsp.h **** About 25% performance increase over std::log10f
 115:../../../../DaisyExamples/DaisySP//Source/Utility/dsp.h **** */
 116:../../../../DaisyExamples/DaisySP//Source/Utility/dsp.h **** inline float fastlog2f(float f)
 117:../../../../DaisyExamples/DaisySP//Source/Utility/dsp.h **** {
 118:../../../../DaisyExamples/DaisySP//Source/Utility/dsp.h ****     float frac;
 119:../../../../DaisyExamples/DaisySP//Source/Utility/dsp.h ****     int   exp;
 120:../../../../DaisyExamples/DaisySP//Source/Utility/dsp.h ****     frac = frexpf(fabsf(f), &exp);
 121:../../../../DaisyExamples/DaisySP//Source/Utility/dsp.h ****     f    = 1.23149591368684f;
 122:../../../../DaisyExamples/DaisySP//Source/Utility/dsp.h ****     f *= frac;
 123:../../../../DaisyExamples/DaisySP//Source/Utility/dsp.h ****     f += -4.11852516267426f;
 124:../../../../DaisyExamples/DaisySP//Source/Utility/dsp.h ****     f *= frac;
 125:../../../../DaisyExamples/DaisySP//Source/Utility/dsp.h ****     f += 6.02197014179219f;
 126:../../../../DaisyExamples/DaisySP//Source/Utility/dsp.h ****     f *= frac;
 127:../../../../DaisyExamples/DaisySP//Source/Utility/dsp.h ****     f += -3.13396450166353f;
 128:../../../../DaisyExamples/DaisySP//Source/Utility/dsp.h ****     f += exp;
 129:../../../../DaisyExamples/DaisySP//Source/Utility/dsp.h ****     return (f);
 130:../../../../DaisyExamples/DaisySP//Source/Utility/dsp.h **** }
 131:../../../../DaisyExamples/DaisySP//Source/Utility/dsp.h **** 
 132:../../../../DaisyExamples/DaisySP//Source/Utility/dsp.h **** inline float fastlog10f(float f)
 133:../../../../DaisyExamples/DaisySP//Source/Utility/dsp.h **** {
 134:../../../../DaisyExamples/DaisySP//Source/Utility/dsp.h ****     return fastlog2f(f) * 0.3010299956639812f;
 135:../../../../DaisyExamples/DaisySP//Source/Utility/dsp.h **** }
 136:../../../../DaisyExamples/DaisySP//Source/Utility/dsp.h **** 
 137:../../../../DaisyExamples/DaisySP//Source/Utility/dsp.h **** /** Midi to frequency helper
 138:../../../../DaisyExamples/DaisySP//Source/Utility/dsp.h **** */
ARM GAS  C:\Users\samue\AppData\Local\Temp\ccSMt6Jg.s 			page 29


 139:../../../../DaisyExamples/DaisySP//Source/Utility/dsp.h **** inline float mtof(float m)
 140:../../../../DaisyExamples/DaisySP//Source/Utility/dsp.h **** {
 141:../../../../DaisyExamples/DaisySP//Source/Utility/dsp.h ****     return powf(2, (m - 69.0f) / 12.0f) * 440.0f;
 142:../../../../DaisyExamples/DaisySP//Source/Utility/dsp.h **** }
 143:../../../../DaisyExamples/DaisySP//Source/Utility/dsp.h **** 
 144:../../../../DaisyExamples/DaisySP//Source/Utility/dsp.h **** 
 145:../../../../DaisyExamples/DaisySP//Source/Utility/dsp.h **** /** one pole lpf
 146:../../../../DaisyExamples/DaisySP//Source/Utility/dsp.h **** out is passed by reference, and must be retained between
 147:../../../../DaisyExamples/DaisySP//Source/Utility/dsp.h **** calls to properly filter the signal
 148:../../../../DaisyExamples/DaisySP//Source/Utility/dsp.h **** coeff can be calculated:
 149:../../../../DaisyExamples/DaisySP//Source/Utility/dsp.h **** coeff = 1.0 / (time * sample_rate) ; where time is in seconds
 150:../../../../DaisyExamples/DaisySP//Source/Utility/dsp.h **** */
 151:../../../../DaisyExamples/DaisySP//Source/Utility/dsp.h **** inline void fonepole(float &out, float in, float coeff)
 152:../../../../DaisyExamples/DaisySP//Source/Utility/dsp.h **** {
 153:../../../../DaisyExamples/DaisySP//Source/Utility/dsp.h ****     out += coeff * (in - out);
 154:../../../../DaisyExamples/DaisySP//Source/Utility/dsp.h **** }
 155:../../../../DaisyExamples/DaisySP//Source/Utility/dsp.h **** 
 156:../../../../DaisyExamples/DaisySP//Source/Utility/dsp.h **** /** Curves to use with the fmap function */
 157:../../../../DaisyExamples/DaisySP//Source/Utility/dsp.h **** enum class Mapping
 158:../../../../DaisyExamples/DaisySP//Source/Utility/dsp.h **** {
 159:../../../../DaisyExamples/DaisySP//Source/Utility/dsp.h ****     LINEAR,
 160:../../../../DaisyExamples/DaisySP//Source/Utility/dsp.h ****     EXP,
 161:../../../../DaisyExamples/DaisySP//Source/Utility/dsp.h ****     LOG,
 162:../../../../DaisyExamples/DaisySP//Source/Utility/dsp.h **** };
 163:../../../../DaisyExamples/DaisySP//Source/Utility/dsp.h **** 
 164:../../../../DaisyExamples/DaisySP//Source/Utility/dsp.h **** /** Maps a float between a specified range, using a specified curve.
 165:../../../../DaisyExamples/DaisySP//Source/Utility/dsp.h ****  *
 166:../../../../DaisyExamples/DaisySP//Source/Utility/dsp.h ****  *  \param in a value between 0 to 1 that will be mapped to the new range.
 167:../../../../DaisyExamples/DaisySP//Source/Utility/dsp.h ****  *  \param min the new minimum value
 168:../../../../DaisyExamples/DaisySP//Source/Utility/dsp.h ****  *  \param max the new maxmimum value
 169:../../../../DaisyExamples/DaisySP//Source/Utility/dsp.h ****  *  \param curve a Mapping Value to adjust the response curve of the transformation
 170:../../../../DaisyExamples/DaisySP//Source/Utility/dsp.h ****  *               defaults to Linear. @see Mapping
 171:../../../../DaisyExamples/DaisySP//Source/Utility/dsp.h ****  *
 172:../../../../DaisyExamples/DaisySP//Source/Utility/dsp.h ****  *  When using the log curve min and max, must be greater than zero.
 173:../../../../DaisyExamples/DaisySP//Source/Utility/dsp.h ****  *
 174:../../../../DaisyExamples/DaisySP//Source/Utility/dsp.h ****  *  \retval returns the transformed float within the new range.
 175:../../../../DaisyExamples/DaisySP//Source/Utility/dsp.h **** */
 176:../../../../DaisyExamples/DaisySP//Source/Utility/dsp.h **** inline float
 177:../../../../DaisyExamples/DaisySP//Source/Utility/dsp.h **** fmap(float in, float min, float max, Mapping curve = Mapping::LINEAR)
 766              		.loc 7 177 1 view .LVU193
 767              	.LBE337:
 178:../../../../DaisyExamples/DaisySP//Source/Utility/dsp.h **** {
 179:../../../../DaisyExamples/DaisySP//Source/Utility/dsp.h ****     switch(curve)
 768              		.loc 7 179 5 view .LVU194
 769              	.LBB346:
 770              	.LBB338:
 180:../../../../DaisyExamples/DaisySP//Source/Utility/dsp.h ****     {
 181:../../../../DaisyExamples/DaisySP//Source/Utility/dsp.h ****         case Mapping::EXP:
 182:../../../../DaisyExamples/DaisySP//Source/Utility/dsp.h ****             return fclamp(min + (in * in) * (max - min), min, max);
 183:../../../../DaisyExamples/DaisySP//Source/Utility/dsp.h ****         case Mapping::LOG:
 184:../../../../DaisyExamples/DaisySP//Source/Utility/dsp.h ****         {
 185:../../../../DaisyExamples/DaisySP//Source/Utility/dsp.h ****             const float a = 1.f / log10f(max / min);
 186:../../../../DaisyExamples/DaisySP//Source/Utility/dsp.h ****             return fclamp(min * powf(10, in / a), min, max);
 187:../../../../DaisyExamples/DaisySP//Source/Utility/dsp.h ****         }
 188:../../../../DaisyExamples/DaisySP//Source/Utility/dsp.h ****         case Mapping::LINEAR:
 771              		.loc 7 188 9 view .LVU195
 189:../../../../DaisyExamples/DaisySP//Source/Utility/dsp.h ****         default: return fclamp(min + in * (max - min), min, max);
ARM GAS  C:\Users\samue\AppData\Local\Temp\ccSMt6Jg.s 			page 30


 772              		.loc 7 189 9 view .LVU196
 773              		.loc 7 189 18 view .LVU197
 774              	.LBB339:
 775              	.LBI339:
  64:../../../../DaisyExamples/DaisySP//Source/Utility/dsp.h **** {
 776              		.loc 7 64 14 view .LVU198
 777              	.LBE339:
 778              	.LBE338:
 779              	.LBE346:
  66:../../../../DaisyExamples/DaisySP//Source/Utility/dsp.h **** }
 780              		.loc 7 66 5 view .LVU199
 781              	.LBB347:
 782              	.LBB345:
 783              	.LBB344:
 784              	.LBB340:
 785              	.LBI340:
  40:../../../../DaisyExamples/DaisySP//Source/Utility/dsp.h **** {
 786              		.loc 7 40 14 view .LVU200
 787              	.LBB341:
  42:../../../../DaisyExamples/DaisySP//Source/Utility/dsp.h **** #ifdef __arm__
 788              		.loc 7 42 5 view .LVU201
  44:../../../../DaisyExamples/DaisySP//Source/Utility/dsp.h **** #else
 789              		.loc 7 44 5 view .LVU202
  48:../../../../DaisyExamples/DaisySP//Source/Utility/dsp.h **** }
 790              		.loc 7 48 5 view .LVU203
  48:../../../../DaisyExamples/DaisySP//Source/Utility/dsp.h **** }
 791              		.loc 7 48 5 is_stmt 0 view .LVU204
 792              	.LBE341:
 793              	.LBE340:
 794              	.LBB342:
 795              	.LBI342:
  51:../../../../DaisyExamples/DaisySP//Source/Utility/dsp.h **** {
 796              		.loc 7 51 14 is_stmt 1 view .LVU205
 797              	.LBB343:
  53:../../../../DaisyExamples/DaisySP//Source/Utility/dsp.h **** #ifdef __arm__
 798              		.loc 7 53 5 view .LVU206
  55:../../../../DaisyExamples/DaisySP//Source/Utility/dsp.h **** #else
 799              		.loc 7 55 5 view .LVU207
  59:../../../../DaisyExamples/DaisySP//Source/Utility/dsp.h **** }
 800              		.loc 7 59 5 view .LVU208
  59:../../../../DaisyExamples/DaisySP//Source/Utility/dsp.h **** }
 801              		.loc 7 59 5 is_stmt 0 view .LVU209
 802              	.LBE343:
 803              	.LBE342:
 804              	.LBE344:
 805              	.LBE345:
 806              	.LBE347:
  36:voice.cpp     ****     if(mix < 0.0f) mix = 0.0f;
 807              		.loc 2 36 5 is_stmt 1 view .LVU210
 808 0000 B5EEC00A 		vcmpe.f32	s0, #0
 809 0004 F1EE10FA 		vmrs	APSR_nzcv, FPSCR
 810 0008 0AD4     		bmi	.L21
  37:voice.cpp     ****     else if (mix > 1.0f) mix = 1.0f;
 811              		.loc 2 37 10 view .LVU211
 812 000a F7EE007A 		vmov.f32	s15, #1.0e+0
 813              		.loc 2 37 30 is_stmt 0 view .LVU212
 814 000e B4EE670A 		vcmp.f32	s0, s15
ARM GAS  C:\Users\samue\AppData\Local\Temp\ccSMt6Jg.s 			page 31


 815 0012 F1EE10FA 		vmrs	APSR_nzcv, FPSCR
 816 0016 37FE800A 		vselgt.f32	s0, s15, s0
 817              	.LVL32:
  38:voice.cpp     ****     
  39:voice.cpp     ****     noise_mix_ = mix;
 818              		.loc 2 39 5 is_stmt 1 view .LVU213
 819              		.loc 2 39 16 is_stmt 0 view .LVU214
 820 001a 80ED500A 		vstr.32	s0, [r0, #320]
  40:voice.cpp     **** }
 821              		.loc 2 40 1 view .LVU215
 822 001e 7047     		bx	lr
 823              	.L21:
  36:voice.cpp     ****     else if (mix > 1.0f) mix = 1.0f;
 824              		.loc 2 36 24 view .LVU216
 825 0020 9FED020A 		vldr.32	s0, .L23
 826              	.LVL33:
  39:voice.cpp     **** }
 827              		.loc 2 39 5 is_stmt 1 view .LVU217
  39:voice.cpp     **** }
 828              		.loc 2 39 16 is_stmt 0 view .LVU218
 829 0024 80ED500A 		vstr.32	s0, [r0, #320]
 830              		.loc 2 40 1 view .LVU219
 831 0028 7047     		bx	lr
 832              	.L24:
 833 002a 00BF     		.align	2
 834              	.L23:
 835 002c 00000000 		.word	0
 836              		.cfi_endproc
 837              	.LFE3681:
 839              		.section	.text._ZN5voice8set_freqEf,"ax",%progbits
 840              		.align	1
 841              		.p2align 2,,3
 842              		.global	_ZN5voice8set_freqEf
 843              		.syntax unified
 844              		.thumb
 845              		.thumb_func
 846              		.fpu fpv5-d16
 848              	_ZN5voice8set_freqEf:
 849              	.LVL34:
 850              	.LFB3682:
  41:voice.cpp     **** 
  42:voice.cpp     **** void voice::set_freq(float freq)
  43:voice.cpp     **** {
 851              		.loc 2 43 1 is_stmt 1 view -0
 852              		.cfi_startproc
 853              		@ args = 0, pretend = 0, frame = 0
 854              		@ frame_needed = 0, uses_anonymous_args = 0
  44:voice.cpp     ****     freq = mtof(freq*120);
 855              		.loc 2 44 5 view .LVU221
  43:voice.cpp     ****     freq = mtof(freq*120);
 856              		.loc 2 43 1 is_stmt 0 view .LVU222
 857 0000 F0EE406A 		vmov.f32	s13, s0
 858              	.LVL35:
 859              	.LBB350:
 860              	.LBI350:
 139:../../../../DaisyExamples/DaisySP//Source/Utility/dsp.h **** {
 861              		.loc 7 139 14 is_stmt 1 view .LVU223
ARM GAS  C:\Users\samue\AppData\Local\Temp\ccSMt6Jg.s 			page 32


 862              	.LBB351:
 141:../../../../DaisyExamples/DaisySP//Source/Utility/dsp.h **** }
 863              		.loc 7 141 5 view .LVU224
 141:../../../../DaisyExamples/DaisySP//Source/Utility/dsp.h **** }
 864              		.loc 7 141 23 is_stmt 0 view .LVU225
 865 0004 9FED0B7A 		vldr.32	s14, .L27
 866 0008 DFED0B7A 		vldr.32	s15, .L27+4
 141:../../../../DaisyExamples/DaisySP//Source/Utility/dsp.h **** }
 867              		.loc 7 141 16 view .LVU226
 868 000c F2EE080A 		vmov.f32	s1, #1.2e+1
 869 0010 B0EE000A 		vmov.f32	s0, #2.0e+0
 870              	.LVL36:
 141:../../../../DaisyExamples/DaisySP//Source/Utility/dsp.h **** }
 871              		.loc 7 141 23 view .LVU227
 872 0014 E6EE877A 		vfma.f32	s15, s13, s14
 873              	.LBE351:
 874              	.LBE350:
  43:voice.cpp     ****     freq = mtof(freq*120);
 875              		.loc 2 43 1 view .LVU228
 876 0018 10B5     		push	{r4, lr}
 877              		.cfi_def_cfa_offset 8
 878              		.cfi_offset 4, -8
 879              		.cfi_offset 14, -4
  43:voice.cpp     ****     freq = mtof(freq*120);
 880              		.loc 2 43 1 view .LVU229
 881 001a 0446     		mov	r4, r0
 882              	.LBB354:
 883              	.LBB352:
 141:../../../../DaisyExamples/DaisySP//Source/Utility/dsp.h **** }
 884              		.loc 7 141 16 view .LVU230
 885 001c C7EEA00A 		vdiv.f32	s1, s15, s1
 886 0020 FFF7FEFF 		bl	powf
 887              	.LVL37:
 141:../../../../DaisyExamples/DaisySP//Source/Utility/dsp.h **** }
 888              		.loc 7 141 16 view .LVU231
 889              	.LBE352:
 890              	.LBE354:
  45:voice.cpp     ****     //osc_.SetFreq(freq);
  46:voice.cpp     ****     osc_freq_ = freq;
 891              		.loc 2 46 5 is_stmt 1 view .LVU232
 892              	.LBB355:
 893              	.LBB353:
 141:../../../../DaisyExamples/DaisySP//Source/Utility/dsp.h **** }
 894              		.loc 7 141 43 is_stmt 0 view .LVU233
 895 0024 DFED057A 		vldr.32	s15, .L27+8
 896 0028 20EE270A 		vmul.f32	s0, s0, s15
 897              	.LVL38:
 141:../../../../DaisyExamples/DaisySP//Source/Utility/dsp.h **** }
 898              		.loc 7 141 43 view .LVU234
 899              	.LBE353:
 900              	.LBE355:
 901              		.loc 2 46 15 view .LVU235
 902 002c 84ED4D0A 		vstr.32	s0, [r4, #308]
  47:voice.cpp     **** }
 903              		.loc 2 47 1 view .LVU236
 904 0030 10BD     		pop	{r4, pc}
 905              	.LVL39:
ARM GAS  C:\Users\samue\AppData\Local\Temp\ccSMt6Jg.s 			page 33


 906              	.L28:
 907              		.loc 2 47 1 view .LVU237
 908 0032 00BF     		.align	2
 909              	.L27:
 910 0034 0000F042 		.word	1123024896
 911 0038 00008AC2 		.word	-1031143424
 912 003c 0000DC43 		.word	1138491392
 913              		.cfi_endproc
 914              	.LFE3682:
 916              		.section	.text._ZN5voice14set_wave_shapeEh,"ax",%progbits
 917              		.align	1
 918              		.p2align 2,,3
 919              		.global	_ZN5voice14set_wave_shapeEh
 920              		.syntax unified
 921              		.thumb
 922              		.thumb_func
 923              		.fpu fpv5-d16
 925              	_ZN5voice14set_wave_shapeEh:
 926              	.LVL40:
 927              	.LFB3683:
  48:voice.cpp     **** 
  49:voice.cpp     **** void voice::set_wave_shape(uint8_t shape)
  50:voice.cpp     **** {
 928              		.loc 2 50 1 is_stmt 1 view -0
 929              		.cfi_startproc
 930              		@ args = 0, pretend = 0, frame = 0
 931              		@ frame_needed = 0, uses_anonymous_args = 0
 932              		@ link register save eliminated.
  51:voice.cpp     ****     if(shape == TRI) osc_.SetWaveform(osc_.WAVE_POLYBLEP_TRI);
 933              		.loc 2 51 5 view .LVU239
 934 0000 19B9     		cbnz	r1, .L30
 935              		.loc 2 51 22 discriminator 1 view .LVU240
 936              	.LVL41:
 937              	.LBB356:
 938              	.LBI356:
  79:../../../../DaisyExamples/DaisySP//Source/Synthesis/oscillator.h ****     {
 939              		.loc 3 79 17 discriminator 1 view .LVU241
 940              	.LBB357:
 941              		.loc 3 81 9 discriminator 1 view .LVU242
 942              		.loc 3 81 19 is_stmt 0 discriminator 1 view .LVU243
 943 0002 0523     		movs	r3, #5
 944 0004 80F86C30 		strb	r3, [r0, #108]
  82:../../../../DaisyExamples/DaisySP//Source/Synthesis/oscillator.h ****     }
 945              		.loc 3 82 5 discriminator 1 view .LVU244
 946 0008 7047     		bx	lr
 947              	.LVL42:
 948              	.L30:
 949              		.loc 3 82 5 discriminator 1 view .LVU245
 950              	.LBE357:
 951              	.LBE356:
  52:voice.cpp     ****     else if(shape == SIN) osc_.SetWaveform(osc_.WAVE_SIN);
 952              		.loc 2 52 10 is_stmt 1 view .LVU246
 953 000a 0129     		cmp	r1, #1
 954 000c 05D0     		beq	.L33
  53:voice.cpp     ****     else if(shape == SAW) osc_.SetWaveform(osc_.WAVE_POLYBLEP_SAW);
 955              		.loc 2 53 10 view .LVU247
 956 000e 0229     		cmp	r1, #2
ARM GAS  C:\Users\samue\AppData\Local\Temp\ccSMt6Jg.s 			page 34


 957 0010 02D1     		bne	.L29
 958              		.loc 2 53 27 discriminator 1 view .LVU248
 959              	.LVL43:
 960              	.LBB358:
 961              	.LBI358:
  79:../../../../DaisyExamples/DaisySP//Source/Synthesis/oscillator.h ****     {
 962              		.loc 3 79 17 discriminator 1 view .LVU249
 963              	.LBB359:
  81:../../../../DaisyExamples/DaisySP//Source/Synthesis/oscillator.h ****     }
 964              		.loc 3 81 9 discriminator 1 view .LVU250
  81:../../../../DaisyExamples/DaisySP//Source/Synthesis/oscillator.h ****     }
 965              		.loc 3 81 19 is_stmt 0 discriminator 1 view .LVU251
 966 0012 0623     		movs	r3, #6
 967 0014 80F86C30 		strb	r3, [r0, #108]
 968              	.LVL44:
 969              	.L29:
  81:../../../../DaisyExamples/DaisySP//Source/Synthesis/oscillator.h ****     }
 970              		.loc 3 81 19 discriminator 1 view .LVU252
 971              	.LBE359:
 972              	.LBE358:
  54:voice.cpp     **** }
 973              		.loc 2 54 1 view .LVU253
 974 0018 7047     		bx	lr
 975              	.L33:
  52:voice.cpp     ****     else if(shape == SAW) osc_.SetWaveform(osc_.WAVE_POLYBLEP_SAW);
 976              		.loc 2 52 27 is_stmt 1 discriminator 1 view .LVU254
 977              	.LVL45:
 978              	.LBB360:
 979              	.LBI360:
  79:../../../../DaisyExamples/DaisySP//Source/Synthesis/oscillator.h ****     {
 980              		.loc 3 79 17 discriminator 1 view .LVU255
 981              	.LBB361:
  81:../../../../DaisyExamples/DaisySP//Source/Synthesis/oscillator.h ****     }
 982              		.loc 3 81 9 discriminator 1 view .LVU256
  81:../../../../DaisyExamples/DaisySP//Source/Synthesis/oscillator.h ****     }
 983              		.loc 3 81 19 is_stmt 0 discriminator 1 view .LVU257
 984 001a 0023     		movs	r3, #0
 985 001c 80F86C30 		strb	r3, [r0, #108]
 986              		.loc 3 82 5 discriminator 1 view .LVU258
 987 0020 7047     		bx	lr
 988              	.LBE361:
 989              	.LBE360:
 990              		.cfi_endproc
 991              	.LFE3683:
 993 0022 00BF     		.section	.text._ZN5voice14set_distortionEf,"ax",%progbits
 994              		.align	1
 995              		.p2align 2,,3
 996              		.global	_ZN5voice14set_distortionEf
 997              		.syntax unified
 998              		.thumb
 999              		.thumb_func
 1000              		.fpu fpv5-d16
 1002              	_ZN5voice14set_distortionEf:
 1003              	.LVL46:
 1004              	.LFB3684:
  55:voice.cpp     **** 
  56:voice.cpp     **** void voice::set_distortion(float gain)
ARM GAS  C:\Users\samue\AppData\Local\Temp\ccSMt6Jg.s 			page 35


  57:voice.cpp     **** {
 1005              		.loc 2 57 1 is_stmt 1 view -0
 1006              		.cfi_startproc
 1007              		@ args = 0, pretend = 0, frame = 0
 1008              		@ frame_needed = 0, uses_anonymous_args = 0
  58:voice.cpp     ****     distortion_gain_ = pow10f(2*gain) - 0.99f;
 1009              		.loc 2 58 5 view .LVU260
 1010              	.LBB364:
 1011              	.LBI364:
 108:../../../../DaisyExamples/DaisySP//Source/Utility/dsp.h **** {
 1012              		.loc 7 108 14 view .LVU261
 1013              	.LBB365:
 110:../../../../DaisyExamples/DaisySP//Source/Utility/dsp.h **** }
 1014              		.loc 7 110 5 view .LVU262
 1015              	.LBE365:
 1016              	.LBE364:
 1017              		.loc 2 58 30 is_stmt 0 view .LVU263
 1018 0000 30EE000A 		vadd.f32	s0, s0, s0
 1019              	.LVL47:
 1020              	.LBB369:
 1021              	.LBB366:
 110:../../../../DaisyExamples/DaisySP//Source/Utility/dsp.h **** }
 1022              		.loc 7 110 16 view .LVU264
 1023 0004 DFED077A 		vldr.32	s15, .L36
 1024              	.LBE366:
 1025              	.LBE369:
  57:voice.cpp     ****     distortion_gain_ = pow10f(2*gain) - 0.99f;
 1026              		.loc 2 57 1 view .LVU265
 1027 0008 10B5     		push	{r4, lr}
 1028              		.cfi_def_cfa_offset 8
 1029              		.cfi_offset 4, -8
 1030              		.cfi_offset 14, -4
 1031              	.LBB370:
 1032              	.LBB367:
 110:../../../../DaisyExamples/DaisySP//Source/Utility/dsp.h **** }
 1033              		.loc 7 110 16 view .LVU266
 1034 000a 20EE270A 		vmul.f32	s0, s0, s15
 1035              	.LVL48:
 110:../../../../DaisyExamples/DaisySP//Source/Utility/dsp.h **** }
 1036              		.loc 7 110 16 view .LVU267
 1037              	.LBE367:
 1038              	.LBE370:
  57:voice.cpp     ****     distortion_gain_ = pow10f(2*gain) - 0.99f;
 1039              		.loc 2 57 1 view .LVU268
 1040 000e 0446     		mov	r4, r0
 1041              	.LBB371:
 1042              	.LBB368:
 110:../../../../DaisyExamples/DaisySP//Source/Utility/dsp.h **** }
 1043              		.loc 7 110 16 view .LVU269
 1044 0010 FFF7FEFF 		bl	expf
 1045              	.LVL49:
 110:../../../../DaisyExamples/DaisySP//Source/Utility/dsp.h **** }
 1046              		.loc 7 110 16 view .LVU270
 1047              	.LBE368:
 1048              	.LBE371:
 1049              		.loc 2 58 39 view .LVU271
 1050 0014 DFED047A 		vldr.32	s15, .L36+4
ARM GAS  C:\Users\samue\AppData\Local\Temp\ccSMt6Jg.s 			page 36


 1051 0018 30EE670A 		vsub.f32	s0, s0, s15
 1052              		.loc 2 58 22 view .LVU272
 1053 001c 84ED4E0A 		vstr.32	s0, [r4, #312]
  59:voice.cpp     **** }
 1054              		.loc 2 59 1 view .LVU273
 1055 0020 10BD     		pop	{r4, pc}
 1056              	.LVL50:
 1057              	.L37:
 1058              		.loc 2 59 1 view .LVU274
 1059 0022 00BF     		.align	2
 1060              	.L36:
 1061 0024 8E5D1340 		.word	1075010958
 1062 0028 A4707D3F 		.word	1065185444
 1063              		.cfi_endproc
 1064              	.LFE3684:
 1066              		.section	.text._ZN5voice8set_foldEf,"ax",%progbits
 1067              		.align	1
 1068              		.p2align 2,,3
 1069              		.global	_ZN5voice8set_foldEf
 1070              		.syntax unified
 1071              		.thumb
 1072              		.thumb_func
 1073              		.fpu fpv5-d16
 1075              	_ZN5voice8set_foldEf:
 1076              	.LVL51:
 1077              	.LFB3685:
  60:voice.cpp     **** 
  61:voice.cpp     **** void voice::set_fold(float gain)
  62:voice.cpp     **** {
 1078              		.loc 2 62 1 is_stmt 1 view -0
 1079              		.cfi_startproc
 1080              		@ args = 0, pretend = 0, frame = 0
 1081              		@ frame_needed = 0, uses_anonymous_args = 0
 1082              		@ link register save eliminated.
  63:voice.cpp     ****     fold_gain_ = fmap(gain, 0.4f, 7.0f);
 1083              		.loc 2 63 5 view .LVU276
 1084              	.LBB372:
 1085              	.LBB373:
 1086              		.loc 7 189 31 is_stmt 0 view .LVU277
 1087 0000 9FED087A 		vldr.32	s14, .L39
 1088              	.LVL52:
 1089              		.loc 7 189 31 view .LVU278
 1090              	.LBE373:
 1091              	.LBI372:
 177:../../../../DaisyExamples/DaisySP//Source/Utility/dsp.h **** {
 1092              		.loc 7 177 1 is_stmt 1 view .LVU279
 1093              	.LBE372:
 179:../../../../DaisyExamples/DaisySP//Source/Utility/dsp.h ****     {
 1094              		.loc 7 179 5 view .LVU280
 1095              	.LBB385:
 1096              	.LBB383:
 188:../../../../DaisyExamples/DaisySP//Source/Utility/dsp.h ****         default: return fclamp(min + in * (max - min), min, max);
 1097              		.loc 7 188 9 view .LVU281
 1098              		.loc 7 189 9 view .LVU282
 1099              		.loc 7 189 18 view .LVU283
 1100              	.LBB374:
 1101              	.LBB375:
ARM GAS  C:\Users\samue\AppData\Local\Temp\ccSMt6Jg.s 			page 37


 1102              	.LBB376:
  55:../../../../DaisyExamples/DaisySP//Source/Utility/dsp.h **** #else
 1103              		.loc 7 55 5 is_stmt 0 view .LVU284
 1104 0004 F1EE0C6A 		vmov.f32	s13, #7.0e+0
 1105              	.LBE376:
 1106              	.LBE375:
 1107              	.LBE374:
 1108              		.loc 7 189 31 view .LVU285
 1109 0008 9FED076A 		vldr.32	s12, .L39+4
 1110 000c F0EE477A 		vmov.f32	s15, s14
 1111 0010 E0EE067A 		vfma.f32	s15, s0, s12
 1112              	.LVL53:
 1113              	.LBB381:
 1114              	.LBI374:
  64:../../../../DaisyExamples/DaisySP//Source/Utility/dsp.h **** {
 1115              		.loc 7 64 14 is_stmt 1 view .LVU286
 1116              	.LBE381:
 1117              	.LBE383:
 1118              	.LBE385:
  66:../../../../DaisyExamples/DaisySP//Source/Utility/dsp.h **** }
 1119              		.loc 7 66 5 view .LVU287
 1120              	.LBB386:
 1121              	.LBB384:
 1122              	.LBB382:
 1123              	.LBB378:
 1124              	.LBI378:
  40:../../../../DaisyExamples/DaisySP//Source/Utility/dsp.h **** {
 1125              		.loc 7 40 14 view .LVU288
 1126              	.LBB379:
  42:../../../../DaisyExamples/DaisySP//Source/Utility/dsp.h **** #ifdef __arm__
 1127              		.loc 7 42 5 view .LVU289
  44:../../../../DaisyExamples/DaisySP//Source/Utility/dsp.h **** #else
 1128              		.loc 7 44 5 view .LVU290
 1129              		.syntax unified
 1130              	@ 44 "../../../../DaisyExamples/DaisySP//Source/Utility/dsp.h" 1
 1131 0014 C7FE877A 		vmaxnm.f32 s15, s15, s14
 1132              	@ 0 "" 2
 1133              	.LVL54:
  48:../../../../DaisyExamples/DaisySP//Source/Utility/dsp.h **** }
 1134              		.loc 7 48 5 view .LVU291
  48:../../../../DaisyExamples/DaisySP//Source/Utility/dsp.h **** }
 1135              		.loc 7 48 5 is_stmt 0 view .LVU292
 1136              		.thumb
 1137              		.syntax unified
 1138              	.LBE379:
 1139              	.LBE378:
 1140              	.LBB380:
 1141              	.LBI375:
  51:../../../../DaisyExamples/DaisySP//Source/Utility/dsp.h **** {
 1142              		.loc 7 51 14 is_stmt 1 view .LVU293
 1143              	.LBB377:
  53:../../../../DaisyExamples/DaisySP//Source/Utility/dsp.h **** #ifdef __arm__
 1144              		.loc 7 53 5 view .LVU294
  55:../../../../DaisyExamples/DaisySP//Source/Utility/dsp.h **** #else
 1145              		.loc 7 55 5 view .LVU295
 1146              		.syntax unified
 1147              	@ 55 "../../../../DaisyExamples/DaisySP//Source/Utility/dsp.h" 1
ARM GAS  C:\Users\samue\AppData\Local\Temp\ccSMt6Jg.s 			page 38


 1148 0018 C7FEE67A 		vminnm.f32 s15, s15, s13
 1149              	@ 0 "" 2
 1150              	.LVL55:
  59:../../../../DaisyExamples/DaisySP//Source/Utility/dsp.h **** }
 1151              		.loc 7 59 5 view .LVU296
  59:../../../../DaisyExamples/DaisySP//Source/Utility/dsp.h **** }
 1152              		.loc 7 59 5 is_stmt 0 view .LVU297
 1153              		.thumb
 1154              		.syntax unified
 1155              	.LBE377:
 1156              	.LBE380:
 1157              	.LBE382:
 1158              	.LBE384:
 1159              	.LBE386:
 1160              		.loc 2 63 16 view .LVU298
 1161 001c C0ED4F7A 		vstr.32	s15, [r0, #316]
  64:voice.cpp     **** }
 1162              		.loc 2 64 1 view .LVU299
 1163 0020 7047     		bx	lr
 1164              	.L40:
 1165 0022 00BF     		.align	2
 1166              	.L39:
 1167 0024 CDCCCC3E 		.word	1053609165
 1168 0028 3333D340 		.word	1087583027
 1169              		.cfi_endproc
 1170              	.LFE3685:
 1172              		.section	.text._ZN5voice16set_effect_valueEf,"ax",%progbits
 1173              		.align	1
 1174              		.p2align 2,,3
 1175              		.global	_ZN5voice16set_effect_valueEf
 1176              		.syntax unified
 1177              		.thumb
 1178              		.thumb_func
 1179              		.fpu fpv5-d16
 1181              	_ZN5voice16set_effect_valueEf:
 1182              	.LVL56:
 1183              	.LFB3686:
  65:voice.cpp     **** 
  66:voice.cpp     **** void voice::set_effect_value(float value)
  67:voice.cpp     **** {
 1184              		.loc 2 67 1 is_stmt 1 view -0
 1185              		.cfi_startproc
 1186              		@ args = 0, pretend = 0, frame = 0
 1187              		@ frame_needed = 0, uses_anonymous_args = 0
  68:voice.cpp     ****     if(effect_ == FOLD) 
 1188              		.loc 2 68 5 view .LVU301
 1189              		.loc 2 68 8 is_stmt 0 view .LVU302
 1190 0000 90F85431 		ldrb	r3, [r0, #340]	@ zero_extendqisi2
 1191              		.loc 2 68 5 view .LVU303
 1192 0004 012B     		cmp	r3, #1
  67:voice.cpp     ****     if(effect_ == FOLD) 
 1193              		.loc 2 67 1 view .LVU304
 1194 0006 10B5     		push	{r4, lr}
 1195              		.cfi_def_cfa_offset 8
 1196              		.cfi_offset 4, -8
 1197              		.cfi_offset 14, -4
  67:voice.cpp     ****     if(effect_ == FOLD) 
ARM GAS  C:\Users\samue\AppData\Local\Temp\ccSMt6Jg.s 			page 39


 1198              		.loc 2 67 1 view .LVU305
 1199 0008 0446     		mov	r4, r0
 1200              		.loc 2 68 5 view .LVU306
 1201 000a 10D0     		beq	.L45
  69:voice.cpp     ****     {
  70:voice.cpp     ****         set_fold(value);
  71:voice.cpp     ****     }
  72:voice.cpp     ****     else if(effect_ == DISTORT)
 1202              		.loc 2 72 10 is_stmt 1 view .LVU307
 1203 000c 03B1     		cbz	r3, .L46
  73:voice.cpp     ****     {
  74:voice.cpp     ****         set_distortion(value);
  75:voice.cpp     ****     } 
  76:voice.cpp     **** }
 1204              		.loc 2 76 1 is_stmt 0 view .LVU308
 1205 000e 10BD     		pop	{r4, pc}
 1206              	.L46:
  74:voice.cpp     ****     } 
 1207              		.loc 2 74 9 is_stmt 1 view .LVU309
 1208              	.LVL57:
 1209              	.LBB400:
 1210              	.LBI400:
  56:voice.cpp     **** {
 1211              		.loc 2 56 6 view .LVU310
 1212              	.LBB401:
  58:voice.cpp     **** }
 1213              		.loc 2 58 5 view .LVU311
 1214              	.LBB402:
 1215              	.LBI402:
 108:../../../../DaisyExamples/DaisySP//Source/Utility/dsp.h **** {
 1216              		.loc 7 108 14 view .LVU312
 1217              	.LBB403:
 110:../../../../DaisyExamples/DaisySP//Source/Utility/dsp.h **** }
 1218              		.loc 7 110 5 view .LVU313
 1219              	.LBE403:
 1220              	.LBE402:
  58:voice.cpp     **** }
 1221              		.loc 2 58 30 is_stmt 0 view .LVU314
 1222 0010 30EE000A 		vadd.f32	s0, s0, s0
 1223              	.LVL58:
 1224              	.LBB405:
 1225              	.LBB404:
 110:../../../../DaisyExamples/DaisySP//Source/Utility/dsp.h **** }
 1226              		.loc 7 110 16 view .LVU315
 1227 0014 DFED0E7A 		vldr.32	s15, .L47
 1228 0018 20EE270A 		vmul.f32	s0, s0, s15
 1229              	.LVL59:
 110:../../../../DaisyExamples/DaisySP//Source/Utility/dsp.h **** }
 1230              		.loc 7 110 16 view .LVU316
 1231 001c FFF7FEFF 		bl	expf
 1232              	.LVL60:
 110:../../../../DaisyExamples/DaisySP//Source/Utility/dsp.h **** }
 1233              		.loc 7 110 16 view .LVU317
 1234              	.LBE404:
 1235              	.LBE405:
  58:voice.cpp     **** }
 1236              		.loc 2 58 39 view .LVU318
ARM GAS  C:\Users\samue\AppData\Local\Temp\ccSMt6Jg.s 			page 40


 1237 0020 DFED0C7A 		vldr.32	s15, .L47+4
 1238 0024 30EE670A 		vsub.f32	s0, s0, s15
  58:voice.cpp     **** }
 1239              		.loc 2 58 22 view .LVU319
 1240 0028 84ED4E0A 		vstr.32	s0, [r4, #312]
 1241              	.LVL61:
  58:voice.cpp     **** }
 1242              		.loc 2 58 22 view .LVU320
 1243              	.LBE401:
 1244              	.LBE400:
 1245              		.loc 2 76 1 view .LVU321
 1246 002c 10BD     		pop	{r4, pc}
 1247              	.LVL62:
 1248              	.L45:
  70:voice.cpp     ****     }
 1249              		.loc 2 70 9 is_stmt 1 view .LVU322
 1250              	.LBB406:
 1251              	.LBI406:
  61:voice.cpp     **** {
 1252              		.loc 2 61 6 view .LVU323
 1253              	.LBB407:
  63:voice.cpp     **** }
 1254              		.loc 2 63 5 view .LVU324
 1255              	.LBB408:
 1256              	.LBI408:
 177:../../../../DaisyExamples/DaisySP//Source/Utility/dsp.h **** {
 1257              		.loc 7 177 1 view .LVU325
 1258              	.LBE408:
 1259              	.LBE407:
 1260              	.LBE406:
 179:../../../../DaisyExamples/DaisySP//Source/Utility/dsp.h ****     {
 1261              		.loc 7 179 5 view .LVU326
 1262              	.LBB424:
 1263              	.LBB422:
 1264              	.LBB420:
 1265              	.LBB409:
 188:../../../../DaisyExamples/DaisySP//Source/Utility/dsp.h ****         default: return fclamp(min + in * (max - min), min, max);
 1266              		.loc 7 188 9 view .LVU327
 1267              		.loc 7 189 9 view .LVU328
 1268              		.loc 7 189 18 view .LVU329
 1269              		.loc 7 189 31 is_stmt 0 view .LVU330
 1270 002e 9FED0A7A 		vldr.32	s14, .L47+8
 1271              	.LBB410:
 1272              	.LBB411:
 1273              	.LBB412:
  55:../../../../DaisyExamples/DaisySP//Source/Utility/dsp.h **** #else
 1274              		.loc 7 55 5 view .LVU331
 1275 0032 F1EE0C6A 		vmov.f32	s13, #7.0e+0
 1276              	.LBE412:
 1277              	.LBE411:
 1278              	.LBE410:
 1279              		.loc 7 189 31 view .LVU332
 1280 0036 9FED096A 		vldr.32	s12, .L47+12
 1281 003a F0EE477A 		vmov.f32	s15, s14
 1282 003e E0EE067A 		vfma.f32	s15, s0, s12
 1283              	.LVL63:
 1284              	.LBB417:
ARM GAS  C:\Users\samue\AppData\Local\Temp\ccSMt6Jg.s 			page 41


 1285              	.LBI410:
  64:../../../../DaisyExamples/DaisySP//Source/Utility/dsp.h **** {
 1286              		.loc 7 64 14 is_stmt 1 view .LVU333
 1287              	.LBE417:
 1288              	.LBE409:
 1289              	.LBE420:
 1290              	.LBE422:
 1291              	.LBE424:
  66:../../../../DaisyExamples/DaisySP//Source/Utility/dsp.h **** }
 1292              		.loc 7 66 5 view .LVU334
 1293              	.LBB425:
 1294              	.LBB423:
 1295              	.LBB421:
 1296              	.LBB419:
 1297              	.LBB418:
 1298              	.LBB414:
 1299              	.LBI414:
  40:../../../../DaisyExamples/DaisySP//Source/Utility/dsp.h **** {
 1300              		.loc 7 40 14 view .LVU335
 1301              	.LBB415:
  42:../../../../DaisyExamples/DaisySP//Source/Utility/dsp.h **** #ifdef __arm__
 1302              		.loc 7 42 5 view .LVU336
  44:../../../../DaisyExamples/DaisySP//Source/Utility/dsp.h **** #else
 1303              		.loc 7 44 5 view .LVU337
 1304              		.syntax unified
 1305              	@ 44 "../../../../DaisyExamples/DaisySP//Source/Utility/dsp.h" 1
 1306 0042 C7FE877A 		vmaxnm.f32 s15, s15, s14
 1307              	@ 0 "" 2
 1308              	.LVL64:
  48:../../../../DaisyExamples/DaisySP//Source/Utility/dsp.h **** }
 1309              		.loc 7 48 5 view .LVU338
  48:../../../../DaisyExamples/DaisySP//Source/Utility/dsp.h **** }
 1310              		.loc 7 48 5 is_stmt 0 view .LVU339
 1311              		.thumb
 1312              		.syntax unified
 1313              	.LBE415:
 1314              	.LBE414:
 1315              	.LBB416:
 1316              	.LBI411:
  51:../../../../DaisyExamples/DaisySP//Source/Utility/dsp.h **** {
 1317              		.loc 7 51 14 is_stmt 1 view .LVU340
 1318              	.LBB413:
  53:../../../../DaisyExamples/DaisySP//Source/Utility/dsp.h **** #ifdef __arm__
 1319              		.loc 7 53 5 view .LVU341
  55:../../../../DaisyExamples/DaisySP//Source/Utility/dsp.h **** #else
 1320              		.loc 7 55 5 view .LVU342
 1321              		.syntax unified
 1322              	@ 55 "../../../../DaisyExamples/DaisySP//Source/Utility/dsp.h" 1
 1323 0046 C7FEE67A 		vminnm.f32 s15, s15, s13
 1324              	@ 0 "" 2
 1325              	.LVL65:
  59:../../../../DaisyExamples/DaisySP//Source/Utility/dsp.h **** }
 1326              		.loc 7 59 5 view .LVU343
  59:../../../../DaisyExamples/DaisySP//Source/Utility/dsp.h **** }
 1327              		.loc 7 59 5 is_stmt 0 view .LVU344
 1328              		.thumb
 1329              		.syntax unified
ARM GAS  C:\Users\samue\AppData\Local\Temp\ccSMt6Jg.s 			page 42


 1330              	.LBE413:
 1331              	.LBE416:
 1332              	.LBE418:
 1333              	.LBE419:
 1334              	.LBE421:
  63:voice.cpp     **** }
 1335              		.loc 2 63 16 view .LVU345
 1336 004a C0ED4F7A 		vstr.32	s15, [r0, #316]
 1337              	.LBE423:
 1338              	.LBE425:
 1339              		.loc 2 76 1 view .LVU346
 1340 004e 10BD     		pop	{r4, pc}
 1341              	.L48:
 1342              		.align	2
 1343              	.L47:
 1344 0050 8E5D1340 		.word	1075010958
 1345 0054 A4707D3F 		.word	1065185444
 1346 0058 CDCCCC3E 		.word	1053609165
 1347 005c 3333D340 		.word	1087583027
 1348              		.cfi_endproc
 1349              	.LFE3686:
 1351              		.section	.text._ZN5voice12process_drumEf,"ax",%progbits
 1352              		.align	1
 1353              		.p2align 2,,3
 1354              		.global	_ZN5voice12process_drumEf
 1355              		.syntax unified
 1356              		.thumb
 1357              		.thumb_func
 1358              		.fpu fpv5-d16
 1360              	_ZN5voice12process_drumEf:
 1361              	.LVL66:
 1362              	.LFB3688:
  77:voice.cpp     **** 
  78:voice.cpp     **** float voice::Process()
  79:voice.cpp     **** {
  80:voice.cpp     ****     float amplitude;
  81:voice.cpp     ****     amplitude = amp_env_.Process();
  82:voice.cpp     **** 
  83:voice.cpp     ****     return process_drum(amplitude) + noise_mix_*process_noise(amplitude);
  84:voice.cpp     **** }
  85:voice.cpp     **** 
  86:voice.cpp     **** float voice::process_drum(float amplitude)
  87:voice.cpp     **** {
 1363              		.loc 2 87 1 is_stmt 1 view -0
 1364              		.cfi_startproc
 1365              		@ args = 0, pretend = 0, frame = 8
 1366              		@ frame_needed = 0, uses_anonymous_args = 0
  88:voice.cpp     ****     float sample[2];
 1367              		.loc 2 88 5 view .LVU348
  89:voice.cpp     ****     osc_.SetFreq(osc_freq_ * freq_env_.Process());
 1368              		.loc 2 89 5 view .LVU349
  87:voice.cpp     ****     float sample[2];
 1369              		.loc 2 87 1 is_stmt 0 view .LVU350
 1370 0000 2DE9F04F 		push	{r4, r5, r6, r7, r8, r9, r10, fp, lr}
 1371              		.cfi_def_cfa_offset 36
 1372              		.cfi_offset 4, -36
 1373              		.cfi_offset 5, -32
ARM GAS  C:\Users\samue\AppData\Local\Temp\ccSMt6Jg.s 			page 43


 1374              		.cfi_offset 6, -28
 1375              		.cfi_offset 7, -24
 1376              		.cfi_offset 8, -20
 1377              		.cfi_offset 9, -16
 1378              		.cfi_offset 10, -12
 1379              		.cfi_offset 11, -8
 1380              		.cfi_offset 14, -4
 1381 0004 0646     		mov	r6, r0
 1382              		.loc 2 89 47 view .LVU351
 1383 0006 D030     		adds	r0, r0, #208
 1384              	.LVL67:
  87:voice.cpp     ****     float sample[2];
 1385              		.loc 2 87 1 view .LVU352
 1386 0008 2DED068B 		vpush.64	{d8, d9, d10}
 1387              		.cfi_def_cfa_offset 60
 1388              		.cfi_offset 80, -60
 1389              		.cfi_offset 81, -56
 1390              		.cfi_offset 82, -52
 1391              		.cfi_offset 83, -48
 1392              		.cfi_offset 84, -44
 1393              		.cfi_offset 85, -40
 1394              		.loc 2 89 18 view .LVU353
 1395 000c 96ED4D8A 		vldr.32	s16, [r6, #308]
  87:voice.cpp     ****     float sample[2];
 1396              		.loc 2 87 1 view .LVU354
 1397 0010 83B0     		sub	sp, sp, #12
 1398              		.cfi_def_cfa_offset 72
  87:voice.cpp     ****     float sample[2];
 1399              		.loc 2 87 1 view .LVU355
 1400 0012 B0EE409A 		vmov.f32	s18, s0
 1401              		.loc 2 89 47 view .LVU356
 1402 0016 FFF7FEFF 		bl	_ZN7daisysp5AdEnv7ProcessEv
 1403              	.LVL68:
 1404              		.loc 2 89 17 view .LVU357
 1405 001a 28EE000A 		vmul.f32	s0, s16, s0
 1406 001e 06F16C00 		add	r0, r6, #108
 1407              	.LVL69:
 1408              	.LBB440:
 1409              	.LBI440:
  67:../../../../DaisyExamples/DaisySP//Source/Synthesis/oscillator.h ****     {
 1410              		.loc 3 67 17 is_stmt 1 view .LVU358
 1411              	.LBB441:
  69:../../../../DaisyExamples/DaisySP//Source/Synthesis/oscillator.h ****         phase_inc_ = CalcPhaseInc(f);
 1412              		.loc 3 69 9 view .LVU359
  70:../../../../DaisyExamples/DaisySP//Source/Synthesis/oscillator.h ****     }
 1413              		.loc 3 70 34 is_stmt 0 view .LVU360
 1414 0022 0090     		str	r0, [sp]
  69:../../../../DaisyExamples/DaisySP//Source/Synthesis/oscillator.h ****         phase_inc_ = CalcPhaseInc(f);
 1415              		.loc 3 69 20 view .LVU361
 1416 0024 86ED1D0A 		vstr.32	s0, [r6, #116]
  70:../../../../DaisyExamples/DaisySP//Source/Synthesis/oscillator.h ****     }
 1417              		.loc 3 70 9 is_stmt 1 view .LVU362
  70:../../../../DaisyExamples/DaisySP//Source/Synthesis/oscillator.h ****     }
 1418              		.loc 3 70 34 is_stmt 0 view .LVU363
 1419 0028 FFF7FEFF 		bl	_ZN7daisysp10Oscillator12CalcPhaseIncEf
 1420              	.LVL70:
  70:../../../../DaisyExamples/DaisySP//Source/Synthesis/oscillator.h ****     }
ARM GAS  C:\Users\samue\AppData\Local\Temp\ccSMt6Jg.s 			page 44


 1421              		.loc 3 70 34 view .LVU364
 1422              	.LBE441:
 1423              	.LBE440:
  90:voice.cpp     ****     //osc_.SetAmp(amplitude*(1-noise_mix_));
  91:voice.cpp     **** 
  92:voice.cpp     ****     sample[0] = osc_.Process();
 1424              		.loc 2 92 29 view .LVU365
 1425 002c 0098     		ldr	r0, [sp]
 1426              	.LBB443:
 1427              	.LBB442:
  70:../../../../DaisyExamples/DaisySP//Source/Synthesis/oscillator.h ****     }
 1428              		.loc 3 70 20 view .LVU366
 1429 002e 86ED220A 		vstr.32	s0, [r6, #136]
 1430              	.LVL71:
  70:../../../../DaisyExamples/DaisySP//Source/Synthesis/oscillator.h ****     }
 1431              		.loc 3 70 20 view .LVU367
 1432              	.LBE442:
 1433              	.LBE443:
 1434              		.loc 2 92 5 is_stmt 1 view .LVU368
 1435              		.loc 2 92 29 is_stmt 0 view .LVU369
 1436 0032 FFF7FEFF 		bl	_ZN7daisysp10Oscillator7ProcessEv
 1437              	.LVL72:
 1438              	.LBB444:
 1439              	.LBB445:
 185:../../../../DaisyExamples/DaisySP//Source/Filters/fir.h ****         /* Feed data into the buffer */
 1440              		.loc 1 185 9 view .LVU370
 1441 0036 D6F86071 		ldr	r7, [r6, #352]
 1442              	.LVL73:
 185:../../../../DaisyExamples/DaisySP//Source/Filters/fir.h ****         /* Feed data into the buffer */
 1443              		.loc 1 185 9 view .LVU371
 1444              	.LBE445:
 1445              	.LBE444:
  93:voice.cpp     ****     sample[0] = filter_up_.Process(sample[0]);
 1446              		.loc 2 93 5 is_stmt 1 view .LVU372
 1447              	.LBB452:
 1448              	.LBI444:
 183:../../../../DaisyExamples/DaisySP//Source/Filters/fir.h ****     {
 1449              		.loc 1 183 11 view .LVU373
 1450              	.LBB448:
 185:../../../../DaisyExamples/DaisySP//Source/Filters/fir.h ****         /* Feed data into the buffer */
 1451              		.loc 1 185 9 is_stmt 0 view .LVU374
 1452 003a 002F     		cmp	r7, #0
 1453 003c 00F00681 		beq	.L56
 187:../../../../DaisyExamples/DaisySP//Source/Filters/fir.h **** 
 1454              		.loc 1 187 15 view .LVU375
 1455 0040 6FF04048 		mvn	r8, #-1073741824
 187:../../../../DaisyExamples/DaisySP//Source/Filters/fir.h **** 
 1456              		.loc 1 187 9 view .LVU376
 1457 0044 D6F85841 		ldr	r4, [r6, #344]
 190:../../../../DaisyExamples/DaisySP//Source/Filters/fir.h ****         for(size_t i = 0; i < size_ - 1; i++)
 1458              		.loc 1 190 15 view .LVU377
 1459 0048 9FED857A 		vldr.32	s14, .L79+16
 187:../../../../DaisyExamples/DaisySP//Source/Filters/fir.h **** 
 1460              		.loc 1 187 15 view .LVU378
 1461 004c B844     		add	r8, r8, r7
 1462              	.LBB446:
 191:../../../../DaisyExamples/DaisySP//Source/Filters/fir.h ****         {
ARM GAS  C:\Users\samue\AppData\Local\Temp\ccSMt6Jg.s 			page 45


 1463              		.loc 1 191 29 view .LVU379
 1464 004e 013F     		subs	r7, r7, #1
 1465              	.LBE446:
 199:../../../../DaisyExamples/DaisySP//Source/Filters/fir.h **** 
 1466              		.loc 1 199 21 view .LVU380
 1467 0050 D6F85C51 		ldr	r5, [r6, #348]
 187:../../../../DaisyExamples/DaisySP//Source/Filters/fir.h **** 
 1468              		.loc 1 187 15 view .LVU381
 1469 0054 4FEA880A 		lsl	r10, r8, #2
 1470 0058 04EB8808 		add	r8, r4, r8, lsl #2
 187:../../../../DaisyExamples/DaisySP//Source/Filters/fir.h **** 
 1471              		.loc 1 187 28 view .LVU382
 1472 005c 88ED000A 		vstr.32	s0, [r8]
 1473              	.LVL74:
 1474              	.LBB447:
 191:../../../../DaisyExamples/DaisySP//Source/Filters/fir.h ****         {
 1475              		.loc 1 191 29 is_stmt 1 view .LVU383
 1476 0060 0FD0     		beq	.L52
 1477 0062 2346     		mov	r3, r4
 1478 0064 211D     		adds	r1, r4, #4
 1479 0066 2A46     		mov	r2, r5
 1480 0068 C446     		mov	ip, r8
 1481              	.LVL75:
 1482              	.L53:
 197:../../../../DaisyExamples/DaisySP//Source/Filters/fir.h ****         }
 1483              		.loc 1 197 31 is_stmt 0 view .LVU384
 1484 006a 51F8040B 		ldr	r0, [r1], #4	@ float
 193:../../../../DaisyExamples/DaisySP//Source/Filters/fir.h ****             /** Shift the state simulatenously 
 1485              		.loc 1 193 26 view .LVU385
 1486 006e D3ED006A 		vldr.32	s13, [r3]
 193:../../../../DaisyExamples/DaisySP//Source/Filters/fir.h ****             /** Shift the state simulatenously 
 1487              		.loc 1 193 38 view .LVU386
 1488 0072 F2EC017A 		vldmia.32	r2!, {s15}
 197:../../../../DaisyExamples/DaisySP//Source/Filters/fir.h ****         }
 1489              		.loc 1 197 23 view .LVU387
 1490 0076 43F8040B 		str	r0, [r3], #4	@ float
 191:../../../../DaisyExamples/DaisySP//Source/Filters/fir.h ****         {
 1491              		.loc 1 191 29 view .LVU388
 1492 007a 9C45     		cmp	ip, r3
 193:../../../../DaisyExamples/DaisySP//Source/Filters/fir.h ****             /** Shift the state simulatenously 
 1493              		.loc 1 193 17 view .LVU389
 1494 007c A6EEA77A 		vfma.f32	s14, s13, s15
 1495              	.LVL76:
 191:../../../../DaisyExamples/DaisySP//Source/Filters/fir.h ****         {
 1496              		.loc 1 191 9 is_stmt 1 view .LVU390
 191:../../../../DaisyExamples/DaisySP//Source/Filters/fir.h ****         {
 1497              		.loc 1 191 29 view .LVU391
 1498 0080 F3D1     		bne	.L53
 1499              	.LVL77:
 1500              	.L52:
 191:../../../../DaisyExamples/DaisySP//Source/Filters/fir.h ****         {
 1501              		.loc 1 191 29 is_stmt 0 view .LVU392
 1502              	.LBE447:
 199:../../../../DaisyExamples/DaisySP//Source/Filters/fir.h **** 
 1503              		.loc 1 199 27 view .LVU393
 1504 0082 AA44     		add	r10, r10, r5
 1505              	.LBE448:
ARM GAS  C:\Users\samue\AppData\Local\Temp\ccSMt6Jg.s 			page 46


 1506              	.LBE452:
  94:voice.cpp     **** 
  95:voice.cpp     ****     if(effect_ == FOLD) sample[0] = (tanhf(sample[0]*fold_gain_) / tanhf(fold_gain_) + 0.8*sinf(2*f
 1507              		.loc 2 95 8 view .LVU394
 1508 0084 96F854B1 		ldrb	fp, [r6, #340]	@ zero_extendqisi2
 1509              	.LBB453:
 1510              	.LBB449:
 199:../../../../DaisyExamples/DaisySP//Source/Filters/fir.h **** 
 1511              		.loc 1 199 13 view .LVU395
 1512 0088 DAED007A 		vldr.32	s15, [r10]
 1513              	.LBE449:
 1514              	.LBE453:
 1515              		.loc 2 95 5 view .LVU396
 1516 008c BBF1010F 		cmp	fp, #1
 1517              	.LBB454:
 1518              	.LBB450:
 199:../../../../DaisyExamples/DaisySP//Source/Filters/fir.h **** 
 1519              		.loc 1 199 13 view .LVU397
 1520 0090 A0EE277A 		vfma.f32	s14, s0, s15
 1521 0094 B0EE478A 		vmov.f32	s16, s14
 1522              	.LVL78:
 199:../../../../DaisyExamples/DaisySP//Source/Filters/fir.h **** 
 1523              		.loc 1 199 13 view .LVU398
 1524              	.LBE450:
 1525              	.LBE454:
 1526              		.loc 2 95 5 is_stmt 1 view .LVU399
 1527 0098 00F0B380 		beq	.L75
  96:voice.cpp     ****     else if(effect_ == DISTORT) sample[0] = tanhf(sample[0]*distortion_gain_) / tanhf(distortion_ga
 1528              		.loc 2 96 10 view .LVU400
 1529 009c BBF1000F 		cmp	fp, #0
 1530 00a0 7BD0     		beq	.L76
 1531              	.LVL79:
 1532              	.L55:
  97:voice.cpp     ****     else sample[0] = sample[0];
  98:voice.cpp     **** 
  99:voice.cpp     ****     sample[0] = filter_down_.Process(sample[0]);
 1533              		.loc 2 99 5 view .LVU401
 1534              	.LBB455:
 1535              	.LBI455:
 183:../../../../DaisyExamples/DaisySP//Source/Filters/fir.h ****     {
 1536              		.loc 1 183 11 view .LVU402
 1537              	.LBB456:
 185:../../../../DaisyExamples/DaisySP//Source/Filters/fir.h ****         /* Feed data into the buffer */
 1538              		.loc 1 185 9 is_stmt 0 view .LVU403
 1539 00a2 D6F87021 		ldr	r2, [r6, #368]
 1540 00a6 002A     		cmp	r2, #0
 1541 00a8 00F0D080 		beq	.L56
 187:../../../../DaisyExamples/DaisySP//Source/Filters/fir.h **** 
 1542              		.loc 1 187 15 view .LVU404
 1543 00ac 6FF0404E 		mvn	lr, #-1073741824
 187:../../../../DaisyExamples/DaisySP//Source/Filters/fir.h **** 
 1544              		.loc 1 187 9 view .LVU405
 1545 00b0 D6F86891 		ldr	r9, [r6, #360]
 190:../../../../DaisyExamples/DaisySP//Source/Filters/fir.h ****         for(size_t i = 0; i < size_ - 1; i++)
 1546              		.loc 1 190 15 view .LVU406
 1547 00b4 DFED6A7A 		vldr.32	s15, .L79+16
 187:../../../../DaisyExamples/DaisySP//Source/Filters/fir.h **** 
ARM GAS  C:\Users\samue\AppData\Local\Temp\ccSMt6Jg.s 			page 47


 1548              		.loc 1 187 15 view .LVU407
 1549 00b8 9644     		add	lr, lr, r2
 199:../../../../DaisyExamples/DaisySP//Source/Filters/fir.h **** 
 1550              		.loc 1 199 21 view .LVU408
 1551 00ba D6F86C01 		ldr	r0, [r6, #364]
 187:../../../../DaisyExamples/DaisySP//Source/Filters/fir.h **** 
 1552              		.loc 1 187 15 view .LVU409
 1553 00be 09EB8E03 		add	r3, r9, lr, lsl #2
 1554 00c2 4FEA8E0E 		lsl	lr, lr, #2
 1555 00c6 0193     		str	r3, [sp, #4]
 187:../../../../DaisyExamples/DaisySP//Source/Filters/fir.h **** 
 1556              		.loc 1 187 28 view .LVU410
 1557 00c8 83ED008A 		vstr.32	s16, [r3]
 1558              	.LVL80:
 1559              	.LBB457:
 191:../../../../DaisyExamples/DaisySP//Source/Filters/fir.h ****         {
 1560              		.loc 1 191 29 is_stmt 1 view .LVU411
 1561 00cc 531E     		subs	r3, r2, #1
 1562 00ce 0093     		str	r3, [sp]
 1563 00d0 11D0     		beq	.L58
 1564 00d2 4B46     		mov	r3, r9
 1565 00d4 09F10401 		add	r1, r9, #4
 1566 00d8 0246     		mov	r2, r0
 1567 00da 09EB0E0C 		add	ip, r9, lr
 1568              	.LVL81:
 1569              	.L59:
 193:../../../../DaisyExamples/DaisySP//Source/Filters/fir.h ****             /** Shift the state simulatenously 
 1570              		.loc 1 193 38 is_stmt 0 view .LVU412
 1571 00de B2EC017A 		vldmia.32	r2!, {s14}
 193:../../../../DaisyExamples/DaisySP//Source/Filters/fir.h ****             /** Shift the state simulatenously 
 1572              		.loc 1 193 26 view .LVU413
 1573 00e2 D3ED006A 		vldr.32	s13, [r3]
 193:../../../../DaisyExamples/DaisySP//Source/Filters/fir.h ****             /** Shift the state simulatenously 
 1574              		.loc 1 193 17 view .LVU414
 1575 00e6 E6EE877A 		vfma.f32	s15, s13, s14
 1576              	.LVL82:
 197:../../../../DaisyExamples/DaisySP//Source/Filters/fir.h ****         }
 1577              		.loc 1 197 31 view .LVU415
 1578 00ea B1EC017A 		vldmia.32	r1!, {s14}
 197:../../../../DaisyExamples/DaisySP//Source/Filters/fir.h ****         }
 1579              		.loc 1 197 23 view .LVU416
 1580 00ee A3EC017A 		vstmia.32	r3!, {s14}
 191:../../../../DaisyExamples/DaisySP//Source/Filters/fir.h ****         {
 1581              		.loc 1 191 9 is_stmt 1 view .LVU417
 191:../../../../DaisyExamples/DaisySP//Source/Filters/fir.h ****         {
 1582              		.loc 1 191 29 view .LVU418
 1583 00f2 9C45     		cmp	ip, r3
 1584 00f4 F3D1     		bne	.L59
 1585              	.LVL83:
 1586              	.L58:
 191:../../../../DaisyExamples/DaisySP//Source/Filters/fir.h ****         {
 1587              		.loc 1 191 29 is_stmt 0 view .LVU419
 1588              	.LBE457:
 199:../../../../DaisyExamples/DaisySP//Source/Filters/fir.h **** 
 1589              		.loc 1 199 27 view .LVU420
 1590 00f6 8644     		add	lr, lr, r0
 1591              	.LBE456:
ARM GAS  C:\Users\samue\AppData\Local\Temp\ccSMt6Jg.s 			page 48


 1592              	.LBE455:
 1593              	.LBB460:
 1594              	.LBB461:
 187:../../../../DaisyExamples/DaisySP//Source/Filters/fir.h **** 
 1595              		.loc 1 187 28 view .LVU421
 1596 00f8 9FED597A 		vldr.32	s14, .L79+16
 1597              	.LBE461:
 1598              	.LBE460:
 1599              	.LBB466:
 1600              	.LBB458:
 199:../../../../DaisyExamples/DaisySP//Source/Filters/fir.h **** 
 1601              		.loc 1 199 13 view .LVU422
 1602 00fc DEED006A 		vldr.32	s13, [lr]
 1603              	.LBE458:
 1604              	.LBE466:
 1605              	.LBB467:
 1606              	.LBB463:
 187:../../../../DaisyExamples/DaisySP//Source/Filters/fir.h **** 
 1607              		.loc 1 187 28 view .LVU423
 1608 0100 88ED007A 		vstr.32	s14, [r8]
 1609              	.LBE463:
 1610              	.LBE467:
 1611              	.LBB468:
 1612              	.LBB459:
 199:../../../../DaisyExamples/DaisySP//Source/Filters/fir.h **** 
 1613              		.loc 1 199 13 view .LVU424
 1614 0104 E8EE267A 		vfma.f32	s15, s16, s13
 1615 0108 F0EE678A 		vmov.f32	s17, s15
 1616              	.LVL84:
 199:../../../../DaisyExamples/DaisySP//Source/Filters/fir.h **** 
 1617              		.loc 1 199 13 view .LVU425
 1618              	.LBE459:
 1619              	.LBE468:
 100:voice.cpp     **** 
 101:voice.cpp     **** 
 102:voice.cpp     ****     sample[1] = 0.0f;
 1620              		.loc 2 102 5 is_stmt 1 view .LVU426
 103:voice.cpp     ****     sample[1] = filter_up_.Process(sample[1]);
 1621              		.loc 2 103 5 view .LVU427
 1622              	.LBB469:
 1623              	.LBI460:
 183:../../../../DaisyExamples/DaisySP//Source/Filters/fir.h ****     {
 1624              		.loc 1 183 11 view .LVU428
 1625              	.LBB464:
 1626              	.LBB462:
 191:../../../../DaisyExamples/DaisySP//Source/Filters/fir.h ****         {
 1627              		.loc 1 191 29 view .LVU429
 1628 010c 77B1     		cbz	r7, .L60
 1629 010e 04EB8707 		add	r7, r4, r7, lsl #2
 1630 0112 231D     		adds	r3, r4, #4
 1631              	.LVL85:
 1632              	.L61:
 197:../../../../DaisyExamples/DaisySP//Source/Filters/fir.h ****         }
 1633              		.loc 1 197 31 is_stmt 0 view .LVU430
 1634 0114 53F8042B 		ldr	r2, [r3], #4	@ float
 193:../../../../DaisyExamples/DaisySP//Source/Filters/fir.h ****             /** Shift the state simulatenously 
 1635              		.loc 1 193 26 view .LVU431
ARM GAS  C:\Users\samue\AppData\Local\Temp\ccSMt6Jg.s 			page 49


 1636 0118 D4ED006A 		vldr.32	s13, [r4]
 193:../../../../DaisyExamples/DaisySP//Source/Filters/fir.h ****             /** Shift the state simulatenously 
 1637              		.loc 1 193 38 view .LVU432
 1638 011c F5EC017A 		vldmia.32	r5!, {s15}
 197:../../../../DaisyExamples/DaisySP//Source/Filters/fir.h ****         }
 1639              		.loc 1 197 23 view .LVU433
 1640 0120 44F8042B 		str	r2, [r4], #4	@ float
 191:../../../../DaisyExamples/DaisySP//Source/Filters/fir.h ****         {
 1641              		.loc 1 191 29 view .LVU434
 1642 0124 BC42     		cmp	r4, r7
 193:../../../../DaisyExamples/DaisySP//Source/Filters/fir.h ****             /** Shift the state simulatenously 
 1643              		.loc 1 193 17 view .LVU435
 1644 0126 A6EEA77A 		vfma.f32	s14, s13, s15
 1645              	.LVL86:
 191:../../../../DaisyExamples/DaisySP//Source/Filters/fir.h ****         {
 1646              		.loc 1 191 9 is_stmt 1 view .LVU436
 191:../../../../DaisyExamples/DaisySP//Source/Filters/fir.h ****         {
 1647              		.loc 1 191 29 view .LVU437
 1648 012a F3D1     		bne	.L61
 1649              	.LVL87:
 1650              	.L60:
 191:../../../../DaisyExamples/DaisySP//Source/Filters/fir.h ****         {
 1651              		.loc 1 191 29 is_stmt 0 view .LVU438
 1652              	.LBE462:
 199:../../../../DaisyExamples/DaisySP//Source/Filters/fir.h **** 
 1653              		.loc 1 199 13 view .LVU439
 1654 012c DAED006A 		vldr.32	s13, [r10]
 1655              	.LBE464:
 1656              	.LBE469:
 104:voice.cpp     **** 
 105:voice.cpp     ****     if(effect_ == FOLD) sample[1] = (tanhf(sample[1]*fold_gain_) / tanhf(fold_gain_) + 0.8*sinf(2*f
 1657              		.loc 2 105 5 view .LVU440
 1658 0130 BBF1010F 		cmp	fp, #1
 1659              	.LBB470:
 1660              	.LBB465:
 199:../../../../DaisyExamples/DaisySP//Source/Filters/fir.h **** 
 1661              		.loc 1 199 13 view .LVU441
 1662 0134 DFED4A7A 		vldr.32	s15, .L79+16
 1663 0138 A6EEA77A 		vfma.f32	s14, s13, s15
 1664 013c B0EE478A 		vmov.f32	s16, s14
 1665              	.LVL88:
 199:../../../../DaisyExamples/DaisySP//Source/Filters/fir.h **** 
 1666              		.loc 1 199 13 view .LVU442
 1667              	.LBE465:
 1668              	.LBE470:
 1669              		.loc 2 105 5 is_stmt 1 view .LVU443
 1670 0140 3AD0     		beq	.L77
 106:voice.cpp     ****     else if(effect_ == DISTORT) sample[1] = tanhf(sample[1]*distortion_gain_) / tanhf(distortion_ga
 1671              		.loc 2 106 10 view .LVU444
 1672 0142 BBF1000F 		cmp	fp, #0
 1673 0146 19D0     		beq	.L78
 1674              	.LVL89:
 1675              	.L63:
 107:voice.cpp     ****     else sample[1] = sample[1];
 108:voice.cpp     **** 
 109:voice.cpp     ****     sample[1] = filter_down_.Process(sample[1]);
 1676              		.loc 2 109 5 view .LVU445
ARM GAS  C:\Users\samue\AppData\Local\Temp\ccSMt6Jg.s 			page 50


 1677              	.LBB471:
 1678              	.LBI471:
 183:../../../../DaisyExamples/DaisySP//Source/Filters/fir.h ****     {
 1679              		.loc 1 183 11 view .LVU446
 1680              	.LBB472:
 187:../../../../DaisyExamples/DaisySP//Source/Filters/fir.h **** 
 1681              		.loc 1 187 28 is_stmt 0 view .LVU447
 1682 0148 019B     		ldr	r3, [sp, #4]
 1683 014a 83ED008A 		vstr.32	s16, [r3]
 1684              	.LVL90:
 1685              	.LBB473:
 191:../../../../DaisyExamples/DaisySP//Source/Filters/fir.h ****         {
 1686              		.loc 1 191 29 is_stmt 1 view .LVU448
 1687 014e 009B     		ldr	r3, [sp]
 1688 0150 2BB1     		cbz	r3, .L65
 197:../../../../DaisyExamples/DaisySP//Source/Filters/fir.h ****         }
 1689              		.loc 1 197 23 is_stmt 0 view .LVU449
 1690 0152 9A00     		lsls	r2, r3, #2
 1691 0154 09F10401 		add	r1, r9, #4
 1692 0158 4846     		mov	r0, r9
 1693 015a FFF7FEFF 		bl	memmove
 1694              	.LVL91:
 1695              	.L65:
 197:../../../../DaisyExamples/DaisySP//Source/Filters/fir.h ****         }
 1696              		.loc 1 197 23 view .LVU450
 1697              	.LBE473:
 1698              	.LBE472:
 1699              	.LBE471:
 110:voice.cpp     ****     
 111:voice.cpp     ****     return sample[0]*amplitude*(1-noise_mix_);
 1700              		.loc 2 111 5 is_stmt 1 view .LVU451
 1701              		.loc 2 111 34 is_stmt 0 view .LVU452
 1702 015e B7EE000A 		vmov.f32	s0, #1.0e+0
 1703 0162 96ED507A 		vldr.32	s14, [r6, #320]
 1704              		.loc 2 111 21 view .LVU453
 1705 0166 69EE287A 		vmul.f32	s15, s18, s17
 1706              		.loc 2 111 34 view .LVU454
 1707 016a 30EE470A 		vsub.f32	s0, s0, s14
 1708              		.loc 2 111 45 view .LVU455
 1709 016e 20EE270A 		vmul.f32	s0, s0, s15
 112:voice.cpp     **** }
 1710              		.loc 2 112 1 view .LVU456
 1711 0172 03B0     		add	sp, sp, #12
 1712              		.cfi_remember_state
 1713              		.cfi_def_cfa_offset 60
 1714              		@ sp needed
 1715 0174 BDEC068B 		vldm	sp!, {d8-d10}
 1716              		.cfi_restore 84
 1717              		.cfi_restore 85
 1718              		.cfi_restore 82
 1719              		.cfi_restore 83
 1720              		.cfi_restore 80
 1721              		.cfi_restore 81
 1722              		.cfi_def_cfa_offset 36
 1723              	.LVL92:
 1724              		.loc 2 112 1 view .LVU457
 1725 0178 BDE8F08F 		pop	{r4, r5, r6, r7, r8, r9, r10, fp, pc}
ARM GAS  C:\Users\samue\AppData\Local\Temp\ccSMt6Jg.s 			page 51


 1726              	.LVL93:
 1727              	.L78:
 1728              		.cfi_restore_state
 106:voice.cpp     ****     else sample[1] = sample[1];
 1729              		.loc 2 106 33 is_stmt 1 discriminator 1 view .LVU458
 106:voice.cpp     ****     else sample[1] = sample[1];
 1730              		.loc 2 106 61 is_stmt 0 discriminator 1 view .LVU459
 1731 017c 96ED4EAA 		vldr.32	s20, [r6, #312]
 106:voice.cpp     ****     else sample[1] = sample[1];
 1732              		.loc 2 106 50 discriminator 1 view .LVU460
 1733 0180 2AEE070A 		vmul.f32	s0, s20, s14
 1734 0184 FFF7FEFF 		bl	tanhf
 1735              	.LVL94:
 106:voice.cpp     ****     else sample[1] = sample[1];
 1736              		.loc 2 106 50 discriminator 1 view .LVU461
 1737 0188 F0EE409A 		vmov.f32	s19, s0
 106:voice.cpp     ****     else sample[1] = sample[1];
 1738              		.loc 2 106 86 discriminator 1 view .LVU462
 1739 018c B0EE4A0A 		vmov.f32	s0, s20
 1740 0190 FFF7FEFF 		bl	tanhf
 1741              	.LVL95:
 106:voice.cpp     ****     else sample[1] = sample[1];
 1742              		.loc 2 106 79 discriminator 1 view .LVU463
 1743 0194 89EE808A 		vdiv.f32	s16, s19, s0
 1744              	.LVL96:
 106:voice.cpp     ****     else sample[1] = sample[1];
 1745              		.loc 2 106 79 discriminator 1 view .LVU464
 1746 0198 D6E7     		b	.L63
 1747              	.LVL97:
 1748              	.L76:
  96:voice.cpp     ****     else sample[0] = sample[0];
 1749              		.loc 2 96 33 is_stmt 1 discriminator 1 view .LVU465
  96:voice.cpp     ****     else sample[0] = sample[0];
 1750              		.loc 2 96 61 is_stmt 0 discriminator 1 view .LVU466
 1751 019a D6ED4E9A 		vldr.32	s19, [r6, #312]
  96:voice.cpp     ****     else sample[0] = sample[0];
 1752              		.loc 2 96 50 discriminator 1 view .LVU467
 1753 019e 29EE870A 		vmul.f32	s0, s19, s14
 1754 01a2 FFF7FEFF 		bl	tanhf
 1755              	.LVL98:
  96:voice.cpp     ****     else sample[0] = sample[0];
 1756              		.loc 2 96 50 discriminator 1 view .LVU468
 1757 01a6 F0EE408A 		vmov.f32	s17, s0
  96:voice.cpp     ****     else sample[0] = sample[0];
 1758              		.loc 2 96 86 discriminator 1 view .LVU469
 1759 01aa B0EE690A 		vmov.f32	s0, s19
 1760 01ae FFF7FEFF 		bl	tanhf
 1761              	.LVL99:
  96:voice.cpp     ****     else sample[0] = sample[0];
 1762              		.loc 2 96 79 discriminator 1 view .LVU470
 1763 01b2 88EE808A 		vdiv.f32	s16, s17, s0
 1764              	.LVL100:
  96:voice.cpp     ****     else sample[0] = sample[0];
 1765              		.loc 2 96 79 discriminator 1 view .LVU471
 1766 01b6 74E7     		b	.L55
 1767              	.LVL101:
 1768              	.L77:
ARM GAS  C:\Users\samue\AppData\Local\Temp\ccSMt6Jg.s 			page 52


 105:voice.cpp     ****     else if(effect_ == DISTORT) sample[1] = tanhf(sample[1]*distortion_gain_) / tanhf(distortion_ga
 1769              		.loc 2 105 25 is_stmt 1 discriminator 1 view .LVU472
 105:voice.cpp     ****     else if(effect_ == DISTORT) sample[1] = tanhf(sample[1]*distortion_gain_) / tanhf(distortion_ga
 1770              		.loc 2 105 54 is_stmt 0 discriminator 1 view .LVU473
 1771 01b8 D6ED4F9A 		vldr.32	s19, [r6, #316]
 105:voice.cpp     ****     else if(effect_ == DISTORT) sample[1] = tanhf(sample[1]*distortion_gain_) / tanhf(distortion_ga
 1772              		.loc 2 105 43 discriminator 1 view .LVU474
 1773 01bc 29EE870A 		vmul.f32	s0, s19, s14
 1774 01c0 FFF7FEFF 		bl	tanhf
 1775              	.LVL102:
 105:voice.cpp     ****     else if(effect_ == DISTORT) sample[1] = tanhf(sample[1]*distortion_gain_) / tanhf(distortion_ga
 1776              		.loc 2 105 43 discriminator 1 view .LVU475
 1777 01c4 F0EE40AA 		vmov.f32	s21, s0
 105:voice.cpp     ****     else if(effect_ == DISTORT) sample[1] = tanhf(sample[1]*distortion_gain_) / tanhf(distortion_ga
 1778              		.loc 2 105 73 discriminator 1 view .LVU476
 1779 01c8 B0EE690A 		vmov.f32	s0, s19
 105:voice.cpp     ****     else if(effect_ == DISTORT) sample[1] = tanhf(sample[1]*distortion_gain_) / tanhf(distortion_ga
 1780              		.loc 2 105 98 discriminator 1 view .LVU477
 1781 01cc 79EEA99A 		vadd.f32	s19, s19, s19
 105:voice.cpp     ****     else if(effect_ == DISTORT) sample[1] = tanhf(sample[1]*distortion_gain_) / tanhf(distortion_ga
 1782              		.loc 2 105 73 discriminator 1 view .LVU478
 1783 01d0 FFF7FEFF 		bl	tanhf
 1784              	.LVL103:
 1785 01d4 B0EE40AA 		vmov.f32	s20, s0
 105:voice.cpp     ****     else if(effect_ == DISTORT) sample[1] = tanhf(sample[1]*distortion_gain_) / tanhf(distortion_ga
 1786              		.loc 2 105 96 discriminator 1 view .LVU479
 1787 01d8 29EE880A 		vmul.f32	s0, s19, s16
 1788 01dc FFF7FEFF 		bl	sinf
 1789              	.LVL104:
 105:voice.cpp     ****     else if(effect_ == DISTORT) sample[1] = tanhf(sample[1]*distortion_gain_) / tanhf(distortion_ga
 1790              		.loc 2 105 66 discriminator 1 view .LVU480
 1791 01e0 8AEE8A6A 		vdiv.f32	s12, s21, s20
 105:voice.cpp     ****     else if(effect_ == DISTORT) sample[1] = tanhf(sample[1]*distortion_gain_) / tanhf(distortion_ga
 1792              		.loc 2 105 96 discriminator 1 view .LVU481
 1793 01e4 B7EEC00A 		vcvt.f64.f32	d0, s0
 105:voice.cpp     ****     else if(effect_ == DISTORT) sample[1] = tanhf(sample[1]*distortion_gain_) / tanhf(distortion_ga
 1794              		.loc 2 105 86 discriminator 1 view .LVU482
 1795 01e8 9FED197B 		vldr.64	d7, .L79
 105:voice.cpp     ****     else if(effect_ == DISTORT) sample[1] = tanhf(sample[1]*distortion_gain_) / tanhf(distortion_ga
 1796              		.loc 2 105 121 discriminator 1 view .LVU483
 1797 01ec 9FED1A5B 		vldr.64	d5, .L79+8
 105:voice.cpp     ****     else if(effect_ == DISTORT) sample[1] = tanhf(sample[1]*distortion_gain_) / tanhf(distortion_ga
 1798              		.loc 2 105 66 discriminator 1 view .LVU484
 1799 01f0 B7EEC66A 		vcvt.f64.f32	d6, s12
 105:voice.cpp     ****     else if(effect_ == DISTORT) sample[1] = tanhf(sample[1]*distortion_gain_) / tanhf(distortion_ga
 1800              		.loc 2 105 86 discriminator 1 view .LVU485
 1801 01f4 A0EE076B 		vfma.f64	d6, d0, d7
 105:voice.cpp     ****     else if(effect_ == DISTORT) sample[1] = tanhf(sample[1]*distortion_gain_) / tanhf(distortion_ga
 1802              		.loc 2 105 121 discriminator 1 view .LVU486
 1803 01f8 86EE057B 		vdiv.f64	d7, d6, d5
 1804 01fc B7EEC78B 		vcvt.f32.f64	s16, d7
 1805              	.LVL105:
 105:voice.cpp     ****     else if(effect_ == DISTORT) sample[1] = tanhf(sample[1]*distortion_gain_) / tanhf(distortion_ga
 1806              		.loc 2 105 121 discriminator 1 view .LVU487
 1807 0200 A2E7     		b	.L63
 1808              	.LVL106:
 1809              	.L75:
ARM GAS  C:\Users\samue\AppData\Local\Temp\ccSMt6Jg.s 			page 53


  95:voice.cpp     ****     else if(effect_ == DISTORT) sample[0] = tanhf(sample[0]*distortion_gain_) / tanhf(distortion_ga
 1810              		.loc 2 95 25 is_stmt 1 discriminator 1 view .LVU488
  95:voice.cpp     ****     else if(effect_ == DISTORT) sample[0] = tanhf(sample[0]*distortion_gain_) / tanhf(distortion_ga
 1811              		.loc 2 95 54 is_stmt 0 discriminator 1 view .LVU489
 1812 0202 D6ED4F8A 		vldr.32	s17, [r6, #316]
  95:voice.cpp     ****     else if(effect_ == DISTORT) sample[0] = tanhf(sample[0]*distortion_gain_) / tanhf(distortion_ga
 1813              		.loc 2 95 43 discriminator 1 view .LVU490
 1814 0206 28EE870A 		vmul.f32	s0, s17, s14
 1815 020a FFF7FEFF 		bl	tanhf
 1816              	.LVL107:
  95:voice.cpp     ****     else if(effect_ == DISTORT) sample[0] = tanhf(sample[0]*distortion_gain_) / tanhf(distortion_ga
 1817              		.loc 2 95 43 discriminator 1 view .LVU491
 1818 020e B0EE40AA 		vmov.f32	s20, s0
  95:voice.cpp     ****     else if(effect_ == DISTORT) sample[0] = tanhf(sample[0]*distortion_gain_) / tanhf(distortion_ga
 1819              		.loc 2 95 73 discriminator 1 view .LVU492
 1820 0212 B0EE680A 		vmov.f32	s0, s17
  95:voice.cpp     ****     else if(effect_ == DISTORT) sample[0] = tanhf(sample[0]*distortion_gain_) / tanhf(distortion_ga
 1821              		.loc 2 95 98 discriminator 1 view .LVU493
 1822 0216 78EEA88A 		vadd.f32	s17, s17, s17
  95:voice.cpp     ****     else if(effect_ == DISTORT) sample[0] = tanhf(sample[0]*distortion_gain_) / tanhf(distortion_ga
 1823              		.loc 2 95 73 discriminator 1 view .LVU494
 1824 021a FFF7FEFF 		bl	tanhf
 1825              	.LVL108:
 1826 021e F0EE409A 		vmov.f32	s19, s0
  95:voice.cpp     ****     else if(effect_ == DISTORT) sample[0] = tanhf(sample[0]*distortion_gain_) / tanhf(distortion_ga
 1827              		.loc 2 95 96 discriminator 1 view .LVU495
 1828 0222 28EE880A 		vmul.f32	s0, s17, s16
 1829 0226 FFF7FEFF 		bl	sinf
 1830              	.LVL109:
  95:voice.cpp     ****     else if(effect_ == DISTORT) sample[0] = tanhf(sample[0]*distortion_gain_) / tanhf(distortion_ga
 1831              		.loc 2 95 66 discriminator 1 view .LVU496
 1832 022a 8AEE296A 		vdiv.f32	s12, s20, s19
  95:voice.cpp     ****     else if(effect_ == DISTORT) sample[0] = tanhf(sample[0]*distortion_gain_) / tanhf(distortion_ga
 1833              		.loc 2 95 96 discriminator 1 view .LVU497
 1834 022e B7EEC00A 		vcvt.f64.f32	d0, s0
  95:voice.cpp     ****     else if(effect_ == DISTORT) sample[0] = tanhf(sample[0]*distortion_gain_) / tanhf(distortion_ga
 1835              		.loc 2 95 86 discriminator 1 view .LVU498
 1836 0232 9FED074B 		vldr.64	d4, .L79
  95:voice.cpp     ****     else if(effect_ == DISTORT) sample[0] = tanhf(sample[0]*distortion_gain_) / tanhf(distortion_ga
 1837              		.loc 2 95 121 discriminator 1 view .LVU499
 1838 0236 9FED085B 		vldr.64	d5, .L79+8
  95:voice.cpp     ****     else if(effect_ == DISTORT) sample[0] = tanhf(sample[0]*distortion_gain_) / tanhf(distortion_ga
 1839              		.loc 2 95 66 discriminator 1 view .LVU500
 1840 023a B7EEC66A 		vcvt.f64.f32	d6, s12
  95:voice.cpp     ****     else if(effect_ == DISTORT) sample[0] = tanhf(sample[0]*distortion_gain_) / tanhf(distortion_ga
 1841              		.loc 2 95 86 discriminator 1 view .LVU501
 1842 023e A0EE046B 		vfma.f64	d6, d0, d4
  95:voice.cpp     ****     else if(effect_ == DISTORT) sample[0] = tanhf(sample[0]*distortion_gain_) / tanhf(distortion_ga
 1843              		.loc 2 95 121 discriminator 1 view .LVU502
 1844 0242 86EE058B 		vdiv.f64	d8, d6, d5
 1845              	.LVL110:
  95:voice.cpp     ****     else if(effect_ == DISTORT) sample[0] = tanhf(sample[0]*distortion_gain_) / tanhf(distortion_ga
 1846              		.loc 2 95 121 discriminator 1 view .LVU503
 1847 0246 B7EEC88B 		vcvt.f32.f64	s16, d8
 1848              	.LVL111:
  95:voice.cpp     ****     else if(effect_ == DISTORT) sample[0] = tanhf(sample[0]*distortion_gain_) / tanhf(distortion_ga
 1849              		.loc 2 95 121 discriminator 1 view .LVU504
ARM GAS  C:\Users\samue\AppData\Local\Temp\ccSMt6Jg.s 			page 54


 1850 024a 2AE7     		b	.L55
 1851              	.LVL112:
 1852              	.L56:
 1853              	.LBB474:
 1854              	.LBB451:
  95:voice.cpp     ****     else if(effect_ == DISTORT) sample[0] = tanhf(sample[0]*distortion_gain_) / tanhf(distortion_ga
 1855              		.loc 2 95 121 discriminator 1 view .LVU505
 1856 024c FFF7FEFF 		bl	_ZN7daisysp20FIRFilterImplGenericILj0ELj0EE7ProcessEf.part.0
 1857              	.LVL113:
 1858              	.L80:
 1859              		.align	3
 1860              	.L79:
 1861 0250 9A999999 		.word	-1717986918
 1862 0254 9999E93F 		.word	1072273817
 1863 0258 000000C0 		.word	-1073741824
 1864 025c CCCCFC3F 		.word	1073532108
 1865 0260 00000000 		.word	0
 1866              	.LBE451:
 1867              	.LBE474:
 1868              		.cfi_endproc
 1869              	.LFE3688:
 1871              		.section	.text._ZN5voice13process_noiseEf,"ax",%progbits
 1872              		.align	1
 1873              		.p2align 2,,3
 1874              		.global	_ZN5voice13process_noiseEf
 1875              		.syntax unified
 1876              		.thumb
 1877              		.thumb_func
 1878              		.fpu fpv5-d16
 1880              	_ZN5voice13process_noiseEf:
 1881              	.LVL114:
 1882              	.LFB3689:
 113:voice.cpp     **** 
 114:voice.cpp     **** float voice::process_noise(float amplitude)
 115:voice.cpp     **** {
 1883              		.loc 2 115 1 is_stmt 1 view -0
 1884              		.cfi_startproc
 1885              		@ args = 0, pretend = 0, frame = 0
 1886              		@ frame_needed = 0, uses_anonymous_args = 0
 116:voice.cpp     ****     float noise, noise_low, noise_high;
 1887              		.loc 2 116 5 view .LVU507
 117:voice.cpp     **** 
 118:voice.cpp     ****     noise = 0.0f;
 1888              		.loc 2 118 5 view .LVU508
 119:voice.cpp     ****     if(noise_mode_ == NOISE)
 1889              		.loc 2 119 5 view .LVU509
 115:voice.cpp     ****     float noise, noise_low, noise_high;
 1890              		.loc 2 115 1 is_stmt 0 view .LVU510
 1891 0000 10B5     		push	{r4, lr}
 1892              		.cfi_def_cfa_offset 8
 1893              		.cfi_offset 4, -8
 1894              		.cfi_offset 14, -4
 1895 0002 2DED028B 		vpush.64	{d8}
 1896              		.cfi_def_cfa_offset 16
 1897              		.cfi_offset 80, -16
 1898              		.cfi_offset 81, -12
 1899              		.loc 2 119 8 view .LVU511
ARM GAS  C:\Users\samue\AppData\Local\Temp\ccSMt6Jg.s 			page 55


 1900 0006 90F85531 		ldrb	r3, [r0, #341]	@ zero_extendqisi2
 115:voice.cpp     ****     float noise, noise_low, noise_high;
 1901              		.loc 2 115 1 view .LVU512
 1902 000a B0EE408A 		vmov.f32	s16, s0
 1903 000e 0446     		mov	r4, r0
 1904              		.loc 2 119 5 view .LVU513
 1905 0010 33B1     		cbz	r3, .L96
 120:voice.cpp     ****     {
 121:voice.cpp     ****         noise_.SetAmp(amplitude);
 122:voice.cpp     ****         noise = noise_.Process();
 123:voice.cpp     ****         noise_low = noise_lpf_.Process(noise);
 124:voice.cpp     ****         noise_high = noise_hpf_.Process(noise);
 125:voice.cpp     **** 
 126:voice.cpp     ****         noise = noise_low * noise_color_ + noise_high * (1.0f - noise_color_);
 127:voice.cpp     ****     }
 128:voice.cpp     ****     else if (noise_mode_ == GONG)
 1906              		.loc 2 128 10 is_stmt 1 view .LVU514
 129:voice.cpp     ****     {
 130:voice.cpp     ****         noise = 0.0f;
 131:voice.cpp     ****     }
 132:voice.cpp     ****     else if (noise_mode_ == FM)
 1907              		.loc 2 132 10 view .LVU515
 1908 0012 022B     		cmp	r3, #2
 1909 0014 55D0     		beq	.L97
 118:voice.cpp     ****     if(noise_mode_ == NOISE)
 1910              		.loc 2 118 11 is_stmt 0 view .LVU516
 1911 0016 9FED310A 		vldr.32	s0, .L98
 1912              	.LVL115:
 133:voice.cpp     ****     {
 134:voice.cpp     ****         fm_.SetIndex(mod_ind_*amplitude);
 135:voice.cpp     ****         noise = fm_.Process()*amplitude; 
 136:voice.cpp     ****     }
 137:voice.cpp     ****     
 138:voice.cpp     ****     return noise;
 1913              		.loc 2 138 5 is_stmt 1 view .LVU517
 1914              	.L81:
 139:voice.cpp     **** }
 1915              		.loc 2 139 1 is_stmt 0 view .LVU518
 1916 001a BDEC028B 		vldm	sp!, {d8}
 1917              		.cfi_remember_state
 1918              		.cfi_restore 80
 1919              		.cfi_restore 81
 1920              		.cfi_def_cfa_offset 8
 1921              	.LVL116:
 1922              		.loc 2 139 1 view .LVU519
 1923 001e 10BD     		pop	{r4, pc}
 1924              	.LVL117:
 1925              	.L96:
 1926              		.cfi_restore_state
 1927              	.LBB485:
 1928              	.LBI485:
 114:voice.cpp     **** {
 1929              		.loc 2 114 7 is_stmt 1 view .LVU520
 1930              	.LBB486:
 121:voice.cpp     ****         noise = noise_.Process();
 1931              		.loc 2 121 9 view .LVU521
 1932              	.LBB487:
ARM GAS  C:\Users\samue\AppData\Local\Temp\ccSMt6Jg.s 			page 56


 1933              	.LBI487:
  31:../../../../DaisyExamples/DaisySP//Source/Noise/whitenoise.h ****     }
  32:../../../../DaisyExamples/DaisySP//Source/Noise/whitenoise.h **** 
  33:../../../../DaisyExamples/DaisySP//Source/Noise/whitenoise.h ****     /** sets the amplitude of the noise output
  34:../../../../DaisyExamples/DaisySP//Source/Noise/whitenoise.h ****     */
  35:../../../../DaisyExamples/DaisySP//Source/Noise/whitenoise.h ****     inline void SetAmp(float a) { amp_ = a; }
 1934              		.loc 5 35 17 view .LVU522
 1935              	.LBB488:
 1936              		.loc 5 35 35 view .LVU523
 1937              	.LBE488:
 1938              	.LBE487:
 1939              	.LBB490:
 1940              	.LBB491:
  36:../../../../DaisyExamples/DaisySP//Source/Noise/whitenoise.h ****     /** returns a new sample of noise in the range of -amp_ to amp_
  37:../../../../DaisyExamples/DaisySP//Source/Noise/whitenoise.h ****     */
  38:../../../../DaisyExamples/DaisySP//Source/Noise/whitenoise.h ****     inline float Process()
  39:../../../../DaisyExamples/DaisySP//Source/Noise/whitenoise.h ****     {
  40:../../../../DaisyExamples/DaisySP//Source/Noise/whitenoise.h ****         randseed_ *= 16807;
 1941              		.loc 5 40 19 is_stmt 0 view .LVU524
 1942 0020 D0F80C31 		ldr	r3, [r0, #268]
 1943 0024 44F2A712 		movw	r2, #16807
 1944              	.LBE491:
 1945              	.LBE490:
 1946              	.LBB494:
 1947              	.LBB495:
  69:../../../../DaisyExamples/DaisySP//Source/Filters/onepole.h **** 
  70:../../../../DaisyExamples/DaisySP//Source/Filters/onepole.h ****     /** Process audio through the filter
  71:../../../../DaisyExamples/DaisySP//Source/Filters/onepole.h ****     *   \param in The next sample to be processed
  72:../../../../DaisyExamples/DaisySP//Source/Filters/onepole.h ****     */
  73:../../../../DaisyExamples/DaisySP//Source/Filters/onepole.h ****     inline float Process(float in)
  74:../../../../DaisyExamples/DaisySP//Source/Filters/onepole.h ****     {
  75:../../../../DaisyExamples/DaisySP//Source/Filters/onepole.h ****         float lp;
  76:../../../../DaisyExamples/DaisySP//Source/Filters/onepole.h ****         lp     = (g_ * in + state_) * gi_;
 1948              		.loc 6 76 19 view .LVU525
 1949 0028 D0ED446A 		vldr.32	s13, [r0, #272]
 1950              	.LBE495:
 1951              	.LBE494:
 1952              	.LBB498:
 1953              	.LBB492:
 1954              		.loc 5 40 19 view .LVU526
 1955 002c 02FB03F3 		mul	r3, r2, r3
 1956              	.LBE492:
 1957              	.LBE498:
 1958              	.LBB499:
 1959              	.LBB496:
 1960              		.loc 6 76 27 view .LVU527
 1961 0030 D0ED467A 		vldr.32	s15, [r0, #280]
 1962              		.loc 6 76 16 view .LVU528
 1963 0034 90ED457A 		vldr.32	s14, [r0, #276]
  77:../../../../DaisyExamples/DaisySP//Source/Filters/onepole.h ****         state_ = g_ * (in - lp) + lp;
  78:../../../../DaisyExamples/DaisySP//Source/Filters/onepole.h **** 
  79:../../../../DaisyExamples/DaisySP//Source/Filters/onepole.h ****         switch(mode_)
 1964              		.loc 6 79 16 view .LVU529
 1965 0038 90F81C21 		ldrb	r2, [r0, #284]	@ zero_extendqisi2
 1966              	.LBE496:
 1967              	.LBE499:
 1968              	.LBB500:
ARM GAS  C:\Users\samue\AppData\Local\Temp\ccSMt6Jg.s 			page 57


 1969              	.LBB489:
  35:../../../../DaisyExamples/DaisySP//Source/Noise/whitenoise.h ****     /** returns a new sample of noise in the range of -amp_ to amp_
 1970              		.loc 5 35 40 view .LVU530
 1971 003c 84ED420A 		vstr.32	s0, [r4, #264]
 1972              	.LVL118:
  35:../../../../DaisyExamples/DaisySP//Source/Noise/whitenoise.h ****     /** returns a new sample of noise in the range of -amp_ to amp_
 1973              		.loc 5 35 40 view .LVU531
 1974              	.LBE489:
 1975              	.LBE500:
 122:voice.cpp     ****         noise_low = noise_lpf_.Process(noise);
 1976              		.loc 2 122 9 is_stmt 1 view .LVU532
 1977              	.LBB501:
 1978              	.LBI490:
  38:../../../../DaisyExamples/DaisySP//Source/Noise/whitenoise.h ****     {
 1979              		.loc 5 38 18 view .LVU533
 1980              	.LBB493:
 1981              		.loc 5 40 9 view .LVU534
  41:../../../../DaisyExamples/DaisySP//Source/Noise/whitenoise.h ****         return (randseed_ * coeff_) * amp_;
 1982              		.loc 5 41 27 is_stmt 0 view .LVU535
 1983 0040 00EE103A 		vmov	s0, r3	@ int
 1984              	.LVL119:
  40:../../../../DaisyExamples/DaisySP//Source/Noise/whitenoise.h ****         return (randseed_ * coeff_) * amp_;
 1985              		.loc 5 40 19 view .LVU536
 1986 0044 C0F80C31 		str	r3, [r0, #268]
 1987              		.loc 5 41 9 is_stmt 1 view .LVU537
 1988              		.loc 5 41 27 is_stmt 0 view .LVU538
 1989 0048 BAEEE00A 		vcvt.f32.s32	s0, s0, #31
 1990              		.loc 5 41 39 view .LVU539
 1991 004c 20EE088A 		vmul.f32	s16, s0, s16
 1992              	.LVL120:
 1993              		.loc 5 41 39 view .LVU540
 1994              	.LBE493:
 1995              	.LBE501:
 123:voice.cpp     ****         noise_high = noise_hpf_.Process(noise);
 1996              		.loc 2 123 9 is_stmt 1 view .LVU541
 1997              	.LBB502:
 1998              	.LBI494:
  73:../../../../DaisyExamples/DaisySP//Source/Filters/onepole.h ****     {
 1999              		.loc 6 73 18 view .LVU542
 2000              	.LBB497:
  75:../../../../DaisyExamples/DaisySP//Source/Filters/onepole.h ****         lp     = (g_ * in + state_) * gi_;
 2001              		.loc 6 75 9 view .LVU543
  76:../../../../DaisyExamples/DaisySP//Source/Filters/onepole.h ****         state_ = g_ * (in - lp) + lp;
 2002              		.loc 6 76 9 view .LVU544
  76:../../../../DaisyExamples/DaisySP//Source/Filters/onepole.h ****         state_ = g_ * (in - lp) + lp;
 2003              		.loc 6 76 27 is_stmt 0 view .LVU545
 2004 0050 E8EE267A 		vfma.f32	s15, s16, s13
  76:../../../../DaisyExamples/DaisySP//Source/Filters/onepole.h ****         state_ = g_ * (in - lp) + lp;
 2005              		.loc 6 76 16 view .LVU546
 2006 0054 67EE877A 		vmul.f32	s15, s15, s14
 2007              	.LVL121:
  77:../../../../DaisyExamples/DaisySP//Source/Filters/onepole.h **** 
 2008              		.loc 6 77 9 is_stmt 1 view .LVU547
  77:../../../../DaisyExamples/DaisySP//Source/Filters/onepole.h **** 
 2009              		.loc 6 77 27 is_stmt 0 view .LVU548
 2010 0058 38EE677A 		vsub.f32	s14, s16, s15
  77:../../../../DaisyExamples/DaisySP//Source/Filters/onepole.h **** 
ARM GAS  C:\Users\samue\AppData\Local\Temp\ccSMt6Jg.s 			page 58


 2011              		.loc 6 77 33 view .LVU549
 2012 005c B0EE676A 		vmov.f32	s12, s15
 2013 0060 A6EE876A 		vfma.f32	s12, s13, s14
  77:../../../../DaisyExamples/DaisySP//Source/Filters/onepole.h **** 
 2014              		.loc 6 77 16 view .LVU550
 2015 0064 80ED466A 		vstr.32	s12, [r0, #280]
 2016              		.loc 6 79 9 is_stmt 1 view .LVU551
 2017 0068 22B1     		cbz	r2, .L83
 2018              		.loc 6 79 9 is_stmt 0 view .LVU552
 2019 006a DFED1C7A 		vldr.32	s15, .L98
 2020              	.LVL122:
 2021              		.loc 6 79 9 view .LVU553
 2022 006e 012A     		cmp	r2, #1
 2023 0070 47FE277A 		vseleq.f32	s15, s14, s15
 2024              	.L83:
 2025              	.LVL123:
 2026              		.loc 6 79 9 view .LVU554
 2027              	.LBE497:
 2028              	.LBE502:
 124:voice.cpp     **** 
 2029              		.loc 2 124 9 is_stmt 1 view .LVU555
 2030              	.LBB503:
 2031              	.LBI503:
  73:../../../../DaisyExamples/DaisySP//Source/Filters/onepole.h ****     {
 2032              		.loc 6 73 18 view .LVU556
 2033              	.LBB504:
  75:../../../../DaisyExamples/DaisySP//Source/Filters/onepole.h ****         lp     = (g_ * in + state_) * gi_;
 2034              		.loc 6 75 9 view .LVU557
  76:../../../../DaisyExamples/DaisySP//Source/Filters/onepole.h ****         state_ = g_ * (in - lp) + lp;
 2035              		.loc 6 76 9 view .LVU558
  76:../../../../DaisyExamples/DaisySP//Source/Filters/onepole.h ****         state_ = g_ * (in - lp) + lp;
 2036              		.loc 6 76 19 is_stmt 0 view .LVU559
 2037 0074 D4ED486A 		vldr.32	s13, [r4, #288]
  76:../../../../DaisyExamples/DaisySP//Source/Filters/onepole.h ****         state_ = g_ * (in - lp) + lp;
 2038              		.loc 6 76 27 view .LVU560
 2039 0078 94ED4A0A 		vldr.32	s0, [r4, #296]
  76:../../../../DaisyExamples/DaisySP//Source/Filters/onepole.h ****         state_ = g_ * (in - lp) + lp;
 2040              		.loc 6 76 16 view .LVU561
 2041 007c 94ED497A 		vldr.32	s14, [r4, #292]
  76:../../../../DaisyExamples/DaisySP//Source/Filters/onepole.h ****         state_ = g_ * (in - lp) + lp;
 2042              		.loc 6 76 27 view .LVU562
 2043 0080 A8EE260A 		vfma.f32	s0, s16, s13
 2044              		.loc 6 79 16 view .LVU563
 2045 0084 94F82C31 		ldrb	r3, [r4, #300]	@ zero_extendqisi2
  76:../../../../DaisyExamples/DaisySP//Source/Filters/onepole.h ****         state_ = g_ * (in - lp) + lp;
 2046              		.loc 6 76 16 view .LVU564
 2047 0088 20EE077A 		vmul.f32	s14, s0, s14
 2048              	.LVL124:
  77:../../../../DaisyExamples/DaisySP//Source/Filters/onepole.h **** 
 2049              		.loc 6 77 9 is_stmt 1 view .LVU565
  77:../../../../DaisyExamples/DaisySP//Source/Filters/onepole.h **** 
 2050              		.loc 6 77 27 is_stmt 0 view .LVU566
 2051 008c 38EE478A 		vsub.f32	s16, s16, s14
 2052              	.LVL125:
  77:../../../../DaisyExamples/DaisySP//Source/Filters/onepole.h **** 
 2053              		.loc 6 77 33 view .LVU567
 2054 0090 B0EE476A 		vmov.f32	s12, s14
ARM GAS  C:\Users\samue\AppData\Local\Temp\ccSMt6Jg.s 			page 59


 2055 0094 A6EE886A 		vfma.f32	s12, s13, s16
  77:../../../../DaisyExamples/DaisySP//Source/Filters/onepole.h **** 
 2056              		.loc 6 77 16 view .LVU568
 2057 0098 84ED4A6A 		vstr.32	s12, [r4, #296]
 2058              		.loc 6 79 9 is_stmt 1 view .LVU569
 2059 009c 23B1     		cbz	r3, .L84
 2060 009e 9FED0F0A 		vldr.32	s0, .L98
 2061 00a2 012B     		cmp	r3, #1
 2062 00a4 08FE007A 		vseleq.f32	s14, s16, s0
 2063              	.LVL126:
 2064              	.L84:
 2065              		.loc 6 79 9 is_stmt 0 view .LVU570
 2066              	.LBE504:
 2067              	.LBE503:
 126:voice.cpp     ****     }
 2068              		.loc 2 126 9 is_stmt 1 view .LVU571
 126:voice.cpp     ****     }
 2069              		.loc 2 126 63 is_stmt 0 view .LVU572
 2070 00a8 B7EE000A 		vmov.f32	s0, #1.0e+0
 126:voice.cpp     ****     }
 2071              		.loc 2 126 29 view .LVU573
 2072 00ac D4ED516A 		vldr.32	s13, [r4, #324]
 2073              	.LBE486:
 2074              	.LBE485:
 2075              		.loc 2 139 1 view .LVU574
 2076 00b0 BDEC028B 		vldm	sp!, {d8}
 2077              		.cfi_remember_state
 2078              		.cfi_restore 80
 2079              		.cfi_restore 81
 2080              		.cfi_def_cfa_offset 8
 2081              	.LBB506:
 2082              	.LBB505:
 126:voice.cpp     ****     }
 2083              		.loc 2 126 63 view .LVU575
 2084 00b4 30EE660A 		vsub.f32	s0, s0, s13
 126:voice.cpp     ****     }
 2085              		.loc 2 126 55 view .LVU576
 2086 00b8 20EE070A 		vmul.f32	s0, s0, s14
 126:voice.cpp     ****     }
 2087              		.loc 2 126 15 view .LVU577
 2088 00bc A6EEA70A 		vfma.f32	s0, s13, s15
 2089              	.LVL127:
 138:voice.cpp     **** }
 2090              		.loc 2 138 5 is_stmt 1 view .LVU578
 138:voice.cpp     **** }
 2091              		.loc 2 138 5 is_stmt 0 view .LVU579
 2092              	.LBE505:
 2093              	.LBE506:
 2094              		.loc 2 139 1 view .LVU580
 2095 00c0 10BD     		pop	{r4, pc}
 2096              	.LVL128:
 2097              	.L97:
 2098              		.cfi_restore_state
 134:voice.cpp     ****         noise = fm_.Process()*amplitude; 
 2099              		.loc 2 134 9 is_stmt 1 view .LVU581
 134:voice.cpp     ****         noise = fm_.Process()*amplitude; 
 2100              		.loc 2 134 21 is_stmt 0 view .LVU582
ARM GAS  C:\Users\samue\AppData\Local\Temp\ccSMt6Jg.s 			page 60


 2101 00c2 90ED530A 		vldr.32	s0, [r0, #332]
 2102              	.LVL129:
 134:voice.cpp     ****         noise = fm_.Process()*amplitude; 
 2103              		.loc 2 134 21 view .LVU583
 2104 00c6 28EE000A 		vmul.f32	s0, s16, s0
 2105 00ca FFF7FEFF 		bl	_ZN7daisysp3Fm28SetIndexEf
 2106              	.LVL130:
 135:voice.cpp     ****     }
 2107              		.loc 2 135 9 is_stmt 1 view .LVU584
 135:voice.cpp     ****     }
 2108              		.loc 2 135 28 is_stmt 0 view .LVU585
 2109 00ce 2046     		mov	r0, r4
 2110 00d0 FFF7FEFF 		bl	_ZN7daisysp3Fm27ProcessEv
 2111              	.LVL131:
 135:voice.cpp     ****     }
 2112              		.loc 2 135 15 view .LVU586
 2113 00d4 20EE080A 		vmul.f32	s0, s0, s16
 2114              	.LVL132:
 135:voice.cpp     ****     }
 2115              		.loc 2 135 15 view .LVU587
 2116 00d8 9FE7     		b	.L81
 2117              	.L99:
 2118 00da 00BF     		.align	2
 2119              	.L98:
 2120 00dc 00000000 		.word	0
 2121              		.cfi_endproc
 2122              	.LFE3689:
 2124              		.section	.text._ZN5voice7ProcessEv,"ax",%progbits
 2125              		.align	1
 2126              		.p2align 2,,3
 2127              		.global	_ZN5voice7ProcessEv
 2128              		.syntax unified
 2129              		.thumb
 2130              		.thumb_func
 2131              		.fpu fpv5-d16
 2133              	_ZN5voice7ProcessEv:
 2134              	.LVL133:
 2135              	.LFB3687:
  79:voice.cpp     ****     float amplitude;
 2136              		.loc 2 79 1 is_stmt 1 view -0
 2137              		.cfi_startproc
 2138              		@ args = 0, pretend = 0, frame = 0
 2139              		@ frame_needed = 0, uses_anonymous_args = 0
  80:voice.cpp     ****     amplitude = amp_env_.Process();
 2140              		.loc 2 80 5 view .LVU589
  81:voice.cpp     **** 
 2141              		.loc 2 81 5 view .LVU590
  79:voice.cpp     ****     float amplitude;
 2142              		.loc 2 79 1 is_stmt 0 view .LVU591
 2143 0000 10B5     		push	{r4, lr}
 2144              		.cfi_def_cfa_offset 8
 2145              		.cfi_offset 4, -8
 2146              		.cfi_offset 14, -4
 2147 0002 0446     		mov	r4, r0
  81:voice.cpp     **** 
 2148              		.loc 2 81 33 view .LVU592
 2149 0004 9830     		adds	r0, r0, #152
ARM GAS  C:\Users\samue\AppData\Local\Temp\ccSMt6Jg.s 			page 61


 2150              	.LVL134:
  79:voice.cpp     ****     float amplitude;
 2151              		.loc 2 79 1 view .LVU593
 2152 0006 2DED028B 		vpush.64	{d8}
 2153              		.cfi_def_cfa_offset 16
 2154              		.cfi_offset 80, -16
 2155              		.cfi_offset 81, -12
  81:voice.cpp     **** 
 2156              		.loc 2 81 33 view .LVU594
 2157 000a FFF7FEFF 		bl	_ZN7daisysp5AdEnv7ProcessEv
 2158              	.LVL135:
 2159 000e F0EE408A 		vmov.f32	s17, s0
 2160              	.LVL136:
  83:voice.cpp     **** }
 2161              		.loc 2 83 5 is_stmt 1 view .LVU595
  83:voice.cpp     **** }
 2162              		.loc 2 83 24 is_stmt 0 view .LVU596
 2163 0012 2046     		mov	r0, r4
 2164 0014 FFF7FEFF 		bl	_ZN5voice12process_drumEf
 2165              	.LVL137:
  83:voice.cpp     **** }
 2166              		.loc 2 83 24 view .LVU597
 2167 0018 B0EE408A 		vmov.f32	s16, s0
  83:voice.cpp     **** }
 2168              		.loc 2 83 62 view .LVU598
 2169 001c B0EE680A 		vmov.f32	s0, s17
  83:voice.cpp     **** }
 2170              		.loc 2 83 38 view .LVU599
 2171 0020 D4ED508A 		vldr.32	s17, [r4, #320]
 2172              	.LVL138:
  83:voice.cpp     **** }
 2173              		.loc 2 83 62 view .LVU600
 2174 0024 2046     		mov	r0, r4
 2175 0026 FFF7FEFF 		bl	_ZN5voice13process_noiseEf
 2176              	.LVL139:
  84:voice.cpp     **** 
 2177              		.loc 2 84 1 view .LVU601
 2178 002a A8EE808A 		vfma.f32	s16, s17, s0
 2179 002e B0EE480A 		vmov.f32	s0, s16
 2180 0032 BDEC028B 		vldm	sp!, {d8}
 2181              		.cfi_restore 80
 2182              		.cfi_restore 81
 2183              		.cfi_def_cfa_offset 8
 2184 0036 10BD     		pop	{r4, pc}
  84:voice.cpp     **** 
 2185              		.loc 2 84 1 view .LVU602
 2186              		.cfi_endproc
 2187              	.LFE3687:
 2189              		.section	.text._ZN5voice14set_noise_modeEh,"ax",%progbits
 2190              		.align	1
 2191              		.p2align 2,,3
 2192              		.global	_ZN5voice14set_noise_modeEh
 2193              		.syntax unified
 2194              		.thumb
 2195              		.thumb_func
 2196              		.fpu fpv5-d16
 2198              	_ZN5voice14set_noise_modeEh:
ARM GAS  C:\Users\samue\AppData\Local\Temp\ccSMt6Jg.s 			page 62


 2199              	.LVL140:
 2200              	.LFB3690:
 140:voice.cpp     **** 
 141:voice.cpp     **** void voice::set_noise_mode(uint8_t mode)
 142:voice.cpp     **** {
 2201              		.loc 2 142 1 is_stmt 1 view -0
 2202              		.cfi_startproc
 2203              		@ args = 0, pretend = 0, frame = 0
 2204              		@ frame_needed = 0, uses_anonymous_args = 0
 2205              		@ link register save eliminated.
 143:voice.cpp     ****     noise_mode_ = mode;
 2206              		.loc 2 143 5 view .LVU604
 2207              		.loc 2 143 17 is_stmt 0 view .LVU605
 2208 0000 80F85511 		strb	r1, [r0, #341]
 144:voice.cpp     **** }
 2209              		.loc 2 144 1 view .LVU606
 2210 0004 7047     		bx	lr
 2211              		.cfi_endproc
 2212              	.LFE3690:
 2214 0006 00BF     		.section	.text._ZN5voice18set_noise_effect_1Ef,"ax",%progbits
 2215              		.align	1
 2216              		.p2align 2,,3
 2217              		.global	_ZN5voice18set_noise_effect_1Ef
 2218              		.syntax unified
 2219              		.thumb
 2220              		.thumb_func
 2221              		.fpu fpv5-d16
 2223              	_ZN5voice18set_noise_effect_1Ef:
 2224              	.LVL141:
 2225              	.LFB3691:
 145:voice.cpp     **** 
 146:voice.cpp     **** void voice::set_noise_effect_1(float value)
 147:voice.cpp     **** {
 2226              		.loc 2 147 1 is_stmt 1 view -0
 2227              		.cfi_startproc
 2228              		@ args = 0, pretend = 0, frame = 0
 2229              		@ frame_needed = 0, uses_anonymous_args = 0
 148:voice.cpp     ****     noise_color_ = value;
 2230              		.loc 2 148 5 view .LVU608
 147:voice.cpp     ****     noise_color_ = value;
 2231              		.loc 2 147 1 is_stmt 0 view .LVU609
 2232 0000 F0EE407A 		vmov.f32	s15, s0
 2233              	.LBB509:
 2234              	.LBB510:
 141:../../../../DaisyExamples/DaisySP//Source/Utility/dsp.h **** }
 2235              		.loc 7 141 23 view .LVU610
 2236 0004 DFED106A 		vldr.32	s13, .L105
 2237 0008 DFED100A 		vldr.32	s1, .L105+4
 141:../../../../DaisyExamples/DaisySP//Source/Utility/dsp.h **** }
 2238              		.loc 7 141 16 view .LVU611
 2239 000c B2EE087A 		vmov.f32	s14, #1.2e+1
 2240 0010 B0EE000A 		vmov.f32	s0, #2.0e+0
 2241              	.LVL142:
 141:../../../../DaisyExamples/DaisySP//Source/Utility/dsp.h **** }
 2242              		.loc 7 141 23 view .LVU612
 2243 0014 E7EEA60A 		vfma.f32	s1, s15, s13
 2244              	.LBE510:
ARM GAS  C:\Users\samue\AppData\Local\Temp\ccSMt6Jg.s 			page 63


 2245              	.LBE509:
 147:voice.cpp     ****     noise_color_ = value;
 2246              		.loc 2 147 1 view .LVU613
 2247 0018 10B5     		push	{r4, lr}
 2248              		.cfi_def_cfa_offset 8
 2249              		.cfi_offset 4, -8
 2250              		.cfi_offset 14, -4
 2251 001a 2DED028B 		vpush.64	{d8}
 2252              		.cfi_def_cfa_offset 16
 2253              		.cfi_offset 80, -16
 2254              		.cfi_offset 81, -12
 2255              	.LBB514:
 2256              	.LBB511:
 141:../../../../DaisyExamples/DaisySP//Source/Utility/dsp.h **** }
 2257              		.loc 7 141 43 view .LVU614
 2258 001e 9FED0C8A 		vldr.32	s16, .L105+8
 2259              	.LBE511:
 2260              	.LBE514:
 147:voice.cpp     ****     noise_color_ = value;
 2261              		.loc 2 147 1 view .LVU615
 2262 0022 0446     		mov	r4, r0
 2263              		.loc 2 148 18 view .LVU616
 2264 0024 C0ED517A 		vstr.32	s15, [r0, #324]
 149:voice.cpp     ****     
 150:voice.cpp     ****     value = mtof(value*120);
 2265              		.loc 2 150 5 is_stmt 1 view .LVU617
 2266              	.LVL143:
 2267              	.LBB515:
 2268              	.LBI509:
 139:../../../../DaisyExamples/DaisySP//Source/Utility/dsp.h **** {
 2269              		.loc 7 139 14 view .LVU618
 2270              	.LBB512:
 141:../../../../DaisyExamples/DaisySP//Source/Utility/dsp.h **** }
 2271              		.loc 7 141 5 view .LVU619
 141:../../../../DaisyExamples/DaisySP//Source/Utility/dsp.h **** }
 2272              		.loc 7 141 16 is_stmt 0 view .LVU620
 2273 0028 C0EE870A 		vdiv.f32	s1, s1, s14
 2274 002c FFF7FEFF 		bl	powf
 2275              	.LVL144:
 141:../../../../DaisyExamples/DaisySP//Source/Utility/dsp.h **** }
 2276              		.loc 7 141 16 view .LVU621
 2277              	.LBE512:
 2278              	.LBE515:
 151:voice.cpp     ****     fm_.SetFrequency(value);
 2279              		.loc 2 151 21 view .LVU622
 2280 0030 2046     		mov	r0, r4
 2281              	.LBB516:
 2282              	.LBB513:
 141:../../../../DaisyExamples/DaisySP//Source/Utility/dsp.h **** }
 2283              		.loc 7 141 43 view .LVU623
 2284 0032 20EE088A 		vmul.f32	s16, s0, s16
 2285              	.LVL145:
 141:../../../../DaisyExamples/DaisySP//Source/Utility/dsp.h **** }
 2286              		.loc 7 141 43 view .LVU624
 2287              	.LBE513:
 2288              	.LBE516:
 2289              		.loc 2 151 5 is_stmt 1 view .LVU625
ARM GAS  C:\Users\samue\AppData\Local\Temp\ccSMt6Jg.s 			page 64


 2290              		.loc 2 151 21 is_stmt 0 view .LVU626
 2291 0036 B0EE480A 		vmov.f32	s0, s16
 2292 003a FFF7FEFF 		bl	_ZN7daisysp3Fm212SetFrequencyEf
 2293              	.LVL146:
 152:voice.cpp     ****     fm_carrier_ = value;
 2294              		.loc 2 152 5 is_stmt 1 view .LVU627
 2295              		.loc 2 152 17 is_stmt 0 view .LVU628
 2296 003e 84ED528A 		vstr.32	s16, [r4, #328]
 153:voice.cpp     ****     
 154:voice.cpp     **** }
 2297              		.loc 2 154 1 view .LVU629
 2298 0042 BDEC028B 		vldm	sp!, {d8}
 2299              		.cfi_restore 80
 2300              		.cfi_restore 81
 2301              		.cfi_def_cfa_offset 8
 2302              	.LVL147:
 2303              		.loc 2 154 1 view .LVU630
 2304 0046 10BD     		pop	{r4, pc}
 2305              	.LVL148:
 2306              	.L106:
 2307              		.loc 2 154 1 view .LVU631
 2308              		.align	2
 2309              	.L105:
 2310 0048 0000F042 		.word	1123024896
 2311 004c 00008AC2 		.word	-1031143424
 2312 0050 0000DC43 		.word	1138491392
 2313              		.cfi_endproc
 2314              	.LFE3691:
 2316              		.section	.text._ZN5voice18set_noise_effect_2Ef,"ax",%progbits
 2317              		.align	1
 2318              		.p2align 2,,3
 2319              		.global	_ZN5voice18set_noise_effect_2Ef
 2320              		.syntax unified
 2321              		.thumb
 2322              		.thumb_func
 2323              		.fpu fpv5-d16
 2325              	_ZN5voice18set_noise_effect_2Ef:
 2326              	.LVL149:
 2327              	.LFB3692:
 155:voice.cpp     **** 
 156:voice.cpp     **** void voice::set_noise_effect_2(float value)
 157:voice.cpp     **** {
 2328              		.loc 2 157 1 is_stmt 1 view -0
 2329              		.cfi_startproc
 2330              		@ args = 0, pretend = 0, frame = 0
 2331              		@ frame_needed = 0, uses_anonymous_args = 0
 2332              		@ link register save eliminated.
 158:voice.cpp     ****     value = fmap(value, -0.05f, 2.0f);
 2333              		.loc 2 158 5 view .LVU633
 2334              	.LBB517:
 2335              	.LBB518:
 2336              		.loc 7 189 31 is_stmt 0 view .LVU634
 2337 0000 DFED0B7A 		vldr.32	s15, .L111
 2338              	.LVL150:
 2339              		.loc 7 189 31 view .LVU635
 2340              	.LBE518:
 2341              	.LBI517:
ARM GAS  C:\Users\samue\AppData\Local\Temp\ccSMt6Jg.s 			page 65


 177:../../../../DaisyExamples/DaisySP//Source/Utility/dsp.h **** {
 2342              		.loc 7 177 1 is_stmt 1 view .LVU636
 2343              	.LBE517:
 179:../../../../DaisyExamples/DaisySP//Source/Utility/dsp.h ****     {
 2344              		.loc 7 179 5 view .LVU637
 2345              	.LBB530:
 2346              	.LBB528:
 188:../../../../DaisyExamples/DaisySP//Source/Utility/dsp.h ****         default: return fclamp(min + in * (max - min), min, max);
 2347              		.loc 7 188 9 view .LVU638
 2348              		.loc 7 189 9 view .LVU639
 2349              		.loc 7 189 18 view .LVU640
 2350              	.LBB519:
 2351              	.LBB520:
 2352              	.LBB521:
  55:../../../../DaisyExamples/DaisySP//Source/Utility/dsp.h **** #else
 2353              		.loc 7 55 5 is_stmt 0 view .LVU641
 2354 0004 F0EE006A 		vmov.f32	s13, #2.0e+0
 2355              	.LBE521:
 2356              	.LBE520:
 2357              	.LBE519:
 2358              		.loc 7 189 31 view .LVU642
 2359 0008 9FED0A6A 		vldr.32	s12, .L111+4
 2360 000c B0EE677A 		vmov.f32	s14, s15
 2361 0010 A0EE067A 		vfma.f32	s14, s0, s12
 2362              	.LVL151:
 2363              	.LBB526:
 2364              	.LBI519:
  64:../../../../DaisyExamples/DaisySP//Source/Utility/dsp.h **** {
 2365              		.loc 7 64 14 is_stmt 1 view .LVU643
 2366              	.LBE526:
 2367              	.LBE528:
 2368              	.LBE530:
  66:../../../../DaisyExamples/DaisySP//Source/Utility/dsp.h **** }
 2369              		.loc 7 66 5 view .LVU644
 2370              	.LBB531:
 2371              	.LBB529:
 2372              	.LBB527:
 2373              	.LBB523:
 2374              	.LBI523:
  40:../../../../DaisyExamples/DaisySP//Source/Utility/dsp.h **** {
 2375              		.loc 7 40 14 view .LVU645
 2376              	.LBB524:
  42:../../../../DaisyExamples/DaisySP//Source/Utility/dsp.h **** #ifdef __arm__
 2377              		.loc 7 42 5 view .LVU646
  44:../../../../DaisyExamples/DaisySP//Source/Utility/dsp.h **** #else
 2378              		.loc 7 44 5 view .LVU647
 2379              		.syntax unified
 2380              	@ 44 "../../../../DaisyExamples/DaisySP//Source/Utility/dsp.h" 1
 2381 0014 C7FE277A 		vmaxnm.f32 s15, s14, s15
 2382              	@ 0 "" 2
 2383              	.LVL152:
  48:../../../../DaisyExamples/DaisySP//Source/Utility/dsp.h **** }
 2384              		.loc 7 48 5 view .LVU648
  48:../../../../DaisyExamples/DaisySP//Source/Utility/dsp.h **** }
 2385              		.loc 7 48 5 is_stmt 0 view .LVU649
 2386              		.thumb
 2387              		.syntax unified
ARM GAS  C:\Users\samue\AppData\Local\Temp\ccSMt6Jg.s 			page 66


 2388              	.LBE524:
 2389              	.LBE523:
 2390              	.LBB525:
 2391              	.LBI520:
  51:../../../../DaisyExamples/DaisySP//Source/Utility/dsp.h **** {
 2392              		.loc 7 51 14 is_stmt 1 view .LVU650
 2393              	.LBB522:
  53:../../../../DaisyExamples/DaisySP//Source/Utility/dsp.h **** #ifdef __arm__
 2394              		.loc 7 53 5 view .LVU651
  55:../../../../DaisyExamples/DaisySP//Source/Utility/dsp.h **** #else
 2395              		.loc 7 55 5 view .LVU652
 2396              		.syntax unified
 2397              	@ 55 "../../../../DaisyExamples/DaisySP//Source/Utility/dsp.h" 1
 2398 0018 C7FEE67A 		vminnm.f32 s15, s15, s13
 2399              	@ 0 "" 2
 2400              	.LVL153:
  59:../../../../DaisyExamples/DaisySP//Source/Utility/dsp.h **** }
 2401              		.loc 7 59 5 view .LVU653
  59:../../../../DaisyExamples/DaisySP//Source/Utility/dsp.h **** }
 2402              		.loc 7 59 5 is_stmt 0 view .LVU654
 2403              		.thumb
 2404              		.syntax unified
 2405              	.LBE522:
 2406              	.LBE525:
 2407              	.LBE527:
 2408              	.LBE529:
 2409              	.LBE531:
 159:voice.cpp     ****     if(value < 0.0f)
 2410              		.loc 2 159 5 is_stmt 1 view .LVU655
 2411 001c F5EEC07A 		vcmpe.f32	s15, #0
 2412 0020 F1EE10FA 		vmrs	APSR_nzcv, FPSCR
 160:voice.cpp     ****     {
 161:voice.cpp     ****         value = 0.0f;
 2413              		.loc 2 161 15 is_stmt 0 view .LVU656
 2414 0024 48BF     		it	mi
 2415 0026 DFED047A 		vldrmi.32	s15, .L111+8
 2416              	.LVL154:
 162:voice.cpp     ****     }
 163:voice.cpp     ****     mod_ind_ = value;
 2417              		.loc 2 163 5 is_stmt 1 view .LVU657
 2418              		.loc 2 163 14 is_stmt 0 view .LVU658
 2419 002a C0ED537A 		vstr.32	s15, [r0, #332]
 164:voice.cpp     **** }
 2420              		.loc 2 164 1 view .LVU659
 2421 002e 7047     		bx	lr
 2422              	.L112:
 2423              		.align	2
 2424              	.L111:
 2425 0030 CDCC4CBD 		.word	-1119040307
 2426 0034 33330340 		.word	1073951539
 2427 0038 00000000 		.word	0
 2428              		.cfi_endproc
 2429              	.LFE3692:
 2431              		.section	.text._ZN5voice17set_amp_env_decayEf,"ax",%progbits
 2432              		.align	1
 2433              		.p2align 2,,3
 2434              		.global	_ZN5voice17set_amp_env_decayEf
ARM GAS  C:\Users\samue\AppData\Local\Temp\ccSMt6Jg.s 			page 67


 2435              		.syntax unified
 2436              		.thumb
 2437              		.thumb_func
 2438              		.fpu fpv5-d16
 2440              	_ZN5voice17set_amp_env_decayEf:
 2441              	.LVL155:
 2442              	.LFB3693:
 165:voice.cpp     **** 
 166:voice.cpp     **** void voice::set_amp_env_decay(float time)
 167:voice.cpp     **** {
 2443              		.loc 2 167 1 is_stmt 1 view -0
 2444              		.cfi_startproc
 2445              		@ args = 0, pretend = 0, frame = 0
 2446              		@ frame_needed = 0, uses_anonymous_args = 0
 2447              		@ link register save eliminated.
 168:voice.cpp     ****     time = fmap(time, 0.002f, 2.0f, Mapping::LINEAR);
 2448              		.loc 2 168 5 view .LVU661
 2449              	.LBB532:
 2450              	.LBB533:
 2451              		.loc 7 189 31 is_stmt 0 view .LVU662
 2452 0000 DFED097A 		vldr.32	s15, .L114
 2453              	.LVL156:
 2454              		.loc 7 189 31 view .LVU663
 2455              	.LBE533:
 2456              	.LBI532:
 177:../../../../DaisyExamples/DaisySP//Source/Utility/dsp.h **** {
 2457              		.loc 7 177 1 is_stmt 1 view .LVU664
 2458              	.LBE532:
 179:../../../../DaisyExamples/DaisySP//Source/Utility/dsp.h ****     {
 2459              		.loc 7 179 5 view .LVU665
 2460              	.LBB545:
 2461              	.LBB543:
 188:../../../../DaisyExamples/DaisySP//Source/Utility/dsp.h ****         default: return fclamp(min + in * (max - min), min, max);
 2462              		.loc 7 188 9 view .LVU666
 2463              		.loc 7 189 9 view .LVU667
 2464              		.loc 7 189 18 view .LVU668
 2465              	.LBB534:
 2466              	.LBB535:
 2467              	.LBB536:
  55:../../../../DaisyExamples/DaisySP//Source/Utility/dsp.h **** #else
 2468              		.loc 7 55 5 is_stmt 0 view .LVU669
 2469 0004 F0EE006A 		vmov.f32	s13, #2.0e+0
 2470              	.LBE536:
 2471              	.LBE535:
 2472              	.LBE534:
 2473              		.loc 7 189 31 view .LVU670
 2474 0008 9FED086A 		vldr.32	s12, .L114+4
 2475 000c B0EE677A 		vmov.f32	s14, s15
 2476 0010 A0EE067A 		vfma.f32	s14, s0, s12
 2477              	.LVL157:
 2478              	.LBB541:
 2479              	.LBI534:
  64:../../../../DaisyExamples/DaisySP//Source/Utility/dsp.h **** {
 2480              		.loc 7 64 14 is_stmt 1 view .LVU671
 2481              	.LBE541:
 2482              	.LBE543:
 2483              	.LBE545:
ARM GAS  C:\Users\samue\AppData\Local\Temp\ccSMt6Jg.s 			page 68


  66:../../../../DaisyExamples/DaisySP//Source/Utility/dsp.h **** }
 2484              		.loc 7 66 5 view .LVU672
 2485              	.LBB546:
 2486              	.LBB544:
 2487              	.LBB542:
 2488              	.LBB538:
 2489              	.LBI538:
  40:../../../../DaisyExamples/DaisySP//Source/Utility/dsp.h **** {
 2490              		.loc 7 40 14 view .LVU673
 2491              	.LBB539:
  42:../../../../DaisyExamples/DaisySP//Source/Utility/dsp.h **** #ifdef __arm__
 2492              		.loc 7 42 5 view .LVU674
  44:../../../../DaisyExamples/DaisySP//Source/Utility/dsp.h **** #else
 2493              		.loc 7 44 5 view .LVU675
 2494              		.syntax unified
 2495              	@ 44 "../../../../DaisyExamples/DaisySP//Source/Utility/dsp.h" 1
 2496 0014 C7FE277A 		vmaxnm.f32 s15, s14, s15
 2497              	@ 0 "" 2
 2498              	.LVL158:
  48:../../../../DaisyExamples/DaisySP//Source/Utility/dsp.h **** }
 2499              		.loc 7 48 5 view .LVU676
  48:../../../../DaisyExamples/DaisySP//Source/Utility/dsp.h **** }
 2500              		.loc 7 48 5 is_stmt 0 view .LVU677
 2501              		.thumb
 2502              		.syntax unified
 2503              	.LBE539:
 2504              	.LBE538:
 2505              	.LBB540:
 2506              	.LBI535:
  51:../../../../DaisyExamples/DaisySP//Source/Utility/dsp.h **** {
 2507              		.loc 7 51 14 is_stmt 1 view .LVU678
 2508              	.LBB537:
  53:../../../../DaisyExamples/DaisySP//Source/Utility/dsp.h **** #ifdef __arm__
 2509              		.loc 7 53 5 view .LVU679
  55:../../../../DaisyExamples/DaisySP//Source/Utility/dsp.h **** #else
 2510              		.loc 7 55 5 view .LVU680
 2511              		.syntax unified
 2512              	@ 55 "../../../../DaisyExamples/DaisySP//Source/Utility/dsp.h" 1
 2513 0018 C7FEE67A 		vminnm.f32 s15, s15, s13
 2514              	@ 0 "" 2
 2515              	.LVL159:
  59:../../../../DaisyExamples/DaisySP//Source/Utility/dsp.h **** }
 2516              		.loc 7 59 5 view .LVU681
  59:../../../../DaisyExamples/DaisySP//Source/Utility/dsp.h **** }
 2517              		.loc 7 59 5 is_stmt 0 view .LVU682
 2518              		.thumb
 2519              		.syntax unified
 2520              	.LBE537:
 2521              	.LBE540:
 2522              	.LBE542:
 2523              	.LBE544:
 2524              	.LBE546:
 169:voice.cpp     ****     amp_decay_time_ = time;
 2525              		.loc 2 169 5 is_stmt 1 view .LVU683
 2526              		.loc 2 169 21 is_stmt 0 view .LVU684
 2527 001c C0ED547A 		vstr.32	s15, [r0, #336]
 170:voice.cpp     ****     amp_env_.SetTime(ADENV_SEG_DECAY, time);
ARM GAS  C:\Users\samue\AppData\Local\Temp\ccSMt6Jg.s 			page 69


 2528              		.loc 2 170 5 is_stmt 1 view .LVU685
 2529              	.LVL160:
 2530              	.LBB547:
 2531              	.LBI547:
  66:../../../../DaisyExamples/DaisySP//Source/Control/adenv.h ****     /** Sets the amount of curve applied. A positve value will create a log
 2532              		.loc 4 66 17 view .LVU686
 2533              	.LBB548:
  66:../../../../DaisyExamples/DaisySP//Source/Control/adenv.h ****     /** Sets the amount of curve applied. A positve value will create a log
 2534              		.loc 4 66 52 view .LVU687
  66:../../../../DaisyExamples/DaisySP//Source/Control/adenv.h ****     /** Sets the amount of curve applied. A positve value will create a log
 2535              		.loc 4 66 71 is_stmt 0 view .LVU688
 2536 0020 C0ED297A 		vstr.32	s15, [r0, #164]
 2537              	.LVL161:
  66:../../../../DaisyExamples/DaisySP//Source/Control/adenv.h ****     /** Sets the amount of curve applied. A positve value will create a log
 2538              		.loc 4 66 71 view .LVU689
 2539              	.LBE548:
 2540              	.LBE547:
 171:voice.cpp     **** }
 2541              		.loc 2 171 1 view .LVU690
 2542 0024 7047     		bx	lr
 2543              	.L115:
 2544 0026 00BF     		.align	2
 2545              	.L114:
 2546 0028 6F12033B 		.word	990057071
 2547 002c 77BEFF3F 		.word	1073725047
 2548              		.cfi_endproc
 2549              	.LFE3693:
 2551              		.section	.text._ZN5voice11env_triggerEv,"ax",%progbits
 2552              		.align	1
 2553              		.p2align 2,,3
 2554              		.global	_ZN5voice11env_triggerEv
 2555              		.syntax unified
 2556              		.thumb
 2557              		.thumb_func
 2558              		.fpu fpv5-d16
 2560              	_ZN5voice11env_triggerEv:
 2561              	.LVL162:
 2562              	.LFB3694:
 172:voice.cpp     **** 
 173:voice.cpp     **** void voice::env_trigger()
 174:voice.cpp     **** {
 2563              		.loc 2 174 1 is_stmt 1 view -0
 2564              		.cfi_startproc
 2565              		@ args = 0, pretend = 0, frame = 0
 2566              		@ frame_needed = 0, uses_anonymous_args = 0
 2567              		@ link register save eliminated.
 175:voice.cpp     ****     amp_env_.Trigger();
 2568              		.loc 2 175 5 view .LVU692
 2569              	.LBB549:
 2570              	.LBB550:
  64:../../../../DaisyExamples/DaisySP//Source/Control/adenv.h ****     /** Sets the length of time (in seconds) for a specific segment. */
 2571              		.loc 4 64 38 is_stmt 0 view .LVU693
 2572 0000 0123     		movs	r3, #1
 2573              	.LVL163:
  64:../../../../DaisyExamples/DaisySP//Source/Control/adenv.h ****     /** Sets the length of time (in seconds) for a specific segment. */
 2574              		.loc 4 64 38 view .LVU694
 2575              	.LBE550:
ARM GAS  C:\Users\samue\AppData\Local\Temp\ccSMt6Jg.s 			page 70


 2576              	.LBI549:
  64:../../../../DaisyExamples/DaisySP//Source/Control/adenv.h ****     /** Sets the length of time (in seconds) for a specific segment. */
 2577              		.loc 4 64 17 is_stmt 1 view .LVU695
 2578              	.LBB551:
  64:../../../../DaisyExamples/DaisySP//Source/Control/adenv.h ****     /** Sets the length of time (in seconds) for a specific segment. */
 2579              		.loc 4 64 29 view .LVU696
  64:../../../../DaisyExamples/DaisySP//Source/Control/adenv.h ****     /** Sets the length of time (in seconds) for a specific segment. */
 2580              		.loc 4 64 38 is_stmt 0 view .LVU697
 2581 0002 80F8CC30 		strb	r3, [r0, #204]
 2582              	.LVL164:
  64:../../../../DaisyExamples/DaisySP//Source/Control/adenv.h ****     /** Sets the length of time (in seconds) for a specific segment. */
 2583              		.loc 4 64 38 view .LVU698
 2584              	.LBE551:
 2585              	.LBE549:
 176:voice.cpp     ****     freq_env_.Trigger();
 2586              		.loc 2 176 5 is_stmt 1 view .LVU699
 2587              	.LBB552:
 2588              	.LBI552:
  64:../../../../DaisyExamples/DaisySP//Source/Control/adenv.h ****     /** Sets the length of time (in seconds) for a specific segment. */
 2589              		.loc 4 64 17 view .LVU700
 2590              	.LBB553:
  64:../../../../DaisyExamples/DaisySP//Source/Control/adenv.h ****     /** Sets the length of time (in seconds) for a specific segment. */
 2591              		.loc 4 64 29 view .LVU701
  64:../../../../DaisyExamples/DaisySP//Source/Control/adenv.h ****     /** Sets the length of time (in seconds) for a specific segment. */
 2592              		.loc 4 64 38 is_stmt 0 view .LVU702
 2593 0006 80F80431 		strb	r3, [r0, #260]
 2594              	.LVL165:
  64:../../../../DaisyExamples/DaisySP//Source/Control/adenv.h ****     /** Sets the length of time (in seconds) for a specific segment. */
 2595              		.loc 4 64 38 view .LVU703
 2596              	.LBE553:
 2597              	.LBE552:
 177:voice.cpp     **** }
 2598              		.loc 2 177 1 view .LVU704
 2599 000a 7047     		bx	lr
 2600              		.cfi_endproc
 2601              	.LFE3694:
 2603              		.section	.text._ZN5voice15set_effect_modeEh,"ax",%progbits
 2604              		.align	1
 2605              		.p2align 2,,3
 2606              		.global	_ZN5voice15set_effect_modeEh
 2607              		.syntax unified
 2608              		.thumb
 2609              		.thumb_func
 2610              		.fpu fpv5-d16
 2612              	_ZN5voice15set_effect_modeEh:
 2613              	.LVL166:
 2614              	.LFB3695:
 178:voice.cpp     **** 
 179:voice.cpp     **** void voice::set_effect_mode(uint8_t mode)
 180:voice.cpp     **** {
 2615              		.loc 2 180 1 is_stmt 1 view -0
 2616              		.cfi_startproc
 2617              		@ args = 0, pretend = 0, frame = 0
 2618              		@ frame_needed = 0, uses_anonymous_args = 0
 2619              		@ link register save eliminated.
 181:voice.cpp     ****     effect_ = mode;
 2620              		.loc 2 181 5 view .LVU706
ARM GAS  C:\Users\samue\AppData\Local\Temp\ccSMt6Jg.s 			page 71


 2621              		.loc 2 181 13 is_stmt 0 view .LVU707
 2622 0000 80F85411 		strb	r1, [r0, #340]
 182:voice.cpp     **** }
 2623              		.loc 2 182 1 view .LVU708
 2624 0004 7047     		bx	lr
 2625              		.cfi_endproc
 2626              	.LFE3695:
 2628 0006 00BF     		.section	.text._ZN5voice18set_freq_env_decayEf,"ax",%progbits
 2629              		.align	1
 2630              		.p2align 2,,3
 2631              		.global	_ZN5voice18set_freq_env_decayEf
 2632              		.syntax unified
 2633              		.thumb
 2634              		.thumb_func
 2635              		.fpu fpv5-d16
 2637              	_ZN5voice18set_freq_env_decayEf:
 2638              	.LVL167:
 2639              	.LFB3696:
 183:voice.cpp     **** 
 184:voice.cpp     **** void voice::set_freq_env_decay(float time)
 185:voice.cpp     **** {
 2640              		.loc 2 185 1 is_stmt 1 view -0
 2641              		.cfi_startproc
 2642              		@ args = 0, pretend = 0, frame = 0
 2643              		@ frame_needed = 0, uses_anonymous_args = 0
 2644              		@ link register save eliminated.
 186:voice.cpp     ****     time = time * amp_decay_time_;
 2645              		.loc 2 186 5 view .LVU710
 187:voice.cpp     ****     freq_env_.SetTime(ADENV_SEG_DECAY, time);
 2646              		.loc 2 187 5 view .LVU711
 2647              	.LBB554:
 2648              	.LBI554:
  66:../../../../DaisyExamples/DaisySP//Source/Control/adenv.h ****     /** Sets the amount of curve applied. A positve value will create a log
 2649              		.loc 4 66 17 view .LVU712
 2650              	.LBB555:
  66:../../../../DaisyExamples/DaisySP//Source/Control/adenv.h ****     /** Sets the amount of curve applied. A positve value will create a log
 2651              		.loc 4 66 52 view .LVU713
 2652              	.LBE555:
 2653              	.LBE554:
 186:voice.cpp     ****     time = time * amp_decay_time_;
 2654              		.loc 2 186 10 is_stmt 0 view .LVU714
 2655 0000 D0ED547A 		vldr.32	s15, [r0, #336]
 2656 0004 27EE800A 		vmul.f32	s0, s15, s0
 2657              	.LVL168:
 2658              	.LBB557:
 2659              	.LBB556:
  66:../../../../DaisyExamples/DaisySP//Source/Control/adenv.h ****     /** Sets the amount of curve applied. A positve value will create a log
 2660              		.loc 4 66 71 view .LVU715
 2661 0008 80ED370A 		vstr.32	s0, [r0, #220]
 2662              	.LVL169:
  66:../../../../DaisyExamples/DaisySP//Source/Control/adenv.h ****     /** Sets the amount of curve applied. A positve value will create a log
 2663              		.loc 4 66 71 view .LVU716
 2664              	.LBE556:
 2665              	.LBE557:
 188:voice.cpp     **** }
 2666              		.loc 2 188 1 view .LVU717
 2667 000c 7047     		bx	lr
ARM GAS  C:\Users\samue\AppData\Local\Temp\ccSMt6Jg.s 			page 72


 2668              		.cfi_endproc
 2669              	.LFE3696:
 2671 000e 00BF     		.section	.text._ZN5voice10set_impactEf,"ax",%progbits
 2672              		.align	1
 2673              		.p2align 2,,3
 2674              		.global	_ZN5voice10set_impactEf
 2675              		.syntax unified
 2676              		.thumb
 2677              		.thumb_func
 2678              		.fpu fpv5-d16
 2680              	_ZN5voice10set_impactEf:
 2681              	.LVL170:
 2682              	.LFB3697:
 189:voice.cpp     **** 
 190:voice.cpp     **** void voice::set_impact(float impact)
 191:voice.cpp     **** {
 2683              		.loc 2 191 1 is_stmt 1 view -0
 2684              		.cfi_startproc
 2685              		@ args = 0, pretend = 0, frame = 0
 2686              		@ frame_needed = 0, uses_anonymous_args = 0
 2687              		@ link register save eliminated.
 192:voice.cpp     ****     freq_env_.SetMax(1.0f + 8.0f*impact);
 2688              		.loc 2 192 5 view .LVU719
 2689              		.loc 2 192 21 is_stmt 0 view .LVU720
 2690 0000 B2EE007A 		vmov.f32	s14, #8.0e+0
 2691 0004 F7EE007A 		vmov.f32	s15, #1.0e+0
 2692 0008 E0EE077A 		vfma.f32	s15, s0, s14
 2693              	.LVL171:
 2694              	.LBB558:
 2695              	.LBI558:
  75:../../../../DaisyExamples/DaisySP//Source/Control/adenv.h ****     /** Sets the maximum value of the envelope output.
  76:../../../../DaisyExamples/DaisySP//Source/Control/adenv.h ****         Input range: -FLTmax_, to FLTmax_
  77:../../../../DaisyExamples/DaisySP//Source/Control/adenv.h ****     */
  78:../../../../DaisyExamples/DaisySP//Source/Control/adenv.h ****     inline void SetMax(float max) { max_ = max; }
 2696              		.loc 4 78 17 is_stmt 1 view .LVU721
 2697              	.LBB559:
 2698              		.loc 4 78 37 view .LVU722
 2699              		.loc 4 78 42 is_stmt 0 view .LVU723
 2700 000c C0ED3A7A 		vstr.32	s15, [r0, #232]
 2701              	.LVL172:
 2702              		.loc 4 78 42 view .LVU724
 2703              	.LBE559:
 2704              	.LBE558:
 193:voice.cpp     **** }...
 2705              		.loc 2 193 1 view .LVU725
 2706 0010 7047     		bx	lr
 2707              		.cfi_endproc
 2708              	.LFE3697:
 2710 0012 00BF     		.text
 2711              	.Letext0:
 2712              		.file 8 "c:\\program files\\daisytoolchain\\arm-none-eabi\\include\\machine\\_default_types.h"
 2713              		.file 9 "c:\\program files\\daisytoolchain\\arm-none-eabi\\include\\sys\\_stdint.h"
 2714              		.file 10 "c:\\program files\\daisytoolchain\\arm-none-eabi\\include\\stdint.h"
 2715              		.file 11 "c:\\program files\\daisytoolchain\\lib\\gcc\\arm-none-eabi\\10.2.1\\include\\stddef.h"
 2716              		.file 12 "c:\\program files\\daisytoolchain\\arm-none-eabi\\include\\c++\\10.2.1\\cmath"
 2717              		.file 13 "c:\\program files\\daisytoolchain\\arm-none-eabi\\include\\c++\\10.2.1\\bits\\std_abs.h"
 2718              		.file 14 "c:\\program files\\daisytoolchain\\arm-none-eabi\\include\\c++\\10.2.1\\cstdint"
ARM GAS  C:\Users\samue\AppData\Local\Temp\ccSMt6Jg.s 			page 73


 2719              		.file 15 "c:\\program files\\daisytoolchain\\arm-none-eabi\\include\\c++\\10.2.1\\cstdlib"
 2720              		.file 16 "c:\\program files\\daisytoolchain\\arm-none-eabi\\include\\c++\\10.2.1\\type_traits"
 2721              		.file 17 "c:\\program files\\daisytoolchain\\arm-none-eabi\\include\\c++\\10.2.1\\debug\\debug.h"
 2722              		.file 18 "c:\\program files\\daisytoolchain\\arm-none-eabi\\include\\c++\\10.2.1\\cwchar"
 2723              		.file 19 "c:\\program files\\daisytoolchain\\arm-none-eabi\\include\\c++\\10.2.1\\bits\\stl_pair.h
 2724              		.file 20 "c:\\program files\\daisytoolchain\\arm-none-eabi\\include\\c++\\10.2.1\\bits\\exception_
 2725              		.file 21 "c:\\program files\\daisytoolchain\\arm-none-eabi\\include\\c++\\10.2.1\\arm-none-eabi\\t
 2726              		.file 22 "c:\\program files\\daisytoolchain\\arm-none-eabi\\include\\c++\\10.2.1\\clocale"
 2727              		.file 23 "c:\\program files\\daisytoolchain\\arm-none-eabi\\include\\c++\\10.2.1\\cstdio"
 2728              		.file 24 "c:\\program files\\daisytoolchain\\arm-none-eabi\\include\\c++\\10.2.1\\bits\\basic_stri
 2729              		.file 25 "c:\\program files\\daisytoolchain\\arm-none-eabi\\include\\c++\\10.2.1\\bits\\charconv.h
 2730              		.file 26 "c:\\program files\\daisytoolchain\\arm-none-eabi\\include\\c++\\10.2.1\\bits\\algorithmf
 2731              		.file 27 "c:\\program files\\daisytoolchain\\arm-none-eabi\\include\\c++\\10.2.1\\cstring"
 2732              		.file 28 "c:\\program files\\daisytoolchain\\arm-none-eabi\\include\\c++\\10.2.1\\bits\\move.h"
 2733              		.file 29 "c:\\program files\\daisytoolchain\\arm-none-eabi\\include\\c++\\10.2.1\\bits\\predefined
 2734              		.file 30 "c:\\program files\\daisytoolchain\\arm-none-eabi\\include\\sys\\_types.h"
 2735              		.file 31 "c:\\program files\\daisytoolchain\\arm-none-eabi\\include\\sys\\reent.h"
 2736              		.file 32 "c:\\program files\\daisytoolchain\\arm-none-eabi\\include\\sys\\lock.h"
 2737              		.file 33 "c:\\program files\\daisytoolchain\\arm-none-eabi\\include\\math.h"
 2738              		.file 34 "c:\\program files\\daisytoolchain\\arm-none-eabi\\include\\stdlib.h"
 2739              		.file 35 "c:\\program files\\daisytoolchain\\arm-none-eabi\\include\\c++\\10.2.1\\math.h"
 2740              		.file 36 "../../../../DaisyExamples/DaisySP//Source/Synthesis/fm2.h"
 2741              		.file 37 "c:\\program files\\daisytoolchain\\lib\\gcc\\arm-none-eabi\\10.2.1\\include\\stdarg.h"
 2742              		.file 38 "c:\\program files\\daisytoolchain\\arm-none-eabi\\include\\wchar.h"
 2743              		.file 39 "c:\\program files\\daisytoolchain\\arm-none-eabi\\include\\locale.h"
 2744              		.file 40 "c:\\program files\\daisytoolchain\\arm-none-eabi\\include\\stdio.h"
 2745              		.file 41 "c:\\program files\\daisytoolchain\\arm-none-eabi\\include\\c++\\10.2.1\\stdlib.h"
 2746              		.file 42 "c:\\program files\\daisytoolchain\\arm-none-eabi\\include\\string.h"
 2747              		.file 43 "voice.h"
 2748              		.file 44 "c:\\program files\\daisytoolchain\\arm-none-eabi\\include\\assert.h"
 2749              		.file 45 "<built-in>"
ARM GAS  C:\Users\samue\AppData\Local\Temp\ccSMt6Jg.s 			page 74

