ARM GAS  C:\Users\samue\AppData\Local\Temp\cc7BohBx.s 			page 1


   1              		.cpu cortex-m7
   2              		.eabi_attribute 28, 1
   3              		.eabi_attribute 20, 1
   4              		.eabi_attribute 21, 1
   5              		.eabi_attribute 23, 3
   6              		.eabi_attribute 24, 1
   7              		.eabi_attribute 25, 1
   8              		.eabi_attribute 26, 1
   9              		.eabi_attribute 30, 2
  10              		.eabi_attribute 34, 1
  11              		.eabi_attribute 18, 4
  12              		.file	"voice.cpp"
  13              		.text
  14              	.Ltext0:
  15              		.cfi_sections	.debug_frame
  16              		.section	.rodata._ZN7daisysp9FIRMemoryILj0ELj0EE5ResetEv.part.0.str1.4,"aMS",%progbits,1
  17              		.align	2
  18              	.LC0:
  19 0000 3020213D 		.ascii	"0 != state_size_\000"
  19      20737461 
  19      74655F73 
  19      697A655F 
  19      00
  20 0011 000000   		.align	2
  21              	.LC1:
  22 0014 766F6964 		.ascii	"void daisysp::FIRMemory<0, 0>::Reset()\000"
  22      20646169 
  22      73797370 
  22      3A3A4649 
  22      524D656D 
  23 003b 00       		.align	2
  24              	.LC2:
  25 003c 2E2E2F2E 		.ascii	"../../../../DaisyExamples/DaisySP//Source/Filters/f"
  25      2E2F2E2E 
  25      2F2E2E2F 
  25      44616973 
  25      79457861 
  26 006f 69722E68 		.ascii	"ir.h\000"
  26      00
  27              		.section	.text._ZN7daisysp9FIRMemoryILj0ELj0EE5ResetEv.part.0,"ax",%progbits
  28              		.align	1
  29              		.p2align 2,,3
  30              		.arch armv7e-m
  31              		.syntax unified
  32              		.thumb
  33              		.thumb_func
  34              		.fpu fpv5-d16
  36              	_ZN7daisysp9FIRMemoryILj0ELj0EE5ResetEv.part.0:
  37              	.LFB4089:
  38              		.file 1 "../../../../DaisyExamples/DaisySP//Source/Filters/fir.h"
   1:../../../../DaisyExamples/DaisySP//Source/Filters/fir.h **** /*
   2:../../../../DaisyExamples/DaisySP//Source/Filters/fir.h **** Copyright (c) 2020 Electrosmith, Corp, Alexander Petrov-Savchenko
   3:../../../../DaisyExamples/DaisySP//Source/Filters/fir.h **** 
   4:../../../../DaisyExamples/DaisySP//Source/Filters/fir.h **** Use of this source code is governed by an MIT-style
   5:../../../../DaisyExamples/DaisySP//Source/Filters/fir.h **** license that can be found in the LICENSE file or at
   6:../../../../DaisyExamples/DaisySP//Source/Filters/fir.h **** https://opensource.org/licenses/MIT.
   7:../../../../DaisyExamples/DaisySP//Source/Filters/fir.h **** */
ARM GAS  C:\Users\samue\AppData\Local\Temp\cc7BohBx.s 			page 2


   8:../../../../DaisyExamples/DaisySP//Source/Filters/fir.h **** 
   9:../../../../DaisyExamples/DaisySP//Source/Filters/fir.h **** #pragma once
  10:../../../../DaisyExamples/DaisySP//Source/Filters/fir.h **** #ifndef DSY_FIRFILTER_H
  11:../../../../DaisyExamples/DaisySP//Source/Filters/fir.h **** #define DSY_FIRFILTER_H
  12:../../../../DaisyExamples/DaisySP//Source/Filters/fir.h **** 
  13:../../../../DaisyExamples/DaisySP//Source/Filters/fir.h **** #include <cstdint>
  14:../../../../DaisyExamples/DaisySP//Source/Filters/fir.h **** #include <cstring> // for memset
  15:../../../../DaisyExamples/DaisySP//Source/Filters/fir.h **** #include <cassert>
  16:../../../../DaisyExamples/DaisySP//Source/Filters/fir.h **** #include <utility>
  17:../../../../DaisyExamples/DaisySP//Source/Filters/fir.h **** 
  18:../../../../DaisyExamples/DaisySP//Source/Filters/fir.h **** #ifdef USE_ARM_DSP
  19:../../../../DaisyExamples/DaisySP//Source/Filters/fir.h **** #include <arm_math.h> // required for platform-optimized version
  20:../../../../DaisyExamples/DaisySP//Source/Filters/fir.h **** #endif
  21:../../../../DaisyExamples/DaisySP//Source/Filters/fir.h **** 
  22:../../../../DaisyExamples/DaisySP//Source/Filters/fir.h **** /**   @brief FIR Filter implementation, generic and ARM CMSIS DSP based
  23:../../../../DaisyExamples/DaisySP//Source/Filters/fir.h ****  *    @author Alexander Petrov-Savchenko (axp@soft-amp.com)
  24:../../../../DaisyExamples/DaisySP//Source/Filters/fir.h ****  *    @date February 2021
  25:../../../../DaisyExamples/DaisySP//Source/Filters/fir.h ****  */
  26:../../../../DaisyExamples/DaisySP//Source/Filters/fir.h **** 
  27:../../../../DaisyExamples/DaisySP//Source/Filters/fir.h **** namespace daisysp
  28:../../../../DaisyExamples/DaisySP//Source/Filters/fir.h **** {
  29:../../../../DaisyExamples/DaisySP//Source/Filters/fir.h **** /* use this as a template parameter to indicate user-provided memory storage */
  30:../../../../DaisyExamples/DaisySP//Source/Filters/fir.h **** #define FIRFILTER_USER_MEMORY 0, 0
  31:../../../../DaisyExamples/DaisySP//Source/Filters/fir.h **** 
  32:../../../../DaisyExamples/DaisySP//Source/Filters/fir.h **** /** Helper class that defines the memory model - internal or user-provided 
  33:../../../../DaisyExamples/DaisySP//Source/Filters/fir.h ****  * \param max_size - maximal filter length
  34:../../../../DaisyExamples/DaisySP//Source/Filters/fir.h ****  * \param max_block - maximal length of the block processing
  35:../../../../DaisyExamples/DaisySP//Source/Filters/fir.h ****  * if both parameters are 0, does NOT allocate any memory and instead
  36:../../../../DaisyExamples/DaisySP//Source/Filters/fir.h ****  * requires user-provided memory blocks to be passed as parameters.
  37:../../../../DaisyExamples/DaisySP//Source/Filters/fir.h ****  *
  38:../../../../DaisyExamples/DaisySP//Source/Filters/fir.h ****  * Not intended to be used directly, so constructor is not exposed
  39:../../../../DaisyExamples/DaisySP//Source/Filters/fir.h ****  */
  40:../../../../DaisyExamples/DaisySP//Source/Filters/fir.h **** template <size_t max_size, size_t max_block>
  41:../../../../DaisyExamples/DaisySP//Source/Filters/fir.h **** struct FIRMemory
  42:../../../../DaisyExamples/DaisySP//Source/Filters/fir.h **** {
  43:../../../../DaisyExamples/DaisySP//Source/Filters/fir.h ****     /* Public part of the API to be passed through to the FIR users */
  44:../../../../DaisyExamples/DaisySP//Source/Filters/fir.h ****   public:
  45:../../../../DaisyExamples/DaisySP//Source/Filters/fir.h ****     /* Reset the internal filter state (but not the coefficients) */
  46:../../../../DaisyExamples/DaisySP//Source/Filters/fir.h ****     void Reset() { memset(state_, 0, state_size_ * sizeof(state_[0])); }
  47:../../../../DaisyExamples/DaisySP//Source/Filters/fir.h **** 
  48:../../../../DaisyExamples/DaisySP//Source/Filters/fir.h **** 
  49:../../../../DaisyExamples/DaisySP//Source/Filters/fir.h ****   protected:
  50:../../../../DaisyExamples/DaisySP//Source/Filters/fir.h ****     FIRMemory() : state_{0}, coefs_{0}, size_(0) {}
  51:../../../../DaisyExamples/DaisySP//Source/Filters/fir.h **** 
  52:../../../../DaisyExamples/DaisySP//Source/Filters/fir.h ****     /* Expression for the maximum block size */
  53:../../../../DaisyExamples/DaisySP//Source/Filters/fir.h ****     static constexpr size_t MaxBlock() { return max_block; }
  54:../../../../DaisyExamples/DaisySP//Source/Filters/fir.h **** 
  55:../../../../DaisyExamples/DaisySP//Source/Filters/fir.h ****     /** Configure the filter coefficients
  56:../../../../DaisyExamples/DaisySP//Source/Filters/fir.h ****      * \param coefs - pointer to coefficients (tail-first order)
  57:../../../../DaisyExamples/DaisySP//Source/Filters/fir.h ****      * \param size - number of coefficients pointed by coefs (filter length)
  58:../../../../DaisyExamples/DaisySP//Source/Filters/fir.h ****      * \param reverse - flag to perform reversing of the filter
  59:../../../../DaisyExamples/DaisySP//Source/Filters/fir.h ****      * \return true if all conditions are met and the filter is configured
  60:../../../../DaisyExamples/DaisySP//Source/Filters/fir.h ****      */
  61:../../../../DaisyExamples/DaisySP//Source/Filters/fir.h ****     bool SetCoefs(const float coefs[], size_t size, bool reverse)
  62:../../../../DaisyExamples/DaisySP//Source/Filters/fir.h ****     {
  63:../../../../DaisyExamples/DaisySP//Source/Filters/fir.h ****         /* truncate silently */
  64:../../../../DaisyExamples/DaisySP//Source/Filters/fir.h ****         size_ = DSY_MIN(size, max_size);
ARM GAS  C:\Users\samue\AppData\Local\Temp\cc7BohBx.s 			page 3


  65:../../../../DaisyExamples/DaisySP//Source/Filters/fir.h **** 
  66:../../../../DaisyExamples/DaisySP//Source/Filters/fir.h ****         if(reverse)
  67:../../../../DaisyExamples/DaisySP//Source/Filters/fir.h ****         {
  68:../../../../DaisyExamples/DaisySP//Source/Filters/fir.h ****             /* reverse the IR */
  69:../../../../DaisyExamples/DaisySP//Source/Filters/fir.h ****             for(size_t i = 0; i < size_; i++)
  70:../../../../DaisyExamples/DaisySP//Source/Filters/fir.h ****             {
  71:../../../../DaisyExamples/DaisySP//Source/Filters/fir.h ****                 /* start from size, not size_! */
  72:../../../../DaisyExamples/DaisySP//Source/Filters/fir.h ****                 coefs_[i] = coefs[size - 1u - i];
  73:../../../../DaisyExamples/DaisySP//Source/Filters/fir.h ****             }
  74:../../../../DaisyExamples/DaisySP//Source/Filters/fir.h ****         }
  75:../../../../DaisyExamples/DaisySP//Source/Filters/fir.h ****         else
  76:../../../../DaisyExamples/DaisySP//Source/Filters/fir.h ****         {
  77:../../../../DaisyExamples/DaisySP//Source/Filters/fir.h ****             /* just copy as is */
  78:../../../../DaisyExamples/DaisySP//Source/Filters/fir.h ****             memcpy(coefs_, coefs, size_ * sizeof(coefs[0]));
  79:../../../../DaisyExamples/DaisySP//Source/Filters/fir.h ****         }
  80:../../../../DaisyExamples/DaisySP//Source/Filters/fir.h **** 
  81:../../../../DaisyExamples/DaisySP//Source/Filters/fir.h ****         return true;
  82:../../../../DaisyExamples/DaisySP//Source/Filters/fir.h ****     }
  83:../../../../DaisyExamples/DaisySP//Source/Filters/fir.h **** 
  84:../../../../DaisyExamples/DaisySP//Source/Filters/fir.h ****     static constexpr size_t state_size_ = max_size + max_block - 1u;
  85:../../../../DaisyExamples/DaisySP//Source/Filters/fir.h ****     float                   state_[state_size_]; /*< Internal state buffer */
  86:../../../../DaisyExamples/DaisySP//Source/Filters/fir.h ****     float                   coefs_[max_size];    /*< Filter coefficients */
  87:../../../../DaisyExamples/DaisySP//Source/Filters/fir.h ****     size_t                  size_; /*< Active filter length (<= max_size) */
  88:../../../../DaisyExamples/DaisySP//Source/Filters/fir.h **** };
  89:../../../../DaisyExamples/DaisySP//Source/Filters/fir.h **** 
  90:../../../../DaisyExamples/DaisySP//Source/Filters/fir.h **** /* Specialization for user-provided memory */
  91:../../../../DaisyExamples/DaisySP//Source/Filters/fir.h **** template <>
  92:../../../../DaisyExamples/DaisySP//Source/Filters/fir.h **** struct FIRMemory<FIRFILTER_USER_MEMORY>
  93:../../../../DaisyExamples/DaisySP//Source/Filters/fir.h **** {
  94:../../../../DaisyExamples/DaisySP//Source/Filters/fir.h ****     /* Public part of the API to be passed through to the FIRFilter user */
  95:../../../../DaisyExamples/DaisySP//Source/Filters/fir.h ****   public:
  96:../../../../DaisyExamples/DaisySP//Source/Filters/fir.h ****     /** Set user-provided state buffer
  97:../../../../DaisyExamples/DaisySP//Source/Filters/fir.h ****      * \param state - pointer to the allocated memory block
  98:../../../../DaisyExamples/DaisySP//Source/Filters/fir.h ****      * \param length - length of the provided memory block (in elements)
  99:../../../../DaisyExamples/DaisySP//Source/Filters/fir.h ****      * The length should be determined as follows 
 100:../../../../DaisyExamples/DaisySP//Source/Filters/fir.h ****      * length >= max_filter_size + max_processing_block - 1
 101:../../../../DaisyExamples/DaisySP//Source/Filters/fir.h ****      */
 102:../../../../DaisyExamples/DaisySP//Source/Filters/fir.h ****     void SetStateBuffer(float state[], size_t length)
 103:../../../../DaisyExamples/DaisySP//Source/Filters/fir.h ****     {
 104:../../../../DaisyExamples/DaisySP//Source/Filters/fir.h ****         state_      = state;
 105:../../../../DaisyExamples/DaisySP//Source/Filters/fir.h ****         state_size_ = length;
 106:../../../../DaisyExamples/DaisySP//Source/Filters/fir.h ****     }
 107:../../../../DaisyExamples/DaisySP//Source/Filters/fir.h ****     /* Reset the internal filter state (but not the coefficients) */
 108:../../../../DaisyExamples/DaisySP//Source/Filters/fir.h ****     void Reset()
  39              		.loc 1 108 10 view -0
  40              		.cfi_startproc
  41              		@ Volatile: function does not return.
  42              		@ args = 0, pretend = 0, frame = 0
  43              		@ frame_needed = 0, uses_anonymous_args = 0
  44              	.LVL0:
  45              		.loc 1 108 10 is_stmt 0 view .LVU1
  46 0000 08B5     		push	{r3, lr}
  47              		.cfi_def_cfa_offset 8
  48              		.cfi_offset 3, -8
  49              		.cfi_offset 14, -4
 109:../../../../DaisyExamples/DaisySP//Source/Filters/fir.h ****     {
 110:../../../../DaisyExamples/DaisySP//Source/Filters/fir.h ****         assert(nullptr != state_);
ARM GAS  C:\Users\samue\AppData\Local\Temp\cc7BohBx.s 			page 4


 111:../../../../DaisyExamples/DaisySP//Source/Filters/fir.h ****         assert(0 != state_size_);
  50              		.loc 1 111 9 view .LVU2
  51 0002 034A     		ldr	r2, .L4
  52 0004 6F21     		movs	r1, #111
  53 0006 034B     		ldr	r3, .L4+4
  54 0008 0348     		ldr	r0, .L4+8
  55 000a FFF7FEFF 		bl	__assert_func
  56              	.LVL1:
  57              	.L5:
  58 000e 00BF     		.align	2
  59              	.L4:
  60 0010 14000000 		.word	.LC1
  61 0014 00000000 		.word	.LC0
  62 0018 3C000000 		.word	.LC2
  63              		.cfi_endproc
  64              	.LFE4089:
  66              		.section	.rodata._ZN7daisysp9FIRMemoryILj0ELj0EE8SetCoefsEPKfjb.part.0.str1.4,"aMS",%progbits,1
  67              		.align	2
  68              	.LC3:
  69 0000 6E756C6C 		.ascii	"nullptr != coefs || 0 == size\000"
  69      70747220 
  69      213D2063 
  69      6F656673 
  69      207C7C20 
  70 001e 0000     		.align	2
  71              	.LC4:
  72 0020 626F6F6C 		.ascii	"bool daisysp::FIRMemory<0, 0>::SetCoefs(const float"
  72      20646169 
  72      73797370 
  72      3A3A4649 
  72      524D656D 
  73 0053 2A2C2073 		.ascii	"*, size_t, bool)\000"
  73      697A655F 
  73      742C2062 
  73      6F6F6C29 
  73      00
  74              		.section	.text._ZN7daisysp9FIRMemoryILj0ELj0EE8SetCoefsEPKfjb.part.0,"ax",%progbits
  75              		.align	1
  76              		.p2align 2,,3
  77              		.syntax unified
  78              		.thumb
  79              		.thumb_func
  80              		.fpu fpv5-d16
  82              	_ZN7daisysp9FIRMemoryILj0ELj0EE8SetCoefsEPKfjb.part.0:
  83              	.LFB4090:
 112:../../../../DaisyExamples/DaisySP//Source/Filters/fir.h ****         if(nullptr != state_)
 113:../../../../DaisyExamples/DaisySP//Source/Filters/fir.h ****         {
 114:../../../../DaisyExamples/DaisySP//Source/Filters/fir.h ****             memset(state_, 0, state_size_ * sizeof(state_[0]));
 115:../../../../DaisyExamples/DaisySP//Source/Filters/fir.h ****         }
 116:../../../../DaisyExamples/DaisySP//Source/Filters/fir.h ****     }
 117:../../../../DaisyExamples/DaisySP//Source/Filters/fir.h **** 
 118:../../../../DaisyExamples/DaisySP//Source/Filters/fir.h ****   protected:
 119:../../../../DaisyExamples/DaisySP//Source/Filters/fir.h ****     FIRMemory() : state_(nullptr), coefs_(nullptr), size_(0), state_size_(0) {}
 120:../../../../DaisyExamples/DaisySP//Source/Filters/fir.h **** 
 121:../../../../DaisyExamples/DaisySP//Source/Filters/fir.h ****     /* Expression for the maximum processing block size currently supported */
 122:../../../../DaisyExamples/DaisySP//Source/Filters/fir.h ****     size_t MaxBlock() const
 123:../../../../DaisyExamples/DaisySP//Source/Filters/fir.h ****     {
ARM GAS  C:\Users\samue\AppData\Local\Temp\cc7BohBx.s 			page 5


 124:../../../../DaisyExamples/DaisySP//Source/Filters/fir.h ****         return state_size_ + 1u > size_ ? state_size_ + 1u - size_ : 0;
 125:../../../../DaisyExamples/DaisySP//Source/Filters/fir.h ****     }
 126:../../../../DaisyExamples/DaisySP//Source/Filters/fir.h **** 
 127:../../../../DaisyExamples/DaisySP//Source/Filters/fir.h ****     /** Configure the filter coefficients
 128:../../../../DaisyExamples/DaisySP//Source/Filters/fir.h ****      * \param coefs - pointer to coefficients (tail-first order)
 129:../../../../DaisyExamples/DaisySP//Source/Filters/fir.h ****      * \param size - number of coefficients pointed by coefs (filter length)
 130:../../../../DaisyExamples/DaisySP//Source/Filters/fir.h ****      * \param reverse - flag to perform reversing of the filter
 131:../../../../DaisyExamples/DaisySP//Source/Filters/fir.h ****      * \return true if all conditions are met and the filter is configured
 132:../../../../DaisyExamples/DaisySP//Source/Filters/fir.h ****      */
 133:../../../../DaisyExamples/DaisySP//Source/Filters/fir.h ****     bool SetCoefs(const float coefs[], size_t size, bool reverse)
  84              		.loc 1 133 10 is_stmt 1 view -0
  85              		.cfi_startproc
  86              		@ Volatile: function does not return.
  87              		@ args = 0, pretend = 0, frame = 0
  88              		@ frame_needed = 0, uses_anonymous_args = 0
  89              	.LVL2:
  90              		.loc 1 133 10 is_stmt 0 view .LVU4
  91 0000 08B5     		push	{r3, lr}
  92              		.cfi_def_cfa_offset 8
  93              		.cfi_offset 3, -8
  94              		.cfi_offset 14, -4
 134:../../../../DaisyExamples/DaisySP//Source/Filters/fir.h ****     {
 135:../../../../DaisyExamples/DaisySP//Source/Filters/fir.h ****         /* reversing of external IR is not supported*/
 136:../../../../DaisyExamples/DaisySP//Source/Filters/fir.h ****         assert(false == reverse);
 137:../../../../DaisyExamples/DaisySP//Source/Filters/fir.h ****         assert(nullptr != coefs || 0 == size);
  95              		.loc 1 137 9 view .LVU5
  96 0002 034A     		ldr	r2, .L8
  97 0004 8921     		movs	r1, #137
  98 0006 034B     		ldr	r3, .L8+4
  99 0008 0348     		ldr	r0, .L8+8
 100 000a FFF7FEFF 		bl	__assert_func
 101              	.LVL3:
 102              	.L9:
 103 000e 00BF     		.align	2
 104              	.L8:
 105 0010 20000000 		.word	.LC4
 106 0014 00000000 		.word	.LC3
 107 0018 3C000000 		.word	.LC2
 108              		.cfi_endproc
 109              	.LFE4090:
 111              		.section	.rodata._ZN7daisysp20FIRFilterImplGenericILj0ELj0EE7ProcessEf.part.0.str1.4,"aMS",%progbi
 112              		.align	2
 113              	.LC5:
 114 0000 73697A65 		.ascii	"size_ > 0u\000"
 114      5F203E20 
 114      307500
 115 000b 00       		.align	2
 116              	.LC6:
 117 000c 666C6F61 		.ascii	"float daisysp::FIRFilterImplGeneric<max_size, max_b"
 117      74206461 
 117      69737973 
 117      703A3A46 
 117      49524669 
 118 003f 6C6F636B 		.ascii	"lock>::Process(float) [with unsigned int max_size ="
 118      3E3A3A50 
 118      726F6365 
 118      73732866 
ARM GAS  C:\Users\samue\AppData\Local\Temp\cc7BohBx.s 			page 6


 118      6C6F6174 
 119 0072 20303B20 		.ascii	" 0; unsigned int max_block = 0]\000"
 119      756E7369 
 119      676E6564 
 119      20696E74 
 119      206D6178 
 120              		.section	.text._ZN7daisysp20FIRFilterImplGenericILj0ELj0EE7ProcessEf.part.0,"ax",%progbits
 121              		.align	1
 122              		.p2align 2,,3
 123              		.syntax unified
 124              		.thumb
 125              		.thumb_func
 126              		.fpu fpv5-d16
 128              	_ZN7daisysp20FIRFilterImplGenericILj0ELj0EE7ProcessEf.part.0:
 129              	.LFB4092:
 138:../../../../DaisyExamples/DaisySP//Source/Filters/fir.h **** 
 139:../../../../DaisyExamples/DaisySP//Source/Filters/fir.h ****         if(false == reverse && (nullptr != coefs || 0 == size))
 140:../../../../DaisyExamples/DaisySP//Source/Filters/fir.h ****         {
 141:../../../../DaisyExamples/DaisySP//Source/Filters/fir.h ****             coefs_ = coefs;
 142:../../../../DaisyExamples/DaisySP//Source/Filters/fir.h ****             size_  = size;
 143:../../../../DaisyExamples/DaisySP//Source/Filters/fir.h ****             return true;
 144:../../../../DaisyExamples/DaisySP//Source/Filters/fir.h ****         }
 145:../../../../DaisyExamples/DaisySP//Source/Filters/fir.h **** 
 146:../../../../DaisyExamples/DaisySP//Source/Filters/fir.h ****         return false;
 147:../../../../DaisyExamples/DaisySP//Source/Filters/fir.h ****     }
 148:../../../../DaisyExamples/DaisySP//Source/Filters/fir.h **** 
 149:../../../../DaisyExamples/DaisySP//Source/Filters/fir.h ****     /* Internal member variables */
 150:../../../../DaisyExamples/DaisySP//Source/Filters/fir.h **** 
 151:../../../../DaisyExamples/DaisySP//Source/Filters/fir.h ****     float*       state_;      /*< Internal state buffer */
 152:../../../../DaisyExamples/DaisySP//Source/Filters/fir.h ****     const float* coefs_;      /*< Filter coefficients */
 153:../../../../DaisyExamples/DaisySP//Source/Filters/fir.h ****     size_t       size_;       /*< number of filter coefficients */
 154:../../../../DaisyExamples/DaisySP//Source/Filters/fir.h ****     size_t       state_size_; /*< length of the state buffer */
 155:../../../../DaisyExamples/DaisySP//Source/Filters/fir.h **** };
 156:../../../../DaisyExamples/DaisySP//Source/Filters/fir.h **** 
 157:../../../../DaisyExamples/DaisySP//Source/Filters/fir.h **** 
 158:../../../../DaisyExamples/DaisySP//Source/Filters/fir.h **** /** Generic FIR implementation is always available
 159:../../../../DaisyExamples/DaisySP//Source/Filters/fir.h ****  * \param max_size - maximal filter length
 160:../../../../DaisyExamples/DaisySP//Source/Filters/fir.h ****  * \param max_block - maximal block size for ProcessBlock()
 161:../../../../DaisyExamples/DaisySP//Source/Filters/fir.h ****  * if both parameters are 0 (via FIRFILTER_USER_MEMORY macro)
 162:../../../../DaisyExamples/DaisySP//Source/Filters/fir.h ****  * Assumes the user will provide own memory buffers
 163:../../../../DaisyExamples/DaisySP//Source/Filters/fir.h ****  * via SetIR() and SetStateBuffer() functions
 164:../../../../DaisyExamples/DaisySP//Source/Filters/fir.h ****  * Otherwise statically allocates the necessary buffers itself
 165:../../../../DaisyExamples/DaisySP//Source/Filters/fir.h ****  */
 166:../../../../DaisyExamples/DaisySP//Source/Filters/fir.h **** template <size_t max_size, size_t max_block>
 167:../../../../DaisyExamples/DaisySP//Source/Filters/fir.h **** class FIRFilterImplGeneric : public FIRMemory<max_size, max_block>
 168:../../../../DaisyExamples/DaisySP//Source/Filters/fir.h **** {
 169:../../../../DaisyExamples/DaisySP//Source/Filters/fir.h ****   private:
 170:../../../../DaisyExamples/DaisySP//Source/Filters/fir.h ****     using FIRMem = FIRMemory<max_size, max_block>; // just a shorthand
 171:../../../../DaisyExamples/DaisySP//Source/Filters/fir.h **** 
 172:../../../../DaisyExamples/DaisySP//Source/Filters/fir.h ****   public:
 173:../../../../DaisyExamples/DaisySP//Source/Filters/fir.h ****     /* Default constructor */
 174:../../../../DaisyExamples/DaisySP//Source/Filters/fir.h ****     FIRFilterImplGeneric() {}
 175:../../../../DaisyExamples/DaisySP//Source/Filters/fir.h **** 
 176:../../../../DaisyExamples/DaisySP//Source/Filters/fir.h ****     /* Reset filter state (but not the coefficients) */
 177:../../../../DaisyExamples/DaisySP//Source/Filters/fir.h ****     using FIRMem::Reset;
 178:../../../../DaisyExamples/DaisySP//Source/Filters/fir.h **** 
 179:../../../../DaisyExamples/DaisySP//Source/Filters/fir.h ****     /* FIR Latency is always 0, but API is unified with FFT and fast convolution */
ARM GAS  C:\Users\samue\AppData\Local\Temp\cc7BohBx.s 			page 7


 180:../../../../DaisyExamples/DaisySP//Source/Filters/fir.h ****     static constexpr size_t GetLatency() { return 0; }
 181:../../../../DaisyExamples/DaisySP//Source/Filters/fir.h **** 
 182:../../../../DaisyExamples/DaisySP//Source/Filters/fir.h ****     /* Process one sample at a time */
 183:../../../../DaisyExamples/DaisySP//Source/Filters/fir.h ****     float Process(float in)
 130              		.loc 1 183 11 is_stmt 1 view -0
 131              		.cfi_startproc
 132              		@ Volatile: function does not return.
 133              		@ args = 0, pretend = 0, frame = 0
 134              		@ frame_needed = 0, uses_anonymous_args = 0
 135              	.LVL4:
 136              		.loc 1 183 11 is_stmt 0 view .LVU7
 137 0000 08B5     		push	{r3, lr}
 138              		.cfi_def_cfa_offset 8
 139              		.cfi_offset 3, -8
 140              		.cfi_offset 14, -4
 184:../../../../DaisyExamples/DaisySP//Source/Filters/fir.h ****     {
 185:../../../../DaisyExamples/DaisySP//Source/Filters/fir.h ****         assert(size_ > 0u);
 141              		.loc 1 185 9 view .LVU8
 142 0002 034A     		ldr	r2, .L12
 143 0004 B921     		movs	r1, #185
 144 0006 034B     		ldr	r3, .L12+4
 145 0008 0348     		ldr	r0, .L12+8
 146 000a FFF7FEFF 		bl	__assert_func
 147              	.LVL5:
 148              	.L13:
 149 000e 00BF     		.align	2
 150              	.L12:
 151 0010 0C000000 		.word	.LC6
 152 0014 00000000 		.word	.LC5
 153 0018 3C000000 		.word	.LC2
 154              		.cfi_endproc
 155              	.LFE4092:
 157              		.section	.text._ZN5voice4InitEf,"ax",%progbits
 158              		.align	1
 159              		.p2align 2,,3
 160              		.global	_ZN5voice4InitEf
 161              		.syntax unified
 162              		.thumb
 163              		.thumb_func
 164              		.fpu fpv5-d16
 166              	_ZN5voice4InitEf:
 167              	.LVL6:
 168              	.LFB3515:
 169              		.file 2 "voice.cpp"
   1:voice.cpp     **** #include "voice.h"
   2:voice.cpp     **** 
   3:voice.cpp     **** void voice::Init(float fs)
   4:voice.cpp     **** {
 170              		.loc 2 4 1 is_stmt 1 view -0
 171              		.cfi_startproc
 172              		@ args = 0, pretend = 0, frame = 0
 173              		@ frame_needed = 0, uses_anonymous_args = 0
   5:voice.cpp     ****     osc_.Init(fs);
 174              		.loc 2 5 5 view .LVU10
   4:voice.cpp     ****     osc_.Init(fs);
 175              		.loc 2 4 1 is_stmt 0 view .LVU11
 176 0000 2DE9F041 		push	{r4, r5, r6, r7, r8, lr}
ARM GAS  C:\Users\samue\AppData\Local\Temp\cc7BohBx.s 			page 8


 177              		.cfi_def_cfa_offset 24
 178              		.cfi_offset 4, -24
 179              		.cfi_offset 5, -20
 180              		.cfi_offset 6, -16
 181              		.cfi_offset 7, -12
 182              		.cfi_offset 8, -8
 183              		.cfi_offset 14, -4
 184 0004 2DED048B 		vpush.64	{d8, d9}
 185              		.cfi_def_cfa_offset 40
 186              		.cfi_offset 80, -40
 187              		.cfi_offset 81, -36
 188              		.cfi_offset 82, -32
 189              		.cfi_offset 83, -28
   4:voice.cpp     ****     osc_.Init(fs);
 190              		.loc 2 4 1 view .LVU12
 191 0008 B0EE408A 		vmov.f32	s16, s0
 192 000c 0446     		mov	r4, r0
 193              	.LVL7:
 194              	.LBB241:
 195              	.LBI241:
 196              		.file 3 "../../../../DaisyExamples/DaisySP//Source/Synthesis/oscillator.h"
   1:../../../../DaisyExamples/DaisySP//Source/Synthesis/oscillator.h **** /*
   2:../../../../DaisyExamples/DaisySP//Source/Synthesis/oscillator.h **** Copyright (c) 2020 Electrosmith, Corp
   3:../../../../DaisyExamples/DaisySP//Source/Synthesis/oscillator.h **** 
   4:../../../../DaisyExamples/DaisySP//Source/Synthesis/oscillator.h **** Use of this source code is governed by an MIT-style
   5:../../../../DaisyExamples/DaisySP//Source/Synthesis/oscillator.h **** license that can be found in the LICENSE file or at
   6:../../../../DaisyExamples/DaisySP//Source/Synthesis/oscillator.h **** https://opensource.org/licenses/MIT.
   7:../../../../DaisyExamples/DaisySP//Source/Synthesis/oscillator.h **** */
   8:../../../../DaisyExamples/DaisySP//Source/Synthesis/oscillator.h **** 
   9:../../../../DaisyExamples/DaisySP//Source/Synthesis/oscillator.h **** #pragma once
  10:../../../../DaisyExamples/DaisySP//Source/Synthesis/oscillator.h **** #ifndef DSY_OSCILLATOR_H
  11:../../../../DaisyExamples/DaisySP//Source/Synthesis/oscillator.h **** #define DSY_OSCILLATOR_H
  12:../../../../DaisyExamples/DaisySP//Source/Synthesis/oscillator.h **** #include <stdint.h>
  13:../../../../DaisyExamples/DaisySP//Source/Synthesis/oscillator.h **** #include "Utility/dsp.h"
  14:../../../../DaisyExamples/DaisySP//Source/Synthesis/oscillator.h **** #ifdef __cplusplus
  15:../../../../DaisyExamples/DaisySP//Source/Synthesis/oscillator.h **** 
  16:../../../../DaisyExamples/DaisySP//Source/Synthesis/oscillator.h **** namespace daisysp
  17:../../../../DaisyExamples/DaisySP//Source/Synthesis/oscillator.h **** {
  18:../../../../DaisyExamples/DaisySP//Source/Synthesis/oscillator.h **** /** Synthesis of several waveforms, including polyBLEP bandlimited waveforms.
  19:../../../../DaisyExamples/DaisySP//Source/Synthesis/oscillator.h **** */
  20:../../../../DaisyExamples/DaisySP//Source/Synthesis/oscillator.h **** class Oscillator
  21:../../../../DaisyExamples/DaisySP//Source/Synthesis/oscillator.h **** {
  22:../../../../DaisyExamples/DaisySP//Source/Synthesis/oscillator.h ****   public:
  23:../../../../DaisyExamples/DaisySP//Source/Synthesis/oscillator.h ****     Oscillator() {}
  24:../../../../DaisyExamples/DaisySP//Source/Synthesis/oscillator.h ****     ~Oscillator() {}
  25:../../../../DaisyExamples/DaisySP//Source/Synthesis/oscillator.h ****     /** Choices for output waveforms, POLYBLEP are appropriately labeled. Others are naive forms.
  26:../../../../DaisyExamples/DaisySP//Source/Synthesis/oscillator.h ****     */
  27:../../../../DaisyExamples/DaisySP//Source/Synthesis/oscillator.h ****     enum
  28:../../../../DaisyExamples/DaisySP//Source/Synthesis/oscillator.h ****     {
  29:../../../../DaisyExamples/DaisySP//Source/Synthesis/oscillator.h ****         WAVE_SIN,
  30:../../../../DaisyExamples/DaisySP//Source/Synthesis/oscillator.h ****         WAVE_TRI,
  31:../../../../DaisyExamples/DaisySP//Source/Synthesis/oscillator.h ****         WAVE_SAW,
  32:../../../../DaisyExamples/DaisySP//Source/Synthesis/oscillator.h ****         WAVE_RAMP,
  33:../../../../DaisyExamples/DaisySP//Source/Synthesis/oscillator.h ****         WAVE_SQUARE,
  34:../../../../DaisyExamples/DaisySP//Source/Synthesis/oscillator.h ****         WAVE_POLYBLEP_TRI,
  35:../../../../DaisyExamples/DaisySP//Source/Synthesis/oscillator.h ****         WAVE_POLYBLEP_SAW,
  36:../../../../DaisyExamples/DaisySP//Source/Synthesis/oscillator.h ****         WAVE_POLYBLEP_SQUARE,
ARM GAS  C:\Users\samue\AppData\Local\Temp\cc7BohBx.s 			page 9


  37:../../../../DaisyExamples/DaisySP//Source/Synthesis/oscillator.h ****         WAVE_LAST,
  38:../../../../DaisyExamples/DaisySP//Source/Synthesis/oscillator.h ****     };
  39:../../../../DaisyExamples/DaisySP//Source/Synthesis/oscillator.h **** 
  40:../../../../DaisyExamples/DaisySP//Source/Synthesis/oscillator.h **** 
  41:../../../../DaisyExamples/DaisySP//Source/Synthesis/oscillator.h ****     /** Initializes the Oscillator
  42:../../../../DaisyExamples/DaisySP//Source/Synthesis/oscillator.h **** 
  43:../../../../DaisyExamples/DaisySP//Source/Synthesis/oscillator.h ****         \param sample_rate - sample rate of the audio engine being run, and the frequency that the 
  44:../../../../DaisyExamples/DaisySP//Source/Synthesis/oscillator.h **** 
  45:../../../../DaisyExamples/DaisySP//Source/Synthesis/oscillator.h ****         Defaults:
  46:../../../../DaisyExamples/DaisySP//Source/Synthesis/oscillator.h ****         - freq_ = 100 Hz
  47:../../../../DaisyExamples/DaisySP//Source/Synthesis/oscillator.h ****         - amp_ = 0.5
  48:../../../../DaisyExamples/DaisySP//Source/Synthesis/oscillator.h ****         - waveform_ = sine wave.
  49:../../../../DaisyExamples/DaisySP//Source/Synthesis/oscillator.h ****     */
  50:../../../../DaisyExamples/DaisySP//Source/Synthesis/oscillator.h ****     void Init(float sample_rate)
 197              		.loc 3 50 10 is_stmt 1 view .LVU13
 198              	.LBB242:
  51:../../../../DaisyExamples/DaisySP//Source/Synthesis/oscillator.h ****     {
  52:../../../../DaisyExamples/DaisySP//Source/Synthesis/oscillator.h ****         sr_        = sample_rate;
 199              		.loc 3 52 9 view .LVU14
  53:../../../../DaisyExamples/DaisySP//Source/Synthesis/oscillator.h ****         sr_recip_  = 1.0f / sample_rate;
 200              		.loc 3 53 27 is_stmt 0 view .LVU15
 201 000e B7EE009A 		vmov.f32	s18, #1.0e+0
  54:../../../../DaisyExamples/DaisySP//Source/Synthesis/oscillator.h ****         freq_      = 100.0f;
  55:../../../../DaisyExamples/DaisySP//Source/Synthesis/oscillator.h ****         amp_       = 0.5f;
  56:../../../../DaisyExamples/DaisySP//Source/Synthesis/oscillator.h ****         pw_        = 0.5f;
  57:../../../../DaisyExamples/DaisySP//Source/Synthesis/oscillator.h ****         phase_     = 0.0f;
 202              		.loc 3 57 20 view .LVU16
 203 0012 0025     		movs	r5, #0
  55:../../../../DaisyExamples/DaisySP//Source/Synthesis/oscillator.h ****         pw_        = 0.5f;
 204              		.loc 3 55 20 view .LVU17
 205 0014 F6EE008A 		vmov.f32	s17, #5.0e-1
  54:../../../../DaisyExamples/DaisySP//Source/Synthesis/oscillator.h ****         freq_      = 100.0f;
 206              		.loc 3 54 20 view .LVU18
 207 0018 9FED390A 		vldr.32	s0, .L16
 208              	.LVL8:
  52:../../../../DaisyExamples/DaisySP//Source/Synthesis/oscillator.h ****         sr_recip_  = 1.0f / sample_rate;
 209              		.loc 3 52 20 view .LVU19
 210 001c 84ED1F8A 		vstr.32	s16, [r4, #124]
  53:../../../../DaisyExamples/DaisySP//Source/Synthesis/oscillator.h ****         freq_      = 100.0f;
 211              		.loc 3 53 9 is_stmt 1 view .LVU20
  58:../../../../DaisyExamples/DaisySP//Source/Synthesis/oscillator.h ****         phase_inc_ = CalcPhaseInc(freq_);
 212              		.loc 3 58 34 is_stmt 0 view .LVU21
 213 0020 6C30     		adds	r0, r0, #108
 214              	.LVL9:
  53:../../../../DaisyExamples/DaisySP//Source/Synthesis/oscillator.h ****         freq_      = 100.0f;
 215              		.loc 3 53 27 view .LVU22
 216 0022 C9EE087A 		vdiv.f32	s15, s18, s16
  54:../../../../DaisyExamples/DaisySP//Source/Synthesis/oscillator.h ****         amp_       = 0.5f;
 217              		.loc 3 54 20 view .LVU23
 218 0026 84ED1D0A 		vstr.32	s0, [r4, #116]
  55:../../../../DaisyExamples/DaisySP//Source/Synthesis/oscillator.h ****         pw_        = 0.5f;
 219              		.loc 3 55 20 view .LVU24
 220 002a C4ED1C8A 		vstr.32	s17, [r4, #112]
 221              	.LBE242:
 222              	.LBE241:
 223              	.LBB246:
 224              	.LBB247:
ARM GAS  C:\Users\samue\AppData\Local\Temp\cc7BohBx.s 			page 10


  59:../../../../DaisyExamples/DaisySP//Source/Synthesis/oscillator.h ****         waveform_  = WAVE_SIN;
  60:../../../../DaisyExamples/DaisySP//Source/Synthesis/oscillator.h ****         eoc_       = true;
  61:../../../../DaisyExamples/DaisySP//Source/Synthesis/oscillator.h ****         eor_       = true;
  62:../../../../DaisyExamples/DaisySP//Source/Synthesis/oscillator.h ****     }
  63:../../../../DaisyExamples/DaisySP//Source/Synthesis/oscillator.h **** 
  64:../../../../DaisyExamples/DaisySP//Source/Synthesis/oscillator.h **** 
  65:../../../../DaisyExamples/DaisySP//Source/Synthesis/oscillator.h ****     /** Changes the frequency of the Oscillator, and recalculates phase increment.
  66:../../../../DaisyExamples/DaisySP//Source/Synthesis/oscillator.h ****     */
  67:../../../../DaisyExamples/DaisySP//Source/Synthesis/oscillator.h ****     inline void SetFreq(const float f)
  68:../../../../DaisyExamples/DaisySP//Source/Synthesis/oscillator.h ****     {
  69:../../../../DaisyExamples/DaisySP//Source/Synthesis/oscillator.h ****         freq_      = f;
  70:../../../../DaisyExamples/DaisySP//Source/Synthesis/oscillator.h ****         phase_inc_ = CalcPhaseInc(f);
  71:../../../../DaisyExamples/DaisySP//Source/Synthesis/oscillator.h ****     }
  72:../../../../DaisyExamples/DaisySP//Source/Synthesis/oscillator.h **** 
  73:../../../../DaisyExamples/DaisySP//Source/Synthesis/oscillator.h **** 
  74:../../../../DaisyExamples/DaisySP//Source/Synthesis/oscillator.h ****     /** Sets the amplitude of the waveform.
  75:../../../../DaisyExamples/DaisySP//Source/Synthesis/oscillator.h ****     */
  76:../../../../DaisyExamples/DaisySP//Source/Synthesis/oscillator.h ****     inline void SetAmp(const float a) { amp_ = a; }
  77:../../../../DaisyExamples/DaisySP//Source/Synthesis/oscillator.h ****     /** Sets the waveform to be synthesized by the Process() function.
  78:../../../../DaisyExamples/DaisySP//Source/Synthesis/oscillator.h ****     */
  79:../../../../DaisyExamples/DaisySP//Source/Synthesis/oscillator.h ****     inline void SetWaveform(const uint8_t wf)
  80:../../../../DaisyExamples/DaisySP//Source/Synthesis/oscillator.h ****     {
  81:../../../../DaisyExamples/DaisySP//Source/Synthesis/oscillator.h ****         waveform_ = wf < WAVE_LAST ? wf : WAVE_SIN;
 225              		.loc 3 81 19 view .LVU25
 226 002e 0126     		movs	r6, #1
 227              	.LBE247:
 228              	.LBE246:
 229              	.LBB250:
 230              	.LBB243:
  56:../../../../DaisyExamples/DaisySP//Source/Synthesis/oscillator.h ****         phase_     = 0.0f;
 231              		.loc 3 56 20 view .LVU26
 232 0030 C4ED1E8A 		vstr.32	s17, [r4, #120]
 233              	.LBE243:
 234              	.LBE250:
 235              	.LBB251:
 236              	.LBB252:
 105:../../../../DaisyExamples/DaisySP//Source/Filters/fir.h ****     }
 237              		.loc 1 105 21 view .LVU27
 238 0034 4FF01E08 		mov	r8, #30
 239              	.LBE252:
 240              	.LBE251:
 241              	.LBB256:
 242              	.LBB244:
  57:../../../../DaisyExamples/DaisySP//Source/Synthesis/oscillator.h ****         phase_inc_ = CalcPhaseInc(freq_);
 243              		.loc 3 57 20 view .LVU28
 244 0038 C4F88450 		str	r5, [r4, #132]	@ float
  53:../../../../DaisyExamples/DaisySP//Source/Synthesis/oscillator.h ****         freq_      = 100.0f;
 245              		.loc 3 53 20 view .LVU29
 246 003c C4ED207A 		vstr.32	s15, [r4, #128]
  54:../../../../DaisyExamples/DaisySP//Source/Synthesis/oscillator.h ****         amp_       = 0.5f;
 247              		.loc 3 54 9 is_stmt 1 view .LVU30
  55:../../../../DaisyExamples/DaisySP//Source/Synthesis/oscillator.h ****         pw_        = 0.5f;
 248              		.loc 3 55 9 view .LVU31
  56:../../../../DaisyExamples/DaisySP//Source/Synthesis/oscillator.h ****         phase_     = 0.0f;
 249              		.loc 3 56 9 view .LVU32
  57:../../../../DaisyExamples/DaisySP//Source/Synthesis/oscillator.h ****         phase_inc_ = CalcPhaseInc(freq_);
 250              		.loc 3 57 9 view .LVU33
ARM GAS  C:\Users\samue\AppData\Local\Temp\cc7BohBx.s 			page 11


  58:../../../../DaisyExamples/DaisySP//Source/Synthesis/oscillator.h ****         waveform_  = WAVE_SIN;
 251              		.loc 3 58 9 view .LVU34
  58:../../../../DaisyExamples/DaisySP//Source/Synthesis/oscillator.h ****         waveform_  = WAVE_SIN;
 252              		.loc 3 58 34 is_stmt 0 view .LVU35
 253 0040 FFF7FEFF 		bl	_ZN7daisysp10Oscillator12CalcPhaseIncEf
 254              	.LVL10:
  58:../../../../DaisyExamples/DaisySP//Source/Synthesis/oscillator.h ****         waveform_  = WAVE_SIN;
 255              		.loc 3 58 34 view .LVU36
 256 0044 F0EE407A 		vmov.f32	s15, s0
  61:../../../../DaisyExamples/DaisySP//Source/Synthesis/oscillator.h ****     }
 257              		.loc 3 61 20 view .LVU37
 258 0048 40F20113 		movw	r3, #257
 259              	.LBE244:
 260              	.LBE256:
   6:voice.cpp     ****     osc_.SetWaveform(osc_.WAVE_TRI);
   7:voice.cpp     ****     amp_env_.Init(fs);
 261              		.loc 2 7 18 view .LVU38
 262 004c B0EE480A 		vmov.f32	s0, s16
 263 0050 04F19800 		add	r0, r4, #152
 264              	.LBB257:
 265              	.LBB248:
 266              		.loc 3 81 19 view .LVU39
 267 0054 84F86C60 		strb	r6, [r4, #108]
 268              	.LBE248:
 269              	.LBE257:
 270              	.LBB258:
 271              	.LBB245:
  58:../../../../DaisyExamples/DaisySP//Source/Synthesis/oscillator.h ****         waveform_  = WAVE_SIN;
 272              		.loc 3 58 20 view .LVU40
 273 0058 C4ED227A 		vstr.32	s15, [r4, #136]
  59:../../../../DaisyExamples/DaisySP//Source/Synthesis/oscillator.h ****         eoc_       = true;
 274              		.loc 3 59 9 is_stmt 1 view .LVU41
  60:../../../../DaisyExamples/DaisySP//Source/Synthesis/oscillator.h ****         eor_       = true;
 275              		.loc 3 60 9 view .LVU42
  61:../../../../DaisyExamples/DaisySP//Source/Synthesis/oscillator.h ****     }
 276              		.loc 3 61 9 view .LVU43
  61:../../../../DaisyExamples/DaisySP//Source/Synthesis/oscillator.h ****     }
 277              		.loc 3 61 20 is_stmt 0 view .LVU44
 278 005c A4F89430 		strh	r3, [r4, #148]	@ movhi
 279              	.LVL11:
  61:../../../../DaisyExamples/DaisySP//Source/Synthesis/oscillator.h ****     }
 280              		.loc 3 61 20 view .LVU45
 281              	.LBE245:
 282              	.LBE258:
   6:voice.cpp     ****     amp_env_.Init(fs);
 283              		.loc 2 6 5 is_stmt 1 view .LVU46
 284              	.LBB259:
 285              	.LBI246:
  79:../../../../DaisyExamples/DaisySP//Source/Synthesis/oscillator.h ****     {
 286              		.loc 3 79 17 view .LVU47
 287              	.LBB249:
 288              		.loc 3 81 9 view .LVU48
 289              		.loc 3 81 9 is_stmt 0 view .LVU49
 290              	.LBE249:
 291              	.LBE259:
 292              		.loc 2 7 5 is_stmt 1 view .LVU50
 293              		.loc 2 7 18 is_stmt 0 view .LVU51
ARM GAS  C:\Users\samue\AppData\Local\Temp\cc7BohBx.s 			page 12


 294 0060 FFF7FEFF 		bl	_ZN7daisysp5AdEnv4InitEf
 295              	.LVL12:
   8:voice.cpp     ****     freq_env_.Init(fs);
 296              		.loc 2 8 5 is_stmt 1 view .LVU52
 297              		.loc 2 8 19 is_stmt 0 view .LVU53
 298 0064 B0EE480A 		vmov.f32	s0, s16
 299 0068 04F1D000 		add	r0, r4, #208
 300 006c FFF7FEFF 		bl	_ZN7daisysp5AdEnv4InitEf
 301              	.LVL13:
   9:voice.cpp     ****     freq_env_.SetMin(1.0f);
 302              		.loc 2 9 5 is_stmt 1 view .LVU54
 303              	.LBB260:
 304              	.LBI260:
 305              		.file 4 "../../../../DaisyExamples/DaisySP//Source/Control/adenv.h"
   1:../../../../DaisyExamples/DaisySP//Source/Control/adenv.h **** /*
   2:../../../../DaisyExamples/DaisySP//Source/Control/adenv.h **** Copyright (c) 2020 Electrosmith, Corp
   3:../../../../DaisyExamples/DaisySP//Source/Control/adenv.h **** 
   4:../../../../DaisyExamples/DaisySP//Source/Control/adenv.h **** Use of this source code is governed by an MIT-style
   5:../../../../DaisyExamples/DaisySP//Source/Control/adenv.h **** license that can be found in the LICENSE file or at
   6:../../../../DaisyExamples/DaisySP//Source/Control/adenv.h **** https://opensource.org/licenses/MIT.
   7:../../../../DaisyExamples/DaisySP//Source/Control/adenv.h **** */
   8:../../../../DaisyExamples/DaisySP//Source/Control/adenv.h **** 
   9:../../../../DaisyExamples/DaisySP//Source/Control/adenv.h **** #pragma once
  10:../../../../DaisyExamples/DaisySP//Source/Control/adenv.h **** #ifndef ADENV_H
  11:../../../../DaisyExamples/DaisySP//Source/Control/adenv.h **** #define ADENV_H
  12:../../../../DaisyExamples/DaisySP//Source/Control/adenv.h **** #include <stdint.h>
  13:../../../../DaisyExamples/DaisySP//Source/Control/adenv.h **** #ifdef __cplusplus
  14:../../../../DaisyExamples/DaisySP//Source/Control/adenv.h **** 
  15:../../../../DaisyExamples/DaisySP//Source/Control/adenv.h **** namespace daisysp
  16:../../../../DaisyExamples/DaisySP//Source/Control/adenv.h **** {
  17:../../../../DaisyExamples/DaisySP//Source/Control/adenv.h **** /** Distinct stages that the phase of the envelope can be located in.
  18:../../../../DaisyExamples/DaisySP//Source/Control/adenv.h ****     @see AdEnv
  19:../../../../DaisyExamples/DaisySP//Source/Control/adenv.h **** */
  20:../../../../DaisyExamples/DaisySP//Source/Control/adenv.h **** enum AdEnvSegment
  21:../../../../DaisyExamples/DaisySP//Source/Control/adenv.h **** {
  22:../../../../DaisyExamples/DaisySP//Source/Control/adenv.h ****     /** located at phase location 0, and not currently running */
  23:../../../../DaisyExamples/DaisySP//Source/Control/adenv.h ****     ADENV_SEG_IDLE,
  24:../../../../DaisyExamples/DaisySP//Source/Control/adenv.h ****     /** First segment of envelope where phase moves from MIN value to MAX value */
  25:../../../../DaisyExamples/DaisySP//Source/Control/adenv.h ****     ADENV_SEG_ATTACK,
  26:../../../../DaisyExamples/DaisySP//Source/Control/adenv.h ****     /** Second segment of envelope where phase moves from MAX to MIN value */
  27:../../../../DaisyExamples/DaisySP//Source/Control/adenv.h ****     ADENV_SEG_DECAY,
  28:../../../../DaisyExamples/DaisySP//Source/Control/adenv.h ****     /** The final segment of the envelope (currently decay) */
  29:../../../../DaisyExamples/DaisySP//Source/Control/adenv.h ****     ADENV_SEG_LAST,
  30:../../../../DaisyExamples/DaisySP//Source/Control/adenv.h **** };
  31:../../../../DaisyExamples/DaisySP//Source/Control/adenv.h **** 
  32:../../../../DaisyExamples/DaisySP//Source/Control/adenv.h **** /** Trigger-able envelope with adjustable min/max, and independent per-segment time control.
  33:../../../../DaisyExamples/DaisySP//Source/Control/adenv.h **** 
  34:../../../../DaisyExamples/DaisySP//Source/Control/adenv.h ****     \author shensley
  35:../../../../DaisyExamples/DaisySP//Source/Control/adenv.h ****     \todo - Add Cycling
  36:../../../../DaisyExamples/DaisySP//Source/Control/adenv.h ****     \todo - Implement Curve (its only linear for now).
  37:../../../../DaisyExamples/DaisySP//Source/Control/adenv.h ****     \todo - Maybe make this an ADsr_ that has AD/AR/Asr_ modes.
  38:../../../../DaisyExamples/DaisySP//Source/Control/adenv.h ****  */
  39:../../../../DaisyExamples/DaisySP//Source/Control/adenv.h **** class AdEnv
  40:../../../../DaisyExamples/DaisySP//Source/Control/adenv.h **** {
  41:../../../../DaisyExamples/DaisySP//Source/Control/adenv.h ****   public:
  42:../../../../DaisyExamples/DaisySP//Source/Control/adenv.h ****     AdEnv() {}
  43:../../../../DaisyExamples/DaisySP//Source/Control/adenv.h ****     ~AdEnv() {}
ARM GAS  C:\Users\samue\AppData\Local\Temp\cc7BohBx.s 			page 13


  44:../../../../DaisyExamples/DaisySP//Source/Control/adenv.h ****     /** Initializes the ad envelope.
  45:../../../../DaisyExamples/DaisySP//Source/Control/adenv.h **** 
  46:../../../../DaisyExamples/DaisySP//Source/Control/adenv.h ****         Defaults:
  47:../../../../DaisyExamples/DaisySP//Source/Control/adenv.h ****             - current segment = idle
  48:../../../../DaisyExamples/DaisySP//Source/Control/adenv.h ****             - curve = linear
  49:../../../../DaisyExamples/DaisySP//Source/Control/adenv.h ****             - phase = 0
  50:../../../../DaisyExamples/DaisySP//Source/Control/adenv.h ****             - min = 0
  51:../../../../DaisyExamples/DaisySP//Source/Control/adenv.h ****             - max = 1
  52:../../../../DaisyExamples/DaisySP//Source/Control/adenv.h **** 
  53:../../../../DaisyExamples/DaisySP//Source/Control/adenv.h ****         \param sample_rate      sample rate of the audio engine being run
  54:../../../../DaisyExamples/DaisySP//Source/Control/adenv.h ****     */
  55:../../../../DaisyExamples/DaisySP//Source/Control/adenv.h ****     void Init(float sample_rate);
  56:../../../../DaisyExamples/DaisySP//Source/Control/adenv.h **** 
  57:../../../../DaisyExamples/DaisySP//Source/Control/adenv.h ****     /** Processes the current sample of the envelope. This should be called once
  58:../../../../DaisyExamples/DaisySP//Source/Control/adenv.h ****         per sample period.
  59:../../../../DaisyExamples/DaisySP//Source/Control/adenv.h ****         \return the current envelope value.
  60:../../../../DaisyExamples/DaisySP//Source/Control/adenv.h ****     */
  61:../../../../DaisyExamples/DaisySP//Source/Control/adenv.h ****     float Process();
  62:../../../../DaisyExamples/DaisySP//Source/Control/adenv.h **** 
  63:../../../../DaisyExamples/DaisySP//Source/Control/adenv.h ****     /** Starts or retriggers the envelope.*/
  64:../../../../DaisyExamples/DaisySP//Source/Control/adenv.h ****     inline void Trigger() { trigger_ = 1; }
  65:../../../../DaisyExamples/DaisySP//Source/Control/adenv.h ****     /** Sets the length of time (in seconds) for a specific segment. */
  66:../../../../DaisyExamples/DaisySP//Source/Control/adenv.h ****     inline void SetTime(uint8_t seg, float time) { segment_time_[seg] = time; }
  67:../../../../DaisyExamples/DaisySP//Source/Control/adenv.h ****     /** Sets the amount of curve applied. A positve value will create a log
  68:../../../../DaisyExamples/DaisySP//Source/Control/adenv.h ****         curve. Input range: -100 to 100.  (or more)
  69:../../../../DaisyExamples/DaisySP//Source/Control/adenv.h ****     */
  70:../../../../DaisyExamples/DaisySP//Source/Control/adenv.h ****     inline void SetCurve(float scalar) { curve_scalar_ = scalar; }
  71:../../../../DaisyExamples/DaisySP//Source/Control/adenv.h ****     /** Sets the minimum value of the envelope output.
  72:../../../../DaisyExamples/DaisySP//Source/Control/adenv.h ****         Input range: -FLTmax_, to FLTmax_
  73:../../../../DaisyExamples/DaisySP//Source/Control/adenv.h ****     */
  74:../../../../DaisyExamples/DaisySP//Source/Control/adenv.h ****     inline void SetMin(float min) { min_ = min; }
 306              		.loc 4 74 17 view .LVU55
 307              	.LBB261:
 308              		.loc 4 74 37 view .LVU56
 309 0070 D4F87471 		ldr	r7, [r4, #372]
 310              	.LBE261:
 311              	.LBE260:
  10:voice.cpp     **** 
  11:voice.cpp     ****     filter_up_.SetStateBuffer(filter_state_up_, DSY_COUNTOF(filter_state_up_));
  12:voice.cpp     ****     filter_up_.Init(taps_up_, ntaps_, false);
 312              		.loc 2 12 21 is_stmt 0 view .LVU57
 313 0074 04F53873 		add	r3, r4, #736
  11:voice.cpp     ****     filter_up_.Init(taps_up_, ntaps_, false);
 314              		.loc 2 11 31 view .LVU58
 315 0078 04F5BC70 		add	r0, r4, #376
 316              	.LBB263:
 317              	.LBB262:
 318              		.loc 4 74 42 view .LVU59
 319 007c 84ED399A 		vstr.32	s18, [r4, #228]
 320              	.LVL14:
 321              		.loc 4 74 42 view .LVU60
 322              	.LBE262:
 323              	.LBE263:
  11:voice.cpp     ****     filter_up_.Init(taps_up_, ntaps_, false);
 324              		.loc 2 11 5 is_stmt 1 view .LVU61
 325              	.LBB264:
 326              	.LBI251:
ARM GAS  C:\Users\samue\AppData\Local\Temp\cc7BohBx.s 			page 14


 102:../../../../DaisyExamples/DaisySP//Source/Filters/fir.h ****     {
 327              		.loc 1 102 10 view .LVU62
 328              	.LBB253:
 104:../../../../DaisyExamples/DaisySP//Source/Filters/fir.h ****         state_size_ = length;
 329              		.loc 1 104 9 view .LVU63
 330              	.LBE253:
 331              	.LBE264:
 332              	.LBB265:
 333              	.LBB266:
 334              	.LBB267:
 335              	.LBB268:
 336              	.LBB269:
 114:../../../../DaisyExamples/DaisySP//Source/Filters/fir.h ****         }
 337              		.loc 1 114 19 is_stmt 0 view .LVU64
 338 0080 7822     		movs	r2, #120
 339              	.LBE269:
 340              	.LBE268:
 341              	.LBB272:
 342              	.LBB273:
 141:../../../../DaisyExamples/DaisySP//Source/Filters/fir.h ****             size_  = size;
 343              		.loc 1 141 20 view .LVU65
 344 0082 C4F85831 		str	r3, [r4, #344]
 345              	.LBE273:
 346              	.LBE272:
 347              	.LBB276:
 348              	.LBB270:
 114:../../../../DaisyExamples/DaisySP//Source/Filters/fir.h ****         }
 349              		.loc 1 114 19 view .LVU66
 350 0086 0021     		movs	r1, #0
 351              	.LBE270:
 352              	.LBE276:
 353              	.LBE267:
 354              	.LBE266:
 355              	.LBE265:
 356              	.LBB284:
 357              	.LBB254:
 104:../../../../DaisyExamples/DaisySP//Source/Filters/fir.h ****         state_size_ = length;
 358              		.loc 1 104 21 view .LVU67
 359 0088 C4F85401 		str	r0, [r4, #340]
 105:../../../../DaisyExamples/DaisySP//Source/Filters/fir.h ****     }
 360              		.loc 1 105 9 is_stmt 1 view .LVU68
 361              	.LBE254:
 362              	.LBE284:
 363              	.LBB285:
 364              	.LBB282:
 365              	.LBB280:
 366              	.LBB277:
 367              	.LBB274:
 142:../../../../DaisyExamples/DaisySP//Source/Filters/fir.h ****             return true;
 368              		.loc 1 142 20 is_stmt 0 view .LVU69
 369 008c C4F85C71 		str	r7, [r4, #348]
 370              	.LBE274:
 371              	.LBE277:
 372              	.LBE280:
 373              	.LBE282:
 374              	.LBE285:
 375              	.LBB286:
ARM GAS  C:\Users\samue\AppData\Local\Temp\cc7BohBx.s 			page 15


 376              	.LBB255:
 105:../../../../DaisyExamples/DaisySP//Source/Filters/fir.h ****     }
 377              		.loc 1 105 21 view .LVU70
 378 0090 C4F86081 		str	r8, [r4, #352]
 379              	.LVL15:
 105:../../../../DaisyExamples/DaisySP//Source/Filters/fir.h ****     }
 380              		.loc 1 105 21 view .LVU71
 381              	.LBE255:
 382              	.LBE286:
 383              		.loc 2 12 5 is_stmt 1 view .LVU72
 384              	.LBB287:
 385              	.LBI265:
 186:../../../../DaisyExamples/DaisySP//Source/Filters/fir.h ****         /* Feed data into the buffer */
 187:../../../../DaisyExamples/DaisySP//Source/Filters/fir.h ****         state_[size_ - 1u] = in;
 188:../../../../DaisyExamples/DaisySP//Source/Filters/fir.h **** 
 189:../../../../DaisyExamples/DaisySP//Source/Filters/fir.h ****         /* Convolution loop */
 190:../../../../DaisyExamples/DaisySP//Source/Filters/fir.h ****         float acc(0);
 191:../../../../DaisyExamples/DaisySP//Source/Filters/fir.h ****         for(size_t i = 0; i < size_ - 1; i++)
 192:../../../../DaisyExamples/DaisySP//Source/Filters/fir.h ****         {
 193:../../../../DaisyExamples/DaisySP//Source/Filters/fir.h ****             acc += state_[i] * coefs_[i];
 194:../../../../DaisyExamples/DaisySP//Source/Filters/fir.h ****             /** Shift the state simulatenously 
 195:../../../../DaisyExamples/DaisySP//Source/Filters/fir.h ****              * (note: better solutions are available) 
 196:../../../../DaisyExamples/DaisySP//Source/Filters/fir.h ****              */
 197:../../../../DaisyExamples/DaisySP//Source/Filters/fir.h ****             state_[i] = state_[1 + i];
 198:../../../../DaisyExamples/DaisySP//Source/Filters/fir.h ****         }
 199:../../../../DaisyExamples/DaisySP//Source/Filters/fir.h ****         acc += in * coefs_[size_ - 1u];
 200:../../../../DaisyExamples/DaisySP//Source/Filters/fir.h **** 
 201:../../../../DaisyExamples/DaisySP//Source/Filters/fir.h ****         return acc;
 202:../../../../DaisyExamples/DaisySP//Source/Filters/fir.h ****     }
 203:../../../../DaisyExamples/DaisySP//Source/Filters/fir.h **** 
 204:../../../../DaisyExamples/DaisySP//Source/Filters/fir.h ****     /* Process a block of data */
 205:../../../../DaisyExamples/DaisySP//Source/Filters/fir.h ****     void ProcessBlock(const float* pSrc, float* pDst, size_t block)
 206:../../../../DaisyExamples/DaisySP//Source/Filters/fir.h ****     {
 207:../../../../DaisyExamples/DaisySP//Source/Filters/fir.h ****         /* be sure to run debug version from time to time */
 208:../../../../DaisyExamples/DaisySP//Source/Filters/fir.h ****         assert(block <= FIRMem::MaxBlock());
 209:../../../../DaisyExamples/DaisySP//Source/Filters/fir.h ****         assert(size_ > 0u);
 210:../../../../DaisyExamples/DaisySP//Source/Filters/fir.h ****         assert(nullptr != pSrc);
 211:../../../../DaisyExamples/DaisySP//Source/Filters/fir.h ****         assert(nullptr != pDst);
 212:../../../../DaisyExamples/DaisySP//Source/Filters/fir.h **** 
 213:../../../../DaisyExamples/DaisySP//Source/Filters/fir.h ****         /* Process the block of data */
 214:../../../../DaisyExamples/DaisySP//Source/Filters/fir.h ****         for(size_t j = 0; j < block; j++)
 215:../../../../DaisyExamples/DaisySP//Source/Filters/fir.h ****         {
 216:../../../../DaisyExamples/DaisySP//Source/Filters/fir.h ****             /* Feed data into the buffer */
 217:../../../../DaisyExamples/DaisySP//Source/Filters/fir.h ****             state_[size_ - 1u + j] = pSrc[j];
 218:../../../../DaisyExamples/DaisySP//Source/Filters/fir.h **** 
 219:../../../../DaisyExamples/DaisySP//Source/Filters/fir.h ****             /* Convolution loop */
 220:../../../../DaisyExamples/DaisySP//Source/Filters/fir.h ****             float acc = 0.0f;
 221:../../../../DaisyExamples/DaisySP//Source/Filters/fir.h ****             for(size_t i = 0; i < size_; i++)
 222:../../../../DaisyExamples/DaisySP//Source/Filters/fir.h ****             {
 223:../../../../DaisyExamples/DaisySP//Source/Filters/fir.h ****                 acc += state_[j + i] * coefs_[i];
 224:../../../../DaisyExamples/DaisySP//Source/Filters/fir.h ****             }
 225:../../../../DaisyExamples/DaisySP//Source/Filters/fir.h **** 
 226:../../../../DaisyExamples/DaisySP//Source/Filters/fir.h ****             /* Write output */
 227:../../../../DaisyExamples/DaisySP//Source/Filters/fir.h ****             pDst[j] = acc;
 228:../../../../DaisyExamples/DaisySP//Source/Filters/fir.h ****         }
 229:../../../../DaisyExamples/DaisySP//Source/Filters/fir.h **** 
 230:../../../../DaisyExamples/DaisySP//Source/Filters/fir.h ****         /* Copy data tail for the next block */
ARM GAS  C:\Users\samue\AppData\Local\Temp\cc7BohBx.s 			page 16


 231:../../../../DaisyExamples/DaisySP//Source/Filters/fir.h ****         for(size_t i = 0; i < size_ - 1u; i++)
 232:../../../../DaisyExamples/DaisySP//Source/Filters/fir.h ****         {
 233:../../../../DaisyExamples/DaisySP//Source/Filters/fir.h ****             state_[i] = state_[block + i];
 234:../../../../DaisyExamples/DaisySP//Source/Filters/fir.h ****         }
 235:../../../../DaisyExamples/DaisySP//Source/Filters/fir.h ****     }
 236:../../../../DaisyExamples/DaisySP//Source/Filters/fir.h **** 
 237:../../../../DaisyExamples/DaisySP//Source/Filters/fir.h ****     /** Set filter coefficients (aka Impulse Response)
 238:../../../../DaisyExamples/DaisySP//Source/Filters/fir.h ****      * Coefficients need to be in reversed order (tail-first)
 239:../../../../DaisyExamples/DaisySP//Source/Filters/fir.h ****      * If internal storage is used, makes a local copy
 240:../../../../DaisyExamples/DaisySP//Source/Filters/fir.h ****      * and allows reversing the impulse response
 241:../../../../DaisyExamples/DaisySP//Source/Filters/fir.h ****      */
 242:../../../../DaisyExamples/DaisySP//Source/Filters/fir.h ****     bool SetIR(const float* ir, size_t len, bool reverse)
 243:../../../../DaisyExamples/DaisySP//Source/Filters/fir.h ****     {
 244:../../../../DaisyExamples/DaisySP//Source/Filters/fir.h ****         /* Function order is important */
 245:../../../../DaisyExamples/DaisySP//Source/Filters/fir.h ****         const bool result = FIRMem::SetCoefs(ir, len, reverse);
 246:../../../../DaisyExamples/DaisySP//Source/Filters/fir.h ****         Reset();
 247:../../../../DaisyExamples/DaisySP//Source/Filters/fir.h ****         return result;
 248:../../../../DaisyExamples/DaisySP//Source/Filters/fir.h ****     }
 249:../../../../DaisyExamples/DaisySP//Source/Filters/fir.h **** 
 250:../../../../DaisyExamples/DaisySP//Source/Filters/fir.h ****     /* Create an alias to comply with DaisySP API conventions */
 251:../../../../DaisyExamples/DaisySP//Source/Filters/fir.h ****     template <typename... Args>
 252:../../../../DaisyExamples/DaisySP//Source/Filters/fir.h ****     inline auto Init(Args&&... args)
 386              		.loc 1 252 17 view .LVU73
 387              	.LBB283:
 388              	.LBI266:
 242:../../../../DaisyExamples/DaisySP//Source/Filters/fir.h ****     {
 389              		.loc 1 242 10 view .LVU74
 390              	.LBB281:
 391              	.LBB278:
 392              	.LBI272:
 133:../../../../DaisyExamples/DaisySP//Source/Filters/fir.h ****     {
 393              		.loc 1 133 10 view .LVU75
 394              	.LBB275:
 136:../../../../DaisyExamples/DaisySP//Source/Filters/fir.h ****         assert(nullptr != coefs || 0 == size);
 395              		.loc 1 136 9 view .LVU76
 137:../../../../DaisyExamples/DaisySP//Source/Filters/fir.h **** 
 396              		.loc 1 137 9 view .LVU77
 139:../../../../DaisyExamples/DaisySP//Source/Filters/fir.h ****         {
 397              		.loc 1 139 9 view .LVU78
 141:../../../../DaisyExamples/DaisySP//Source/Filters/fir.h ****             size_  = size;
 398              		.loc 1 141 13 view .LVU79
 142:../../../../DaisyExamples/DaisySP//Source/Filters/fir.h ****             return true;
 399              		.loc 1 142 13 view .LVU80
 143:../../../../DaisyExamples/DaisySP//Source/Filters/fir.h ****         }
 400              		.loc 1 143 13 view .LVU81
 143:../../../../DaisyExamples/DaisySP//Source/Filters/fir.h ****         }
 401              		.loc 1 143 13 is_stmt 0 view .LVU82
 402              	.LBE275:
 403              	.LBE278:
 404              	.LBB279:
 405              	.LBI268:
 108:../../../../DaisyExamples/DaisySP//Source/Filters/fir.h ****     {
 406              		.loc 1 108 10 is_stmt 1 view .LVU83
 407              	.LBB271:
 110:../../../../DaisyExamples/DaisySP//Source/Filters/fir.h ****         assert(0 != state_size_);
 408              		.loc 1 110 9 view .LVU84
 111:../../../../DaisyExamples/DaisySP//Source/Filters/fir.h ****         if(nullptr != state_)
ARM GAS  C:\Users\samue\AppData\Local\Temp\cc7BohBx.s 			page 17


 409              		.loc 1 111 9 view .LVU85
 112:../../../../DaisyExamples/DaisySP//Source/Filters/fir.h ****         {
 410              		.loc 1 112 9 view .LVU86
 114:../../../../DaisyExamples/DaisySP//Source/Filters/fir.h ****         }
 411              		.loc 1 114 13 view .LVU87
 114:../../../../DaisyExamples/DaisySP//Source/Filters/fir.h ****         }
 412              		.loc 1 114 19 is_stmt 0 view .LVU88
 413 0094 FFF7FEFF 		bl	memset
 414              	.LVL16:
 114:../../../../DaisyExamples/DaisySP//Source/Filters/fir.h ****         }
 415              		.loc 1 114 19 view .LVU89
 416              	.LBE271:
 417              	.LBE279:
 418              	.LBE281:
 419              	.LBE283:
 420              	.LBE287:
  13:voice.cpp     **** 
  14:voice.cpp     ****     filter_down_.SetStateBuffer(filter_state_down_, DSY_COUNTOF(filter_state_down_));
 421              		.loc 2 14 5 is_stmt 1 view .LVU90
  15:voice.cpp     ****     filter_down_.Init(taps_down_, ntaps_, false);
 422              		.loc 2 15 23 is_stmt 0 view .LVU91
 423 0098 04F55573 		add	r3, r4, #852
  14:voice.cpp     ****     filter_down_.Init(taps_down_, ntaps_, false);
 424              		.loc 2 14 33 view .LVU92
 425 009c 04F5F870 		add	r0, r4, #496
 426              	.LVL17:
 427              	.LBB288:
 428              	.LBI288:
 102:../../../../DaisyExamples/DaisySP//Source/Filters/fir.h ****     {
 429              		.loc 1 102 10 is_stmt 1 view .LVU93
 430              	.LBB289:
 104:../../../../DaisyExamples/DaisySP//Source/Filters/fir.h ****         state_size_ = length;
 431              		.loc 1 104 9 view .LVU94
 432              	.LBE289:
 433              	.LBE288:
 434              	.LBB291:
 435              	.LBB292:
 436              	.LBB293:
 437              	.LBB294:
 438              	.LBB295:
 114:../../../../DaisyExamples/DaisySP//Source/Filters/fir.h ****         }
 439              		.loc 1 114 19 is_stmt 0 view .LVU95
 440 00a0 7822     		movs	r2, #120
 441              	.LBE295:
 442              	.LBE294:
 443              	.LBB299:
 444              	.LBB300:
 141:../../../../DaisyExamples/DaisySP//Source/Filters/fir.h ****             size_  = size;
 445              		.loc 1 141 20 view .LVU96
 446 00a2 C4F86831 		str	r3, [r4, #360]
 447              	.LBE300:
 448              	.LBE299:
 449              	.LBB303:
 450              	.LBB296:
 114:../../../../DaisyExamples/DaisySP//Source/Filters/fir.h ****         }
 451              		.loc 1 114 19 view .LVU97
 452 00a6 0021     		movs	r1, #0
ARM GAS  C:\Users\samue\AppData\Local\Temp\cc7BohBx.s 			page 18


 453              	.LBE296:
 454              	.LBE303:
 455              	.LBE293:
 456              	.LBE292:
 457              	.LBE291:
 458              	.LBB310:
 459              	.LBB290:
 104:../../../../DaisyExamples/DaisySP//Source/Filters/fir.h ****         state_size_ = length;
 460              		.loc 1 104 21 view .LVU98
 461 00a8 C4F86401 		str	r0, [r4, #356]
 105:../../../../DaisyExamples/DaisySP//Source/Filters/fir.h ****     }
 462              		.loc 1 105 9 is_stmt 1 view .LVU99
 463              	.LVL18:
 105:../../../../DaisyExamples/DaisySP//Source/Filters/fir.h ****     }
 464              		.loc 1 105 9 is_stmt 0 view .LVU100
 465              	.LBE290:
 466              	.LBE310:
 467              		.loc 2 15 5 is_stmt 1 view .LVU101
 468              	.LBB311:
 469              	.LBI291:
 470              		.loc 1 252 17 view .LVU102
 471              	.LBB309:
 472              	.LBI292:
 242:../../../../DaisyExamples/DaisySP//Source/Filters/fir.h ****     {
 473              		.loc 1 242 10 view .LVU103
 474              	.LBB308:
 475              	.LBB304:
 476              	.LBI299:
 133:../../../../DaisyExamples/DaisySP//Source/Filters/fir.h ****     {
 477              		.loc 1 133 10 view .LVU104
 478              	.LBB301:
 136:../../../../DaisyExamples/DaisySP//Source/Filters/fir.h ****         assert(nullptr != coefs || 0 == size);
 479              		.loc 1 136 9 view .LVU105
 137:../../../../DaisyExamples/DaisySP//Source/Filters/fir.h **** 
 480              		.loc 1 137 9 view .LVU106
 139:../../../../DaisyExamples/DaisySP//Source/Filters/fir.h ****         {
 481              		.loc 1 139 9 view .LVU107
 141:../../../../DaisyExamples/DaisySP//Source/Filters/fir.h ****             size_  = size;
 482              		.loc 1 141 13 view .LVU108
 142:../../../../DaisyExamples/DaisySP//Source/Filters/fir.h ****             return true;
 483              		.loc 1 142 13 view .LVU109
 143:../../../../DaisyExamples/DaisySP//Source/Filters/fir.h ****         }
 484              		.loc 1 143 13 view .LVU110
 143:../../../../DaisyExamples/DaisySP//Source/Filters/fir.h ****         }
 485              		.loc 1 143 13 is_stmt 0 view .LVU111
 486              	.LBE301:
 487              	.LBE304:
 488              	.LBB305:
 489              	.LBI294:
 108:../../../../DaisyExamples/DaisySP//Source/Filters/fir.h ****     {
 490              		.loc 1 108 10 is_stmt 1 view .LVU112
 491              	.LBB297:
 110:../../../../DaisyExamples/DaisySP//Source/Filters/fir.h ****         assert(0 != state_size_);
 492              		.loc 1 110 9 view .LVU113
 111:../../../../DaisyExamples/DaisySP//Source/Filters/fir.h ****         if(nullptr != state_)
 493              		.loc 1 111 9 view .LVU114
 112:../../../../DaisyExamples/DaisySP//Source/Filters/fir.h ****         {
ARM GAS  C:\Users\samue\AppData\Local\Temp\cc7BohBx.s 			page 19


 494              		.loc 1 112 9 view .LVU115
 114:../../../../DaisyExamples/DaisySP//Source/Filters/fir.h ****         }
 495              		.loc 1 114 13 view .LVU116
 496              	.LBE297:
 497              	.LBE305:
 498              	.LBB306:
 499              	.LBB302:
 142:../../../../DaisyExamples/DaisySP//Source/Filters/fir.h ****             return true;
 500              		.loc 1 142 20 is_stmt 0 view .LVU117
 501 00ac C4E95B78 		strd	r7, r8, [r4, #364]
 502              	.LBE302:
 503              	.LBE306:
 504              	.LBB307:
 505              	.LBB298:
 114:../../../../DaisyExamples/DaisySP//Source/Filters/fir.h ****         }
 506              		.loc 1 114 19 view .LVU118
 507 00b0 FFF7FEFF 		bl	memset
 508              	.LVL19:
 114:../../../../DaisyExamples/DaisySP//Source/Filters/fir.h ****         }
 509              		.loc 1 114 19 view .LVU119
 510              	.LBE298:
 511              	.LBE307:
 512              	.LBE308:
 513              	.LBE309:
 514              	.LBE311:
  16:voice.cpp     **** 
  17:voice.cpp     ****     noise_.Init();
 515              		.loc 2 17 5 is_stmt 1 view .LVU120
 516              	.LBB312:
 517              	.LBI312:
 518              		.file 5 "../../../../DaisyExamples/DaisySP//Source/Noise/whitenoise.h"
   1:../../../../DaisyExamples/DaisySP//Source/Noise/whitenoise.h **** /*
   2:../../../../DaisyExamples/DaisySP//Source/Noise/whitenoise.h **** Copyright (c) 2020 Electrosmith, Corp
   3:../../../../DaisyExamples/DaisySP//Source/Noise/whitenoise.h **** 
   4:../../../../DaisyExamples/DaisySP//Source/Noise/whitenoise.h **** Use of this source code is governed by an MIT-style
   5:../../../../DaisyExamples/DaisySP//Source/Noise/whitenoise.h **** license that can be found in the LICENSE file or at
   6:../../../../DaisyExamples/DaisySP//Source/Noise/whitenoise.h **** https://opensource.org/licenses/MIT.
   7:../../../../DaisyExamples/DaisySP//Source/Noise/whitenoise.h **** */
   8:../../../../DaisyExamples/DaisySP//Source/Noise/whitenoise.h **** 
   9:../../../../DaisyExamples/DaisySP//Source/Noise/whitenoise.h **** #pragma once
  10:../../../../DaisyExamples/DaisySP//Source/Noise/whitenoise.h **** #ifndef DSY_WHITENOISE_H
  11:../../../../DaisyExamples/DaisySP//Source/Noise/whitenoise.h **** #define DSY_WHITENOISE_H
  12:../../../../DaisyExamples/DaisySP//Source/Noise/whitenoise.h **** #include <stdint.h>
  13:../../../../DaisyExamples/DaisySP//Source/Noise/whitenoise.h **** #ifdef __cplusplus
  14:../../../../DaisyExamples/DaisySP//Source/Noise/whitenoise.h **** namespace daisysp
  15:../../../../DaisyExamples/DaisySP//Source/Noise/whitenoise.h **** {
  16:../../../../DaisyExamples/DaisySP//Source/Noise/whitenoise.h **** /** fast white noise generator
  17:../../../../DaisyExamples/DaisySP//Source/Noise/whitenoise.h **** 
  18:../../../../DaisyExamples/DaisySP//Source/Noise/whitenoise.h ****     I think this came from musicdsp.org at some point
  19:../../../../DaisyExamples/DaisySP//Source/Noise/whitenoise.h **** */
  20:../../../../DaisyExamples/DaisySP//Source/Noise/whitenoise.h **** class WhiteNoise
  21:../../../../DaisyExamples/DaisySP//Source/Noise/whitenoise.h **** {
  22:../../../../DaisyExamples/DaisySP//Source/Noise/whitenoise.h ****   public:
  23:../../../../DaisyExamples/DaisySP//Source/Noise/whitenoise.h ****     WhiteNoise() {}
  24:../../../../DaisyExamples/DaisySP//Source/Noise/whitenoise.h ****     ~WhiteNoise() {}
  25:../../../../DaisyExamples/DaisySP//Source/Noise/whitenoise.h ****     /** Initializes the WhiteNoise object
  26:../../../../DaisyExamples/DaisySP//Source/Noise/whitenoise.h ****     */
ARM GAS  C:\Users\samue\AppData\Local\Temp\cc7BohBx.s 			page 20


  27:../../../../DaisyExamples/DaisySP//Source/Noise/whitenoise.h ****     void Init()
 519              		.loc 5 27 10 view .LVU121
 520              	.LBB313:
  28:../../../../DaisyExamples/DaisySP//Source/Noise/whitenoise.h ****     {
  29:../../../../DaisyExamples/DaisySP//Source/Noise/whitenoise.h ****         amp_      = 1.0f;
 521              		.loc 5 29 9 view .LVU122
 522              	.LBE313:
 523              	.LBE312:
 524              	.LBB315:
 525              	.LBB316:
 526              		.file 6 "../../../../DaisyExamples/DaisySP//Source/Filters/onepole.h"
   1:../../../../DaisyExamples/DaisySP//Source/Filters/onepole.h **** /*
   2:../../../../DaisyExamples/DaisySP//Source/Filters/onepole.h **** Copyright (c) 2020 Electrosmith, Corp, Emilie Gillet
   3:../../../../DaisyExamples/DaisySP//Source/Filters/onepole.h **** 
   4:../../../../DaisyExamples/DaisySP//Source/Filters/onepole.h **** Use of this source code is governed by an MIT-style
   5:../../../../DaisyExamples/DaisySP//Source/Filters/onepole.h **** license that can be found in the LICENSE file or at
   6:../../../../DaisyExamples/DaisySP//Source/Filters/onepole.h **** https://opensource.org/licenses/MIT.
   7:../../../../DaisyExamples/DaisySP//Source/Filters/onepole.h **** */
   8:../../../../DaisyExamples/DaisySP//Source/Filters/onepole.h **** 
   9:../../../../DaisyExamples/DaisySP//Source/Filters/onepole.h **** #ifndef DSY_ONEPOLE_H
  10:../../../../DaisyExamples/DaisySP//Source/Filters/onepole.h **** #define DSY_ONEPOLE_H
  11:../../../../DaisyExamples/DaisySP//Source/Filters/onepole.h **** 
  12:../../../../DaisyExamples/DaisySP//Source/Filters/onepole.h **** #include "Utility/dsp.h"
  13:../../../../DaisyExamples/DaisySP//Source/Filters/onepole.h **** #include <cmath>
  14:../../../../DaisyExamples/DaisySP//Source/Filters/onepole.h **** #include <algorithm>
  15:../../../../DaisyExamples/DaisySP//Source/Filters/onepole.h **** 
  16:../../../../DaisyExamples/DaisySP//Source/Filters/onepole.h **** namespace daisysp
  17:../../../../DaisyExamples/DaisySP//Source/Filters/onepole.h **** {
  18:../../../../DaisyExamples/DaisySP//Source/Filters/onepole.h **** /**         
  19:../../../../DaisyExamples/DaisySP//Source/Filters/onepole.h ****     @brief One Pole Lowpass / Highpass Filter
  20:../../../../DaisyExamples/DaisySP//Source/Filters/onepole.h ****     @author beserge
  21:../../../../DaisyExamples/DaisySP//Source/Filters/onepole.h ****     @date Dec 2023 
  22:../../../../DaisyExamples/DaisySP//Source/Filters/onepole.h ****     Ported from pichenettes/stmlib/dsp/filter.h \n 
  23:../../../../DaisyExamples/DaisySP//Source/Filters/onepole.h ****     \n to an independent module. \n
  24:../../../../DaisyExamples/DaisySP//Source/Filters/onepole.h ****     Original code written by Emilie Gillet. \n
  25:../../../../DaisyExamples/DaisySP//Source/Filters/onepole.h **** */
  26:../../../../DaisyExamples/DaisySP//Source/Filters/onepole.h **** class OnePole
  27:../../../../DaisyExamples/DaisySP//Source/Filters/onepole.h **** {
  28:../../../../DaisyExamples/DaisySP//Source/Filters/onepole.h ****   public:
  29:../../../../DaisyExamples/DaisySP//Source/Filters/onepole.h ****     OnePole() {}
  30:../../../../DaisyExamples/DaisySP//Source/Filters/onepole.h ****     ~OnePole() {}
  31:../../../../DaisyExamples/DaisySP//Source/Filters/onepole.h **** 
  32:../../../../DaisyExamples/DaisySP//Source/Filters/onepole.h ****     /**
  33:../../../../DaisyExamples/DaisySP//Source/Filters/onepole.h ****      * @brief Operational modes of the filter
  34:../../../../DaisyExamples/DaisySP//Source/Filters/onepole.h ****      * - LOW_PASS = cuts out high frequency sound, lets low frequency sound pass through
  35:../../../../DaisyExamples/DaisySP//Source/Filters/onepole.h ****      * - HIGH_PASS = cuts out low frequency sound, lets high frequency sound pass through
  36:../../../../DaisyExamples/DaisySP//Source/Filters/onepole.h ****      */
  37:../../../../DaisyExamples/DaisySP//Source/Filters/onepole.h ****     enum FilterMode
  38:../../../../DaisyExamples/DaisySP//Source/Filters/onepole.h ****     {
  39:../../../../DaisyExamples/DaisySP//Source/Filters/onepole.h ****         FILTER_MODE_LOW_PASS,
  40:../../../../DaisyExamples/DaisySP//Source/Filters/onepole.h ****         FILTER_MODE_HIGH_PASS
  41:../../../../DaisyExamples/DaisySP//Source/Filters/onepole.h ****     };
  42:../../../../DaisyExamples/DaisySP//Source/Filters/onepole.h **** 
  43:../../../../DaisyExamples/DaisySP//Source/Filters/onepole.h ****     /** Initializes the module */
  44:../../../../DaisyExamples/DaisySP//Source/Filters/onepole.h ****     void Init()
  45:../../../../DaisyExamples/DaisySP//Source/Filters/onepole.h ****     {
  46:../../../../DaisyExamples/DaisySP//Source/Filters/onepole.h ****         Reset();
ARM GAS  C:\Users\samue\AppData\Local\Temp\cc7BohBx.s 			page 21


  47:../../../../DaisyExamples/DaisySP//Source/Filters/onepole.h ****         mode_ = FILTER_MODE_LOW_PASS;
  48:../../../../DaisyExamples/DaisySP//Source/Filters/onepole.h ****     }
  49:../../../../DaisyExamples/DaisySP//Source/Filters/onepole.h **** 
  50:../../../../DaisyExamples/DaisySP//Source/Filters/onepole.h ****     /** Reset the module to its default state */
  51:../../../../DaisyExamples/DaisySP//Source/Filters/onepole.h ****     inline void Reset() { state_ = 0.0f; }
  52:../../../../DaisyExamples/DaisySP//Source/Filters/onepole.h **** 
  53:../../../../DaisyExamples/DaisySP//Source/Filters/onepole.h ****     /** Set the filter cutoff frequency
  54:../../../../DaisyExamples/DaisySP//Source/Filters/onepole.h ****     *   \param freq Cutoff frequency. Valid range from 0 to .497f
  55:../../../../DaisyExamples/DaisySP//Source/Filters/onepole.h ****     */
  56:../../../../DaisyExamples/DaisySP//Source/Filters/onepole.h ****     inline void SetFrequency(float freq)
  57:../../../../DaisyExamples/DaisySP//Source/Filters/onepole.h ****     {
  58:../../../../DaisyExamples/DaisySP//Source/Filters/onepole.h ****         // Clip coefficient to about 100.
  59:../../../../DaisyExamples/DaisySP//Source/Filters/onepole.h ****         freq = freq < 0.497f ? freq : 0.497f;
  60:../../../../DaisyExamples/DaisySP//Source/Filters/onepole.h **** 
  61:../../../../DaisyExamples/DaisySP//Source/Filters/onepole.h ****         g_  = tanf(PI_F * freq);
 527              		.loc 6 61 13 is_stmt 0 view .LVU123
 528 00b4 134A     		ldr	r2, .L16+4
  62:../../../../DaisyExamples/DaisySP//Source/Filters/onepole.h ****         gi_ = 1.f / (1.f + g_);
 529              		.loc 6 62 13 view .LVU124
 530 00b6 144B     		ldr	r3, .L16+8
 531              	.LBE316:
 532              	.LBE315:
  18:voice.cpp     ****     noise_hpf_.Init();
  19:voice.cpp     ****     noise_hpf_.SetFrequency(0.005f);
  20:voice.cpp     ****     noise_hpf_.SetFilterMode(noise_hpf_.FILTER_MODE_HIGH_PASS);
  21:voice.cpp     ****     noise_lpf_.Init();
  22:voice.cpp     ****     noise_lpf_.SetFrequency(0.005f);
  23:voice.cpp     **** 
  24:voice.cpp     ****     fm_.Init(fs);
 533              		.loc 2 24 13 view .LVU125
 534 00b8 B0EE480A 		vmov.f32	s0, s16
 535              	.LBB319:
 536              	.LBB317:
  61:../../../../DaisyExamples/DaisySP//Source/Filters/onepole.h ****         gi_ = 1.f / (1.f + g_);
 537              		.loc 6 61 13 view .LVU126
 538 00bc C4F82021 		str	r2, [r4, #288]	@ float
 539              	.LBE317:
 540              	.LBE319:
 541              		.loc 2 24 13 view .LVU127
 542 00c0 2046     		mov	r0, r4
 543              	.LBB320:
 544              	.LBB321:
  61:../../../../DaisyExamples/DaisySP//Source/Filters/onepole.h ****         gi_ = 1.f / (1.f + g_);
 545              		.loc 6 61 13 view .LVU128
 546 00c2 C4F81021 		str	r2, [r4, #272]	@ float
 547              	.LBE321:
 548              	.LBE320:
 549              	.LBB324:
 550              	.LBB325:
  47:../../../../DaisyExamples/DaisySP//Source/Filters/onepole.h ****     }
 551              		.loc 6 47 15 view .LVU129
 552 00c6 0022     		movs	r2, #0
 553              	.LBE325:
 554              	.LBE324:
 555              	.LBB330:
 556              	.LBB314:
 557              		.loc 5 29 19 view .LVU130
ARM GAS  C:\Users\samue\AppData\Local\Temp\cc7BohBx.s 			page 22


 558 00c8 84ED429A 		vstr.32	s18, [r4, #264]
  30:../../../../DaisyExamples/DaisySP//Source/Noise/whitenoise.h ****         randseed_ = 1;
 559              		.loc 5 30 9 is_stmt 1 view .LVU131
 560              		.loc 5 30 19 is_stmt 0 view .LVU132
 561 00cc C4F80C61 		str	r6, [r4, #268]
 562              	.LVL20:
 563              		.loc 5 30 19 view .LVU133
 564              	.LBE314:
 565              	.LBE330:
  18:voice.cpp     ****     noise_hpf_.SetFrequency(0.005f);
 566              		.loc 2 18 5 is_stmt 1 view .LVU134
 567              	.LBB331:
 568              	.LBI331:
  44:../../../../DaisyExamples/DaisySP//Source/Filters/onepole.h ****     {
 569              		.loc 6 44 10 view .LVU135
 570              	.LBE331:
  46:../../../../DaisyExamples/DaisySP//Source/Filters/onepole.h ****         mode_ = FILTER_MODE_LOW_PASS;
 571              		.loc 6 46 9 view .LVU136
 572              	.LBB334:
 573              	.LBB332:
 574              	.LBI332:
  51:../../../../DaisyExamples/DaisySP//Source/Filters/onepole.h **** 
 575              		.loc 6 51 17 view .LVU137
 576              	.LBB333:
  51:../../../../DaisyExamples/DaisySP//Source/Filters/onepole.h **** 
 577              		.loc 6 51 27 view .LVU138
  51:../../../../DaisyExamples/DaisySP//Source/Filters/onepole.h **** 
 578              		.loc 6 51 34 is_stmt 0 view .LVU139
 579 00d0 C4F82851 		str	r5, [r4, #296]	@ float
 580              	.LVL21:
  51:../../../../DaisyExamples/DaisySP//Source/Filters/onepole.h **** 
 581              		.loc 6 51 34 view .LVU140
 582              	.LBE333:
 583              	.LBE332:
 584              	.LBE334:
  47:../../../../DaisyExamples/DaisySP//Source/Filters/onepole.h ****     }
 585              		.loc 6 47 9 is_stmt 1 view .LVU141
  19:voice.cpp     ****     noise_hpf_.SetFilterMode(noise_hpf_.FILTER_MODE_HIGH_PASS);
 586              		.loc 2 19 5 view .LVU142
 587              	.LBB335:
 588              	.LBI315:
  56:../../../../DaisyExamples/DaisySP//Source/Filters/onepole.h ****     {
 589              		.loc 6 56 17 view .LVU143
 590              	.LBB318:
  59:../../../../DaisyExamples/DaisySP//Source/Filters/onepole.h **** 
 591              		.loc 6 59 9 view .LVU144
  61:../../../../DaisyExamples/DaisySP//Source/Filters/onepole.h ****         gi_ = 1.f / (1.f + g_);
 592              		.loc 6 61 9 view .LVU145
 593              		.loc 6 62 9 view .LVU146
 594              		.loc 6 62 13 is_stmt 0 view .LVU147
 595 00d4 C4F82431 		str	r3, [r4, #292]	@ float
 596              	.LVL22:
 597              		.loc 6 62 13 view .LVU148
 598              	.LBE318:
 599              	.LBE335:
  20:voice.cpp     ****     noise_lpf_.Init();
 600              		.loc 2 20 5 is_stmt 1 view .LVU149
ARM GAS  C:\Users\samue\AppData\Local\Temp\cc7BohBx.s 			page 23


 601              	.LBB336:
 602              	.LBI336:
  63:../../../../DaisyExamples/DaisySP//Source/Filters/onepole.h ****     }
  64:../../../../DaisyExamples/DaisySP//Source/Filters/onepole.h **** 
  65:../../../../DaisyExamples/DaisySP//Source/Filters/onepole.h ****     /** Set the filter mode
  66:../../../../DaisyExamples/DaisySP//Source/Filters/onepole.h ****     *   \param mode Filter mode. Can be lowpass or highpass
  67:../../../../DaisyExamples/DaisySP//Source/Filters/onepole.h ****     */
  68:../../../../DaisyExamples/DaisySP//Source/Filters/onepole.h ****     inline void SetFilterMode(FilterMode mode) { mode_ = mode; }
 603              		.loc 6 68 17 view .LVU150
 604              	.LBB337:
 605              		.loc 6 68 50 view .LVU151
 606              		.loc 6 68 56 is_stmt 0 view .LVU152
 607 00d8 84F82C61 		strb	r6, [r4, #300]
 608              	.LVL23:
 609              		.loc 6 68 56 view .LVU153
 610              	.LBE337:
 611              	.LBE336:
  21:voice.cpp     ****     noise_lpf_.SetFrequency(0.005f);
 612              		.loc 2 21 5 is_stmt 1 view .LVU154
 613              	.LBB338:
 614              	.LBI324:
  44:../../../../DaisyExamples/DaisySP//Source/Filters/onepole.h ****     {
 615              		.loc 6 44 10 view .LVU155
 616              	.LBB328:
  46:../../../../DaisyExamples/DaisySP//Source/Filters/onepole.h ****         mode_ = FILTER_MODE_LOW_PASS;
 617              		.loc 6 46 9 view .LVU156
 618              	.LBB326:
 619              	.LBI326:
  51:../../../../DaisyExamples/DaisySP//Source/Filters/onepole.h **** 
 620              		.loc 6 51 17 view .LVU157
 621              	.LBB327:
  51:../../../../DaisyExamples/DaisySP//Source/Filters/onepole.h **** 
 622              		.loc 6 51 27 view .LVU158
  51:../../../../DaisyExamples/DaisySP//Source/Filters/onepole.h **** 
 623              		.loc 6 51 34 is_stmt 0 view .LVU159
 624 00dc C4F81851 		str	r5, [r4, #280]	@ float
 625              	.LVL24:
  51:../../../../DaisyExamples/DaisySP//Source/Filters/onepole.h **** 
 626              		.loc 6 51 34 view .LVU160
 627              	.LBE327:
 628              	.LBE326:
  47:../../../../DaisyExamples/DaisySP//Source/Filters/onepole.h ****     }
 629              		.loc 6 47 9 is_stmt 1 view .LVU161
 630              	.LBE328:
 631              	.LBE338:
 632              	.LBB339:
 633              	.LBB322:
  62:../../../../DaisyExamples/DaisySP//Source/Filters/onepole.h ****     }
 634              		.loc 6 62 13 is_stmt 0 view .LVU162
 635 00e0 C4F81431 		str	r3, [r4, #276]	@ float
 636              	.LBE322:
 637              	.LBE339:
 638              	.LBB340:
 639              	.LBB329:
  47:../../../../DaisyExamples/DaisySP//Source/Filters/onepole.h ****     }
 640              		.loc 6 47 15 view .LVU163
 641 00e4 84F81C21 		strb	r2, [r4, #284]
ARM GAS  C:\Users\samue\AppData\Local\Temp\cc7BohBx.s 			page 24


 642              	.LVL25:
  47:../../../../DaisyExamples/DaisySP//Source/Filters/onepole.h ****     }
 643              		.loc 6 47 15 view .LVU164
 644              	.LBE329:
 645              	.LBE340:
  22:voice.cpp     **** 
 646              		.loc 2 22 5 is_stmt 1 view .LVU165
 647              	.LBB341:
 648              	.LBI320:
  56:../../../../DaisyExamples/DaisySP//Source/Filters/onepole.h ****     {
 649              		.loc 6 56 17 view .LVU166
 650              	.LBB323:
  59:../../../../DaisyExamples/DaisySP//Source/Filters/onepole.h **** 
 651              		.loc 6 59 9 view .LVU167
  61:../../../../DaisyExamples/DaisySP//Source/Filters/onepole.h ****         gi_ = 1.f / (1.f + g_);
 652              		.loc 6 61 9 view .LVU168
  62:../../../../DaisyExamples/DaisySP//Source/Filters/onepole.h ****     }
 653              		.loc 6 62 9 view .LVU169
  62:../../../../DaisyExamples/DaisySP//Source/Filters/onepole.h ****     }
 654              		.loc 6 62 9 is_stmt 0 view .LVU170
 655              	.LBE323:
 656              	.LBE341:
 657              		.loc 2 24 5 is_stmt 1 view .LVU171
 658              		.loc 2 24 13 is_stmt 0 view .LVU172
 659 00e8 FFF7FEFF 		bl	_ZN7daisysp3Fm24InitEf
 660              	.LVL26:
  25:voice.cpp     ****     fm_.SetRatio(0.5f);
 661              		.loc 2 25 5 is_stmt 1 view .LVU173
 662              		.loc 2 25 17 is_stmt 0 view .LVU174
 663 00ec B0EE680A 		vmov.f32	s0, s17
 664 00f0 2046     		mov	r0, r4
  26:voice.cpp     ****     //filter_dist.SetStateBuffer(filter_state_dist, DSY_COUNTOF(filter_state_dist));
  27:voice.cpp     ****     //filter_dist.Init(taps_down, ntaps, false);    
  28:voice.cpp     **** }
 665              		.loc 2 28 1 view .LVU175
 666 00f2 BDEC048B 		vldm	sp!, {d8-d9}
 667              		.cfi_restore 82
 668              		.cfi_restore 83
 669              		.cfi_restore 80
 670              		.cfi_restore 81
 671              		.cfi_def_cfa_offset 24
 672              	.LVL27:
 673              		.loc 2 28 1 view .LVU176
 674 00f6 BDE8F041 		pop	{r4, r5, r6, r7, r8, lr}
 675              		.cfi_restore 14
 676              		.cfi_restore 8
 677              		.cfi_restore 7
 678              		.cfi_restore 6
 679              		.cfi_restore 5
 680              		.cfi_restore 4
 681              		.cfi_def_cfa_offset 0
 682              	.LVL28:
  25:voice.cpp     ****     fm_.SetRatio(0.5f);
 683              		.loc 2 25 17 view .LVU177
 684 00fa FFF7FEBF 		b	_ZN7daisysp3Fm28SetRatioEf
 685              	.LVL29:
 686              	.L17:
ARM GAS  C:\Users\samue\AppData\Local\Temp\cc7BohBx.s 			page 25


  25:voice.cpp     ****     fm_.SetRatio(0.5f);
 687              		.loc 2 25 17 view .LVU178
 688 00fe 00BF     		.align	2
 689              	.L16:
 690 0100 0000C842 		.word	1120403456
 691 0104 B3B0803C 		.word	1015066803
 692 0108 660A7C3F 		.word	1065093734
 693              		.cfi_endproc
 694              	.LFE3515:
 696              		.section	.text._ZN5voice13set_noise_mixEf,"ax",%progbits
 697              		.align	1
 698              		.p2align 2,,3
 699              		.global	_ZN5voice13set_noise_mixEf
 700              		.syntax unified
 701              		.thumb
 702              		.thumb_func
 703              		.fpu fpv5-d16
 705              	_ZN5voice13set_noise_mixEf:
 706              	.LVL30:
 707              	.LFB3519:
  29:voice.cpp     **** 
  30:voice.cpp     **** void voice::set_noise_mix(float mix)
  31:voice.cpp     **** {
 708              		.loc 2 31 1 is_stmt 1 view -0
 709              		.cfi_startproc
 710              		@ args = 0, pretend = 0, frame = 0
 711              		@ frame_needed = 0, uses_anonymous_args = 0
 712              		@ link register save eliminated.
  32:voice.cpp     ****     fmap(mix, -0.05f, 1.05f);
 713              		.loc 2 32 5 view .LVU180
 714              	.LBB342:
 715              	.LBI342:
 716              		.file 7 "../../../../DaisyExamples/DaisySP//Source/Utility/dsp.h"
   1:../../../../DaisyExamples/DaisySP//Source/Utility/dsp.h **** /*
   2:../../../../DaisyExamples/DaisySP//Source/Utility/dsp.h **** Copyright (c) 2020 Electrosmith, Corp, Emilie Gillet
   3:../../../../DaisyExamples/DaisySP//Source/Utility/dsp.h **** 
   4:../../../../DaisyExamples/DaisySP//Source/Utility/dsp.h **** Use of this source code is governed by an MIT-style
   5:../../../../DaisyExamples/DaisySP//Source/Utility/dsp.h **** license that can be found in the LICENSE file or at
   6:../../../../DaisyExamples/DaisySP//Source/Utility/dsp.h **** https://opensource.org/licenses/MIT.
   7:../../../../DaisyExamples/DaisySP//Source/Utility/dsp.h **** */
   8:../../../../DaisyExamples/DaisySP//Source/Utility/dsp.h **** 
   9:../../../../DaisyExamples/DaisySP//Source/Utility/dsp.h **** /** Helpful defines, functions, and other utilities for use in/with daisysp modules.
  10:../../../../DaisyExamples/DaisySP//Source/Utility/dsp.h **** */
  11:../../../../DaisyExamples/DaisySP//Source/Utility/dsp.h **** #pragma once
  12:../../../../DaisyExamples/DaisySP//Source/Utility/dsp.h **** #ifndef DSY_CORE_DSP
  13:../../../../DaisyExamples/DaisySP//Source/Utility/dsp.h **** #define DSY_CORE_DSP
  14:../../../../DaisyExamples/DaisySP//Source/Utility/dsp.h **** #include <cassert>
  15:../../../../DaisyExamples/DaisySP//Source/Utility/dsp.h **** #include <cstdint>
  16:../../../../DaisyExamples/DaisySP//Source/Utility/dsp.h **** #include <random>
  17:../../../../DaisyExamples/DaisySP//Source/Utility/dsp.h **** #include <cmath>
  18:../../../../DaisyExamples/DaisySP//Source/Utility/dsp.h **** 
  19:../../../../DaisyExamples/DaisySP//Source/Utility/dsp.h **** /** PIs
  20:../../../../DaisyExamples/DaisySP//Source/Utility/dsp.h **** */
  21:../../../../DaisyExamples/DaisySP//Source/Utility/dsp.h **** #define PI_F 3.1415927410125732421875f
  22:../../../../DaisyExamples/DaisySP//Source/Utility/dsp.h **** #define TWOPI_F (2.0f * PI_F)
  23:../../../../DaisyExamples/DaisySP//Source/Utility/dsp.h **** #define HALFPI_F (PI_F * 0.5f)
  24:../../../../DaisyExamples/DaisySP//Source/Utility/dsp.h **** #define DSY_MIN(in, mn) (in < mn ? in : mn)
ARM GAS  C:\Users\samue\AppData\Local\Temp\cc7BohBx.s 			page 26


  25:../../../../DaisyExamples/DaisySP//Source/Utility/dsp.h **** #define DSY_MAX(in, mx) (in > mx ? in : mx)
  26:../../../../DaisyExamples/DaisySP//Source/Utility/dsp.h **** #define DSY_CLAMP(in, mn, mx) (DSY_MIN(DSY_MAX(in, mn), mx))
  27:../../../../DaisyExamples/DaisySP//Source/Utility/dsp.h **** #define DSY_COUNTOF(_arr) (sizeof(_arr) / sizeof(_arr[0]))
  28:../../../../DaisyExamples/DaisySP//Source/Utility/dsp.h **** 
  29:../../../../DaisyExamples/DaisySP//Source/Utility/dsp.h **** namespace daisysp
  30:../../../../DaisyExamples/DaisySP//Source/Utility/dsp.h **** {
  31:../../../../DaisyExamples/DaisySP//Source/Utility/dsp.h **** //Avoids division for random floats. e.g. rand() * kRandFrac
  32:../../../../DaisyExamples/DaisySP//Source/Utility/dsp.h **** static constexpr float kRandFrac = 1.f / (float)RAND_MAX;
  33:../../../../DaisyExamples/DaisySP//Source/Utility/dsp.h **** 
  34:../../../../DaisyExamples/DaisySP//Source/Utility/dsp.h **** //Convert from semitones to other units. e.g. 2 ^ (kOneTwelfth * x)
  35:../../../../DaisyExamples/DaisySP//Source/Utility/dsp.h **** static constexpr float kOneTwelfth = 1.f / 12.f;
  36:../../../../DaisyExamples/DaisySP//Source/Utility/dsp.h **** 
  37:../../../../DaisyExamples/DaisySP//Source/Utility/dsp.h **** /** efficient floating point min/max
  38:../../../../DaisyExamples/DaisySP//Source/Utility/dsp.h **** c/o stephen mccaul
  39:../../../../DaisyExamples/DaisySP//Source/Utility/dsp.h **** */
  40:../../../../DaisyExamples/DaisySP//Source/Utility/dsp.h **** inline float fmax(float a, float b)
  41:../../../../DaisyExamples/DaisySP//Source/Utility/dsp.h **** {
  42:../../../../DaisyExamples/DaisySP//Source/Utility/dsp.h ****     float r;
  43:../../../../DaisyExamples/DaisySP//Source/Utility/dsp.h **** #ifdef __arm__
  44:../../../../DaisyExamples/DaisySP//Source/Utility/dsp.h ****     asm("vmaxnm.f32 %[d], %[n], %[m]" : [d] "=t"(r) : [n] "t"(a), [m] "t"(b) :);
  45:../../../../DaisyExamples/DaisySP//Source/Utility/dsp.h **** #else
  46:../../../../DaisyExamples/DaisySP//Source/Utility/dsp.h ****     r = (a > b) ? a : b;
  47:../../../../DaisyExamples/DaisySP//Source/Utility/dsp.h **** #endif // __arm__
  48:../../../../DaisyExamples/DaisySP//Source/Utility/dsp.h ****     return r;
  49:../../../../DaisyExamples/DaisySP//Source/Utility/dsp.h **** }
  50:../../../../DaisyExamples/DaisySP//Source/Utility/dsp.h **** 
  51:../../../../DaisyExamples/DaisySP//Source/Utility/dsp.h **** inline float fmin(float a, float b)
  52:../../../../DaisyExamples/DaisySP//Source/Utility/dsp.h **** {
  53:../../../../DaisyExamples/DaisySP//Source/Utility/dsp.h ****     float r;
  54:../../../../DaisyExamples/DaisySP//Source/Utility/dsp.h **** #ifdef __arm__
  55:../../../../DaisyExamples/DaisySP//Source/Utility/dsp.h ****     asm("vminnm.f32 %[d], %[n], %[m]" : [d] "=t"(r) : [n] "t"(a), [m] "t"(b) :);
  56:../../../../DaisyExamples/DaisySP//Source/Utility/dsp.h **** #else
  57:../../../../DaisyExamples/DaisySP//Source/Utility/dsp.h ****     r = (a < b) ? a : b;
  58:../../../../DaisyExamples/DaisySP//Source/Utility/dsp.h **** #endif // __arm__
  59:../../../../DaisyExamples/DaisySP//Source/Utility/dsp.h ****     return r;
  60:../../../../DaisyExamples/DaisySP//Source/Utility/dsp.h **** }
  61:../../../../DaisyExamples/DaisySP//Source/Utility/dsp.h **** 
  62:../../../../DaisyExamples/DaisySP//Source/Utility/dsp.h **** /** quick fp clamp
  63:../../../../DaisyExamples/DaisySP//Source/Utility/dsp.h **** */
  64:../../../../DaisyExamples/DaisySP//Source/Utility/dsp.h **** inline float fclamp(float in, float min, float max)
  65:../../../../DaisyExamples/DaisySP//Source/Utility/dsp.h **** {
  66:../../../../DaisyExamples/DaisySP//Source/Utility/dsp.h ****     return fmin(fmax(in, min), max);
  67:../../../../DaisyExamples/DaisySP//Source/Utility/dsp.h **** }
  68:../../../../DaisyExamples/DaisySP//Source/Utility/dsp.h **** 
  69:../../../../DaisyExamples/DaisySP//Source/Utility/dsp.h **** /** From Musicdsp.org "Fast power and root estimates for 32bit floats)
  70:../../../../DaisyExamples/DaisySP//Source/Utility/dsp.h **** Original code by Stefan Stenzel
  71:../../../../DaisyExamples/DaisySP//Source/Utility/dsp.h **** These are approximations
  72:../../../../DaisyExamples/DaisySP//Source/Utility/dsp.h **** */
  73:../../../../DaisyExamples/DaisySP//Source/Utility/dsp.h **** inline float fastpower(float f, int n)
  74:../../../../DaisyExamples/DaisySP//Source/Utility/dsp.h **** {
  75:../../../../DaisyExamples/DaisySP//Source/Utility/dsp.h ****     long *lp, l;
  76:../../../../DaisyExamples/DaisySP//Source/Utility/dsp.h ****     lp = (long *)(&f);
  77:../../../../DaisyExamples/DaisySP//Source/Utility/dsp.h ****     l  = *lp;
  78:../../../../DaisyExamples/DaisySP//Source/Utility/dsp.h ****     l -= 0x3F800000;
  79:../../../../DaisyExamples/DaisySP//Source/Utility/dsp.h ****     l <<= (n - 1);
  80:../../../../DaisyExamples/DaisySP//Source/Utility/dsp.h ****     l += 0x3F800000;
  81:../../../../DaisyExamples/DaisySP//Source/Utility/dsp.h ****     *lp = l;
ARM GAS  C:\Users\samue\AppData\Local\Temp\cc7BohBx.s 			page 27


  82:../../../../DaisyExamples/DaisySP//Source/Utility/dsp.h ****     return f;
  83:../../../../DaisyExamples/DaisySP//Source/Utility/dsp.h **** }
  84:../../../../DaisyExamples/DaisySP//Source/Utility/dsp.h **** 
  85:../../../../DaisyExamples/DaisySP//Source/Utility/dsp.h **** inline float fastroot(float f, int n)
  86:../../../../DaisyExamples/DaisySP//Source/Utility/dsp.h **** {
  87:../../../../DaisyExamples/DaisySP//Source/Utility/dsp.h ****     long *lp, l;
  88:../../../../DaisyExamples/DaisySP//Source/Utility/dsp.h ****     lp = (long *)(&f);
  89:../../../../DaisyExamples/DaisySP//Source/Utility/dsp.h ****     l  = *lp;
  90:../../../../DaisyExamples/DaisySP//Source/Utility/dsp.h ****     l -= 0x3F800000;
  91:../../../../DaisyExamples/DaisySP//Source/Utility/dsp.h ****     l >>= (n - 1);
  92:../../../../DaisyExamples/DaisySP//Source/Utility/dsp.h ****     l += 0x3F800000;
  93:../../../../DaisyExamples/DaisySP//Source/Utility/dsp.h ****     *lp = l;
  94:../../../../DaisyExamples/DaisySP//Source/Utility/dsp.h ****     return f;
  95:../../../../DaisyExamples/DaisySP//Source/Utility/dsp.h **** }
  96:../../../../DaisyExamples/DaisySP//Source/Utility/dsp.h **** 
  97:../../../../DaisyExamples/DaisySP//Source/Utility/dsp.h **** /** Significantly more efficient than fmodf(x, 1.0f) for calculating
  98:../../../../DaisyExamples/DaisySP//Source/Utility/dsp.h ****  *  the decimal part of a floating point value.
  99:../../../../DaisyExamples/DaisySP//Source/Utility/dsp.h ****  */
 100:../../../../DaisyExamples/DaisySP//Source/Utility/dsp.h **** inline float fastmod1f(float x)
 101:../../../../DaisyExamples/DaisySP//Source/Utility/dsp.h **** {
 102:../../../../DaisyExamples/DaisySP//Source/Utility/dsp.h ****     return x - static_cast<int>(x);
 103:../../../../DaisyExamples/DaisySP//Source/Utility/dsp.h **** }
 104:../../../../DaisyExamples/DaisySP//Source/Utility/dsp.h **** 
 105:../../../../DaisyExamples/DaisySP//Source/Utility/dsp.h **** /** From http://openaudio.blogspot.com/2017/02/faster-log10-and-pow.html
 106:../../../../DaisyExamples/DaisySP//Source/Utility/dsp.h **** No approximation, pow10f(x) gives a 90% speed increase over powf(10.f, x)
 107:../../../../DaisyExamples/DaisySP//Source/Utility/dsp.h **** */
 108:../../../../DaisyExamples/DaisySP//Source/Utility/dsp.h **** inline float pow10f(float f)
 109:../../../../DaisyExamples/DaisySP//Source/Utility/dsp.h **** {
 110:../../../../DaisyExamples/DaisySP//Source/Utility/dsp.h ****     return expf(2.302585092994046f * f);
 111:../../../../DaisyExamples/DaisySP//Source/Utility/dsp.h **** }
 112:../../../../DaisyExamples/DaisySP//Source/Utility/dsp.h **** 
 113:../../../../DaisyExamples/DaisySP//Source/Utility/dsp.h **** /* Original code for fastlog2f by Dr. Paul Beckmann from the ARM community forum, adapted from the 
 114:../../../../DaisyExamples/DaisySP//Source/Utility/dsp.h **** About 25% performance increase over std::log10f
 115:../../../../DaisyExamples/DaisySP//Source/Utility/dsp.h **** */
 116:../../../../DaisyExamples/DaisySP//Source/Utility/dsp.h **** inline float fastlog2f(float f)
 117:../../../../DaisyExamples/DaisySP//Source/Utility/dsp.h **** {
 118:../../../../DaisyExamples/DaisySP//Source/Utility/dsp.h ****     float frac;
 119:../../../../DaisyExamples/DaisySP//Source/Utility/dsp.h ****     int   exp;
 120:../../../../DaisyExamples/DaisySP//Source/Utility/dsp.h ****     frac = frexpf(fabsf(f), &exp);
 121:../../../../DaisyExamples/DaisySP//Source/Utility/dsp.h ****     f    = 1.23149591368684f;
 122:../../../../DaisyExamples/DaisySP//Source/Utility/dsp.h ****     f *= frac;
 123:../../../../DaisyExamples/DaisySP//Source/Utility/dsp.h ****     f += -4.11852516267426f;
 124:../../../../DaisyExamples/DaisySP//Source/Utility/dsp.h ****     f *= frac;
 125:../../../../DaisyExamples/DaisySP//Source/Utility/dsp.h ****     f += 6.02197014179219f;
 126:../../../../DaisyExamples/DaisySP//Source/Utility/dsp.h ****     f *= frac;
 127:../../../../DaisyExamples/DaisySP//Source/Utility/dsp.h ****     f += -3.13396450166353f;
 128:../../../../DaisyExamples/DaisySP//Source/Utility/dsp.h ****     f += exp;
 129:../../../../DaisyExamples/DaisySP//Source/Utility/dsp.h ****     return (f);
 130:../../../../DaisyExamples/DaisySP//Source/Utility/dsp.h **** }
 131:../../../../DaisyExamples/DaisySP//Source/Utility/dsp.h **** 
 132:../../../../DaisyExamples/DaisySP//Source/Utility/dsp.h **** inline float fastlog10f(float f)
 133:../../../../DaisyExamples/DaisySP//Source/Utility/dsp.h **** {
 134:../../../../DaisyExamples/DaisySP//Source/Utility/dsp.h ****     return fastlog2f(f) * 0.3010299956639812f;
 135:../../../../DaisyExamples/DaisySP//Source/Utility/dsp.h **** }
 136:../../../../DaisyExamples/DaisySP//Source/Utility/dsp.h **** 
 137:../../../../DaisyExamples/DaisySP//Source/Utility/dsp.h **** /** Midi to frequency helper
 138:../../../../DaisyExamples/DaisySP//Source/Utility/dsp.h **** */
ARM GAS  C:\Users\samue\AppData\Local\Temp\cc7BohBx.s 			page 28


 139:../../../../DaisyExamples/DaisySP//Source/Utility/dsp.h **** inline float mtof(float m)
 140:../../../../DaisyExamples/DaisySP//Source/Utility/dsp.h **** {
 141:../../../../DaisyExamples/DaisySP//Source/Utility/dsp.h ****     return powf(2, (m - 69.0f) / 12.0f) * 440.0f;
 142:../../../../DaisyExamples/DaisySP//Source/Utility/dsp.h **** }
 143:../../../../DaisyExamples/DaisySP//Source/Utility/dsp.h **** 
 144:../../../../DaisyExamples/DaisySP//Source/Utility/dsp.h **** 
 145:../../../../DaisyExamples/DaisySP//Source/Utility/dsp.h **** /** one pole lpf
 146:../../../../DaisyExamples/DaisySP//Source/Utility/dsp.h **** out is passed by reference, and must be retained between
 147:../../../../DaisyExamples/DaisySP//Source/Utility/dsp.h **** calls to properly filter the signal
 148:../../../../DaisyExamples/DaisySP//Source/Utility/dsp.h **** coeff can be calculated:
 149:../../../../DaisyExamples/DaisySP//Source/Utility/dsp.h **** coeff = 1.0 / (time * sample_rate) ; where time is in seconds
 150:../../../../DaisyExamples/DaisySP//Source/Utility/dsp.h **** */
 151:../../../../DaisyExamples/DaisySP//Source/Utility/dsp.h **** inline void fonepole(float &out, float in, float coeff)
 152:../../../../DaisyExamples/DaisySP//Source/Utility/dsp.h **** {
 153:../../../../DaisyExamples/DaisySP//Source/Utility/dsp.h ****     out += coeff * (in - out);
 154:../../../../DaisyExamples/DaisySP//Source/Utility/dsp.h **** }
 155:../../../../DaisyExamples/DaisySP//Source/Utility/dsp.h **** 
 156:../../../../DaisyExamples/DaisySP//Source/Utility/dsp.h **** /** Curves to use with the fmap function */
 157:../../../../DaisyExamples/DaisySP//Source/Utility/dsp.h **** enum class Mapping
 158:../../../../DaisyExamples/DaisySP//Source/Utility/dsp.h **** {
 159:../../../../DaisyExamples/DaisySP//Source/Utility/dsp.h ****     LINEAR,
 160:../../../../DaisyExamples/DaisySP//Source/Utility/dsp.h ****     EXP,
 161:../../../../DaisyExamples/DaisySP//Source/Utility/dsp.h ****     LOG,
 162:../../../../DaisyExamples/DaisySP//Source/Utility/dsp.h **** };
 163:../../../../DaisyExamples/DaisySP//Source/Utility/dsp.h **** 
 164:../../../../DaisyExamples/DaisySP//Source/Utility/dsp.h **** /** Maps a float between a specified range, using a specified curve.
 165:../../../../DaisyExamples/DaisySP//Source/Utility/dsp.h ****  *
 166:../../../../DaisyExamples/DaisySP//Source/Utility/dsp.h ****  *  \param in a value between 0 to 1 that will be mapped to the new range.
 167:../../../../DaisyExamples/DaisySP//Source/Utility/dsp.h ****  *  \param min the new minimum value
 168:../../../../DaisyExamples/DaisySP//Source/Utility/dsp.h ****  *  \param max the new maxmimum value
 169:../../../../DaisyExamples/DaisySP//Source/Utility/dsp.h ****  *  \param curve a Mapping Value to adjust the response curve of the transformation
 170:../../../../DaisyExamples/DaisySP//Source/Utility/dsp.h ****  *               defaults to Linear. @see Mapping
 171:../../../../DaisyExamples/DaisySP//Source/Utility/dsp.h ****  *
 172:../../../../DaisyExamples/DaisySP//Source/Utility/dsp.h ****  *  When using the log curve min and max, must be greater than zero.
 173:../../../../DaisyExamples/DaisySP//Source/Utility/dsp.h ****  *
 174:../../../../DaisyExamples/DaisySP//Source/Utility/dsp.h ****  *  \retval returns the transformed float within the new range.
 175:../../../../DaisyExamples/DaisySP//Source/Utility/dsp.h **** */
 176:../../../../DaisyExamples/DaisySP//Source/Utility/dsp.h **** inline float
 177:../../../../DaisyExamples/DaisySP//Source/Utility/dsp.h **** fmap(float in, float min, float max, Mapping curve = Mapping::LINEAR)
 717              		.loc 7 177 1 view .LVU181
 718              	.LBE342:
 178:../../../../DaisyExamples/DaisySP//Source/Utility/dsp.h **** {
 179:../../../../DaisyExamples/DaisySP//Source/Utility/dsp.h ****     switch(curve)
 719              		.loc 7 179 5 view .LVU182
 720              	.LBB351:
 721              	.LBB343:
 180:../../../../DaisyExamples/DaisySP//Source/Utility/dsp.h ****     {
 181:../../../../DaisyExamples/DaisySP//Source/Utility/dsp.h ****         case Mapping::EXP:
 182:../../../../DaisyExamples/DaisySP//Source/Utility/dsp.h ****             return fclamp(min + (in * in) * (max - min), min, max);
 183:../../../../DaisyExamples/DaisySP//Source/Utility/dsp.h ****         case Mapping::LOG:
 184:../../../../DaisyExamples/DaisySP//Source/Utility/dsp.h ****         {
 185:../../../../DaisyExamples/DaisySP//Source/Utility/dsp.h ****             const float a = 1.f / log10f(max / min);
 186:../../../../DaisyExamples/DaisySP//Source/Utility/dsp.h ****             return fclamp(min * powf(10, in / a), min, max);
 187:../../../../DaisyExamples/DaisySP//Source/Utility/dsp.h ****         }
 188:../../../../DaisyExamples/DaisySP//Source/Utility/dsp.h ****         case Mapping::LINEAR:
 722              		.loc 7 188 9 view .LVU183
 189:../../../../DaisyExamples/DaisySP//Source/Utility/dsp.h ****         default: return fclamp(min + in * (max - min), min, max);
ARM GAS  C:\Users\samue\AppData\Local\Temp\cc7BohBx.s 			page 29


 723              		.loc 7 189 9 view .LVU184
 724              		.loc 7 189 18 view .LVU185
 725              	.LBB344:
 726              	.LBI344:
  64:../../../../DaisyExamples/DaisySP//Source/Utility/dsp.h **** {
 727              		.loc 7 64 14 view .LVU186
 728              	.LBE344:
 729              	.LBE343:
 730              	.LBE351:
  66:../../../../DaisyExamples/DaisySP//Source/Utility/dsp.h **** }
 731              		.loc 7 66 5 view .LVU187
 732              	.LBB352:
 733              	.LBB350:
 734              	.LBB349:
 735              	.LBB345:
 736              	.LBI345:
  40:../../../../DaisyExamples/DaisySP//Source/Utility/dsp.h **** {
 737              		.loc 7 40 14 view .LVU188
 738              	.LBB346:
  42:../../../../DaisyExamples/DaisySP//Source/Utility/dsp.h **** #ifdef __arm__
 739              		.loc 7 42 5 view .LVU189
  44:../../../../DaisyExamples/DaisySP//Source/Utility/dsp.h **** #else
 740              		.loc 7 44 5 view .LVU190
  48:../../../../DaisyExamples/DaisySP//Source/Utility/dsp.h **** }
 741              		.loc 7 48 5 view .LVU191
  48:../../../../DaisyExamples/DaisySP//Source/Utility/dsp.h **** }
 742              		.loc 7 48 5 is_stmt 0 view .LVU192
 743              	.LBE346:
 744              	.LBE345:
 745              	.LBB347:
 746              	.LBI347:
  51:../../../../DaisyExamples/DaisySP//Source/Utility/dsp.h **** {
 747              		.loc 7 51 14 is_stmt 1 view .LVU193
 748              	.LBB348:
  53:../../../../DaisyExamples/DaisySP//Source/Utility/dsp.h **** #ifdef __arm__
 749              		.loc 7 53 5 view .LVU194
  55:../../../../DaisyExamples/DaisySP//Source/Utility/dsp.h **** #else
 750              		.loc 7 55 5 view .LVU195
  59:../../../../DaisyExamples/DaisySP//Source/Utility/dsp.h **** }
 751              		.loc 7 59 5 view .LVU196
  59:../../../../DaisyExamples/DaisySP//Source/Utility/dsp.h **** }
 752              		.loc 7 59 5 is_stmt 0 view .LVU197
 753              	.LBE348:
 754              	.LBE347:
 755              	.LBE349:
 756              	.LBE350:
 757              	.LBE352:
  33:voice.cpp     ****     if(mix < 0.0f) mix = 0.0f;
 758              		.loc 2 33 5 is_stmt 1 view .LVU198
 759 0000 B5EEC00A 		vcmpe.f32	s0, #0
 760 0004 F1EE10FA 		vmrs	APSR_nzcv, FPSCR
 761 0008 0AD4     		bmi	.L21
  34:voice.cpp     ****     else if (mix > 1.0f) mix = 1.0f;
 762              		.loc 2 34 10 view .LVU199
 763 000a F7EE007A 		vmov.f32	s15, #1.0e+0
 764              		.loc 2 34 30 is_stmt 0 view .LVU200
 765 000e B4EE670A 		vcmp.f32	s0, s15
ARM GAS  C:\Users\samue\AppData\Local\Temp\cc7BohBx.s 			page 30


 766 0012 F1EE10FA 		vmrs	APSR_nzcv, FPSCR
 767 0016 37FE800A 		vselgt.f32	s0, s15, s0
 768              	.LVL31:
  35:voice.cpp     ****     
  36:voice.cpp     ****     noise_mix_ = mix;
 769              		.loc 2 36 5 is_stmt 1 view .LVU201
 770              		.loc 2 36 16 is_stmt 0 view .LVU202
 771 001a 80ED500A 		vstr.32	s0, [r0, #320]
  37:voice.cpp     **** }
 772              		.loc 2 37 1 view .LVU203
 773 001e 7047     		bx	lr
 774              	.L21:
  33:voice.cpp     ****     else if (mix > 1.0f) mix = 1.0f;
 775              		.loc 2 33 24 view .LVU204
 776 0020 9FED020A 		vldr.32	s0, .L23
 777              	.LVL32:
  36:voice.cpp     **** }
 778              		.loc 2 36 5 is_stmt 1 view .LVU205
  36:voice.cpp     **** }
 779              		.loc 2 36 16 is_stmt 0 view .LVU206
 780 0024 80ED500A 		vstr.32	s0, [r0, #320]
 781              		.loc 2 37 1 view .LVU207
 782 0028 7047     		bx	lr
 783              	.L24:
 784 002a 00BF     		.align	2
 785              	.L23:
 786 002c 00000000 		.word	0
 787              		.cfi_endproc
 788              	.LFE3519:
 790              		.section	.text._ZN5voice8set_freqEf,"ax",%progbits
 791              		.align	1
 792              		.p2align 2,,3
 793              		.global	_ZN5voice8set_freqEf
 794              		.syntax unified
 795              		.thumb
 796              		.thumb_func
 797              		.fpu fpv5-d16
 799              	_ZN5voice8set_freqEf:
 800              	.LVL33:
 801              	.LFB3520:
  38:voice.cpp     **** 
  39:voice.cpp     **** void voice::set_freq(float freq)
  40:voice.cpp     **** {
 802              		.loc 2 40 1 is_stmt 1 view -0
 803              		.cfi_startproc
 804              		@ args = 0, pretend = 0, frame = 0
 805              		@ frame_needed = 0, uses_anonymous_args = 0
  41:voice.cpp     ****     freq = mtof(freq*120);
 806              		.loc 2 41 5 view .LVU209
  40:voice.cpp     ****     freq = mtof(freq*120);
 807              		.loc 2 40 1 is_stmt 0 view .LVU210
 808 0000 F0EE406A 		vmov.f32	s13, s0
 809              	.LVL34:
 810              	.LBB355:
 811              	.LBI355:
 139:../../../../DaisyExamples/DaisySP//Source/Utility/dsp.h **** {
 812              		.loc 7 139 14 is_stmt 1 view .LVU211
ARM GAS  C:\Users\samue\AppData\Local\Temp\cc7BohBx.s 			page 31


 813              	.LBB356:
 141:../../../../DaisyExamples/DaisySP//Source/Utility/dsp.h **** }
 814              		.loc 7 141 5 view .LVU212
 141:../../../../DaisyExamples/DaisySP//Source/Utility/dsp.h **** }
 815              		.loc 7 141 23 is_stmt 0 view .LVU213
 816 0004 9FED0B7A 		vldr.32	s14, .L27
 817 0008 DFED0B7A 		vldr.32	s15, .L27+4
 141:../../../../DaisyExamples/DaisySP//Source/Utility/dsp.h **** }
 818              		.loc 7 141 16 view .LVU214
 819 000c F2EE080A 		vmov.f32	s1, #1.2e+1
 820 0010 B0EE000A 		vmov.f32	s0, #2.0e+0
 821              	.LVL35:
 141:../../../../DaisyExamples/DaisySP//Source/Utility/dsp.h **** }
 822              		.loc 7 141 23 view .LVU215
 823 0014 E6EE877A 		vfma.f32	s15, s13, s14
 824              	.LBE356:
 825              	.LBE355:
  40:voice.cpp     ****     freq = mtof(freq*120);
 826              		.loc 2 40 1 view .LVU216
 827 0018 10B5     		push	{r4, lr}
 828              		.cfi_def_cfa_offset 8
 829              		.cfi_offset 4, -8
 830              		.cfi_offset 14, -4
  40:voice.cpp     ****     freq = mtof(freq*120);
 831              		.loc 2 40 1 view .LVU217
 832 001a 0446     		mov	r4, r0
 833              	.LBB359:
 834              	.LBB357:
 141:../../../../DaisyExamples/DaisySP//Source/Utility/dsp.h **** }
 835              		.loc 7 141 16 view .LVU218
 836 001c C7EEA00A 		vdiv.f32	s1, s15, s1
 837 0020 FFF7FEFF 		bl	powf
 838              	.LVL36:
 141:../../../../DaisyExamples/DaisySP//Source/Utility/dsp.h **** }
 839              		.loc 7 141 16 view .LVU219
 840              	.LBE357:
 841              	.LBE359:
  42:voice.cpp     ****     //osc_.SetFreq(freq);
  43:voice.cpp     ****     osc_freq_ = freq;
 842              		.loc 2 43 5 is_stmt 1 view .LVU220
 843              	.LBB360:
 844              	.LBB358:
 141:../../../../DaisyExamples/DaisySP//Source/Utility/dsp.h **** }
 845              		.loc 7 141 43 is_stmt 0 view .LVU221
 846 0024 DFED057A 		vldr.32	s15, .L27+8
 847 0028 20EE270A 		vmul.f32	s0, s0, s15
 848              	.LVL37:
 141:../../../../DaisyExamples/DaisySP//Source/Utility/dsp.h **** }
 849              		.loc 7 141 43 view .LVU222
 850              	.LBE358:
 851              	.LBE360:
 852              		.loc 2 43 15 view .LVU223
 853 002c 84ED4D0A 		vstr.32	s0, [r4, #308]
  44:voice.cpp     **** }
 854              		.loc 2 44 1 view .LVU224
 855 0030 10BD     		pop	{r4, pc}
 856              	.LVL38:
ARM GAS  C:\Users\samue\AppData\Local\Temp\cc7BohBx.s 			page 32


 857              	.L28:
 858              		.loc 2 44 1 view .LVU225
 859 0032 00BF     		.align	2
 860              	.L27:
 861 0034 0000F042 		.word	1123024896
 862 0038 00008AC2 		.word	-1031143424
 863 003c 0000DC43 		.word	1138491392
 864              		.cfi_endproc
 865              	.LFE3520:
 867              		.section	.text._ZN5voice14set_wave_shapeEh,"ax",%progbits
 868              		.align	1
 869              		.p2align 2,,3
 870              		.global	_ZN5voice14set_wave_shapeEh
 871              		.syntax unified
 872              		.thumb
 873              		.thumb_func
 874              		.fpu fpv5-d16
 876              	_ZN5voice14set_wave_shapeEh:
 877              	.LVL39:
 878              	.LFB3521:
  45:voice.cpp     **** 
  46:voice.cpp     **** void voice::set_wave_shape(uint8_t shape)
  47:voice.cpp     **** {
 879              		.loc 2 47 1 is_stmt 1 view -0
 880              		.cfi_startproc
 881              		@ args = 0, pretend = 0, frame = 0
 882              		@ frame_needed = 0, uses_anonymous_args = 0
 883              		@ link register save eliminated.
  48:voice.cpp     ****     if(shape == TRI) osc_.SetWaveform(osc_.WAVE_POLYBLEP_TRI);
 884              		.loc 2 48 5 view .LVU227
 885 0000 19B9     		cbnz	r1, .L30
 886              		.loc 2 48 22 discriminator 1 view .LVU228
 887              	.LVL40:
 888              	.LBB361:
 889              	.LBI361:
  79:../../../../DaisyExamples/DaisySP//Source/Synthesis/oscillator.h ****     {
 890              		.loc 3 79 17 discriminator 1 view .LVU229
 891              	.LBB362:
 892              		.loc 3 81 9 discriminator 1 view .LVU230
 893              		.loc 3 81 19 is_stmt 0 discriminator 1 view .LVU231
 894 0002 0523     		movs	r3, #5
 895 0004 80F86C30 		strb	r3, [r0, #108]
  82:../../../../DaisyExamples/DaisySP//Source/Synthesis/oscillator.h ****     }
 896              		.loc 3 82 5 discriminator 1 view .LVU232
 897 0008 7047     		bx	lr
 898              	.LVL41:
 899              	.L30:
 900              		.loc 3 82 5 discriminator 1 view .LVU233
 901              	.LBE362:
 902              	.LBE361:
  49:voice.cpp     ****     else if(shape == SIN) osc_.SetWaveform(osc_.WAVE_SIN);
 903              		.loc 2 49 10 is_stmt 1 view .LVU234
 904 000a 0129     		cmp	r1, #1
 905 000c 05D0     		beq	.L33
  50:voice.cpp     ****     else if(shape == SAW) osc_.SetWaveform(osc_.WAVE_POLYBLEP_SAW);
 906              		.loc 2 50 10 view .LVU235
 907 000e 0229     		cmp	r1, #2
ARM GAS  C:\Users\samue\AppData\Local\Temp\cc7BohBx.s 			page 33


 908 0010 02D1     		bne	.L29
 909              		.loc 2 50 27 discriminator 1 view .LVU236
 910              	.LVL42:
 911              	.LBB363:
 912              	.LBI363:
  79:../../../../DaisyExamples/DaisySP//Source/Synthesis/oscillator.h ****     {
 913              		.loc 3 79 17 discriminator 1 view .LVU237
 914              	.LBB364:
  81:../../../../DaisyExamples/DaisySP//Source/Synthesis/oscillator.h ****     }
 915              		.loc 3 81 9 discriminator 1 view .LVU238
  81:../../../../DaisyExamples/DaisySP//Source/Synthesis/oscillator.h ****     }
 916              		.loc 3 81 19 is_stmt 0 discriminator 1 view .LVU239
 917 0012 0623     		movs	r3, #6
 918 0014 80F86C30 		strb	r3, [r0, #108]
 919              	.LVL43:
 920              	.L29:
  81:../../../../DaisyExamples/DaisySP//Source/Synthesis/oscillator.h ****     }
 921              		.loc 3 81 19 discriminator 1 view .LVU240
 922              	.LBE364:
 923              	.LBE363:
  51:voice.cpp     **** }
 924              		.loc 2 51 1 view .LVU241
 925 0018 7047     		bx	lr
 926              	.L33:
  49:voice.cpp     ****     else if(shape == SAW) osc_.SetWaveform(osc_.WAVE_POLYBLEP_SAW);
 927              		.loc 2 49 27 is_stmt 1 discriminator 1 view .LVU242
 928              	.LVL44:
 929              	.LBB365:
 930              	.LBI365:
  79:../../../../DaisyExamples/DaisySP//Source/Synthesis/oscillator.h ****     {
 931              		.loc 3 79 17 discriminator 1 view .LVU243
 932              	.LBB366:
  81:../../../../DaisyExamples/DaisySP//Source/Synthesis/oscillator.h ****     }
 933              		.loc 3 81 9 discriminator 1 view .LVU244
  81:../../../../DaisyExamples/DaisySP//Source/Synthesis/oscillator.h ****     }
 934              		.loc 3 81 19 is_stmt 0 discriminator 1 view .LVU245
 935 001a 0023     		movs	r3, #0
 936 001c 80F86C30 		strb	r3, [r0, #108]
 937              		.loc 3 82 5 discriminator 1 view .LVU246
 938 0020 7047     		bx	lr
 939              	.LBE366:
 940              	.LBE365:
 941              		.cfi_endproc
 942              	.LFE3521:
 944 0022 00BF     		.section	.text._ZN5voice14set_distortionEf,"ax",%progbits
 945              		.align	1
 946              		.p2align 2,,3
 947              		.global	_ZN5voice14set_distortionEf
 948              		.syntax unified
 949              		.thumb
 950              		.thumb_func
 951              		.fpu fpv5-d16
 953              	_ZN5voice14set_distortionEf:
 954              	.LVL45:
 955              	.LFB3522:
  52:voice.cpp     **** 
  53:voice.cpp     **** void voice::set_distortion(float gain)
ARM GAS  C:\Users\samue\AppData\Local\Temp\cc7BohBx.s 			page 34


  54:voice.cpp     **** {
 956              		.loc 2 54 1 is_stmt 1 view -0
 957              		.cfi_startproc
 958              		@ args = 0, pretend = 0, frame = 0
 959              		@ frame_needed = 0, uses_anonymous_args = 0
  55:voice.cpp     ****     distortion_gain_ = pow10f(2*gain) - 0.99f;
 960              		.loc 2 55 5 view .LVU248
 961              	.LBB369:
 962              	.LBI369:
 108:../../../../DaisyExamples/DaisySP//Source/Utility/dsp.h **** {
 963              		.loc 7 108 14 view .LVU249
 964              	.LBB370:
 110:../../../../DaisyExamples/DaisySP//Source/Utility/dsp.h **** }
 965              		.loc 7 110 5 view .LVU250
 966              	.LBE370:
 967              	.LBE369:
 968              		.loc 2 55 30 is_stmt 0 view .LVU251
 969 0000 30EE000A 		vadd.f32	s0, s0, s0
 970              	.LVL46:
 971              	.LBB374:
 972              	.LBB371:
 110:../../../../DaisyExamples/DaisySP//Source/Utility/dsp.h **** }
 973              		.loc 7 110 16 view .LVU252
 974 0004 DFED077A 		vldr.32	s15, .L36
 975              	.LBE371:
 976              	.LBE374:
  54:voice.cpp     ****     distortion_gain_ = pow10f(2*gain) - 0.99f;
 977              		.loc 2 54 1 view .LVU253
 978 0008 10B5     		push	{r4, lr}
 979              		.cfi_def_cfa_offset 8
 980              		.cfi_offset 4, -8
 981              		.cfi_offset 14, -4
 982              	.LBB375:
 983              	.LBB372:
 110:../../../../DaisyExamples/DaisySP//Source/Utility/dsp.h **** }
 984              		.loc 7 110 16 view .LVU254
 985 000a 20EE270A 		vmul.f32	s0, s0, s15
 986              	.LVL47:
 110:../../../../DaisyExamples/DaisySP//Source/Utility/dsp.h **** }
 987              		.loc 7 110 16 view .LVU255
 988              	.LBE372:
 989              	.LBE375:
  54:voice.cpp     ****     distortion_gain_ = pow10f(2*gain) - 0.99f;
 990              		.loc 2 54 1 view .LVU256
 991 000e 0446     		mov	r4, r0
 992              	.LBB376:
 993              	.LBB373:
 110:../../../../DaisyExamples/DaisySP//Source/Utility/dsp.h **** }
 994              		.loc 7 110 16 view .LVU257
 995 0010 FFF7FEFF 		bl	expf
 996              	.LVL48:
 110:../../../../DaisyExamples/DaisySP//Source/Utility/dsp.h **** }
 997              		.loc 7 110 16 view .LVU258
 998              	.LBE373:
 999              	.LBE376:
 1000              		.loc 2 55 39 view .LVU259
 1001 0014 DFED047A 		vldr.32	s15, .L36+4
ARM GAS  C:\Users\samue\AppData\Local\Temp\cc7BohBx.s 			page 35


 1002 0018 30EE670A 		vsub.f32	s0, s0, s15
 1003              		.loc 2 55 22 view .LVU260
 1004 001c 84ED4E0A 		vstr.32	s0, [r4, #312]
  56:voice.cpp     **** }
 1005              		.loc 2 56 1 view .LVU261
 1006 0020 10BD     		pop	{r4, pc}
 1007              	.LVL49:
 1008              	.L37:
 1009              		.loc 2 56 1 view .LVU262
 1010 0022 00BF     		.align	2
 1011              	.L36:
 1012 0024 8E5D1340 		.word	1075010958
 1013 0028 A4707D3F 		.word	1065185444
 1014              		.cfi_endproc
 1015              	.LFE3522:
 1017              		.section	.text._ZN5voice8set_foldEf,"ax",%progbits
 1018              		.align	1
 1019              		.p2align 2,,3
 1020              		.global	_ZN5voice8set_foldEf
 1021              		.syntax unified
 1022              		.thumb
 1023              		.thumb_func
 1024              		.fpu fpv5-d16
 1026              	_ZN5voice8set_foldEf:
 1027              	.LVL50:
 1028              	.LFB3523:
  57:voice.cpp     **** 
  58:voice.cpp     **** void voice::set_fold(float gain)
  59:voice.cpp     **** {
 1029              		.loc 2 59 1 is_stmt 1 view -0
 1030              		.cfi_startproc
 1031              		@ args = 0, pretend = 0, frame = 0
 1032              		@ frame_needed = 0, uses_anonymous_args = 0
 1033              		@ link register save eliminated.
  60:voice.cpp     ****     fold_gain_ = fmap(gain, 0.4f, 7.0f);
 1034              		.loc 2 60 5 view .LVU264
 1035              	.LBB377:
 1036              	.LBB378:
 1037              		.loc 7 189 31 is_stmt 0 view .LVU265
 1038 0000 9FED087A 		vldr.32	s14, .L39
 1039              	.LVL51:
 1040              		.loc 7 189 31 view .LVU266
 1041              	.LBE378:
 1042              	.LBI377:
 177:../../../../DaisyExamples/DaisySP//Source/Utility/dsp.h **** {
 1043              		.loc 7 177 1 is_stmt 1 view .LVU267
 1044              	.LBE377:
 179:../../../../DaisyExamples/DaisySP//Source/Utility/dsp.h ****     {
 1045              		.loc 7 179 5 view .LVU268
 1046              	.LBB390:
 1047              	.LBB388:
 188:../../../../DaisyExamples/DaisySP//Source/Utility/dsp.h ****         default: return fclamp(min + in * (max - min), min, max);
 1048              		.loc 7 188 9 view .LVU269
 1049              		.loc 7 189 9 view .LVU270
 1050              		.loc 7 189 18 view .LVU271
 1051              	.LBB379:
 1052              	.LBB380:
ARM GAS  C:\Users\samue\AppData\Local\Temp\cc7BohBx.s 			page 36


 1053              	.LBB381:
  55:../../../../DaisyExamples/DaisySP//Source/Utility/dsp.h **** #else
 1054              		.loc 7 55 5 is_stmt 0 view .LVU272
 1055 0004 F1EE0C6A 		vmov.f32	s13, #7.0e+0
 1056              	.LBE381:
 1057              	.LBE380:
 1058              	.LBE379:
 1059              		.loc 7 189 31 view .LVU273
 1060 0008 9FED076A 		vldr.32	s12, .L39+4
 1061 000c F0EE477A 		vmov.f32	s15, s14
 1062 0010 E0EE067A 		vfma.f32	s15, s0, s12
 1063              	.LVL52:
 1064              	.LBB386:
 1065              	.LBI379:
  64:../../../../DaisyExamples/DaisySP//Source/Utility/dsp.h **** {
 1066              		.loc 7 64 14 is_stmt 1 view .LVU274
 1067              	.LBE386:
 1068              	.LBE388:
 1069              	.LBE390:
  66:../../../../DaisyExamples/DaisySP//Source/Utility/dsp.h **** }
 1070              		.loc 7 66 5 view .LVU275
 1071              	.LBB391:
 1072              	.LBB389:
 1073              	.LBB387:
 1074              	.LBB383:
 1075              	.LBI383:
  40:../../../../DaisyExamples/DaisySP//Source/Utility/dsp.h **** {
 1076              		.loc 7 40 14 view .LVU276
 1077              	.LBB384:
  42:../../../../DaisyExamples/DaisySP//Source/Utility/dsp.h **** #ifdef __arm__
 1078              		.loc 7 42 5 view .LVU277
  44:../../../../DaisyExamples/DaisySP//Source/Utility/dsp.h **** #else
 1079              		.loc 7 44 5 view .LVU278
 1080              		.syntax unified
 1081              	@ 44 "../../../../DaisyExamples/DaisySP//Source/Utility/dsp.h" 1
 1082 0014 C7FE877A 		vmaxnm.f32 s15, s15, s14
 1083              	@ 0 "" 2
 1084              	.LVL53:
  48:../../../../DaisyExamples/DaisySP//Source/Utility/dsp.h **** }
 1085              		.loc 7 48 5 view .LVU279
  48:../../../../DaisyExamples/DaisySP//Source/Utility/dsp.h **** }
 1086              		.loc 7 48 5 is_stmt 0 view .LVU280
 1087              		.thumb
 1088              		.syntax unified
 1089              	.LBE384:
 1090              	.LBE383:
 1091              	.LBB385:
 1092              	.LBI380:
  51:../../../../DaisyExamples/DaisySP//Source/Utility/dsp.h **** {
 1093              		.loc 7 51 14 is_stmt 1 view .LVU281
 1094              	.LBB382:
  53:../../../../DaisyExamples/DaisySP//Source/Utility/dsp.h **** #ifdef __arm__
 1095              		.loc 7 53 5 view .LVU282
  55:../../../../DaisyExamples/DaisySP//Source/Utility/dsp.h **** #else
 1096              		.loc 7 55 5 view .LVU283
 1097              		.syntax unified
 1098              	@ 55 "../../../../DaisyExamples/DaisySP//Source/Utility/dsp.h" 1
ARM GAS  C:\Users\samue\AppData\Local\Temp\cc7BohBx.s 			page 37


 1099 0018 C7FEE67A 		vminnm.f32 s15, s15, s13
 1100              	@ 0 "" 2
 1101              	.LVL54:
  59:../../../../DaisyExamples/DaisySP//Source/Utility/dsp.h **** }
 1102              		.loc 7 59 5 view .LVU284
  59:../../../../DaisyExamples/DaisySP//Source/Utility/dsp.h **** }
 1103              		.loc 7 59 5 is_stmt 0 view .LVU285
 1104              		.thumb
 1105              		.syntax unified
 1106              	.LBE382:
 1107              	.LBE385:
 1108              	.LBE387:
 1109              	.LBE389:
 1110              	.LBE391:
 1111              		.loc 2 60 16 view .LVU286
 1112 001c C0ED4F7A 		vstr.32	s15, [r0, #316]
  61:voice.cpp     **** }
 1113              		.loc 2 61 1 view .LVU287
 1114 0020 7047     		bx	lr
 1115              	.L40:
 1116 0022 00BF     		.align	2
 1117              	.L39:
 1118 0024 CDCCCC3E 		.word	1053609165
 1119 0028 3333D340 		.word	1087583027
 1120              		.cfi_endproc
 1121              	.LFE3523:
 1123              		.section	.text._ZN5voice16set_effect_valueEf,"ax",%progbits
 1124              		.align	1
 1125              		.p2align 2,,3
 1126              		.global	_ZN5voice16set_effect_valueEf
 1127              		.syntax unified
 1128              		.thumb
 1129              		.thumb_func
 1130              		.fpu fpv5-d16
 1132              	_ZN5voice16set_effect_valueEf:
 1133              	.LVL55:
 1134              	.LFB3524:
  62:voice.cpp     **** 
  63:voice.cpp     **** void voice::set_effect_value(float value)
  64:voice.cpp     **** {
 1135              		.loc 2 64 1 is_stmt 1 view -0
 1136              		.cfi_startproc
 1137              		@ args = 0, pretend = 0, frame = 0
 1138              		@ frame_needed = 0, uses_anonymous_args = 0
  65:voice.cpp     ****     if(effect_ == FOLD) 
 1139              		.loc 2 65 5 view .LVU289
 1140              		.loc 2 65 8 is_stmt 0 view .LVU290
 1141 0000 90F85031 		ldrb	r3, [r0, #336]	@ zero_extendqisi2
 1142              		.loc 2 65 5 view .LVU291
 1143 0004 012B     		cmp	r3, #1
  64:voice.cpp     ****     if(effect_ == FOLD) 
 1144              		.loc 2 64 1 view .LVU292
 1145 0006 10B5     		push	{r4, lr}
 1146              		.cfi_def_cfa_offset 8
 1147              		.cfi_offset 4, -8
 1148              		.cfi_offset 14, -4
  64:voice.cpp     ****     if(effect_ == FOLD) 
ARM GAS  C:\Users\samue\AppData\Local\Temp\cc7BohBx.s 			page 38


 1149              		.loc 2 64 1 view .LVU293
 1150 0008 0446     		mov	r4, r0
 1151              		.loc 2 65 5 view .LVU294
 1152 000a 10D0     		beq	.L45
  66:voice.cpp     ****     {
  67:voice.cpp     ****         set_fold(value);
  68:voice.cpp     ****     }
  69:voice.cpp     ****     else if(effect_ == DISTORT)
 1153              		.loc 2 69 10 is_stmt 1 view .LVU295
 1154 000c 03B1     		cbz	r3, .L46
  70:voice.cpp     ****     {
  71:voice.cpp     ****         set_distortion(value);
  72:voice.cpp     ****     } 
  73:voice.cpp     **** }
 1155              		.loc 2 73 1 is_stmt 0 view .LVU296
 1156 000e 10BD     		pop	{r4, pc}
 1157              	.L46:
  71:voice.cpp     ****     } 
 1158              		.loc 2 71 9 is_stmt 1 view .LVU297
 1159              	.LVL56:
 1160              	.LBB405:
 1161              	.LBI405:
  53:voice.cpp     **** {
 1162              		.loc 2 53 6 view .LVU298
 1163              	.LBB406:
  55:voice.cpp     **** }
 1164              		.loc 2 55 5 view .LVU299
 1165              	.LBB407:
 1166              	.LBI407:
 108:../../../../DaisyExamples/DaisySP//Source/Utility/dsp.h **** {
 1167              		.loc 7 108 14 view .LVU300
 1168              	.LBB408:
 110:../../../../DaisyExamples/DaisySP//Source/Utility/dsp.h **** }
 1169              		.loc 7 110 5 view .LVU301
 1170              	.LBE408:
 1171              	.LBE407:
  55:voice.cpp     **** }
 1172              		.loc 2 55 30 is_stmt 0 view .LVU302
 1173 0010 30EE000A 		vadd.f32	s0, s0, s0
 1174              	.LVL57:
 1175              	.LBB410:
 1176              	.LBB409:
 110:../../../../DaisyExamples/DaisySP//Source/Utility/dsp.h **** }
 1177              		.loc 7 110 16 view .LVU303
 1178 0014 DFED0E7A 		vldr.32	s15, .L47
 1179 0018 20EE270A 		vmul.f32	s0, s0, s15
 1180              	.LVL58:
 110:../../../../DaisyExamples/DaisySP//Source/Utility/dsp.h **** }
 1181              		.loc 7 110 16 view .LVU304
 1182 001c FFF7FEFF 		bl	expf
 1183              	.LVL59:
 110:../../../../DaisyExamples/DaisySP//Source/Utility/dsp.h **** }
 1184              		.loc 7 110 16 view .LVU305
 1185              	.LBE409:
 1186              	.LBE410:
  55:voice.cpp     **** }
 1187              		.loc 2 55 39 view .LVU306
ARM GAS  C:\Users\samue\AppData\Local\Temp\cc7BohBx.s 			page 39


 1188 0020 DFED0C7A 		vldr.32	s15, .L47+4
 1189 0024 30EE670A 		vsub.f32	s0, s0, s15
  55:voice.cpp     **** }
 1190              		.loc 2 55 22 view .LVU307
 1191 0028 84ED4E0A 		vstr.32	s0, [r4, #312]
 1192              	.LVL60:
  55:voice.cpp     **** }
 1193              		.loc 2 55 22 view .LVU308
 1194              	.LBE406:
 1195              	.LBE405:
 1196              		.loc 2 73 1 view .LVU309
 1197 002c 10BD     		pop	{r4, pc}
 1198              	.LVL61:
 1199              	.L45:
  67:voice.cpp     ****     }
 1200              		.loc 2 67 9 is_stmt 1 view .LVU310
 1201              	.LBB411:
 1202              	.LBI411:
  58:voice.cpp     **** {
 1203              		.loc 2 58 6 view .LVU311
 1204              	.LBB412:
  60:voice.cpp     **** }
 1205              		.loc 2 60 5 view .LVU312
 1206              	.LBB413:
 1207              	.LBI413:
 177:../../../../DaisyExamples/DaisySP//Source/Utility/dsp.h **** {
 1208              		.loc 7 177 1 view .LVU313
 1209              	.LBE413:
 1210              	.LBE412:
 1211              	.LBE411:
 179:../../../../DaisyExamples/DaisySP//Source/Utility/dsp.h ****     {
 1212              		.loc 7 179 5 view .LVU314
 1213              	.LBB429:
 1214              	.LBB427:
 1215              	.LBB425:
 1216              	.LBB414:
 188:../../../../DaisyExamples/DaisySP//Source/Utility/dsp.h ****         default: return fclamp(min + in * (max - min), min, max);
 1217              		.loc 7 188 9 view .LVU315
 1218              		.loc 7 189 9 view .LVU316
 1219              		.loc 7 189 18 view .LVU317
 1220              		.loc 7 189 31 is_stmt 0 view .LVU318
 1221 002e 9FED0A7A 		vldr.32	s14, .L47+8
 1222              	.LBB415:
 1223              	.LBB416:
 1224              	.LBB417:
  55:../../../../DaisyExamples/DaisySP//Source/Utility/dsp.h **** #else
 1225              		.loc 7 55 5 view .LVU319
 1226 0032 F1EE0C6A 		vmov.f32	s13, #7.0e+0
 1227              	.LBE417:
 1228              	.LBE416:
 1229              	.LBE415:
 1230              		.loc 7 189 31 view .LVU320
 1231 0036 9FED096A 		vldr.32	s12, .L47+12
 1232 003a F0EE477A 		vmov.f32	s15, s14
 1233 003e E0EE067A 		vfma.f32	s15, s0, s12
 1234              	.LVL62:
 1235              	.LBB422:
ARM GAS  C:\Users\samue\AppData\Local\Temp\cc7BohBx.s 			page 40


 1236              	.LBI415:
  64:../../../../DaisyExamples/DaisySP//Source/Utility/dsp.h **** {
 1237              		.loc 7 64 14 is_stmt 1 view .LVU321
 1238              	.LBE422:
 1239              	.LBE414:
 1240              	.LBE425:
 1241              	.LBE427:
 1242              	.LBE429:
  66:../../../../DaisyExamples/DaisySP//Source/Utility/dsp.h **** }
 1243              		.loc 7 66 5 view .LVU322
 1244              	.LBB430:
 1245              	.LBB428:
 1246              	.LBB426:
 1247              	.LBB424:
 1248              	.LBB423:
 1249              	.LBB419:
 1250              	.LBI419:
  40:../../../../DaisyExamples/DaisySP//Source/Utility/dsp.h **** {
 1251              		.loc 7 40 14 view .LVU323
 1252              	.LBB420:
  42:../../../../DaisyExamples/DaisySP//Source/Utility/dsp.h **** #ifdef __arm__
 1253              		.loc 7 42 5 view .LVU324
  44:../../../../DaisyExamples/DaisySP//Source/Utility/dsp.h **** #else
 1254              		.loc 7 44 5 view .LVU325
 1255              		.syntax unified
 1256              	@ 44 "../../../../DaisyExamples/DaisySP//Source/Utility/dsp.h" 1
 1257 0042 C7FE877A 		vmaxnm.f32 s15, s15, s14
 1258              	@ 0 "" 2
 1259              	.LVL63:
  48:../../../../DaisyExamples/DaisySP//Source/Utility/dsp.h **** }
 1260              		.loc 7 48 5 view .LVU326
  48:../../../../DaisyExamples/DaisySP//Source/Utility/dsp.h **** }
 1261              		.loc 7 48 5 is_stmt 0 view .LVU327
 1262              		.thumb
 1263              		.syntax unified
 1264              	.LBE420:
 1265              	.LBE419:
 1266              	.LBB421:
 1267              	.LBI416:
  51:../../../../DaisyExamples/DaisySP//Source/Utility/dsp.h **** {
 1268              		.loc 7 51 14 is_stmt 1 view .LVU328
 1269              	.LBB418:
  53:../../../../DaisyExamples/DaisySP//Source/Utility/dsp.h **** #ifdef __arm__
 1270              		.loc 7 53 5 view .LVU329
  55:../../../../DaisyExamples/DaisySP//Source/Utility/dsp.h **** #else
 1271              		.loc 7 55 5 view .LVU330
 1272              		.syntax unified
 1273              	@ 55 "../../../../DaisyExamples/DaisySP//Source/Utility/dsp.h" 1
 1274 0046 C7FEE67A 		vminnm.f32 s15, s15, s13
 1275              	@ 0 "" 2
 1276              	.LVL64:
  59:../../../../DaisyExamples/DaisySP//Source/Utility/dsp.h **** }
 1277              		.loc 7 59 5 view .LVU331
  59:../../../../DaisyExamples/DaisySP//Source/Utility/dsp.h **** }
 1278              		.loc 7 59 5 is_stmt 0 view .LVU332
 1279              		.thumb
 1280              		.syntax unified
ARM GAS  C:\Users\samue\AppData\Local\Temp\cc7BohBx.s 			page 41


 1281              	.LBE418:
 1282              	.LBE421:
 1283              	.LBE423:
 1284              	.LBE424:
 1285              	.LBE426:
  60:voice.cpp     **** }
 1286              		.loc 2 60 16 view .LVU333
 1287 004a C0ED4F7A 		vstr.32	s15, [r0, #316]
 1288              	.LBE428:
 1289              	.LBE430:
 1290              		.loc 2 73 1 view .LVU334
 1291 004e 10BD     		pop	{r4, pc}
 1292              	.L48:
 1293              		.align	2
 1294              	.L47:
 1295 0050 8E5D1340 		.word	1075010958
 1296 0054 A4707D3F 		.word	1065185444
 1297 0058 CDCCCC3E 		.word	1053609165
 1298 005c 3333D340 		.word	1087583027
 1299              		.cfi_endproc
 1300              	.LFE3524:
 1302              		.section	.text._ZN5voice12process_drumEf,"ax",%progbits
 1303              		.align	1
 1304              		.p2align 2,,3
 1305              		.global	_ZN5voice12process_drumEf
 1306              		.syntax unified
 1307              		.thumb
 1308              		.thumb_func
 1309              		.fpu fpv5-d16
 1311              	_ZN5voice12process_drumEf:
 1312              	.LVL65:
 1313              	.LFB3526:
  74:voice.cpp     **** 
  75:voice.cpp     **** float voice::Process()
  76:voice.cpp     **** {
  77:voice.cpp     ****     float amplitude;
  78:voice.cpp     ****     amplitude = amp_env_.Process();
  79:voice.cpp     **** 
  80:voice.cpp     ****     return process_drum(amplitude) + noise_mix_*process_noise(amplitude);
  81:voice.cpp     **** }
  82:voice.cpp     **** 
  83:voice.cpp     **** float voice::process_drum(float amplitude)
  84:voice.cpp     **** {
 1314              		.loc 2 84 1 is_stmt 1 view -0
 1315              		.cfi_startproc
 1316              		@ args = 0, pretend = 0, frame = 8
 1317              		@ frame_needed = 0, uses_anonymous_args = 0
  85:voice.cpp     ****     float sample[2];
 1318              		.loc 2 85 5 view .LVU336
  86:voice.cpp     ****     osc_.SetFreq(osc_freq_ * freq_env_.Process());
 1319              		.loc 2 86 5 view .LVU337
  84:voice.cpp     ****     float sample[2];
 1320              		.loc 2 84 1 is_stmt 0 view .LVU338
 1321 0000 2DE9F04F 		push	{r4, r5, r6, r7, r8, r9, r10, fp, lr}
 1322              		.cfi_def_cfa_offset 36
 1323              		.cfi_offset 4, -36
 1324              		.cfi_offset 5, -32
ARM GAS  C:\Users\samue\AppData\Local\Temp\cc7BohBx.s 			page 42


 1325              		.cfi_offset 6, -28
 1326              		.cfi_offset 7, -24
 1327              		.cfi_offset 8, -20
 1328              		.cfi_offset 9, -16
 1329              		.cfi_offset 10, -12
 1330              		.cfi_offset 11, -8
 1331              		.cfi_offset 14, -4
 1332 0004 0646     		mov	r6, r0
 1333              		.loc 2 86 47 view .LVU339
 1334 0006 D030     		adds	r0, r0, #208
 1335              	.LVL66:
  84:voice.cpp     ****     float sample[2];
 1336              		.loc 2 84 1 view .LVU340
 1337 0008 2DED068B 		vpush.64	{d8, d9, d10}
 1338              		.cfi_def_cfa_offset 60
 1339              		.cfi_offset 80, -60
 1340              		.cfi_offset 81, -56
 1341              		.cfi_offset 82, -52
 1342              		.cfi_offset 83, -48
 1343              		.cfi_offset 84, -44
 1344              		.cfi_offset 85, -40
 1345              		.loc 2 86 18 view .LVU341
 1346 000c 96ED4D8A 		vldr.32	s16, [r6, #308]
  84:voice.cpp     ****     float sample[2];
 1347              		.loc 2 84 1 view .LVU342
 1348 0010 83B0     		sub	sp, sp, #12
 1349              		.cfi_def_cfa_offset 72
  84:voice.cpp     ****     float sample[2];
 1350              		.loc 2 84 1 view .LVU343
 1351 0012 F0EE408A 		vmov.f32	s17, s0
 1352              		.loc 2 86 47 view .LVU344
 1353 0016 FFF7FEFF 		bl	_ZN7daisysp5AdEnv7ProcessEv
 1354              	.LVL67:
 1355              		.loc 2 86 17 view .LVU345
 1356 001a 28EE000A 		vmul.f32	s0, s16, s0
 1357 001e 06F16C00 		add	r0, r6, #108
 1358              	.LVL68:
 1359              	.LBB447:
 1360              	.LBI447:
  67:../../../../DaisyExamples/DaisySP//Source/Synthesis/oscillator.h ****     {
 1361              		.loc 3 67 17 is_stmt 1 view .LVU346
 1362              	.LBB448:
  69:../../../../DaisyExamples/DaisySP//Source/Synthesis/oscillator.h ****         phase_inc_ = CalcPhaseInc(f);
 1363              		.loc 3 69 9 view .LVU347
  70:../../../../DaisyExamples/DaisySP//Source/Synthesis/oscillator.h ****     }
 1364              		.loc 3 70 34 is_stmt 0 view .LVU348
 1365 0022 0090     		str	r0, [sp]
  69:../../../../DaisyExamples/DaisySP//Source/Synthesis/oscillator.h ****         phase_inc_ = CalcPhaseInc(f);
 1366              		.loc 3 69 20 view .LVU349
 1367 0024 86ED1D0A 		vstr.32	s0, [r6, #116]
  70:../../../../DaisyExamples/DaisySP//Source/Synthesis/oscillator.h ****     }
 1368              		.loc 3 70 9 is_stmt 1 view .LVU350
  70:../../../../DaisyExamples/DaisySP//Source/Synthesis/oscillator.h ****     }
 1369              		.loc 3 70 34 is_stmt 0 view .LVU351
 1370 0028 FFF7FEFF 		bl	_ZN7daisysp10Oscillator12CalcPhaseIncEf
 1371              	.LVL69:
  70:../../../../DaisyExamples/DaisySP//Source/Synthesis/oscillator.h ****     }
ARM GAS  C:\Users\samue\AppData\Local\Temp\cc7BohBx.s 			page 43


 1372              		.loc 3 70 34 view .LVU352
 1373              	.LBE448:
 1374              	.LBE447:
  87:voice.cpp     ****     osc_.SetAmp(amplitude*(1-noise_mix_));
 1375              		.loc 2 87 29 view .LVU353
 1376 002c F7EE007A 		vmov.f32	s15, #1.0e+0
 1377 0030 96ED507A 		vldr.32	s14, [r6, #320]
  88:voice.cpp     **** 
  89:voice.cpp     ****     sample[0] = osc_.Process();
 1378              		.loc 2 89 29 view .LVU354
 1379 0034 0098     		ldr	r0, [sp]
  87:voice.cpp     ****     osc_.SetAmp(amplitude*(1-noise_mix_));
 1380              		.loc 2 87 29 view .LVU355
 1381 0036 37EEC77A 		vsub.f32	s14, s15, s14
 1382              	.LBB450:
 1383              	.LBB449:
  70:../../../../DaisyExamples/DaisySP//Source/Synthesis/oscillator.h ****     }
 1384              		.loc 3 70 20 view .LVU356
 1385 003a 86ED220A 		vstr.32	s0, [r6, #136]
 1386              	.LVL70:
  70:../../../../DaisyExamples/DaisySP//Source/Synthesis/oscillator.h ****     }
 1387              		.loc 3 70 20 view .LVU357
 1388              	.LBE449:
 1389              	.LBE450:
  87:voice.cpp     ****     osc_.SetAmp(amplitude*(1-noise_mix_));
 1390              		.loc 2 87 5 is_stmt 1 view .LVU358
 1391              	.LBB451:
 1392              	.LBI451:
  76:../../../../DaisyExamples/DaisySP//Source/Synthesis/oscillator.h ****     /** Sets the waveform to be synthesized by the Process() function.
 1393              		.loc 3 76 17 view .LVU359
 1394              	.LBB452:
  76:../../../../DaisyExamples/DaisySP//Source/Synthesis/oscillator.h ****     /** Sets the waveform to be synthesized by the Process() function.
 1395              		.loc 3 76 41 view .LVU360
 1396              	.LBE452:
 1397              	.LBE451:
  87:voice.cpp     **** 
 1398              		.loc 2 87 16 is_stmt 0 view .LVU361
 1399 003e 67EE287A 		vmul.f32	s15, s14, s17
 1400              	.LVL71:
 1401              	.LBB454:
 1402              	.LBB453:
  76:../../../../DaisyExamples/DaisySP//Source/Synthesis/oscillator.h ****     /** Sets the waveform to be synthesized by the Process() function.
 1403              		.loc 3 76 46 view .LVU362
 1404 0042 C6ED1C7A 		vstr.32	s15, [r6, #112]
 1405              	.LVL72:
  76:../../../../DaisyExamples/DaisySP//Source/Synthesis/oscillator.h ****     /** Sets the waveform to be synthesized by the Process() function.
 1406              		.loc 3 76 46 view .LVU363
 1407              	.LBE453:
 1408              	.LBE454:
 1409              		.loc 2 89 5 is_stmt 1 view .LVU364
 1410              		.loc 2 89 29 is_stmt 0 view .LVU365
 1411 0046 FFF7FEFF 		bl	_ZN7daisysp10Oscillator7ProcessEv
 1412              	.LVL73:
 1413              	.LBB455:
 1414              	.LBB456:
 185:../../../../DaisyExamples/DaisySP//Source/Filters/fir.h ****         /* Feed data into the buffer */
 1415              		.loc 1 185 9 view .LVU366
ARM GAS  C:\Users\samue\AppData\Local\Temp\cc7BohBx.s 			page 44


 1416 004a D6F85C71 		ldr	r7, [r6, #348]
 1417              	.LVL74:
 185:../../../../DaisyExamples/DaisySP//Source/Filters/fir.h ****         /* Feed data into the buffer */
 1418              		.loc 1 185 9 view .LVU367
 1419              	.LBE456:
 1420              	.LBE455:
  90:voice.cpp     ****     sample[0] = filter_up_.Process(sample[0]);
 1421              		.loc 2 90 5 is_stmt 1 view .LVU368
 1422              	.LBB463:
 1423              	.LBI455:
 183:../../../../DaisyExamples/DaisySP//Source/Filters/fir.h ****     {
 1424              		.loc 1 183 11 view .LVU369
 1425              	.LBB459:
 185:../../../../DaisyExamples/DaisySP//Source/Filters/fir.h ****         /* Feed data into the buffer */
 1426              		.loc 1 185 9 is_stmt 0 view .LVU370
 1427 004e 002F     		cmp	r7, #0
 1428 0050 00F0FE80 		beq	.L56
 187:../../../../DaisyExamples/DaisySP//Source/Filters/fir.h **** 
 1429              		.loc 1 187 15 view .LVU371
 1430 0054 6FF04048 		mvn	r8, #-1073741824
 187:../../../../DaisyExamples/DaisySP//Source/Filters/fir.h **** 
 1431              		.loc 1 187 9 view .LVU372
 1432 0058 D6F85441 		ldr	r4, [r6, #340]
 190:../../../../DaisyExamples/DaisySP//Source/Filters/fir.h ****         for(size_t i = 0; i < size_ - 1; i++)
 1433              		.loc 1 190 15 view .LVU373
 1434 005c 9FED827A 		vldr.32	s14, .L78+16
 187:../../../../DaisyExamples/DaisySP//Source/Filters/fir.h **** 
 1435              		.loc 1 187 15 view .LVU374
 1436 0060 B844     		add	r8, r8, r7
 1437              	.LBB457:
 191:../../../../DaisyExamples/DaisySP//Source/Filters/fir.h ****         {
 1438              		.loc 1 191 29 view .LVU375
 1439 0062 013F     		subs	r7, r7, #1
 1440              	.LBE457:
 199:../../../../DaisyExamples/DaisySP//Source/Filters/fir.h **** 
 1441              		.loc 1 199 21 view .LVU376
 1442 0064 D6F85851 		ldr	r5, [r6, #344]
 187:../../../../DaisyExamples/DaisySP//Source/Filters/fir.h **** 
 1443              		.loc 1 187 15 view .LVU377
 1444 0068 4FEA880A 		lsl	r10, r8, #2
 1445 006c 04EB8808 		add	r8, r4, r8, lsl #2
 187:../../../../DaisyExamples/DaisySP//Source/Filters/fir.h **** 
 1446              		.loc 1 187 28 view .LVU378
 1447 0070 88ED000A 		vstr.32	s0, [r8]
 1448              	.LVL75:
 1449              	.LBB458:
 191:../../../../DaisyExamples/DaisySP//Source/Filters/fir.h ****         {
 1450              		.loc 1 191 29 is_stmt 1 view .LVU379
 1451 0074 0FD0     		beq	.L52
 1452 0076 2346     		mov	r3, r4
 1453 0078 211D     		adds	r1, r4, #4
 1454 007a 2A46     		mov	r2, r5
 1455 007c C446     		mov	ip, r8
 1456              	.LVL76:
 1457              	.L53:
 197:../../../../DaisyExamples/DaisySP//Source/Filters/fir.h ****         }
 1458              		.loc 1 197 31 is_stmt 0 view .LVU380
ARM GAS  C:\Users\samue\AppData\Local\Temp\cc7BohBx.s 			page 45


 1459 007e 51F8040B 		ldr	r0, [r1], #4	@ float
 193:../../../../DaisyExamples/DaisySP//Source/Filters/fir.h ****             /** Shift the state simulatenously 
 1460              		.loc 1 193 26 view .LVU381
 1461 0082 D3ED006A 		vldr.32	s13, [r3]
 193:../../../../DaisyExamples/DaisySP//Source/Filters/fir.h ****             /** Shift the state simulatenously 
 1462              		.loc 1 193 38 view .LVU382
 1463 0086 F2EC017A 		vldmia.32	r2!, {s15}
 197:../../../../DaisyExamples/DaisySP//Source/Filters/fir.h ****         }
 1464              		.loc 1 197 23 view .LVU383
 1465 008a 43F8040B 		str	r0, [r3], #4	@ float
 191:../../../../DaisyExamples/DaisySP//Source/Filters/fir.h ****         {
 1466              		.loc 1 191 29 view .LVU384
 1467 008e 9C45     		cmp	ip, r3
 193:../../../../DaisyExamples/DaisySP//Source/Filters/fir.h ****             /** Shift the state simulatenously 
 1468              		.loc 1 193 17 view .LVU385
 1469 0090 A6EEA77A 		vfma.f32	s14, s13, s15
 1470              	.LVL77:
 191:../../../../DaisyExamples/DaisySP//Source/Filters/fir.h ****         {
 1471              		.loc 1 191 9 is_stmt 1 view .LVU386
 191:../../../../DaisyExamples/DaisySP//Source/Filters/fir.h ****         {
 1472              		.loc 1 191 29 view .LVU387
 1473 0094 F3D1     		bne	.L53
 1474              	.LVL78:
 1475              	.L52:
 191:../../../../DaisyExamples/DaisySP//Source/Filters/fir.h ****         {
 1476              		.loc 1 191 29 is_stmt 0 view .LVU388
 1477              	.LBE458:
 199:../../../../DaisyExamples/DaisySP//Source/Filters/fir.h **** 
 1478              		.loc 1 199 27 view .LVU389
 1479 0096 AA44     		add	r10, r10, r5
 1480              	.LBE459:
 1481              	.LBE463:
  91:voice.cpp     **** 
  92:voice.cpp     ****     if(effect_ == FOLD) sample[0] = (tanhf(sample[0]*fold_gain_) / tanhf(fold_gain_) + 0.8*sinf(2*f
 1482              		.loc 2 92 8 view .LVU390
 1483 0098 96F850B1 		ldrb	fp, [r6, #336]	@ zero_extendqisi2
 1484              	.LBB464:
 1485              	.LBB460:
 199:../../../../DaisyExamples/DaisySP//Source/Filters/fir.h **** 
 1486              		.loc 1 199 13 view .LVU391
 1487 009c DAED007A 		vldr.32	s15, [r10]
 1488              	.LBE460:
 1489              	.LBE464:
 1490              		.loc 2 92 5 view .LVU392
 1491 00a0 BBF1010F 		cmp	fp, #1
 1492              	.LBB465:
 1493              	.LBB461:
 199:../../../../DaisyExamples/DaisySP//Source/Filters/fir.h **** 
 1494              		.loc 1 199 13 view .LVU393
 1495 00a4 A0EE277A 		vfma.f32	s14, s0, s15
 1496 00a8 B0EE478A 		vmov.f32	s16, s14
 1497              	.LVL79:
 199:../../../../DaisyExamples/DaisySP//Source/Filters/fir.h **** 
 1498              		.loc 1 199 13 view .LVU394
 1499              	.LBE461:
 1500              	.LBE465:
 1501              		.loc 2 92 5 is_stmt 1 view .LVU395
ARM GAS  C:\Users\samue\AppData\Local\Temp\cc7BohBx.s 			page 46


 1502 00ac 00F0AB80 		beq	.L74
  93:voice.cpp     ****     else if(effect_ == DISTORT) sample[0] = tanhf(sample[0]*distortion_gain_) / tanhf(distortion_ga
 1503              		.loc 2 93 10 view .LVU396
 1504 00b0 BBF1000F 		cmp	fp, #0
 1505 00b4 73D0     		beq	.L75
 1506              	.LVL80:
 1507              	.L55:
  94:voice.cpp     ****     else sample[0] = sample[0];
  95:voice.cpp     **** 
  96:voice.cpp     ****     sample[0] = filter_down_.Process(sample[0]);
 1508              		.loc 2 96 5 view .LVU397
 1509              	.LBB466:
 1510              	.LBI466:
 183:../../../../DaisyExamples/DaisySP//Source/Filters/fir.h ****     {
 1511              		.loc 1 183 11 view .LVU398
 1512              	.LBB467:
 185:../../../../DaisyExamples/DaisySP//Source/Filters/fir.h ****         /* Feed data into the buffer */
 1513              		.loc 1 185 9 is_stmt 0 view .LVU399
 1514 00b6 D6F86C21 		ldr	r2, [r6, #364]
 1515 00ba 002A     		cmp	r2, #0
 1516 00bc 00F0C880 		beq	.L56
 187:../../../../DaisyExamples/DaisySP//Source/Filters/fir.h **** 
 1517              		.loc 1 187 15 view .LVU400
 1518 00c0 6FF0404E 		mvn	lr, #-1073741824
 187:../../../../DaisyExamples/DaisySP//Source/Filters/fir.h **** 
 1519              		.loc 1 187 9 view .LVU401
 1520 00c4 D6F86491 		ldr	r9, [r6, #356]
 190:../../../../DaisyExamples/DaisySP//Source/Filters/fir.h ****         for(size_t i = 0; i < size_ - 1; i++)
 1521              		.loc 1 190 15 view .LVU402
 1522 00c8 9FED670A 		vldr.32	s0, .L78+16
 187:../../../../DaisyExamples/DaisySP//Source/Filters/fir.h **** 
 1523              		.loc 1 187 15 view .LVU403
 1524 00cc 9644     		add	lr, lr, r2
 199:../../../../DaisyExamples/DaisySP//Source/Filters/fir.h **** 
 1525              		.loc 1 199 21 view .LVU404
 1526 00ce D6F86801 		ldr	r0, [r6, #360]
 187:../../../../DaisyExamples/DaisySP//Source/Filters/fir.h **** 
 1527              		.loc 1 187 15 view .LVU405
 1528 00d2 09EB8E03 		add	r3, r9, lr, lsl #2
 1529 00d6 4FEA8E0E 		lsl	lr, lr, #2
 1530 00da 0093     		str	r3, [sp]
 187:../../../../DaisyExamples/DaisySP//Source/Filters/fir.h **** 
 1531              		.loc 1 187 28 view .LVU406
 1532 00dc 83ED008A 		vstr.32	s16, [r3]
 1533              	.LVL81:
 1534              	.LBB468:
 191:../../../../DaisyExamples/DaisySP//Source/Filters/fir.h ****         {
 1535              		.loc 1 191 29 is_stmt 1 view .LVU407
 1536 00e0 531E     		subs	r3, r2, #1
 1537 00e2 0193     		str	r3, [sp, #4]
 1538 00e4 11D0     		beq	.L58
 1539 00e6 4B46     		mov	r3, r9
 1540 00e8 09F10401 		add	r1, r9, #4
 1541 00ec 0246     		mov	r2, r0
 1542 00ee 09EB0E0C 		add	ip, r9, lr
 1543              	.LVL82:
 1544              	.L59:
ARM GAS  C:\Users\samue\AppData\Local\Temp\cc7BohBx.s 			page 47


 193:../../../../DaisyExamples/DaisySP//Source/Filters/fir.h ****             /** Shift the state simulatenously 
 1545              		.loc 1 193 38 is_stmt 0 view .LVU408
 1546 00f2 F2EC017A 		vldmia.32	r2!, {s15}
 193:../../../../DaisyExamples/DaisySP//Source/Filters/fir.h ****             /** Shift the state simulatenously 
 1547              		.loc 1 193 26 view .LVU409
 1548 00f6 93ED007A 		vldr.32	s14, [r3]
 193:../../../../DaisyExamples/DaisySP//Source/Filters/fir.h ****             /** Shift the state simulatenously 
 1549              		.loc 1 193 17 view .LVU410
 1550 00fa A7EE270A 		vfma.f32	s0, s14, s15
 1551              	.LVL83:
 197:../../../../DaisyExamples/DaisySP//Source/Filters/fir.h ****         }
 1552              		.loc 1 197 31 view .LVU411
 1553 00fe F1EC017A 		vldmia.32	r1!, {s15}
 197:../../../../DaisyExamples/DaisySP//Source/Filters/fir.h ****         }
 1554              		.loc 1 197 23 view .LVU412
 1555 0102 E3EC017A 		vstmia.32	r3!, {s15}
 191:../../../../DaisyExamples/DaisySP//Source/Filters/fir.h ****         {
 1556              		.loc 1 191 9 is_stmt 1 view .LVU413
 191:../../../../DaisyExamples/DaisySP//Source/Filters/fir.h ****         {
 1557              		.loc 1 191 29 view .LVU414
 1558 0106 9C45     		cmp	ip, r3
 1559 0108 F3D1     		bne	.L59
 1560              	.LVL84:
 1561              	.L58:
 191:../../../../DaisyExamples/DaisySP//Source/Filters/fir.h ****         {
 1562              		.loc 1 191 29 is_stmt 0 view .LVU415
 1563              	.LBE468:
 199:../../../../DaisyExamples/DaisySP//Source/Filters/fir.h **** 
 1564              		.loc 1 199 27 view .LVU416
 1565 010a 8644     		add	lr, lr, r0
 1566              	.LBE467:
 1567              	.LBE466:
 1568              	.LBB471:
 1569              	.LBB472:
 187:../../../../DaisyExamples/DaisySP//Source/Filters/fir.h **** 
 1570              		.loc 1 187 28 view .LVU417
 1571 010c 9FED567A 		vldr.32	s14, .L78+16
 1572              	.LBE472:
 1573              	.LBE471:
 1574              	.LBB477:
 1575              	.LBB469:
 199:../../../../DaisyExamples/DaisySP//Source/Filters/fir.h **** 
 1576              		.loc 1 199 13 view .LVU418
 1577 0110 DEED007A 		vldr.32	s15, [lr]
 1578              	.LBE469:
 1579              	.LBE477:
 1580              	.LBB478:
 1581              	.LBB474:
 187:../../../../DaisyExamples/DaisySP//Source/Filters/fir.h **** 
 1582              		.loc 1 187 28 view .LVU419
 1583 0114 88ED007A 		vstr.32	s14, [r8]
 1584              	.LBE474:
 1585              	.LBE478:
 1586              	.LBB479:
 1587              	.LBB470:
 199:../../../../DaisyExamples/DaisySP//Source/Filters/fir.h **** 
 1588              		.loc 1 199 13 view .LVU420
ARM GAS  C:\Users\samue\AppData\Local\Temp\cc7BohBx.s 			page 48


 1589 0118 A8EE270A 		vfma.f32	s0, s16, s15
 1590 011c F0EE408A 		vmov.f32	s17, s0
 1591              	.LVL85:
 199:../../../../DaisyExamples/DaisySP//Source/Filters/fir.h **** 
 1592              		.loc 1 199 13 view .LVU421
 1593              	.LBE470:
 1594              	.LBE479:
  97:voice.cpp     **** 
  98:voice.cpp     **** 
  99:voice.cpp     ****     sample[1] = 0.0f;
 1595              		.loc 2 99 5 is_stmt 1 view .LVU422
 100:voice.cpp     ****     sample[1] = filter_up_.Process(sample[1]);
 1596              		.loc 2 100 5 view .LVU423
 1597              	.LBB480:
 1598              	.LBI471:
 183:../../../../DaisyExamples/DaisySP//Source/Filters/fir.h ****     {
 1599              		.loc 1 183 11 view .LVU424
 1600              	.LBB475:
 1601              	.LBB473:
 191:../../../../DaisyExamples/DaisySP//Source/Filters/fir.h ****         {
 1602              		.loc 1 191 29 view .LVU425
 1603 0120 77B1     		cbz	r7, .L60
 1604 0122 04EB8707 		add	r7, r4, r7, lsl #2
 1605 0126 231D     		adds	r3, r4, #4
 1606              	.LVL86:
 1607              	.L61:
 197:../../../../DaisyExamples/DaisySP//Source/Filters/fir.h ****         }
 1608              		.loc 1 197 31 is_stmt 0 view .LVU426
 1609 0128 53F8042B 		ldr	r2, [r3], #4	@ float
 193:../../../../DaisyExamples/DaisySP//Source/Filters/fir.h ****             /** Shift the state simulatenously 
 1610              		.loc 1 193 26 view .LVU427
 1611 012c D4ED006A 		vldr.32	s13, [r4]
 193:../../../../DaisyExamples/DaisySP//Source/Filters/fir.h ****             /** Shift the state simulatenously 
 1612              		.loc 1 193 38 view .LVU428
 1613 0130 F5EC017A 		vldmia.32	r5!, {s15}
 197:../../../../DaisyExamples/DaisySP//Source/Filters/fir.h ****         }
 1614              		.loc 1 197 23 view .LVU429
 1615 0134 44F8042B 		str	r2, [r4], #4	@ float
 191:../../../../DaisyExamples/DaisySP//Source/Filters/fir.h ****         {
 1616              		.loc 1 191 29 view .LVU430
 1617 0138 BC42     		cmp	r4, r7
 193:../../../../DaisyExamples/DaisySP//Source/Filters/fir.h ****             /** Shift the state simulatenously 
 1618              		.loc 1 193 17 view .LVU431
 1619 013a A6EEA77A 		vfma.f32	s14, s13, s15
 1620              	.LVL87:
 191:../../../../DaisyExamples/DaisySP//Source/Filters/fir.h ****         {
 1621              		.loc 1 191 9 is_stmt 1 view .LVU432
 191:../../../../DaisyExamples/DaisySP//Source/Filters/fir.h ****         {
 1622              		.loc 1 191 29 view .LVU433
 1623 013e F3D1     		bne	.L61
 1624              	.LVL88:
 1625              	.L60:
 191:../../../../DaisyExamples/DaisySP//Source/Filters/fir.h ****         {
 1626              		.loc 1 191 29 is_stmt 0 view .LVU434
 1627              	.LBE473:
 199:../../../../DaisyExamples/DaisySP//Source/Filters/fir.h **** 
 1628              		.loc 1 199 13 view .LVU435
ARM GAS  C:\Users\samue\AppData\Local\Temp\cc7BohBx.s 			page 49


 1629 0140 DAED006A 		vldr.32	s13, [r10]
 1630              	.LBE475:
 1631              	.LBE480:
 101:voice.cpp     **** 
 102:voice.cpp     ****     if(effect_ == FOLD) sample[1] = (tanhf(sample[1]*fold_gain_) / tanhf(fold_gain_) + 0.8*sinf(2*f
 1632              		.loc 2 102 5 view .LVU436
 1633 0144 BBF1010F 		cmp	fp, #1
 1634              	.LBB481:
 1635              	.LBB476:
 199:../../../../DaisyExamples/DaisySP//Source/Filters/fir.h **** 
 1636              		.loc 1 199 13 view .LVU437
 1637 0148 DFED477A 		vldr.32	s15, .L78+16
 1638 014c A6EEA77A 		vfma.f32	s14, s13, s15
 1639 0150 B0EE478A 		vmov.f32	s16, s14
 1640              	.LVL89:
 199:../../../../DaisyExamples/DaisySP//Source/Filters/fir.h **** 
 1641              		.loc 1 199 13 view .LVU438
 1642              	.LBE476:
 1643              	.LBE481:
 1644              		.loc 2 102 5 is_stmt 1 view .LVU439
 1645 0154 32D0     		beq	.L76
 103:voice.cpp     ****     else if(effect_ == DISTORT) sample[1] = tanhf(sample[1]*distortion_gain_) / tanhf(distortion_ga
 1646              		.loc 2 103 10 view .LVU440
 1647 0156 BBF1000F 		cmp	fp, #0
 1648 015a 11D0     		beq	.L77
 1649              	.LVL90:
 1650              	.L63:
 104:voice.cpp     ****     else sample[1] = sample[1];
 105:voice.cpp     **** 
 106:voice.cpp     ****     sample[1] = filter_down_.Process(sample[1]);
 1651              		.loc 2 106 5 view .LVU441
 1652              	.LBB482:
 1653              	.LBI482:
 183:../../../../DaisyExamples/DaisySP//Source/Filters/fir.h ****     {
 1654              		.loc 1 183 11 view .LVU442
 1655              	.LBB483:
 187:../../../../DaisyExamples/DaisySP//Source/Filters/fir.h **** 
 1656              		.loc 1 187 28 is_stmt 0 view .LVU443
 1657 015c 009B     		ldr	r3, [sp]
 1658 015e 83ED008A 		vstr.32	s16, [r3]
 1659              	.LVL91:
 1660              	.LBB484:
 191:../../../../DaisyExamples/DaisySP//Source/Filters/fir.h ****         {
 1661              		.loc 1 191 29 is_stmt 1 view .LVU444
 1662 0162 019B     		ldr	r3, [sp, #4]
 1663 0164 2BB1     		cbz	r3, .L49
 197:../../../../DaisyExamples/DaisySP//Source/Filters/fir.h ****         }
 1664              		.loc 1 197 23 is_stmt 0 view .LVU445
 1665 0166 9A00     		lsls	r2, r3, #2
 1666 0168 09F10401 		add	r1, r9, #4
 1667 016c 4846     		mov	r0, r9
 1668 016e FFF7FEFF 		bl	memmove
 1669              	.LVL92:
 1670              	.L49:
 197:../../../../DaisyExamples/DaisySP//Source/Filters/fir.h ****         }
 1671              		.loc 1 197 23 view .LVU446
 1672              	.LBE484:
ARM GAS  C:\Users\samue\AppData\Local\Temp\cc7BohBx.s 			page 50


 1673              	.LBE483:
 1674              	.LBE482:
 107:voice.cpp     ****     
 108:voice.cpp     ****     return sample[0];
 109:voice.cpp     **** }
 1675              		.loc 2 109 1 view .LVU447
 1676 0172 B0EE680A 		vmov.f32	s0, s17
 1677 0176 03B0     		add	sp, sp, #12
 1678              		.cfi_remember_state
 1679              		.cfi_def_cfa_offset 60
 1680              		@ sp needed
 1681 0178 BDEC068B 		vldm	sp!, {d8-d10}
 1682              		.cfi_restore 84
 1683              		.cfi_restore 85
 1684              		.cfi_restore 82
 1685              		.cfi_restore 83
 1686              		.cfi_restore 80
 1687              		.cfi_restore 81
 1688              		.cfi_def_cfa_offset 36
 1689              	.LVL93:
 1690              		.loc 2 109 1 view .LVU448
 1691 017c BDE8F08F 		pop	{r4, r5, r6, r7, r8, r9, r10, fp, pc}
 1692              	.LVL94:
 1693              	.L77:
 1694              		.cfi_restore_state
 103:voice.cpp     ****     else sample[1] = sample[1];
 1695              		.loc 2 103 33 is_stmt 1 discriminator 1 view .LVU449
 103:voice.cpp     ****     else sample[1] = sample[1];
 1696              		.loc 2 103 61 is_stmt 0 discriminator 1 view .LVU450
 1697 0180 D6ED4E9A 		vldr.32	s19, [r6, #312]
 103:voice.cpp     ****     else sample[1] = sample[1];
 1698              		.loc 2 103 50 discriminator 1 view .LVU451
 1699 0184 29EE870A 		vmul.f32	s0, s19, s14
 1700              	.LVL95:
 103:voice.cpp     ****     else sample[1] = sample[1];
 1701              		.loc 2 103 50 discriminator 1 view .LVU452
 1702 0188 FFF7FEFF 		bl	tanhf
 1703              	.LVL96:
 103:voice.cpp     ****     else sample[1] = sample[1];
 1704              		.loc 2 103 50 discriminator 1 view .LVU453
 1705 018c B0EE409A 		vmov.f32	s18, s0
 103:voice.cpp     ****     else sample[1] = sample[1];
 1706              		.loc 2 103 86 discriminator 1 view .LVU454
 1707 0190 B0EE690A 		vmov.f32	s0, s19
 1708 0194 FFF7FEFF 		bl	tanhf
 1709              	.LVL97:
 103:voice.cpp     ****     else sample[1] = sample[1];
 1710              		.loc 2 103 79 discriminator 1 view .LVU455
 1711 0198 89EE008A 		vdiv.f32	s16, s18, s0
 1712              	.LVL98:
 103:voice.cpp     ****     else sample[1] = sample[1];
 1713              		.loc 2 103 79 discriminator 1 view .LVU456
 1714 019c DEE7     		b	.L63
 1715              	.LVL99:
 1716              	.L75:
  93:voice.cpp     ****     else sample[0] = sample[0];
 1717              		.loc 2 93 33 is_stmt 1 discriminator 1 view .LVU457
ARM GAS  C:\Users\samue\AppData\Local\Temp\cc7BohBx.s 			page 51


  93:voice.cpp     ****     else sample[0] = sample[0];
 1718              		.loc 2 93 61 is_stmt 0 discriminator 1 view .LVU458
 1719 019e 96ED4E9A 		vldr.32	s18, [r6, #312]
  93:voice.cpp     ****     else sample[0] = sample[0];
 1720              		.loc 2 93 50 discriminator 1 view .LVU459
 1721 01a2 29EE070A 		vmul.f32	s0, s18, s14
 1722 01a6 FFF7FEFF 		bl	tanhf
 1723              	.LVL100:
  93:voice.cpp     ****     else sample[0] = sample[0];
 1724              		.loc 2 93 50 discriminator 1 view .LVU460
 1725 01aa F0EE408A 		vmov.f32	s17, s0
 1726              	.LVL101:
  93:voice.cpp     ****     else sample[0] = sample[0];
 1727              		.loc 2 93 86 discriminator 1 view .LVU461
 1728 01ae B0EE490A 		vmov.f32	s0, s18
 1729 01b2 FFF7FEFF 		bl	tanhf
 1730              	.LVL102:
  93:voice.cpp     ****     else sample[0] = sample[0];
 1731              		.loc 2 93 79 discriminator 1 view .LVU462
 1732 01b6 88EE808A 		vdiv.f32	s16, s17, s0
 1733              	.LVL103:
  93:voice.cpp     ****     else sample[0] = sample[0];
 1734              		.loc 2 93 79 discriminator 1 view .LVU463
 1735 01ba 7CE7     		b	.L55
 1736              	.LVL104:
 1737              	.L76:
 102:voice.cpp     ****     else if(effect_ == DISTORT) sample[1] = tanhf(sample[1]*distortion_gain_) / tanhf(distortion_ga
 1738              		.loc 2 102 25 is_stmt 1 discriminator 1 view .LVU464
 102:voice.cpp     ****     else if(effect_ == DISTORT) sample[1] = tanhf(sample[1]*distortion_gain_) / tanhf(distortion_ga
 1739              		.loc 2 102 54 is_stmt 0 discriminator 1 view .LVU465
 1740 01bc 96ED4F9A 		vldr.32	s18, [r6, #316]
 102:voice.cpp     ****     else if(effect_ == DISTORT) sample[1] = tanhf(sample[1]*distortion_gain_) / tanhf(distortion_ga
 1741              		.loc 2 102 43 discriminator 1 view .LVU466
 1742 01c0 29EE070A 		vmul.f32	s0, s18, s14
 1743              	.LVL105:
 102:voice.cpp     ****     else if(effect_ == DISTORT) sample[1] = tanhf(sample[1]*distortion_gain_) / tanhf(distortion_ga
 1744              		.loc 2 102 43 discriminator 1 view .LVU467
 1745 01c4 FFF7FEFF 		bl	tanhf
 1746              	.LVL106:
 102:voice.cpp     ****     else if(effect_ == DISTORT) sample[1] = tanhf(sample[1]*distortion_gain_) / tanhf(distortion_ga
 1747              		.loc 2 102 43 discriminator 1 view .LVU468
 1748 01c8 B0EE40AA 		vmov.f32	s20, s0
 102:voice.cpp     ****     else if(effect_ == DISTORT) sample[1] = tanhf(sample[1]*distortion_gain_) / tanhf(distortion_ga
 1749              		.loc 2 102 73 discriminator 1 view .LVU469
 1750 01cc B0EE490A 		vmov.f32	s0, s18
 102:voice.cpp     ****     else if(effect_ == DISTORT) sample[1] = tanhf(sample[1]*distortion_gain_) / tanhf(distortion_ga
 1751              		.loc 2 102 98 discriminator 1 view .LVU470
 1752 01d0 39EE099A 		vadd.f32	s18, s18, s18
 102:voice.cpp     ****     else if(effect_ == DISTORT) sample[1] = tanhf(sample[1]*distortion_gain_) / tanhf(distortion_ga
 1753              		.loc 2 102 73 discriminator 1 view .LVU471
 1754 01d4 FFF7FEFF 		bl	tanhf
 1755              	.LVL107:
 1756 01d8 F0EE409A 		vmov.f32	s19, s0
 102:voice.cpp     ****     else if(effect_ == DISTORT) sample[1] = tanhf(sample[1]*distortion_gain_) / tanhf(distortion_ga
 1757              		.loc 2 102 96 discriminator 1 view .LVU472
 1758 01dc 29EE080A 		vmul.f32	s0, s18, s16
 1759 01e0 FFF7FEFF 		bl	sinf
ARM GAS  C:\Users\samue\AppData\Local\Temp\cc7BohBx.s 			page 52


 1760              	.LVL108:
 102:voice.cpp     ****     else if(effect_ == DISTORT) sample[1] = tanhf(sample[1]*distortion_gain_) / tanhf(distortion_ga
 1761              		.loc 2 102 66 discriminator 1 view .LVU473
 1762 01e4 8AEE296A 		vdiv.f32	s12, s20, s19
 102:voice.cpp     ****     else if(effect_ == DISTORT) sample[1] = tanhf(sample[1]*distortion_gain_) / tanhf(distortion_ga
 1763              		.loc 2 102 96 discriminator 1 view .LVU474
 1764 01e8 B7EEC00A 		vcvt.f64.f32	d0, s0
 102:voice.cpp     ****     else if(effect_ == DISTORT) sample[1] = tanhf(sample[1]*distortion_gain_) / tanhf(distortion_ga
 1765              		.loc 2 102 86 discriminator 1 view .LVU475
 1766 01ec 9FED1A7B 		vldr.64	d7, .L78
 102:voice.cpp     ****     else if(effect_ == DISTORT) sample[1] = tanhf(sample[1]*distortion_gain_) / tanhf(distortion_ga
 1767              		.loc 2 102 121 discriminator 1 view .LVU476
 1768 01f0 9FED1B5B 		vldr.64	d5, .L78+8
 102:voice.cpp     ****     else if(effect_ == DISTORT) sample[1] = tanhf(sample[1]*distortion_gain_) / tanhf(distortion_ga
 1769              		.loc 2 102 66 discriminator 1 view .LVU477
 1770 01f4 B7EEC66A 		vcvt.f64.f32	d6, s12
 102:voice.cpp     ****     else if(effect_ == DISTORT) sample[1] = tanhf(sample[1]*distortion_gain_) / tanhf(distortion_ga
 1771              		.loc 2 102 86 discriminator 1 view .LVU478
 1772 01f8 A0EE076B 		vfma.f64	d6, d0, d7
 102:voice.cpp     ****     else if(effect_ == DISTORT) sample[1] = tanhf(sample[1]*distortion_gain_) / tanhf(distortion_ga
 1773              		.loc 2 102 121 discriminator 1 view .LVU479
 1774 01fc 86EE057B 		vdiv.f64	d7, d6, d5
 1775 0200 B7EEC78B 		vcvt.f32.f64	s16, d7
 1776              	.LVL109:
 102:voice.cpp     ****     else if(effect_ == DISTORT) sample[1] = tanhf(sample[1]*distortion_gain_) / tanhf(distortion_ga
 1777              		.loc 2 102 121 discriminator 1 view .LVU480
 1778 0204 AAE7     		b	.L63
 1779              	.LVL110:
 1780              	.L74:
  92:voice.cpp     ****     else if(effect_ == DISTORT) sample[0] = tanhf(sample[0]*distortion_gain_) / tanhf(distortion_ga
 1781              		.loc 2 92 25 is_stmt 1 discriminator 1 view .LVU481
  92:voice.cpp     ****     else if(effect_ == DISTORT) sample[0] = tanhf(sample[0]*distortion_gain_) / tanhf(distortion_ga
 1782              		.loc 2 92 54 is_stmt 0 discriminator 1 view .LVU482
 1783 0206 D6ED4F8A 		vldr.32	s17, [r6, #316]
 1784              	.LVL111:
  92:voice.cpp     ****     else if(effect_ == DISTORT) sample[0] = tanhf(sample[0]*distortion_gain_) / tanhf(distortion_ga
 1785              		.loc 2 92 43 discriminator 1 view .LVU483
 1786 020a 28EE870A 		vmul.f32	s0, s17, s14
 1787 020e FFF7FEFF 		bl	tanhf
 1788              	.LVL112:
  92:voice.cpp     ****     else if(effect_ == DISTORT) sample[0] = tanhf(sample[0]*distortion_gain_) / tanhf(distortion_ga
 1789              		.loc 2 92 43 discriminator 1 view .LVU484
 1790 0212 F0EE409A 		vmov.f32	s19, s0
  92:voice.cpp     ****     else if(effect_ == DISTORT) sample[0] = tanhf(sample[0]*distortion_gain_) / tanhf(distortion_ga
 1791              		.loc 2 92 73 discriminator 1 view .LVU485
 1792 0216 B0EE680A 		vmov.f32	s0, s17
  92:voice.cpp     ****     else if(effect_ == DISTORT) sample[0] = tanhf(sample[0]*distortion_gain_) / tanhf(distortion_ga
 1793              		.loc 2 92 98 discriminator 1 view .LVU486
 1794 021a 78EEA88A 		vadd.f32	s17, s17, s17
  92:voice.cpp     ****     else if(effect_ == DISTORT) sample[0] = tanhf(sample[0]*distortion_gain_) / tanhf(distortion_ga
 1795              		.loc 2 92 73 discriminator 1 view .LVU487
 1796 021e FFF7FEFF 		bl	tanhf
 1797              	.LVL113:
 1798 0222 B0EE409A 		vmov.f32	s18, s0
  92:voice.cpp     ****     else if(effect_ == DISTORT) sample[0] = tanhf(sample[0]*distortion_gain_) / tanhf(distortion_ga
 1799              		.loc 2 92 96 discriminator 1 view .LVU488
 1800 0226 28EE880A 		vmul.f32	s0, s17, s16
ARM GAS  C:\Users\samue\AppData\Local\Temp\cc7BohBx.s 			page 53


 1801 022a FFF7FEFF 		bl	sinf
 1802              	.LVL114:
  92:voice.cpp     ****     else if(effect_ == DISTORT) sample[0] = tanhf(sample[0]*distortion_gain_) / tanhf(distortion_ga
 1803              		.loc 2 92 66 discriminator 1 view .LVU489
 1804 022e 89EE896A 		vdiv.f32	s12, s19, s18
  92:voice.cpp     ****     else if(effect_ == DISTORT) sample[0] = tanhf(sample[0]*distortion_gain_) / tanhf(distortion_ga
 1805              		.loc 2 92 96 discriminator 1 view .LVU490
 1806 0232 B7EEC00A 		vcvt.f64.f32	d0, s0
  92:voice.cpp     ****     else if(effect_ == DISTORT) sample[0] = tanhf(sample[0]*distortion_gain_) / tanhf(distortion_ga
 1807              		.loc 2 92 86 discriminator 1 view .LVU491
 1808 0236 9FED084B 		vldr.64	d4, .L78
  92:voice.cpp     ****     else if(effect_ == DISTORT) sample[0] = tanhf(sample[0]*distortion_gain_) / tanhf(distortion_ga
 1809              		.loc 2 92 121 discriminator 1 view .LVU492
 1810 023a 9FED095B 		vldr.64	d5, .L78+8
  92:voice.cpp     ****     else if(effect_ == DISTORT) sample[0] = tanhf(sample[0]*distortion_gain_) / tanhf(distortion_ga
 1811              		.loc 2 92 66 discriminator 1 view .LVU493
 1812 023e B7EEC66A 		vcvt.f64.f32	d6, s12
  92:voice.cpp     ****     else if(effect_ == DISTORT) sample[0] = tanhf(sample[0]*distortion_gain_) / tanhf(distortion_ga
 1813              		.loc 2 92 86 discriminator 1 view .LVU494
 1814 0242 A0EE046B 		vfma.f64	d6, d0, d4
  92:voice.cpp     ****     else if(effect_ == DISTORT) sample[0] = tanhf(sample[0]*distortion_gain_) / tanhf(distortion_ga
 1815              		.loc 2 92 121 discriminator 1 view .LVU495
 1816 0246 86EE058B 		vdiv.f64	d8, d6, d5
 1817              	.LVL115:
  92:voice.cpp     ****     else if(effect_ == DISTORT) sample[0] = tanhf(sample[0]*distortion_gain_) / tanhf(distortion_ga
 1818              		.loc 2 92 121 discriminator 1 view .LVU496
 1819 024a B7EEC88B 		vcvt.f32.f64	s16, d8
 1820              	.LVL116:
  92:voice.cpp     ****     else if(effect_ == DISTORT) sample[0] = tanhf(sample[0]*distortion_gain_) / tanhf(distortion_ga
 1821              		.loc 2 92 121 discriminator 1 view .LVU497
 1822 024e 32E7     		b	.L55
 1823              	.LVL117:
 1824              	.L56:
 1825              	.LBB485:
 1826              	.LBB462:
  92:voice.cpp     ****     else if(effect_ == DISTORT) sample[0] = tanhf(sample[0]*distortion_gain_) / tanhf(distortion_ga
 1827              		.loc 2 92 121 discriminator 1 view .LVU498
 1828 0250 FFF7FEFF 		bl	_ZN7daisysp20FIRFilterImplGenericILj0ELj0EE7ProcessEf.part.0
 1829              	.LVL118:
 1830              	.L79:
 1831 0254 AFF30080 		.align	3
 1832              	.L78:
 1833 0258 9A999999 		.word	-1717986918
 1834 025c 9999E93F 		.word	1072273817
 1835 0260 000000C0 		.word	-1073741824
 1836 0264 CCCCFC3F 		.word	1073532108
 1837 0268 00000000 		.word	0
 1838              	.LBE462:
 1839              	.LBE485:
 1840              		.cfi_endproc
 1841              	.LFE3526:
 1843              		.section	.text._ZN5voice13process_noiseEf,"ax",%progbits
 1844              		.align	1
 1845              		.p2align 2,,3
 1846              		.global	_ZN5voice13process_noiseEf
 1847              		.syntax unified
 1848              		.thumb
ARM GAS  C:\Users\samue\AppData\Local\Temp\cc7BohBx.s 			page 54


 1849              		.thumb_func
 1850              		.fpu fpv5-d16
 1852              	_ZN5voice13process_noiseEf:
 1853              	.LVL119:
 1854              	.LFB3527:
 110:voice.cpp     **** 
 111:voice.cpp     **** float voice::process_noise(float amplitude)
 112:voice.cpp     **** {
 1855              		.loc 2 112 1 is_stmt 1 view -0
 1856              		.cfi_startproc
 1857              		@ args = 0, pretend = 0, frame = 0
 1858              		@ frame_needed = 0, uses_anonymous_args = 0
 113:voice.cpp     ****     float noise, noise_low, noise_high;
 1859              		.loc 2 113 5 view .LVU500
 114:voice.cpp     **** 
 115:voice.cpp     ****     noise = 0.0f;
 1860              		.loc 2 115 5 view .LVU501
 116:voice.cpp     ****     if(noise_mode_ == NOISE)
 1861              		.loc 2 116 5 view .LVU502
 112:voice.cpp     ****     float noise, noise_low, noise_high;
 1862              		.loc 2 112 1 is_stmt 0 view .LVU503
 1863 0000 10B5     		push	{r4, lr}
 1864              		.cfi_def_cfa_offset 8
 1865              		.cfi_offset 4, -8
 1866              		.cfi_offset 14, -4
 1867 0002 2DED028B 		vpush.64	{d8}
 1868              		.cfi_def_cfa_offset 16
 1869              		.cfi_offset 80, -16
 1870              		.cfi_offset 81, -12
 1871              		.loc 2 116 8 view .LVU504
 1872 0006 90F85131 		ldrb	r3, [r0, #337]	@ zero_extendqisi2
 112:voice.cpp     ****     float noise, noise_low, noise_high;
 1873              		.loc 2 112 1 view .LVU505
 1874 000a B0EE408A 		vmov.f32	s16, s0
 1875 000e 0446     		mov	r4, r0
 1876              		.loc 2 116 5 view .LVU506
 1877 0010 33B1     		cbz	r3, .L95
 117:voice.cpp     ****     {
 118:voice.cpp     ****         noise_.SetAmp(amplitude);
 119:voice.cpp     ****         noise = noise_.Process();
 120:voice.cpp     ****         noise_low = noise_lpf_.Process(noise);
 121:voice.cpp     ****         noise_high = noise_hpf_.Process(noise);
 122:voice.cpp     **** 
 123:voice.cpp     ****         noise = noise_low * noise_color_ + noise_high * (1.0f - noise_color_);
 124:voice.cpp     ****     }
 125:voice.cpp     ****     else if (noise_mode_ == GONG)
 1878              		.loc 2 125 10 is_stmt 1 view .LVU507
 126:voice.cpp     ****     {
 127:voice.cpp     ****         noise = 0.0f;
 128:voice.cpp     ****     }
 129:voice.cpp     ****     else if (noise_mode_ == FM)
 1879              		.loc 2 129 10 view .LVU508
 1880 0012 022B     		cmp	r3, #2
 1881 0014 55D0     		beq	.L96
 115:voice.cpp     ****     if(noise_mode_ == NOISE)
 1882              		.loc 2 115 11 is_stmt 0 view .LVU509
 1883 0016 9FED310A 		vldr.32	s0, .L97
ARM GAS  C:\Users\samue\AppData\Local\Temp\cc7BohBx.s 			page 55


 1884              	.LVL120:
 130:voice.cpp     ****     {
 131:voice.cpp     ****         fm_.SetIndex(mod_ind_*amplitude);
 132:voice.cpp     ****         noise = fm_.Process()*amplitude; 
 133:voice.cpp     ****     }
 134:voice.cpp     ****     
 135:voice.cpp     ****     return noise;
 1885              		.loc 2 135 5 is_stmt 1 view .LVU510
 1886              	.L80:
 136:voice.cpp     **** }
 1887              		.loc 2 136 1 is_stmt 0 view .LVU511
 1888 001a BDEC028B 		vldm	sp!, {d8}
 1889              		.cfi_remember_state
 1890              		.cfi_restore 80
 1891              		.cfi_restore 81
 1892              		.cfi_def_cfa_offset 8
 1893              	.LVL121:
 1894              		.loc 2 136 1 view .LVU512
 1895 001e 10BD     		pop	{r4, pc}
 1896              	.LVL122:
 1897              	.L95:
 1898              		.cfi_restore_state
 1899              	.LBB496:
 1900              	.LBI496:
 111:voice.cpp     **** {
 1901              		.loc 2 111 7 is_stmt 1 view .LVU513
 1902              	.LBB497:
 118:voice.cpp     ****         noise = noise_.Process();
 1903              		.loc 2 118 9 view .LVU514
 1904              	.LBB498:
 1905              	.LBI498:
  31:../../../../DaisyExamples/DaisySP//Source/Noise/whitenoise.h ****     }
  32:../../../../DaisyExamples/DaisySP//Source/Noise/whitenoise.h **** 
  33:../../../../DaisyExamples/DaisySP//Source/Noise/whitenoise.h ****     /** sets the amplitude of the noise output
  34:../../../../DaisyExamples/DaisySP//Source/Noise/whitenoise.h ****     */
  35:../../../../DaisyExamples/DaisySP//Source/Noise/whitenoise.h ****     inline void SetAmp(float a) { amp_ = a; }
 1906              		.loc 5 35 17 view .LVU515
 1907              	.LBB499:
 1908              		.loc 5 35 35 view .LVU516
 1909              	.LBE499:
 1910              	.LBE498:
 1911              	.LBB501:
 1912              	.LBB502:
  36:../../../../DaisyExamples/DaisySP//Source/Noise/whitenoise.h ****     /** returns a new sample of noise in the range of -amp_ to amp_
  37:../../../../DaisyExamples/DaisySP//Source/Noise/whitenoise.h ****     */
  38:../../../../DaisyExamples/DaisySP//Source/Noise/whitenoise.h ****     inline float Process()
  39:../../../../DaisyExamples/DaisySP//Source/Noise/whitenoise.h ****     {
  40:../../../../DaisyExamples/DaisySP//Source/Noise/whitenoise.h ****         randseed_ *= 16807;
 1913              		.loc 5 40 19 is_stmt 0 view .LVU517
 1914 0020 D0F80C31 		ldr	r3, [r0, #268]
 1915 0024 44F2A712 		movw	r2, #16807
 1916              	.LBE502:
 1917              	.LBE501:
 1918              	.LBB505:
 1919              	.LBB506:
  69:../../../../DaisyExamples/DaisySP//Source/Filters/onepole.h **** 
  70:../../../../DaisyExamples/DaisySP//Source/Filters/onepole.h ****     /** Process audio through the filter
ARM GAS  C:\Users\samue\AppData\Local\Temp\cc7BohBx.s 			page 56


  71:../../../../DaisyExamples/DaisySP//Source/Filters/onepole.h ****     *   \param in The next sample to be processed
  72:../../../../DaisyExamples/DaisySP//Source/Filters/onepole.h ****     */
  73:../../../../DaisyExamples/DaisySP//Source/Filters/onepole.h ****     inline float Process(float in)
  74:../../../../DaisyExamples/DaisySP//Source/Filters/onepole.h ****     {
  75:../../../../DaisyExamples/DaisySP//Source/Filters/onepole.h ****         float lp;
  76:../../../../DaisyExamples/DaisySP//Source/Filters/onepole.h ****         lp     = (g_ * in + state_) * gi_;
 1920              		.loc 6 76 19 view .LVU518
 1921 0028 D0ED446A 		vldr.32	s13, [r0, #272]
 1922              	.LBE506:
 1923              	.LBE505:
 1924              	.LBB509:
 1925              	.LBB503:
 1926              		.loc 5 40 19 view .LVU519
 1927 002c 02FB03F3 		mul	r3, r2, r3
 1928              	.LBE503:
 1929              	.LBE509:
 1930              	.LBB510:
 1931              	.LBB507:
 1932              		.loc 6 76 27 view .LVU520
 1933 0030 D0ED467A 		vldr.32	s15, [r0, #280]
 1934              		.loc 6 76 16 view .LVU521
 1935 0034 90ED457A 		vldr.32	s14, [r0, #276]
  77:../../../../DaisyExamples/DaisySP//Source/Filters/onepole.h ****         state_ = g_ * (in - lp) + lp;
  78:../../../../DaisyExamples/DaisySP//Source/Filters/onepole.h **** 
  79:../../../../DaisyExamples/DaisySP//Source/Filters/onepole.h ****         switch(mode_)
 1936              		.loc 6 79 16 view .LVU522
 1937 0038 90F81C21 		ldrb	r2, [r0, #284]	@ zero_extendqisi2
 1938              	.LBE507:
 1939              	.LBE510:
 1940              	.LBB511:
 1941              	.LBB500:
  35:../../../../DaisyExamples/DaisySP//Source/Noise/whitenoise.h ****     /** returns a new sample of noise in the range of -amp_ to amp_
 1942              		.loc 5 35 40 view .LVU523
 1943 003c 84ED420A 		vstr.32	s0, [r4, #264]
 1944              	.LVL123:
  35:../../../../DaisyExamples/DaisySP//Source/Noise/whitenoise.h ****     /** returns a new sample of noise in the range of -amp_ to amp_
 1945              		.loc 5 35 40 view .LVU524
 1946              	.LBE500:
 1947              	.LBE511:
 119:voice.cpp     ****         noise_low = noise_lpf_.Process(noise);
 1948              		.loc 2 119 9 is_stmt 1 view .LVU525
 1949              	.LBB512:
 1950              	.LBI501:
  38:../../../../DaisyExamples/DaisySP//Source/Noise/whitenoise.h ****     {
 1951              		.loc 5 38 18 view .LVU526
 1952              	.LBB504:
 1953              		.loc 5 40 9 view .LVU527
  41:../../../../DaisyExamples/DaisySP//Source/Noise/whitenoise.h ****         return (randseed_ * coeff_) * amp_;
 1954              		.loc 5 41 27 is_stmt 0 view .LVU528
 1955 0040 00EE103A 		vmov	s0, r3	@ int
 1956              	.LVL124:
  40:../../../../DaisyExamples/DaisySP//Source/Noise/whitenoise.h ****         return (randseed_ * coeff_) * amp_;
 1957              		.loc 5 40 19 view .LVU529
 1958 0044 C0F80C31 		str	r3, [r0, #268]
 1959              		.loc 5 41 9 is_stmt 1 view .LVU530
 1960              		.loc 5 41 27 is_stmt 0 view .LVU531
 1961 0048 BAEEE00A 		vcvt.f32.s32	s0, s0, #31
ARM GAS  C:\Users\samue\AppData\Local\Temp\cc7BohBx.s 			page 57


 1962              		.loc 5 41 39 view .LVU532
 1963 004c 20EE088A 		vmul.f32	s16, s0, s16
 1964              	.LVL125:
 1965              		.loc 5 41 39 view .LVU533
 1966              	.LBE504:
 1967              	.LBE512:
 120:voice.cpp     ****         noise_high = noise_hpf_.Process(noise);
 1968              		.loc 2 120 9 is_stmt 1 view .LVU534
 1969              	.LBB513:
 1970              	.LBI505:
  73:../../../../DaisyExamples/DaisySP//Source/Filters/onepole.h ****     {
 1971              		.loc 6 73 18 view .LVU535
 1972              	.LBB508:
  75:../../../../DaisyExamples/DaisySP//Source/Filters/onepole.h ****         lp     = (g_ * in + state_) * gi_;
 1973              		.loc 6 75 9 view .LVU536
  76:../../../../DaisyExamples/DaisySP//Source/Filters/onepole.h ****         state_ = g_ * (in - lp) + lp;
 1974              		.loc 6 76 9 view .LVU537
  76:../../../../DaisyExamples/DaisySP//Source/Filters/onepole.h ****         state_ = g_ * (in - lp) + lp;
 1975              		.loc 6 76 27 is_stmt 0 view .LVU538
 1976 0050 E8EE267A 		vfma.f32	s15, s16, s13
  76:../../../../DaisyExamples/DaisySP//Source/Filters/onepole.h ****         state_ = g_ * (in - lp) + lp;
 1977              		.loc 6 76 16 view .LVU539
 1978 0054 67EE877A 		vmul.f32	s15, s15, s14
 1979              	.LVL126:
  77:../../../../DaisyExamples/DaisySP//Source/Filters/onepole.h **** 
 1980              		.loc 6 77 9 is_stmt 1 view .LVU540
  77:../../../../DaisyExamples/DaisySP//Source/Filters/onepole.h **** 
 1981              		.loc 6 77 27 is_stmt 0 view .LVU541
 1982 0058 38EE677A 		vsub.f32	s14, s16, s15
  77:../../../../DaisyExamples/DaisySP//Source/Filters/onepole.h **** 
 1983              		.loc 6 77 33 view .LVU542
 1984 005c B0EE676A 		vmov.f32	s12, s15
 1985 0060 A6EE876A 		vfma.f32	s12, s13, s14
  77:../../../../DaisyExamples/DaisySP//Source/Filters/onepole.h **** 
 1986              		.loc 6 77 16 view .LVU543
 1987 0064 80ED466A 		vstr.32	s12, [r0, #280]
 1988              		.loc 6 79 9 is_stmt 1 view .LVU544
 1989 0068 22B1     		cbz	r2, .L82
 1990              		.loc 6 79 9 is_stmt 0 view .LVU545
 1991 006a DFED1C7A 		vldr.32	s15, .L97
 1992              	.LVL127:
 1993              		.loc 6 79 9 view .LVU546
 1994 006e 012A     		cmp	r2, #1
 1995 0070 47FE277A 		vseleq.f32	s15, s14, s15
 1996              	.L82:
 1997              	.LVL128:
 1998              		.loc 6 79 9 view .LVU547
 1999              	.LBE508:
 2000              	.LBE513:
 121:voice.cpp     **** 
 2001              		.loc 2 121 9 is_stmt 1 view .LVU548
 2002              	.LBB514:
 2003              	.LBI514:
  73:../../../../DaisyExamples/DaisySP//Source/Filters/onepole.h ****     {
 2004              		.loc 6 73 18 view .LVU549
 2005              	.LBB515:
  75:../../../../DaisyExamples/DaisySP//Source/Filters/onepole.h ****         lp     = (g_ * in + state_) * gi_;
ARM GAS  C:\Users\samue\AppData\Local\Temp\cc7BohBx.s 			page 58


 2006              		.loc 6 75 9 view .LVU550
  76:../../../../DaisyExamples/DaisySP//Source/Filters/onepole.h ****         state_ = g_ * (in - lp) + lp;
 2007              		.loc 6 76 9 view .LVU551
  76:../../../../DaisyExamples/DaisySP//Source/Filters/onepole.h ****         state_ = g_ * (in - lp) + lp;
 2008              		.loc 6 76 19 is_stmt 0 view .LVU552
 2009 0074 D4ED486A 		vldr.32	s13, [r4, #288]
  76:../../../../DaisyExamples/DaisySP//Source/Filters/onepole.h ****         state_ = g_ * (in - lp) + lp;
 2010              		.loc 6 76 27 view .LVU553
 2011 0078 94ED4A0A 		vldr.32	s0, [r4, #296]
  76:../../../../DaisyExamples/DaisySP//Source/Filters/onepole.h ****         state_ = g_ * (in - lp) + lp;
 2012              		.loc 6 76 16 view .LVU554
 2013 007c 94ED497A 		vldr.32	s14, [r4, #292]
  76:../../../../DaisyExamples/DaisySP//Source/Filters/onepole.h ****         state_ = g_ * (in - lp) + lp;
 2014              		.loc 6 76 27 view .LVU555
 2015 0080 A8EE260A 		vfma.f32	s0, s16, s13
 2016              		.loc 6 79 16 view .LVU556
 2017 0084 94F82C31 		ldrb	r3, [r4, #300]	@ zero_extendqisi2
  76:../../../../DaisyExamples/DaisySP//Source/Filters/onepole.h ****         state_ = g_ * (in - lp) + lp;
 2018              		.loc 6 76 16 view .LVU557
 2019 0088 20EE077A 		vmul.f32	s14, s0, s14
 2020              	.LVL129:
  77:../../../../DaisyExamples/DaisySP//Source/Filters/onepole.h **** 
 2021              		.loc 6 77 9 is_stmt 1 view .LVU558
  77:../../../../DaisyExamples/DaisySP//Source/Filters/onepole.h **** 
 2022              		.loc 6 77 27 is_stmt 0 view .LVU559
 2023 008c 38EE478A 		vsub.f32	s16, s16, s14
 2024              	.LVL130:
  77:../../../../DaisyExamples/DaisySP//Source/Filters/onepole.h **** 
 2025              		.loc 6 77 33 view .LVU560
 2026 0090 B0EE476A 		vmov.f32	s12, s14
 2027 0094 A6EE886A 		vfma.f32	s12, s13, s16
  77:../../../../DaisyExamples/DaisySP//Source/Filters/onepole.h **** 
 2028              		.loc 6 77 16 view .LVU561
 2029 0098 84ED4A6A 		vstr.32	s12, [r4, #296]
 2030              		.loc 6 79 9 is_stmt 1 view .LVU562
 2031 009c 23B1     		cbz	r3, .L83
 2032 009e 9FED0F0A 		vldr.32	s0, .L97
 2033 00a2 012B     		cmp	r3, #1
 2034 00a4 08FE007A 		vseleq.f32	s14, s16, s0
 2035              	.LVL131:
 2036              	.L83:
 2037              		.loc 6 79 9 is_stmt 0 view .LVU563
 2038              	.LBE515:
 2039              	.LBE514:
 123:voice.cpp     ****     }
 2040              		.loc 2 123 9 is_stmt 1 view .LVU564
 123:voice.cpp     ****     }
 2041              		.loc 2 123 63 is_stmt 0 view .LVU565
 2042 00a8 B7EE000A 		vmov.f32	s0, #1.0e+0
 123:voice.cpp     ****     }
 2043              		.loc 2 123 29 view .LVU566
 2044 00ac D4ED516A 		vldr.32	s13, [r4, #324]
 2045              	.LBE497:
 2046              	.LBE496:
 2047              		.loc 2 136 1 view .LVU567
 2048 00b0 BDEC028B 		vldm	sp!, {d8}
 2049              		.cfi_remember_state
ARM GAS  C:\Users\samue\AppData\Local\Temp\cc7BohBx.s 			page 59


 2050              		.cfi_restore 80
 2051              		.cfi_restore 81
 2052              		.cfi_def_cfa_offset 8
 2053              	.LBB517:
 2054              	.LBB516:
 123:voice.cpp     ****     }
 2055              		.loc 2 123 63 view .LVU568
 2056 00b4 30EE660A 		vsub.f32	s0, s0, s13
 123:voice.cpp     ****     }
 2057              		.loc 2 123 55 view .LVU569
 2058 00b8 20EE070A 		vmul.f32	s0, s0, s14
 123:voice.cpp     ****     }
 2059              		.loc 2 123 15 view .LVU570
 2060 00bc A6EEA70A 		vfma.f32	s0, s13, s15
 2061              	.LVL132:
 135:voice.cpp     **** }
 2062              		.loc 2 135 5 is_stmt 1 view .LVU571
 135:voice.cpp     **** }
 2063              		.loc 2 135 5 is_stmt 0 view .LVU572
 2064              	.LBE516:
 2065              	.LBE517:
 2066              		.loc 2 136 1 view .LVU573
 2067 00c0 10BD     		pop	{r4, pc}
 2068              	.LVL133:
 2069              	.L96:
 2070              		.cfi_restore_state
 131:voice.cpp     ****         noise = fm_.Process()*amplitude; 
 2071              		.loc 2 131 9 is_stmt 1 view .LVU574
 131:voice.cpp     ****         noise = fm_.Process()*amplitude; 
 2072              		.loc 2 131 21 is_stmt 0 view .LVU575
 2073 00c2 90ED530A 		vldr.32	s0, [r0, #332]
 2074              	.LVL134:
 131:voice.cpp     ****         noise = fm_.Process()*amplitude; 
 2075              		.loc 2 131 21 view .LVU576
 2076 00c6 28EE000A 		vmul.f32	s0, s16, s0
 2077 00ca FFF7FEFF 		bl	_ZN7daisysp3Fm28SetIndexEf
 2078              	.LVL135:
 132:voice.cpp     ****     }
 2079              		.loc 2 132 9 is_stmt 1 view .LVU577
 132:voice.cpp     ****     }
 2080              		.loc 2 132 28 is_stmt 0 view .LVU578
 2081 00ce 2046     		mov	r0, r4
 2082 00d0 FFF7FEFF 		bl	_ZN7daisysp3Fm27ProcessEv
 2083              	.LVL136:
 132:voice.cpp     ****     }
 2084              		.loc 2 132 15 view .LVU579
 2085 00d4 20EE080A 		vmul.f32	s0, s0, s16
 2086              	.LVL137:
 132:voice.cpp     ****     }
 2087              		.loc 2 132 15 view .LVU580
 2088 00d8 9FE7     		b	.L80
 2089              	.L98:
 2090 00da 00BF     		.align	2
 2091              	.L97:
 2092 00dc 00000000 		.word	0
 2093              		.cfi_endproc
 2094              	.LFE3527:
ARM GAS  C:\Users\samue\AppData\Local\Temp\cc7BohBx.s 			page 60


 2096              		.section	.text._ZN5voice7ProcessEv,"ax",%progbits
 2097              		.align	1
 2098              		.p2align 2,,3
 2099              		.global	_ZN5voice7ProcessEv
 2100              		.syntax unified
 2101              		.thumb
 2102              		.thumb_func
 2103              		.fpu fpv5-d16
 2105              	_ZN5voice7ProcessEv:
 2106              	.LVL138:
 2107              	.LFB3525:
  76:voice.cpp     ****     float amplitude;
 2108              		.loc 2 76 1 is_stmt 1 view -0
 2109              		.cfi_startproc
 2110              		@ args = 0, pretend = 0, frame = 0
 2111              		@ frame_needed = 0, uses_anonymous_args = 0
  77:voice.cpp     ****     amplitude = amp_env_.Process();
 2112              		.loc 2 77 5 view .LVU582
  78:voice.cpp     **** 
 2113              		.loc 2 78 5 view .LVU583
  76:voice.cpp     ****     float amplitude;
 2114              		.loc 2 76 1 is_stmt 0 view .LVU584
 2115 0000 10B5     		push	{r4, lr}
 2116              		.cfi_def_cfa_offset 8
 2117              		.cfi_offset 4, -8
 2118              		.cfi_offset 14, -4
 2119 0002 0446     		mov	r4, r0
  78:voice.cpp     **** 
 2120              		.loc 2 78 33 view .LVU585
 2121 0004 9830     		adds	r0, r0, #152
 2122              	.LVL139:
  76:voice.cpp     ****     float amplitude;
 2123              		.loc 2 76 1 view .LVU586
 2124 0006 2DED028B 		vpush.64	{d8}
 2125              		.cfi_def_cfa_offset 16
 2126              		.cfi_offset 80, -16
 2127              		.cfi_offset 81, -12
  78:voice.cpp     **** 
 2128              		.loc 2 78 33 view .LVU587
 2129 000a FFF7FEFF 		bl	_ZN7daisysp5AdEnv7ProcessEv
 2130              	.LVL140:
 2131 000e F0EE408A 		vmov.f32	s17, s0
 2132              	.LVL141:
  80:voice.cpp     **** }
 2133              		.loc 2 80 5 is_stmt 1 view .LVU588
  80:voice.cpp     **** }
 2134              		.loc 2 80 24 is_stmt 0 view .LVU589
 2135 0012 2046     		mov	r0, r4
 2136 0014 FFF7FEFF 		bl	_ZN5voice12process_drumEf
 2137              	.LVL142:
  80:voice.cpp     **** }
 2138              		.loc 2 80 24 view .LVU590
 2139 0018 B0EE408A 		vmov.f32	s16, s0
  80:voice.cpp     **** }
 2140              		.loc 2 80 62 view .LVU591
 2141 001c B0EE680A 		vmov.f32	s0, s17
  80:voice.cpp     **** }
ARM GAS  C:\Users\samue\AppData\Local\Temp\cc7BohBx.s 			page 61


 2142              		.loc 2 80 38 view .LVU592
 2143 0020 D4ED508A 		vldr.32	s17, [r4, #320]
 2144              	.LVL143:
  80:voice.cpp     **** }
 2145              		.loc 2 80 62 view .LVU593
 2146 0024 2046     		mov	r0, r4
 2147 0026 FFF7FEFF 		bl	_ZN5voice13process_noiseEf
 2148              	.LVL144:
  81:voice.cpp     **** 
 2149              		.loc 2 81 1 view .LVU594
 2150 002a A8EE808A 		vfma.f32	s16, s17, s0
 2151 002e B0EE480A 		vmov.f32	s0, s16
 2152 0032 BDEC028B 		vldm	sp!, {d8}
 2153              		.cfi_restore 80
 2154              		.cfi_restore 81
 2155              		.cfi_def_cfa_offset 8
 2156 0036 10BD     		pop	{r4, pc}
  81:voice.cpp     **** 
 2157              		.loc 2 81 1 view .LVU595
 2158              		.cfi_endproc
 2159              	.LFE3525:
 2161              		.section	.text._ZN5voice14set_noise_modeEh,"ax",%progbits
 2162              		.align	1
 2163              		.p2align 2,,3
 2164              		.global	_ZN5voice14set_noise_modeEh
 2165              		.syntax unified
 2166              		.thumb
 2167              		.thumb_func
 2168              		.fpu fpv5-d16
 2170              	_ZN5voice14set_noise_modeEh:
 2171              	.LVL145:
 2172              	.LFB3528:
 137:voice.cpp     **** 
 138:voice.cpp     **** void voice::set_noise_mode(uint8_t mode)
 139:voice.cpp     **** {
 2173              		.loc 2 139 1 is_stmt 1 view -0
 2174              		.cfi_startproc
 2175              		@ args = 0, pretend = 0, frame = 0
 2176              		@ frame_needed = 0, uses_anonymous_args = 0
 2177              		@ link register save eliminated.
 140:voice.cpp     ****     noise_mode_ = mode;
 2178              		.loc 2 140 5 view .LVU597
 2179              		.loc 2 140 17 is_stmt 0 view .LVU598
 2180 0000 80F85111 		strb	r1, [r0, #337]
 141:voice.cpp     **** }
 2181              		.loc 2 141 1 view .LVU599
 2182 0004 7047     		bx	lr
 2183              		.cfi_endproc
 2184              	.LFE3528:
 2186 0006 00BF     		.section	.text._ZN5voice18set_noise_effect_1Ef,"ax",%progbits
 2187              		.align	1
 2188              		.p2align 2,,3
 2189              		.global	_ZN5voice18set_noise_effect_1Ef
 2190              		.syntax unified
 2191              		.thumb
 2192              		.thumb_func
 2193              		.fpu fpv5-d16
ARM GAS  C:\Users\samue\AppData\Local\Temp\cc7BohBx.s 			page 62


 2195              	_ZN5voice18set_noise_effect_1Ef:
 2196              	.LVL146:
 2197              	.LFB3529:
 142:voice.cpp     **** 
 143:voice.cpp     **** void voice::set_noise_effect_1(float value)
 144:voice.cpp     **** {
 2198              		.loc 2 144 1 is_stmt 1 view -0
 2199              		.cfi_startproc
 2200              		@ args = 0, pretend = 0, frame = 0
 2201              		@ frame_needed = 0, uses_anonymous_args = 0
 145:voice.cpp     ****     noise_color_ = value;
 2202              		.loc 2 145 5 view .LVU601
 144:voice.cpp     ****     noise_color_ = value;
 2203              		.loc 2 144 1 is_stmt 0 view .LVU602
 2204 0000 F0EE407A 		vmov.f32	s15, s0
 2205              	.LBB520:
 2206              	.LBB521:
 141:../../../../DaisyExamples/DaisySP//Source/Utility/dsp.h **** }
 2207              		.loc 7 141 23 view .LVU603
 2208 0004 DFED106A 		vldr.32	s13, .L104
 2209 0008 DFED100A 		vldr.32	s1, .L104+4
 141:../../../../DaisyExamples/DaisySP//Source/Utility/dsp.h **** }
 2210              		.loc 7 141 16 view .LVU604
 2211 000c B2EE087A 		vmov.f32	s14, #1.2e+1
 2212 0010 B0EE000A 		vmov.f32	s0, #2.0e+0
 2213              	.LVL147:
 141:../../../../DaisyExamples/DaisySP//Source/Utility/dsp.h **** }
 2214              		.loc 7 141 23 view .LVU605
 2215 0014 E7EEA60A 		vfma.f32	s1, s15, s13
 2216              	.LBE521:
 2217              	.LBE520:
 144:voice.cpp     ****     noise_color_ = value;
 2218              		.loc 2 144 1 view .LVU606
 2219 0018 10B5     		push	{r4, lr}
 2220              		.cfi_def_cfa_offset 8
 2221              		.cfi_offset 4, -8
 2222              		.cfi_offset 14, -4
 2223 001a 2DED028B 		vpush.64	{d8}
 2224              		.cfi_def_cfa_offset 16
 2225              		.cfi_offset 80, -16
 2226              		.cfi_offset 81, -12
 2227              	.LBB525:
 2228              	.LBB522:
 141:../../../../DaisyExamples/DaisySP//Source/Utility/dsp.h **** }
 2229              		.loc 7 141 43 view .LVU607
 2230 001e 9FED0C8A 		vldr.32	s16, .L104+8
 2231              	.LBE522:
 2232              	.LBE525:
 144:voice.cpp     ****     noise_color_ = value;
 2233              		.loc 2 144 1 view .LVU608
 2234 0022 0446     		mov	r4, r0
 2235              		.loc 2 145 18 view .LVU609
 2236 0024 C0ED517A 		vstr.32	s15, [r0, #324]
 146:voice.cpp     ****     
 147:voice.cpp     ****     value = mtof(value*120);
 2237              		.loc 2 147 5 is_stmt 1 view .LVU610
 2238              	.LVL148:
ARM GAS  C:\Users\samue\AppData\Local\Temp\cc7BohBx.s 			page 63


 2239              	.LBB526:
 2240              	.LBI520:
 139:../../../../DaisyExamples/DaisySP//Source/Utility/dsp.h **** {
 2241              		.loc 7 139 14 view .LVU611
 2242              	.LBB523:
 141:../../../../DaisyExamples/DaisySP//Source/Utility/dsp.h **** }
 2243              		.loc 7 141 5 view .LVU612
 141:../../../../DaisyExamples/DaisySP//Source/Utility/dsp.h **** }
 2244              		.loc 7 141 16 is_stmt 0 view .LVU613
 2245 0028 C0EE870A 		vdiv.f32	s1, s1, s14
 2246 002c FFF7FEFF 		bl	powf
 2247              	.LVL149:
 141:../../../../DaisyExamples/DaisySP//Source/Utility/dsp.h **** }
 2248              		.loc 7 141 16 view .LVU614
 2249              	.LBE523:
 2250              	.LBE526:
 148:voice.cpp     ****     fm_.SetFrequency(value);
 2251              		.loc 2 148 21 view .LVU615
 2252 0030 2046     		mov	r0, r4
 2253              	.LBB527:
 2254              	.LBB524:
 141:../../../../DaisyExamples/DaisySP//Source/Utility/dsp.h **** }
 2255              		.loc 7 141 43 view .LVU616
 2256 0032 20EE088A 		vmul.f32	s16, s0, s16
 2257              	.LVL150:
 141:../../../../DaisyExamples/DaisySP//Source/Utility/dsp.h **** }
 2258              		.loc 7 141 43 view .LVU617
 2259              	.LBE524:
 2260              	.LBE527:
 2261              		.loc 2 148 5 is_stmt 1 view .LVU618
 2262              		.loc 2 148 21 is_stmt 0 view .LVU619
 2263 0036 B0EE480A 		vmov.f32	s0, s16
 2264 003a FFF7FEFF 		bl	_ZN7daisysp3Fm212SetFrequencyEf
 2265              	.LVL151:
 149:voice.cpp     ****     fm_carrier_ = value;
 2266              		.loc 2 149 5 is_stmt 1 view .LVU620
 2267              		.loc 2 149 17 is_stmt 0 view .LVU621
 2268 003e 84ED528A 		vstr.32	s16, [r4, #328]
 150:voice.cpp     ****     
 151:voice.cpp     **** }
 2269              		.loc 2 151 1 view .LVU622
 2270 0042 BDEC028B 		vldm	sp!, {d8}
 2271              		.cfi_restore 80
 2272              		.cfi_restore 81
 2273              		.cfi_def_cfa_offset 8
 2274              	.LVL152:
 2275              		.loc 2 151 1 view .LVU623
 2276 0046 10BD     		pop	{r4, pc}
 2277              	.LVL153:
 2278              	.L105:
 2279              		.loc 2 151 1 view .LVU624
 2280              		.align	2
 2281              	.L104:
 2282 0048 0000F042 		.word	1123024896
 2283 004c 00008AC2 		.word	-1031143424
 2284 0050 0000DC43 		.word	1138491392
 2285              		.cfi_endproc
ARM GAS  C:\Users\samue\AppData\Local\Temp\cc7BohBx.s 			page 64


 2286              	.LFE3529:
 2288              		.section	.text._ZN5voice18set_noise_effect_2Ef,"ax",%progbits
 2289              		.align	1
 2290              		.p2align 2,,3
 2291              		.global	_ZN5voice18set_noise_effect_2Ef
 2292              		.syntax unified
 2293              		.thumb
 2294              		.thumb_func
 2295              		.fpu fpv5-d16
 2297              	_ZN5voice18set_noise_effect_2Ef:
 2298              	.LVL154:
 2299              	.LFB3530:
 152:voice.cpp     **** 
 153:voice.cpp     **** void voice::set_noise_effect_2(float value)
 154:voice.cpp     **** {
 2300              		.loc 2 154 1 is_stmt 1 view -0
 2301              		.cfi_startproc
 2302              		@ args = 0, pretend = 0, frame = 0
 2303              		@ frame_needed = 0, uses_anonymous_args = 0
 2304              		@ link register save eliminated.
 155:voice.cpp     ****     value = fmap(value, -0.05f, 2.0f);
 2305              		.loc 2 155 5 view .LVU626
 2306              	.LBB528:
 2307              	.LBB529:
 2308              		.loc 7 189 31 is_stmt 0 view .LVU627
 2309 0000 DFED0B7A 		vldr.32	s15, .L110
 2310              	.LVL155:
 2311              		.loc 7 189 31 view .LVU628
 2312              	.LBE529:
 2313              	.LBI528:
 177:../../../../DaisyExamples/DaisySP//Source/Utility/dsp.h **** {
 2314              		.loc 7 177 1 is_stmt 1 view .LVU629
 2315              	.LBE528:
 179:../../../../DaisyExamples/DaisySP//Source/Utility/dsp.h ****     {
 2316              		.loc 7 179 5 view .LVU630
 2317              	.LBB541:
 2318              	.LBB539:
 188:../../../../DaisyExamples/DaisySP//Source/Utility/dsp.h ****         default: return fclamp(min + in * (max - min), min, max);
 2319              		.loc 7 188 9 view .LVU631
 2320              		.loc 7 189 9 view .LVU632
 2321              		.loc 7 189 18 view .LVU633
 2322              	.LBB530:
 2323              	.LBB531:
 2324              	.LBB532:
  55:../../../../DaisyExamples/DaisySP//Source/Utility/dsp.h **** #else
 2325              		.loc 7 55 5 is_stmt 0 view .LVU634
 2326 0004 F0EE006A 		vmov.f32	s13, #2.0e+0
 2327              	.LBE532:
 2328              	.LBE531:
 2329              	.LBE530:
 2330              		.loc 7 189 31 view .LVU635
 2331 0008 9FED0A6A 		vldr.32	s12, .L110+4
 2332 000c B0EE677A 		vmov.f32	s14, s15
 2333 0010 A0EE067A 		vfma.f32	s14, s0, s12
 2334              	.LVL156:
 2335              	.LBB537:
 2336              	.LBI530:
ARM GAS  C:\Users\samue\AppData\Local\Temp\cc7BohBx.s 			page 65


  64:../../../../DaisyExamples/DaisySP//Source/Utility/dsp.h **** {
 2337              		.loc 7 64 14 is_stmt 1 view .LVU636
 2338              	.LBE537:
 2339              	.LBE539:
 2340              	.LBE541:
  66:../../../../DaisyExamples/DaisySP//Source/Utility/dsp.h **** }
 2341              		.loc 7 66 5 view .LVU637
 2342              	.LBB542:
 2343              	.LBB540:
 2344              	.LBB538:
 2345              	.LBB534:
 2346              	.LBI534:
  40:../../../../DaisyExamples/DaisySP//Source/Utility/dsp.h **** {
 2347              		.loc 7 40 14 view .LVU638
 2348              	.LBB535:
  42:../../../../DaisyExamples/DaisySP//Source/Utility/dsp.h **** #ifdef __arm__
 2349              		.loc 7 42 5 view .LVU639
  44:../../../../DaisyExamples/DaisySP//Source/Utility/dsp.h **** #else
 2350              		.loc 7 44 5 view .LVU640
 2351              		.syntax unified
 2352              	@ 44 "../../../../DaisyExamples/DaisySP//Source/Utility/dsp.h" 1
 2353 0014 C7FE277A 		vmaxnm.f32 s15, s14, s15
 2354              	@ 0 "" 2
 2355              	.LVL157:
  48:../../../../DaisyExamples/DaisySP//Source/Utility/dsp.h **** }
 2356              		.loc 7 48 5 view .LVU641
  48:../../../../DaisyExamples/DaisySP//Source/Utility/dsp.h **** }
 2357              		.loc 7 48 5 is_stmt 0 view .LVU642
 2358              		.thumb
 2359              		.syntax unified
 2360              	.LBE535:
 2361              	.LBE534:
 2362              	.LBB536:
 2363              	.LBI531:
  51:../../../../DaisyExamples/DaisySP//Source/Utility/dsp.h **** {
 2364              		.loc 7 51 14 is_stmt 1 view .LVU643
 2365              	.LBB533:
  53:../../../../DaisyExamples/DaisySP//Source/Utility/dsp.h **** #ifdef __arm__
 2366              		.loc 7 53 5 view .LVU644
  55:../../../../DaisyExamples/DaisySP//Source/Utility/dsp.h **** #else
 2367              		.loc 7 55 5 view .LVU645
 2368              		.syntax unified
 2369              	@ 55 "../../../../DaisyExamples/DaisySP//Source/Utility/dsp.h" 1
 2370 0018 C7FEE67A 		vminnm.f32 s15, s15, s13
 2371              	@ 0 "" 2
 2372              	.LVL158:
  59:../../../../DaisyExamples/DaisySP//Source/Utility/dsp.h **** }
 2373              		.loc 7 59 5 view .LVU646
  59:../../../../DaisyExamples/DaisySP//Source/Utility/dsp.h **** }
 2374              		.loc 7 59 5 is_stmt 0 view .LVU647
 2375              		.thumb
 2376              		.syntax unified
 2377              	.LBE533:
 2378              	.LBE536:
 2379              	.LBE538:
 2380              	.LBE540:
 2381              	.LBE542:
ARM GAS  C:\Users\samue\AppData\Local\Temp\cc7BohBx.s 			page 66


 156:voice.cpp     ****     if(value < 0.0f)
 2382              		.loc 2 156 5 is_stmt 1 view .LVU648
 2383 001c F5EEC07A 		vcmpe.f32	s15, #0
 2384 0020 F1EE10FA 		vmrs	APSR_nzcv, FPSCR
 157:voice.cpp     ****     {
 158:voice.cpp     ****         value = 0.0f;
 2385              		.loc 2 158 15 is_stmt 0 view .LVU649
 2386 0024 48BF     		it	mi
 2387 0026 DFED047A 		vldrmi.32	s15, .L110+8
 2388              	.LVL159:
 159:voice.cpp     ****     }
 160:voice.cpp     ****     mod_ind_ = value;
 2389              		.loc 2 160 5 is_stmt 1 view .LVU650
 2390              		.loc 2 160 14 is_stmt 0 view .LVU651
 2391 002a C0ED537A 		vstr.32	s15, [r0, #332]
 161:voice.cpp     **** }
 2392              		.loc 2 161 1 view .LVU652
 2393 002e 7047     		bx	lr
 2394              	.L111:
 2395              		.align	2
 2396              	.L110:
 2397 0030 CDCC4CBD 		.word	-1119040307
 2398 0034 33330340 		.word	1073951539
 2399 0038 00000000 		.word	0
 2400              		.cfi_endproc
 2401              	.LFE3530:
 2403              		.section	.text._ZN5voice18set_amp_env_attackEf,"ax",%progbits
 2404              		.align	1
 2405              		.p2align 2,,3
 2406              		.global	_ZN5voice18set_amp_env_attackEf
 2407              		.syntax unified
 2408              		.thumb
 2409              		.thumb_func
 2410              		.fpu fpv5-d16
 2412              	_ZN5voice18set_amp_env_attackEf:
 2413              	.LVL160:
 2414              	.LFB3531:
 162:voice.cpp     **** 
 163:voice.cpp     **** void voice::set_amp_env_attack(float time)
 164:voice.cpp     **** {
 2415              		.loc 2 164 1 is_stmt 1 view -0
 2416              		.cfi_startproc
 2417              		@ args = 0, pretend = 0, frame = 0
 2418              		@ frame_needed = 0, uses_anonymous_args = 0
 2419              		@ link register save eliminated.
 165:voice.cpp     ****     time = fmap(time, 0.002f, 0.5f, Mapping::LINEAR);
 2420              		.loc 2 165 5 view .LVU654
 2421              	.LBB543:
 2422              	.LBB544:
 2423              		.loc 7 189 31 is_stmt 0 view .LVU655
 2424 0000 DFED097A 		vldr.32	s15, .L113
 2425              	.LVL161:
 2426              		.loc 7 189 31 view .LVU656
 2427              	.LBE544:
 2428              	.LBI543:
 177:../../../../DaisyExamples/DaisySP//Source/Utility/dsp.h **** {
 2429              		.loc 7 177 1 is_stmt 1 view .LVU657
ARM GAS  C:\Users\samue\AppData\Local\Temp\cc7BohBx.s 			page 67


 2430              	.LBE543:
 179:../../../../DaisyExamples/DaisySP//Source/Utility/dsp.h ****     {
 2431              		.loc 7 179 5 view .LVU658
 2432              	.LBB556:
 2433              	.LBB554:
 188:../../../../DaisyExamples/DaisySP//Source/Utility/dsp.h ****         default: return fclamp(min + in * (max - min), min, max);
 2434              		.loc 7 188 9 view .LVU659
 2435              		.loc 7 189 9 view .LVU660
 2436              		.loc 7 189 18 view .LVU661
 2437              	.LBB545:
 2438              	.LBB546:
 2439              	.LBB547:
  55:../../../../DaisyExamples/DaisySP//Source/Utility/dsp.h **** #else
 2440              		.loc 7 55 5 is_stmt 0 view .LVU662
 2441 0004 F6EE006A 		vmov.f32	s13, #5.0e-1
 2442              	.LBE547:
 2443              	.LBE546:
 2444              	.LBE545:
 2445              		.loc 7 189 31 view .LVU663
 2446 0008 9FED086A 		vldr.32	s12, .L113+4
 2447 000c B0EE677A 		vmov.f32	s14, s15
 2448 0010 A0EE067A 		vfma.f32	s14, s0, s12
 2449              	.LVL162:
 2450              	.LBB552:
 2451              	.LBI545:
  64:../../../../DaisyExamples/DaisySP//Source/Utility/dsp.h **** {
 2452              		.loc 7 64 14 is_stmt 1 view .LVU664
 2453              	.LBE552:
 2454              	.LBE554:
 2455              	.LBE556:
  66:../../../../DaisyExamples/DaisySP//Source/Utility/dsp.h **** }
 2456              		.loc 7 66 5 view .LVU665
 2457              	.LBB557:
 2458              	.LBB555:
 2459              	.LBB553:
 2460              	.LBB549:
 2461              	.LBI549:
  40:../../../../DaisyExamples/DaisySP//Source/Utility/dsp.h **** {
 2462              		.loc 7 40 14 view .LVU666
 2463              	.LBB550:
  42:../../../../DaisyExamples/DaisySP//Source/Utility/dsp.h **** #ifdef __arm__
 2464              		.loc 7 42 5 view .LVU667
  44:../../../../DaisyExamples/DaisySP//Source/Utility/dsp.h **** #else
 2465              		.loc 7 44 5 view .LVU668
 2466              		.syntax unified
 2467              	@ 44 "../../../../DaisyExamples/DaisySP//Source/Utility/dsp.h" 1
 2468 0014 C7FE277A 		vmaxnm.f32 s15, s14, s15
 2469              	@ 0 "" 2
 2470              	.LVL163:
  48:../../../../DaisyExamples/DaisySP//Source/Utility/dsp.h **** }
 2471              		.loc 7 48 5 view .LVU669
  48:../../../../DaisyExamples/DaisySP//Source/Utility/dsp.h **** }
 2472              		.loc 7 48 5 is_stmt 0 view .LVU670
 2473              		.thumb
 2474              		.syntax unified
 2475              	.LBE550:
 2476              	.LBE549:
ARM GAS  C:\Users\samue\AppData\Local\Temp\cc7BohBx.s 			page 68


 2477              	.LBB551:
 2478              	.LBI546:
  51:../../../../DaisyExamples/DaisySP//Source/Utility/dsp.h **** {
 2479              		.loc 7 51 14 is_stmt 1 view .LVU671
 2480              	.LBB548:
  53:../../../../DaisyExamples/DaisySP//Source/Utility/dsp.h **** #ifdef __arm__
 2481              		.loc 7 53 5 view .LVU672
  55:../../../../DaisyExamples/DaisySP//Source/Utility/dsp.h **** #else
 2482              		.loc 7 55 5 view .LVU673
 2483              		.syntax unified
 2484              	@ 55 "../../../../DaisyExamples/DaisySP//Source/Utility/dsp.h" 1
 2485 0018 C7FEE67A 		vminnm.f32 s15, s15, s13
 2486              	@ 0 "" 2
 2487              	.LVL164:
  59:../../../../DaisyExamples/DaisySP//Source/Utility/dsp.h **** }
 2488              		.loc 7 59 5 view .LVU674
  59:../../../../DaisyExamples/DaisySP//Source/Utility/dsp.h **** }
 2489              		.loc 7 59 5 is_stmt 0 view .LVU675
 2490              		.thumb
 2491              		.syntax unified
 2492              	.LBE548:
 2493              	.LBE551:
 2494              	.LBE553:
 2495              	.LBE555:
 2496              	.LBE557:
 166:voice.cpp     ****     set_freq_env_attack(time);
 2497              		.loc 2 166 5 is_stmt 1 view .LVU676
 2498              	.LBB558:
 2499              	.LBI558:
 167:voice.cpp     ****     amp_env_.SetTime(ADENV_SEG_ATTACK, time);
 168:voice.cpp     **** }
 169:voice.cpp     **** void voice::set_amp_env_decay(float time)
 170:voice.cpp     **** {
 171:voice.cpp     ****     time = fmap(time, 0.002f, 2.0f, Mapping::LINEAR);
 172:voice.cpp     ****     set_freq_env_decay(time);
 173:voice.cpp     ****     amp_env_.SetTime(ADENV_SEG_DECAY, time);
 174:voice.cpp     **** }
 175:voice.cpp     **** 
 176:voice.cpp     **** void voice::env_trigger()
 177:voice.cpp     **** {
 178:voice.cpp     ****     amp_env_.Trigger();
 179:voice.cpp     ****     freq_env_.Trigger();
 180:voice.cpp     **** }
 181:voice.cpp     **** 
 182:voice.cpp     **** void voice::set_effect_mode(uint8_t mode)
 183:voice.cpp     **** {
 184:voice.cpp     ****     effect_ = mode;
 185:voice.cpp     **** }
 186:voice.cpp     **** 
 187:voice.cpp     **** void voice::set_freq_env_attack(float time)
 2500              		.loc 2 187 6 view .LVU677
 2501              	.LBE558:
 188:voice.cpp     **** {
 189:voice.cpp     ****     freq_env_.SetTime(ADENV_SEG_ATTACK, time);
 2502              		.loc 2 189 5 view .LVU678
 2503              	.LBB561:
 2504              	.LBB559:
ARM GAS  C:\Users\samue\AppData\Local\Temp\cc7BohBx.s 			page 69


 2505              	.LBI559:
  66:../../../../DaisyExamples/DaisySP//Source/Control/adenv.h ****     /** Sets the amount of curve applied. A positve value will create a log
 2506              		.loc 4 66 17 view .LVU679
 2507              	.LBB560:
  66:../../../../DaisyExamples/DaisySP//Source/Control/adenv.h ****     /** Sets the amount of curve applied. A positve value will create a log
 2508              		.loc 4 66 52 view .LVU680
  66:../../../../DaisyExamples/DaisySP//Source/Control/adenv.h ****     /** Sets the amount of curve applied. A positve value will create a log
 2509              		.loc 4 66 71 is_stmt 0 view .LVU681
 2510 001c C0ED367A 		vstr.32	s15, [r0, #216]
 2511              	.LVL165:
  66:../../../../DaisyExamples/DaisySP//Source/Control/adenv.h ****     /** Sets the amount of curve applied. A positve value will create a log
 2512              		.loc 4 66 71 view .LVU682
 2513              	.LBE560:
 2514              	.LBE559:
 2515              	.LBE561:
 167:voice.cpp     ****     amp_env_.SetTime(ADENV_SEG_ATTACK, time);
 2516              		.loc 2 167 5 is_stmt 1 view .LVU683
 2517              	.LBB562:
 2518              	.LBI562:
  66:../../../../DaisyExamples/DaisySP//Source/Control/adenv.h ****     /** Sets the amount of curve applied. A positve value will create a log
 2519              		.loc 4 66 17 view .LVU684
 2520              	.LBB563:
  66:../../../../DaisyExamples/DaisySP//Source/Control/adenv.h ****     /** Sets the amount of curve applied. A positve value will create a log
 2521              		.loc 4 66 52 view .LVU685
  66:../../../../DaisyExamples/DaisySP//Source/Control/adenv.h ****     /** Sets the amount of curve applied. A positve value will create a log
 2522              		.loc 4 66 71 is_stmt 0 view .LVU686
 2523 0020 C0ED287A 		vstr.32	s15, [r0, #160]
 2524              	.LVL166:
  66:../../../../DaisyExamples/DaisySP//Source/Control/adenv.h ****     /** Sets the amount of curve applied. A positve value will create a log
 2525              		.loc 4 66 71 view .LVU687
 2526              	.LBE563:
 2527              	.LBE562:
 168:voice.cpp     **** void voice::set_amp_env_decay(float time)
 2528              		.loc 2 168 1 view .LVU688
 2529 0024 7047     		bx	lr
 2530              	.L114:
 2531 0026 00BF     		.align	2
 2532              	.L113:
 2533 0028 6F12033B 		.word	990057071
 2534 002c DBF9FE3E 		.word	1056897499
 2535              		.cfi_endproc
 2536              	.LFE3531:
 2538              		.section	.text._ZN5voice17set_amp_env_decayEf,"ax",%progbits
 2539              		.align	1
 2540              		.p2align 2,,3
 2541              		.global	_ZN5voice17set_amp_env_decayEf
 2542              		.syntax unified
 2543              		.thumb
 2544              		.thumb_func
 2545              		.fpu fpv5-d16
 2547              	_ZN5voice17set_amp_env_decayEf:
 2548              	.LVL167:
 2549              	.LFB3532:
 170:voice.cpp     ****     time = fmap(time, 0.002f, 2.0f, Mapping::LINEAR);
 2550              		.loc 2 170 1 is_stmt 1 view -0
 2551              		.cfi_startproc
 2552              		@ args = 0, pretend = 0, frame = 0
ARM GAS  C:\Users\samue\AppData\Local\Temp\cc7BohBx.s 			page 70


 2553              		@ frame_needed = 0, uses_anonymous_args = 0
 2554              		@ link register save eliminated.
 171:voice.cpp     ****     set_freq_env_decay(time);
 2555              		.loc 2 171 5 view .LVU690
 2556              	.LBB564:
 2557              	.LBB565:
 2558              		.loc 7 189 31 is_stmt 0 view .LVU691
 2559 0000 DFED0B7A 		vldr.32	s15, .L116
 2560              	.LVL168:
 2561              		.loc 7 189 31 view .LVU692
 2562              	.LBE565:
 2563              	.LBI564:
 177:../../../../DaisyExamples/DaisySP//Source/Utility/dsp.h **** {
 2564              		.loc 7 177 1 is_stmt 1 view .LVU693
 2565              	.LBE564:
 179:../../../../DaisyExamples/DaisySP//Source/Utility/dsp.h ****     {
 2566              		.loc 7 179 5 view .LVU694
 2567              	.LBB578:
 2568              	.LBB575:
 188:../../../../DaisyExamples/DaisySP//Source/Utility/dsp.h ****         default: return fclamp(min + in * (max - min), min, max);
 2569              		.loc 7 188 9 view .LVU695
 2570              		.loc 7 189 9 view .LVU696
 2571              		.loc 7 189 18 view .LVU697
 2572              	.LBE575:
 2573              	.LBE578:
 2574              	.LBB579:
 2575              	.LBB580:
 190:voice.cpp     **** }
 191:voice.cpp     **** 
 192:voice.cpp     **** void voice::set_freq_env_decay(float time)
 193:voice.cpp     **** {
 194:voice.cpp     ****     time = time / 5.0f;
 2576              		.loc 2 194 10 is_stmt 0 view .LVU698
 2577 0004 F1EE046A 		vmov.f32	s13, #5.0e+0
 2578              	.LBE580:
 2579              	.LBE579:
 2580              	.LBB588:
 2581              	.LBB576:
 2582              		.loc 7 189 31 view .LVU699
 2583 0008 DFED0A5A 		vldr.32	s11, .L116+4
 2584              	.LBB566:
 2585              	.LBB567:
 2586              	.LBB568:
  55:../../../../DaisyExamples/DaisySP//Source/Utility/dsp.h **** #else
 2587              		.loc 7 55 5 view .LVU700
 2588 000c B0EE006A 		vmov.f32	s12, #2.0e+0
 2589              	.LBE568:
 2590              	.LBE567:
 2591              	.LBE566:
 2592              		.loc 7 189 31 view .LVU701
 2593 0010 B0EE677A 		vmov.f32	s14, s15
 2594 0014 A0EE257A 		vfma.f32	s14, s0, s11
 2595              	.LVL169:
 2596              	.LBB573:
 2597              	.LBI566:
  64:../../../../DaisyExamples/DaisySP//Source/Utility/dsp.h **** {
 2598              		.loc 7 64 14 is_stmt 1 view .LVU702
ARM GAS  C:\Users\samue\AppData\Local\Temp\cc7BohBx.s 			page 71


 2599              	.LBE573:
 2600              	.LBE576:
 2601              	.LBE588:
  66:../../../../DaisyExamples/DaisySP//Source/Utility/dsp.h **** }
 2602              		.loc 7 66 5 view .LVU703
 2603              	.LBB589:
 2604              	.LBB577:
 2605              	.LBB574:
 2606              	.LBB570:
 2607              	.LBI570:
  40:../../../../DaisyExamples/DaisySP//Source/Utility/dsp.h **** {
 2608              		.loc 7 40 14 view .LVU704
 2609              	.LBB571:
  42:../../../../DaisyExamples/DaisySP//Source/Utility/dsp.h **** #ifdef __arm__
 2610              		.loc 7 42 5 view .LVU705
  44:../../../../DaisyExamples/DaisySP//Source/Utility/dsp.h **** #else
 2611              		.loc 7 44 5 view .LVU706
 2612              		.syntax unified
 2613              	@ 44 "../../../../DaisyExamples/DaisySP//Source/Utility/dsp.h" 1
 2614 0018 C7FE277A 		vmaxnm.f32 s15, s14, s15
 2615              	@ 0 "" 2
 2616              	.LVL170:
  48:../../../../DaisyExamples/DaisySP//Source/Utility/dsp.h **** }
 2617              		.loc 7 48 5 view .LVU707
  48:../../../../DaisyExamples/DaisySP//Source/Utility/dsp.h **** }
 2618              		.loc 7 48 5 is_stmt 0 view .LVU708
 2619              		.thumb
 2620              		.syntax unified
 2621              	.LBE571:
 2622              	.LBE570:
 2623              	.LBB572:
 2624              	.LBI567:
  51:../../../../DaisyExamples/DaisySP//Source/Utility/dsp.h **** {
 2625              		.loc 7 51 14 is_stmt 1 view .LVU709
 2626              	.LBB569:
  53:../../../../DaisyExamples/DaisySP//Source/Utility/dsp.h **** #ifdef __arm__
 2627              		.loc 7 53 5 view .LVU710
  55:../../../../DaisyExamples/DaisySP//Source/Utility/dsp.h **** #else
 2628              		.loc 7 55 5 view .LVU711
 2629              		.syntax unified
 2630              	@ 55 "../../../../DaisyExamples/DaisySP//Source/Utility/dsp.h" 1
 2631 001c C7FEC67A 		vminnm.f32 s15, s15, s12
 2632              	@ 0 "" 2
 2633              	.LVL171:
  59:../../../../DaisyExamples/DaisySP//Source/Utility/dsp.h **** }
 2634              		.loc 7 59 5 view .LVU712
  59:../../../../DaisyExamples/DaisySP//Source/Utility/dsp.h **** }
 2635              		.loc 7 59 5 is_stmt 0 view .LVU713
 2636              		.thumb
 2637              		.syntax unified
 2638              	.LBE569:
 2639              	.LBE572:
 2640              	.LBE574:
 2641              	.LBE577:
 2642              	.LBE589:
 172:voice.cpp     ****     amp_env_.SetTime(ADENV_SEG_DECAY, time);
 2643              		.loc 2 172 5 is_stmt 1 view .LVU714
ARM GAS  C:\Users\samue\AppData\Local\Temp\cc7BohBx.s 			page 72


 2644              	.LBB590:
 2645              	.LBB585:
 2646              		.loc 2 194 10 is_stmt 0 view .LVU715
 2647 0020 87EEA67A 		vdiv.f32	s14, s15, s13
 2648              	.LVL172:
 2649              		.loc 2 194 10 view .LVU716
 2650              	.LBE585:
 2651              	.LBI579:
 192:voice.cpp     **** {
 2652              		.loc 2 192 6 is_stmt 1 view .LVU717
 2653              	.LBB586:
 2654              		.loc 2 194 5 view .LVU718
 195:voice.cpp     ****     freq_env_.SetTime(ADENV_SEG_DECAY, time);
 2655              		.loc 2 195 5 view .LVU719
 2656              	.LBB581:
 2657              	.LBI581:
  66:../../../../DaisyExamples/DaisySP//Source/Control/adenv.h ****     /** Sets the amount of curve applied. A positve value will create a log
 2658              		.loc 4 66 17 view .LVU720
 2659              	.LBB582:
  66:../../../../DaisyExamples/DaisySP//Source/Control/adenv.h ****     /** Sets the amount of curve applied. A positve value will create a log
 2660              		.loc 4 66 52 view .LVU721
 2661              	.LBE582:
 2662              	.LBE581:
 2663              	.LBE586:
 2664              	.LBE590:
 2665              	.LBB591:
 2666              	.LBB592:
  66:../../../../DaisyExamples/DaisySP//Source/Control/adenv.h ****     /** Sets the amount of curve applied. A positve value will create a log
 2667              		.loc 4 66 71 is_stmt 0 view .LVU722
 2668 0024 C0ED297A 		vstr.32	s15, [r0, #164]
 2669              	.LBE592:
 2670              	.LBE591:
 2671              	.LBB594:
 2672              	.LBB587:
 2673              	.LBB584:
 2674              	.LBB583:
 2675 0028 80ED377A 		vstr.32	s14, [r0, #220]
 2676              	.LVL173:
  66:../../../../DaisyExamples/DaisySP//Source/Control/adenv.h ****     /** Sets the amount of curve applied. A positve value will create a log
 2677              		.loc 4 66 71 view .LVU723
 2678              	.LBE583:
 2679              	.LBE584:
 2680              	.LBE587:
 2681              	.LBE594:
 173:voice.cpp     **** }
 2682              		.loc 2 173 5 is_stmt 1 view .LVU724
 2683              	.LBB595:
 2684              	.LBI591:
  66:../../../../DaisyExamples/DaisySP//Source/Control/adenv.h ****     /** Sets the amount of curve applied. A positve value will create a log
 2685              		.loc 4 66 17 view .LVU725
 2686              	.LBB593:
  66:../../../../DaisyExamples/DaisySP//Source/Control/adenv.h ****     /** Sets the amount of curve applied. A positve value will create a log
 2687              		.loc 4 66 52 view .LVU726
  66:../../../../DaisyExamples/DaisySP//Source/Control/adenv.h ****     /** Sets the amount of curve applied. A positve value will create a log
 2688              		.loc 4 66 52 is_stmt 0 view .LVU727
 2689              	.LBE593:
 2690              	.LBE595:
ARM GAS  C:\Users\samue\AppData\Local\Temp\cc7BohBx.s 			page 73


 174:voice.cpp     **** 
 2691              		.loc 2 174 1 view .LVU728
 2692 002c 7047     		bx	lr
 2693              	.L117:
 2694 002e 00BF     		.align	2
 2695              	.L116:
 2696 0030 6F12033B 		.word	990057071
 2697 0034 77BEFF3F 		.word	1073725047
 2698              		.cfi_endproc
 2699              	.LFE3532:
 2701              		.section	.text._ZN5voice11env_triggerEv,"ax",%progbits
 2702              		.align	1
 2703              		.p2align 2,,3
 2704              		.global	_ZN5voice11env_triggerEv
 2705              		.syntax unified
 2706              		.thumb
 2707              		.thumb_func
 2708              		.fpu fpv5-d16
 2710              	_ZN5voice11env_triggerEv:
 2711              	.LVL174:
 2712              	.LFB3533:
 177:voice.cpp     ****     amp_env_.Trigger();
 2713              		.loc 2 177 1 is_stmt 1 view -0
 2714              		.cfi_startproc
 2715              		@ args = 0, pretend = 0, frame = 0
 2716              		@ frame_needed = 0, uses_anonymous_args = 0
 2717              		@ link register save eliminated.
 178:voice.cpp     ****     freq_env_.Trigger();
 2718              		.loc 2 178 5 view .LVU730
 2719              	.LBB596:
 2720              	.LBB597:
  64:../../../../DaisyExamples/DaisySP//Source/Control/adenv.h ****     /** Sets the length of time (in seconds) for a specific segment. */
 2721              		.loc 4 64 38 is_stmt 0 view .LVU731
 2722 0000 0123     		movs	r3, #1
 2723              	.LVL175:
  64:../../../../DaisyExamples/DaisySP//Source/Control/adenv.h ****     /** Sets the length of time (in seconds) for a specific segment. */
 2724              		.loc 4 64 38 view .LVU732
 2725              	.LBE597:
 2726              	.LBI596:
  64:../../../../DaisyExamples/DaisySP//Source/Control/adenv.h ****     /** Sets the length of time (in seconds) for a specific segment. */
 2727              		.loc 4 64 17 is_stmt 1 view .LVU733
 2728              	.LBB598:
  64:../../../../DaisyExamples/DaisySP//Source/Control/adenv.h ****     /** Sets the length of time (in seconds) for a specific segment. */
 2729              		.loc 4 64 29 view .LVU734
  64:../../../../DaisyExamples/DaisySP//Source/Control/adenv.h ****     /** Sets the length of time (in seconds) for a specific segment. */
 2730              		.loc 4 64 38 is_stmt 0 view .LVU735
 2731 0002 80F8CC30 		strb	r3, [r0, #204]
 2732              	.LVL176:
  64:../../../../DaisyExamples/DaisySP//Source/Control/adenv.h ****     /** Sets the length of time (in seconds) for a specific segment. */
 2733              		.loc 4 64 38 view .LVU736
 2734              	.LBE598:
 2735              	.LBE596:
 179:voice.cpp     **** }
 2736              		.loc 2 179 5 is_stmt 1 view .LVU737
 2737              	.LBB599:
 2738              	.LBI599:
  64:../../../../DaisyExamples/DaisySP//Source/Control/adenv.h ****     /** Sets the length of time (in seconds) for a specific segment. */
ARM GAS  C:\Users\samue\AppData\Local\Temp\cc7BohBx.s 			page 74


 2739              		.loc 4 64 17 view .LVU738
 2740              	.LBB600:
  64:../../../../DaisyExamples/DaisySP//Source/Control/adenv.h ****     /** Sets the length of time (in seconds) for a specific segment. */
 2741              		.loc 4 64 29 view .LVU739
  64:../../../../DaisyExamples/DaisySP//Source/Control/adenv.h ****     /** Sets the length of time (in seconds) for a specific segment. */
 2742              		.loc 4 64 38 is_stmt 0 view .LVU740
 2743 0006 80F80431 		strb	r3, [r0, #260]
 2744              	.LVL177:
  64:../../../../DaisyExamples/DaisySP//Source/Control/adenv.h ****     /** Sets the length of time (in seconds) for a specific segment. */
 2745              		.loc 4 64 38 view .LVU741
 2746              	.LBE600:
 2747              	.LBE599:
 180:voice.cpp     **** 
 2748              		.loc 2 180 1 view .LVU742
 2749 000a 7047     		bx	lr
 2750              		.cfi_endproc
 2751              	.LFE3533:
 2753              		.section	.text._ZN5voice15set_effect_modeEh,"ax",%progbits
 2754              		.align	1
 2755              		.p2align 2,,3
 2756              		.global	_ZN5voice15set_effect_modeEh
 2757              		.syntax unified
 2758              		.thumb
 2759              		.thumb_func
 2760              		.fpu fpv5-d16
 2762              	_ZN5voice15set_effect_modeEh:
 2763              	.LVL178:
 2764              	.LFB3534:
 183:voice.cpp     ****     effect_ = mode;
 2765              		.loc 2 183 1 is_stmt 1 view -0
 2766              		.cfi_startproc
 2767              		@ args = 0, pretend = 0, frame = 0
 2768              		@ frame_needed = 0, uses_anonymous_args = 0
 2769              		@ link register save eliminated.
 184:voice.cpp     **** }
 2770              		.loc 2 184 5 view .LVU744
 184:voice.cpp     **** }
 2771              		.loc 2 184 13 is_stmt 0 view .LVU745
 2772 0000 80F85011 		strb	r1, [r0, #336]
 185:voice.cpp     **** 
 2773              		.loc 2 185 1 view .LVU746
 2774 0004 7047     		bx	lr
 2775              		.cfi_endproc
 2776              	.LFE3534:
 2778 0006 00BF     		.section	.text._ZN5voice19set_freq_env_attackEf,"ax",%progbits
 2779              		.align	1
 2780              		.p2align 2,,3
 2781              		.global	_ZN5voice19set_freq_env_attackEf
 2782              		.syntax unified
 2783              		.thumb
 2784              		.thumb_func
 2785              		.fpu fpv5-d16
 2787              	_ZN5voice19set_freq_env_attackEf:
 2788              	.LVL179:
 2789              	.LFB3535:
 188:voice.cpp     ****     freq_env_.SetTime(ADENV_SEG_ATTACK, time);
 2790              		.loc 2 188 1 is_stmt 1 view -0
ARM GAS  C:\Users\samue\AppData\Local\Temp\cc7BohBx.s 			page 75


 2791              		.cfi_startproc
 2792              		@ args = 0, pretend = 0, frame = 0
 2793              		@ frame_needed = 0, uses_anonymous_args = 0
 2794              		@ link register save eliminated.
 189:voice.cpp     **** }
 2795              		.loc 2 189 5 view .LVU748
 2796              	.LBB601:
 2797              	.LBI601:
  66:../../../../DaisyExamples/DaisySP//Source/Control/adenv.h ****     /** Sets the amount of curve applied. A positve value will create a log
 2798              		.loc 4 66 17 view .LVU749
 2799              	.LBB602:
  66:../../../../DaisyExamples/DaisySP//Source/Control/adenv.h ****     /** Sets the amount of curve applied. A positve value will create a log
 2800              		.loc 4 66 52 view .LVU750
  66:../../../../DaisyExamples/DaisySP//Source/Control/adenv.h ****     /** Sets the amount of curve applied. A positve value will create a log
 2801              		.loc 4 66 71 is_stmt 0 view .LVU751
 2802 0000 80ED360A 		vstr.32	s0, [r0, #216]
 2803              	.LVL180:
  66:../../../../DaisyExamples/DaisySP//Source/Control/adenv.h ****     /** Sets the amount of curve applied. A positve value will create a log
 2804              		.loc 4 66 71 view .LVU752
 2805              	.LBE602:
 2806              	.LBE601:
 190:voice.cpp     **** 
 2807              		.loc 2 190 1 view .LVU753
 2808 0004 7047     		bx	lr
 2809              		.cfi_endproc
 2810              	.LFE3535:
 2812 0006 00BF     		.section	.text._ZN5voice18set_freq_env_decayEf,"ax",%progbits
 2813              		.align	1
 2814              		.p2align 2,,3
 2815              		.global	_ZN5voice18set_freq_env_decayEf
 2816              		.syntax unified
 2817              		.thumb
 2818              		.thumb_func
 2819              		.fpu fpv5-d16
 2821              	_ZN5voice18set_freq_env_decayEf:
 2822              	.LVL181:
 2823              	.LFB3536:
 193:voice.cpp     ****     time = time / 5.0f;
 2824              		.loc 2 193 1 is_stmt 1 view -0
 2825              		.cfi_startproc
 2826              		@ args = 0, pretend = 0, frame = 0
 2827              		@ frame_needed = 0, uses_anonymous_args = 0
 2828              		@ link register save eliminated.
 194:voice.cpp     ****     freq_env_.SetTime(ADENV_SEG_DECAY, time);
 2829              		.loc 2 194 5 view .LVU755
 194:voice.cpp     ****     freq_env_.SetTime(ADENV_SEG_DECAY, time);
 2830              		.loc 2 194 10 is_stmt 0 view .LVU756
 2831 0000 B1EE047A 		vmov.f32	s14, #5.0e+0
 2832              	.LVL182:
 2833              		.loc 2 195 5 is_stmt 1 view .LVU757
 2834              	.LBB603:
 2835              	.LBI603:
  66:../../../../DaisyExamples/DaisySP//Source/Control/adenv.h ****     /** Sets the amount of curve applied. A positve value will create a log
 2836              		.loc 4 66 17 view .LVU758
 2837              	.LBB604:
  66:../../../../DaisyExamples/DaisySP//Source/Control/adenv.h ****     /** Sets the amount of curve applied. A positve value will create a log
 2838              		.loc 4 66 52 view .LVU759
ARM GAS  C:\Users\samue\AppData\Local\Temp\cc7BohBx.s 			page 76


 2839              	.LBE604:
 2840              	.LBE603:
 194:voice.cpp     ****     freq_env_.SetTime(ADENV_SEG_DECAY, time);
 2841              		.loc 2 194 10 is_stmt 0 view .LVU760
 2842 0004 C0EE077A 		vdiv.f32	s15, s0, s14
 2843              	.LVL183:
 2844              	.LBB606:
 2845              	.LBB605:
  66:../../../../DaisyExamples/DaisySP//Source/Control/adenv.h ****     /** Sets the amount of curve applied. A positve value will create a log
 2846              		.loc 4 66 71 view .LVU761
 2847 0008 C0ED377A 		vstr.32	s15, [r0, #220]
 2848              	.LVL184:
  66:../../../../DaisyExamples/DaisySP//Source/Control/adenv.h ****     /** Sets the amount of curve applied. A positve value will create a log
 2849              		.loc 4 66 71 view .LVU762
 2850              	.LBE605:
 2851              	.LBE606:
 196:voice.cpp     **** }
 2852              		.loc 2 196 1 view .LVU763
 2853 000c 7047     		bx	lr
 2854              		.cfi_endproc
 2855              	.LFE3536:
 2857 000e 00BF     		.section	.text._ZN5voice10set_impactEf,"ax",%progbits
 2858              		.align	1
 2859              		.p2align 2,,3
 2860              		.global	_ZN5voice10set_impactEf
 2861              		.syntax unified
 2862              		.thumb
 2863              		.thumb_func
 2864              		.fpu fpv5-d16
 2866              	_ZN5voice10set_impactEf:
 2867              	.LVL185:
 2868              	.LFB3537:
 197:voice.cpp     **** 
 198:voice.cpp     **** void voice::set_impact(float impact)
 199:voice.cpp     **** {
 2869              		.loc 2 199 1 is_stmt 1 view -0
 2870              		.cfi_startproc
 2871              		@ args = 0, pretend = 0, frame = 0
 2872              		@ frame_needed = 0, uses_anonymous_args = 0
 2873              		@ link register save eliminated.
 200:voice.cpp     ****     freq_env_.SetMax(1.0f + 8.0f*impact);
 2874              		.loc 2 200 5 view .LVU765
 2875              		.loc 2 200 21 is_stmt 0 view .LVU766
 2876 0000 B2EE007A 		vmov.f32	s14, #8.0e+0
 2877 0004 F7EE007A 		vmov.f32	s15, #1.0e+0
 2878 0008 E0EE077A 		vfma.f32	s15, s0, s14
 2879              	.LVL186:
 2880              	.LBB607:
 2881              	.LBI607:
  75:../../../../DaisyExamples/DaisySP//Source/Control/adenv.h ****     /** Sets the maximum value of the envelope output.
  76:../../../../DaisyExamples/DaisySP//Source/Control/adenv.h ****         Input range: -FLTmax_, to FLTmax_
  77:../../../../DaisyExamples/DaisySP//Source/Control/adenv.h ****     */
  78:../../../../DaisyExamples/DaisySP//Source/Control/adenv.h ****     inline void SetMax(float max) { max_ = max; }
 2882              		.loc 4 78 17 is_stmt 1 view .LVU767
 2883              	.LBB608:
 2884              		.loc 4 78 37 view .LVU768
 2885              		.loc 4 78 42 is_stmt 0 view .LVU769
ARM GAS  C:\Users\samue\AppData\Local\Temp\cc7BohBx.s 			page 77


 2886 000c C0ED3A7A 		vstr.32	s15, [r0, #232]
 2887              	.LVL187:
 2888              		.loc 4 78 42 view .LVU770
 2889              	.LBE608:
 2890              	.LBE607:
 201:voice.cpp     **** }...
 2891              		.loc 2 201 1 view .LVU771
 2892 0010 7047     		bx	lr
 2893              		.cfi_endproc
 2894              	.LFE3537:
 2896 0012 00BF     		.text
 2897              	.Letext0:
 2898              		.file 8 "c:\\program files\\daisytoolchain\\arm-none-eabi\\include\\machine\\_default_types.h"
 2899              		.file 9 "c:\\program files\\daisytoolchain\\arm-none-eabi\\include\\sys\\_stdint.h"
 2900              		.file 10 "c:\\program files\\daisytoolchain\\arm-none-eabi\\include\\stdint.h"
 2901              		.file 11 "c:\\program files\\daisytoolchain\\lib\\gcc\\arm-none-eabi\\10.2.1\\include\\stddef.h"
 2902              		.file 12 "c:\\program files\\daisytoolchain\\arm-none-eabi\\include\\c++\\10.2.1\\cmath"
 2903              		.file 13 "c:\\program files\\daisytoolchain\\arm-none-eabi\\include\\c++\\10.2.1\\bits\\std_abs.h"
 2904              		.file 14 "c:\\program files\\daisytoolchain\\arm-none-eabi\\include\\c++\\10.2.1\\cstdint"
 2905              		.file 15 "c:\\program files\\daisytoolchain\\arm-none-eabi\\include\\c++\\10.2.1\\cstdlib"
 2906              		.file 16 "c:\\program files\\daisytoolchain\\arm-none-eabi\\include\\c++\\10.2.1\\type_traits"
 2907              		.file 17 "c:\\program files\\daisytoolchain\\arm-none-eabi\\include\\c++\\10.2.1\\debug\\debug.h"
 2908              		.file 18 "c:\\program files\\daisytoolchain\\arm-none-eabi\\include\\c++\\10.2.1\\cwchar"
 2909              		.file 19 "c:\\program files\\daisytoolchain\\arm-none-eabi\\include\\c++\\10.2.1\\bits\\stl_pair.h
 2910              		.file 20 "c:\\program files\\daisytoolchain\\arm-none-eabi\\include\\c++\\10.2.1\\bits\\exception_
 2911              		.file 21 "c:\\program files\\daisytoolchain\\arm-none-eabi\\include\\c++\\10.2.1\\arm-none-eabi\\t
 2912              		.file 22 "c:\\program files\\daisytoolchain\\arm-none-eabi\\include\\c++\\10.2.1\\clocale"
 2913              		.file 23 "c:\\program files\\daisytoolchain\\arm-none-eabi\\include\\c++\\10.2.1\\cstdio"
 2914              		.file 24 "c:\\program files\\daisytoolchain\\arm-none-eabi\\include\\c++\\10.2.1\\bits\\basic_stri
 2915              		.file 25 "c:\\program files\\daisytoolchain\\arm-none-eabi\\include\\c++\\10.2.1\\bits\\charconv.h
 2916              		.file 26 "c:\\program files\\daisytoolchain\\arm-none-eabi\\include\\c++\\10.2.1\\bits\\algorithmf
 2917              		.file 27 "c:\\program files\\daisytoolchain\\arm-none-eabi\\include\\c++\\10.2.1\\cstring"
 2918              		.file 28 "c:\\program files\\daisytoolchain\\arm-none-eabi\\include\\c++\\10.2.1\\bits\\move.h"
 2919              		.file 29 "c:\\program files\\daisytoolchain\\arm-none-eabi\\include\\c++\\10.2.1\\bits\\predefined
 2920              		.file 30 "c:\\program files\\daisytoolchain\\arm-none-eabi\\include\\sys\\_types.h"
 2921              		.file 31 "c:\\program files\\daisytoolchain\\arm-none-eabi\\include\\sys\\reent.h"
 2922              		.file 32 "c:\\program files\\daisytoolchain\\arm-none-eabi\\include\\sys\\lock.h"
 2923              		.file 33 "c:\\program files\\daisytoolchain\\arm-none-eabi\\include\\math.h"
 2924              		.file 34 "c:\\program files\\daisytoolchain\\arm-none-eabi\\include\\stdlib.h"
 2925              		.file 35 "c:\\program files\\daisytoolchain\\arm-none-eabi\\include\\c++\\10.2.1\\math.h"
 2926              		.file 36 "../../../../DaisyExamples/DaisySP//Source/Synthesis/fm2.h"
 2927              		.file 37 "c:\\program files\\daisytoolchain\\lib\\gcc\\arm-none-eabi\\10.2.1\\include\\stdarg.h"
 2928              		.file 38 "c:\\program files\\daisytoolchain\\arm-none-eabi\\include\\wchar.h"
 2929              		.file 39 "c:\\program files\\daisytoolchain\\arm-none-eabi\\include\\locale.h"
 2930              		.file 40 "c:\\program files\\daisytoolchain\\arm-none-eabi\\include\\stdio.h"
 2931              		.file 41 "c:\\program files\\daisytoolchain\\arm-none-eabi\\include\\c++\\10.2.1\\stdlib.h"
 2932              		.file 42 "c:\\program files\\daisytoolchain\\arm-none-eabi\\include\\string.h"
 2933              		.file 43 "voice.h"
 2934              		.file 44 "c:\\program files\\daisytoolchain\\arm-none-eabi\\include\\assert.h"
 2935              		.file 45 "<built-in>"
ARM GAS  C:\Users\samue\AppData\Local\Temp\cc7BohBx.s 			page 78


DEFINED SYMBOLS
                            *ABS*:00000000 voice.cpp
C:\Users\samue\AppData\Local\Temp\cc7BohBx.s:17     .rodata._ZN7daisysp9FIRMemoryILj0ELj0EE5ResetEv.part.0.str1.4:00000000 $d
C:\Users\samue\AppData\Local\Temp\cc7BohBx.s:28     .text._ZN7daisysp9FIRMemoryILj0ELj0EE5ResetEv.part.0:00000000 $t
C:\Users\samue\AppData\Local\Temp\cc7BohBx.s:36     .text._ZN7daisysp9FIRMemoryILj0ELj0EE5ResetEv.part.0:00000000 _ZN7daisysp9FIRMemoryILj0ELj0EE5ResetEv.part.0
C:\Users\samue\AppData\Local\Temp\cc7BohBx.s:60     .text._ZN7daisysp9FIRMemoryILj0ELj0EE5ResetEv.part.0:00000010 $d
C:\Users\samue\AppData\Local\Temp\cc7BohBx.s:67     .rodata._ZN7daisysp9FIRMemoryILj0ELj0EE8SetCoefsEPKfjb.part.0.str1.4:00000000 $d
C:\Users\samue\AppData\Local\Temp\cc7BohBx.s:75     .text._ZN7daisysp9FIRMemoryILj0ELj0EE8SetCoefsEPKfjb.part.0:00000000 $t
C:\Users\samue\AppData\Local\Temp\cc7BohBx.s:82     .text._ZN7daisysp9FIRMemoryILj0ELj0EE8SetCoefsEPKfjb.part.0:00000000 _ZN7daisysp9FIRMemoryILj0ELj0EE8SetCoefsEPKfjb.part.0
C:\Users\samue\AppData\Local\Temp\cc7BohBx.s:105    .text._ZN7daisysp9FIRMemoryILj0ELj0EE8SetCoefsEPKfjb.part.0:00000010 $d
C:\Users\samue\AppData\Local\Temp\cc7BohBx.s:112    .rodata._ZN7daisysp20FIRFilterImplGenericILj0ELj0EE7ProcessEf.part.0.str1.4:00000000 $d
C:\Users\samue\AppData\Local\Temp\cc7BohBx.s:121    .text._ZN7daisysp20FIRFilterImplGenericILj0ELj0EE7ProcessEf.part.0:00000000 $t
C:\Users\samue\AppData\Local\Temp\cc7BohBx.s:128    .text._ZN7daisysp20FIRFilterImplGenericILj0ELj0EE7ProcessEf.part.0:00000000 _ZN7daisysp20FIRFilterImplGenericILj0ELj0EE7ProcessEf.part.0
C:\Users\samue\AppData\Local\Temp\cc7BohBx.s:151    .text._ZN7daisysp20FIRFilterImplGenericILj0ELj0EE7ProcessEf.part.0:00000010 $d
C:\Users\samue\AppData\Local\Temp\cc7BohBx.s:158    .text._ZN5voice4InitEf:00000000 $t
C:\Users\samue\AppData\Local\Temp\cc7BohBx.s:166    .text._ZN5voice4InitEf:00000000 _ZN5voice4InitEf
C:\Users\samue\AppData\Local\Temp\cc7BohBx.s:690    .text._ZN5voice4InitEf:00000100 $d
C:\Users\samue\AppData\Local\Temp\cc7BohBx.s:697    .text._ZN5voice13set_noise_mixEf:00000000 $t
C:\Users\samue\AppData\Local\Temp\cc7BohBx.s:705    .text._ZN5voice13set_noise_mixEf:00000000 _ZN5voice13set_noise_mixEf
C:\Users\samue\AppData\Local\Temp\cc7BohBx.s:786    .text._ZN5voice13set_noise_mixEf:0000002c $d
C:\Users\samue\AppData\Local\Temp\cc7BohBx.s:791    .text._ZN5voice8set_freqEf:00000000 $t
C:\Users\samue\AppData\Local\Temp\cc7BohBx.s:799    .text._ZN5voice8set_freqEf:00000000 _ZN5voice8set_freqEf
C:\Users\samue\AppData\Local\Temp\cc7BohBx.s:861    .text._ZN5voice8set_freqEf:00000034 $d
C:\Users\samue\AppData\Local\Temp\cc7BohBx.s:868    .text._ZN5voice14set_wave_shapeEh:00000000 $t
C:\Users\samue\AppData\Local\Temp\cc7BohBx.s:876    .text._ZN5voice14set_wave_shapeEh:00000000 _ZN5voice14set_wave_shapeEh
C:\Users\samue\AppData\Local\Temp\cc7BohBx.s:945    .text._ZN5voice14set_distortionEf:00000000 $t
C:\Users\samue\AppData\Local\Temp\cc7BohBx.s:953    .text._ZN5voice14set_distortionEf:00000000 _ZN5voice14set_distortionEf
C:\Users\samue\AppData\Local\Temp\cc7BohBx.s:1012   .text._ZN5voice14set_distortionEf:00000024 $d
C:\Users\samue\AppData\Local\Temp\cc7BohBx.s:1018   .text._ZN5voice8set_foldEf:00000000 $t
C:\Users\samue\AppData\Local\Temp\cc7BohBx.s:1026   .text._ZN5voice8set_foldEf:00000000 _ZN5voice8set_foldEf
C:\Users\samue\AppData\Local\Temp\cc7BohBx.s:1118   .text._ZN5voice8set_foldEf:00000024 $d
C:\Users\samue\AppData\Local\Temp\cc7BohBx.s:1124   .text._ZN5voice16set_effect_valueEf:00000000 $t
C:\Users\samue\AppData\Local\Temp\cc7BohBx.s:1132   .text._ZN5voice16set_effect_valueEf:00000000 _ZN5voice16set_effect_valueEf
C:\Users\samue\AppData\Local\Temp\cc7BohBx.s:1295   .text._ZN5voice16set_effect_valueEf:00000050 $d
C:\Users\samue\AppData\Local\Temp\cc7BohBx.s:1303   .text._ZN5voice12process_drumEf:00000000 $t
C:\Users\samue\AppData\Local\Temp\cc7BohBx.s:1311   .text._ZN5voice12process_drumEf:00000000 _ZN5voice12process_drumEf
C:\Users\samue\AppData\Local\Temp\cc7BohBx.s:1833   .text._ZN5voice12process_drumEf:00000258 $d
C:\Users\samue\AppData\Local\Temp\cc7BohBx.s:1844   .text._ZN5voice13process_noiseEf:00000000 $t
C:\Users\samue\AppData\Local\Temp\cc7BohBx.s:1852   .text._ZN5voice13process_noiseEf:00000000 _ZN5voice13process_noiseEf
C:\Users\samue\AppData\Local\Temp\cc7BohBx.s:2092   .text._ZN5voice13process_noiseEf:000000dc $d
C:\Users\samue\AppData\Local\Temp\cc7BohBx.s:2097   .text._ZN5voice7ProcessEv:00000000 $t
C:\Users\samue\AppData\Local\Temp\cc7BohBx.s:2105   .text._ZN5voice7ProcessEv:00000000 _ZN5voice7ProcessEv
C:\Users\samue\AppData\Local\Temp\cc7BohBx.s:2162   .text._ZN5voice14set_noise_modeEh:00000000 $t
C:\Users\samue\AppData\Local\Temp\cc7BohBx.s:2170   .text._ZN5voice14set_noise_modeEh:00000000 _ZN5voice14set_noise_modeEh
C:\Users\samue\AppData\Local\Temp\cc7BohBx.s:2187   .text._ZN5voice18set_noise_effect_1Ef:00000000 $t
C:\Users\samue\AppData\Local\Temp\cc7BohBx.s:2195   .text._ZN5voice18set_noise_effect_1Ef:00000000 _ZN5voice18set_noise_effect_1Ef
C:\Users\samue\AppData\Local\Temp\cc7BohBx.s:2282   .text._ZN5voice18set_noise_effect_1Ef:00000048 $d
C:\Users\samue\AppData\Local\Temp\cc7BohBx.s:2289   .text._ZN5voice18set_noise_effect_2Ef:00000000 $t
C:\Users\samue\AppData\Local\Temp\cc7BohBx.s:2297   .text._ZN5voice18set_noise_effect_2Ef:00000000 _ZN5voice18set_noise_effect_2Ef
C:\Users\samue\AppData\Local\Temp\cc7BohBx.s:2397   .text._ZN5voice18set_noise_effect_2Ef:00000030 $d
C:\Users\samue\AppData\Local\Temp\cc7BohBx.s:2404   .text._ZN5voice18set_amp_env_attackEf:00000000 $t
C:\Users\samue\AppData\Local\Temp\cc7BohBx.s:2412   .text._ZN5voice18set_amp_env_attackEf:00000000 _ZN5voice18set_amp_env_attackEf
C:\Users\samue\AppData\Local\Temp\cc7BohBx.s:2533   .text._ZN5voice18set_amp_env_attackEf:00000028 $d
C:\Users\samue\AppData\Local\Temp\cc7BohBx.s:2539   .text._ZN5voice17set_amp_env_decayEf:00000000 $t
C:\Users\samue\AppData\Local\Temp\cc7BohBx.s:2547   .text._ZN5voice17set_amp_env_decayEf:00000000 _ZN5voice17set_amp_env_decayEf
C:\Users\samue\AppData\Local\Temp\cc7BohBx.s:2696   .text._ZN5voice17set_amp_env_decayEf:00000030 $d
C:\Users\samue\AppData\Local\Temp\cc7BohBx.s:2702   .text._ZN5voice11env_triggerEv:00000000 $t
ARM GAS  C:\Users\samue\AppData\Local\Temp\cc7BohBx.s 			page 79


C:\Users\samue\AppData\Local\Temp\cc7BohBx.s:2710   .text._ZN5voice11env_triggerEv:00000000 _ZN5voice11env_triggerEv
C:\Users\samue\AppData\Local\Temp\cc7BohBx.s:2754   .text._ZN5voice15set_effect_modeEh:00000000 $t
C:\Users\samue\AppData\Local\Temp\cc7BohBx.s:2762   .text._ZN5voice15set_effect_modeEh:00000000 _ZN5voice15set_effect_modeEh
C:\Users\samue\AppData\Local\Temp\cc7BohBx.s:2779   .text._ZN5voice19set_freq_env_attackEf:00000000 $t
C:\Users\samue\AppData\Local\Temp\cc7BohBx.s:2787   .text._ZN5voice19set_freq_env_attackEf:00000000 _ZN5voice19set_freq_env_attackEf
C:\Users\samue\AppData\Local\Temp\cc7BohBx.s:2813   .text._ZN5voice18set_freq_env_decayEf:00000000 $t
C:\Users\samue\AppData\Local\Temp\cc7BohBx.s:2821   .text._ZN5voice18set_freq_env_decayEf:00000000 _ZN5voice18set_freq_env_decayEf
C:\Users\samue\AppData\Local\Temp\cc7BohBx.s:2858   .text._ZN5voice10set_impactEf:00000000 $t
C:\Users\samue\AppData\Local\Temp\cc7BohBx.s:2866   .text._ZN5voice10set_impactEf:00000000 _ZN5voice10set_impactEf

UNDEFINED SYMBOLS
__assert_func
_ZN7daisysp10Oscillator12CalcPhaseIncEf
_ZN7daisysp5AdEnv4InitEf
memset
_ZN7daisysp3Fm24InitEf
_ZN7daisysp3Fm28SetRatioEf
powf
expf
_ZN7daisysp5AdEnv7ProcessEv
_ZN7daisysp10Oscillator7ProcessEv
memmove
tanhf
sinf
_ZN7daisysp3Fm28SetIndexEf
_ZN7daisysp3Fm27ProcessEv
_ZN7daisysp3Fm212SetFrequencyEf
