ARM GAS  C:\Users\samue\AppData\Local\Temp\ccTlvsL9.s 			page 1


   1              		.cpu cortex-m7
   2              		.eabi_attribute 28, 1
   3              		.eabi_attribute 20, 1
   4              		.eabi_attribute 21, 1
   5              		.eabi_attribute 23, 3
   6              		.eabi_attribute 24, 1
   7              		.eabi_attribute 25, 1
   8              		.eabi_attribute 26, 1
   9              		.eabi_attribute 30, 2
  10              		.eabi_attribute 34, 1
  11              		.eabi_attribute 18, 4
  12              		.file	"voice.cpp"
  13              		.text
  14              	.Ltext0:
  15              		.cfi_sections	.debug_frame
  16              		.section	.rodata._ZN7daisysp9FIRMemoryILj0ELj0EE5ResetEv.part.0.str1.4,"aMS",%progbits,1
  17              		.align	2
  18              	.LC0:
  19 0000 3020213D 		.ascii	"0 != state_size_\000"
  19      20737461 
  19      74655F73 
  19      697A655F 
  19      00
  20 0011 000000   		.align	2
  21              	.LC1:
  22 0014 766F6964 		.ascii	"void daisysp::FIRMemory<0, 0>::Reset()\000"
  22      20646169 
  22      73797370 
  22      3A3A4649 
  22      524D656D 
  23 003b 00       		.align	2
  24              	.LC2:
  25 003c 2E2E2F2E 		.ascii	"../../../../DaisyExamples/DaisySP//Source/Filters/f"
  25      2E2F2E2E 
  25      2F2E2E2F 
  25      44616973 
  25      79457861 
  26 006f 69722E68 		.ascii	"ir.h\000"
  26      00
  27              		.section	.text._ZN7daisysp9FIRMemoryILj0ELj0EE5ResetEv.part.0,"ax",%progbits
  28              		.align	1
  29              		.p2align 2,,3
  30              		.arch armv7e-m
  31              		.syntax unified
  32              		.thumb
  33              		.thumb_func
  34              		.fpu fpv5-d16
  36              	_ZN7daisysp9FIRMemoryILj0ELj0EE5ResetEv.part.0:
  37              	.LFB4087:
  38              		.file 1 "../../../../DaisyExamples/DaisySP//Source/Filters/fir.h"
   1:../../../../DaisyExamples/DaisySP//Source/Filters/fir.h **** /*
   2:../../../../DaisyExamples/DaisySP//Source/Filters/fir.h **** Copyright (c) 2020 Electrosmith, Corp, Alexander Petrov-Savchenko
   3:../../../../DaisyExamples/DaisySP//Source/Filters/fir.h **** 
   4:../../../../DaisyExamples/DaisySP//Source/Filters/fir.h **** Use of this source code is governed by an MIT-style
   5:../../../../DaisyExamples/DaisySP//Source/Filters/fir.h **** license that can be found in the LICENSE file or at
   6:../../../../DaisyExamples/DaisySP//Source/Filters/fir.h **** https://opensource.org/licenses/MIT.
   7:../../../../DaisyExamples/DaisySP//Source/Filters/fir.h **** */
ARM GAS  C:\Users\samue\AppData\Local\Temp\ccTlvsL9.s 			page 2


   8:../../../../DaisyExamples/DaisySP//Source/Filters/fir.h **** 
   9:../../../../DaisyExamples/DaisySP//Source/Filters/fir.h **** #pragma once
  10:../../../../DaisyExamples/DaisySP//Source/Filters/fir.h **** #ifndef DSY_FIRFILTER_H
  11:../../../../DaisyExamples/DaisySP//Source/Filters/fir.h **** #define DSY_FIRFILTER_H
  12:../../../../DaisyExamples/DaisySP//Source/Filters/fir.h **** 
  13:../../../../DaisyExamples/DaisySP//Source/Filters/fir.h **** #include <cstdint>
  14:../../../../DaisyExamples/DaisySP//Source/Filters/fir.h **** #include <cstring> // for memset
  15:../../../../DaisyExamples/DaisySP//Source/Filters/fir.h **** #include <cassert>
  16:../../../../DaisyExamples/DaisySP//Source/Filters/fir.h **** #include <utility>
  17:../../../../DaisyExamples/DaisySP//Source/Filters/fir.h **** 
  18:../../../../DaisyExamples/DaisySP//Source/Filters/fir.h **** #ifdef USE_ARM_DSP
  19:../../../../DaisyExamples/DaisySP//Source/Filters/fir.h **** #include <arm_math.h> // required for platform-optimized version
  20:../../../../DaisyExamples/DaisySP//Source/Filters/fir.h **** #endif
  21:../../../../DaisyExamples/DaisySP//Source/Filters/fir.h **** 
  22:../../../../DaisyExamples/DaisySP//Source/Filters/fir.h **** /**   @brief FIR Filter implementation, generic and ARM CMSIS DSP based
  23:../../../../DaisyExamples/DaisySP//Source/Filters/fir.h ****  *    @author Alexander Petrov-Savchenko (axp@soft-amp.com)
  24:../../../../DaisyExamples/DaisySP//Source/Filters/fir.h ****  *    @date February 2021
  25:../../../../DaisyExamples/DaisySP//Source/Filters/fir.h ****  */
  26:../../../../DaisyExamples/DaisySP//Source/Filters/fir.h **** 
  27:../../../../DaisyExamples/DaisySP//Source/Filters/fir.h **** namespace daisysp
  28:../../../../DaisyExamples/DaisySP//Source/Filters/fir.h **** {
  29:../../../../DaisyExamples/DaisySP//Source/Filters/fir.h **** /* use this as a template parameter to indicate user-provided memory storage */
  30:../../../../DaisyExamples/DaisySP//Source/Filters/fir.h **** #define FIRFILTER_USER_MEMORY 0, 0
  31:../../../../DaisyExamples/DaisySP//Source/Filters/fir.h **** 
  32:../../../../DaisyExamples/DaisySP//Source/Filters/fir.h **** /** Helper class that defines the memory model - internal or user-provided 
  33:../../../../DaisyExamples/DaisySP//Source/Filters/fir.h ****  * \param max_size - maximal filter length
  34:../../../../DaisyExamples/DaisySP//Source/Filters/fir.h ****  * \param max_block - maximal length of the block processing
  35:../../../../DaisyExamples/DaisySP//Source/Filters/fir.h ****  * if both parameters are 0, does NOT allocate any memory and instead
  36:../../../../DaisyExamples/DaisySP//Source/Filters/fir.h ****  * requires user-provided memory blocks to be passed as parameters.
  37:../../../../DaisyExamples/DaisySP//Source/Filters/fir.h ****  *
  38:../../../../DaisyExamples/DaisySP//Source/Filters/fir.h ****  * Not intended to be used directly, so constructor is not exposed
  39:../../../../DaisyExamples/DaisySP//Source/Filters/fir.h ****  */
  40:../../../../DaisyExamples/DaisySP//Source/Filters/fir.h **** template <size_t max_size, size_t max_block>
  41:../../../../DaisyExamples/DaisySP//Source/Filters/fir.h **** struct FIRMemory
  42:../../../../DaisyExamples/DaisySP//Source/Filters/fir.h **** {
  43:../../../../DaisyExamples/DaisySP//Source/Filters/fir.h ****     /* Public part of the API to be passed through to the FIR users */
  44:../../../../DaisyExamples/DaisySP//Source/Filters/fir.h ****   public:
  45:../../../../DaisyExamples/DaisySP//Source/Filters/fir.h ****     /* Reset the internal filter state (but not the coefficients) */
  46:../../../../DaisyExamples/DaisySP//Source/Filters/fir.h ****     void Reset() { memset(state_, 0, state_size_ * sizeof(state_[0])); }
  47:../../../../DaisyExamples/DaisySP//Source/Filters/fir.h **** 
  48:../../../../DaisyExamples/DaisySP//Source/Filters/fir.h **** 
  49:../../../../DaisyExamples/DaisySP//Source/Filters/fir.h ****   protected:
  50:../../../../DaisyExamples/DaisySP//Source/Filters/fir.h ****     FIRMemory() : state_{0}, coefs_{0}, size_(0) {}
  51:../../../../DaisyExamples/DaisySP//Source/Filters/fir.h **** 
  52:../../../../DaisyExamples/DaisySP//Source/Filters/fir.h ****     /* Expression for the maximum block size */
  53:../../../../DaisyExamples/DaisySP//Source/Filters/fir.h ****     static constexpr size_t MaxBlock() { return max_block; }
  54:../../../../DaisyExamples/DaisySP//Source/Filters/fir.h **** 
  55:../../../../DaisyExamples/DaisySP//Source/Filters/fir.h ****     /** Configure the filter coefficients
  56:../../../../DaisyExamples/DaisySP//Source/Filters/fir.h ****      * \param coefs - pointer to coefficients (tail-first order)
  57:../../../../DaisyExamples/DaisySP//Source/Filters/fir.h ****      * \param size - number of coefficients pointed by coefs (filter length)
  58:../../../../DaisyExamples/DaisySP//Source/Filters/fir.h ****      * \param reverse - flag to perform reversing of the filter
  59:../../../../DaisyExamples/DaisySP//Source/Filters/fir.h ****      * \return true if all conditions are met and the filter is configured
  60:../../../../DaisyExamples/DaisySP//Source/Filters/fir.h ****      */
  61:../../../../DaisyExamples/DaisySP//Source/Filters/fir.h ****     bool SetCoefs(const float coefs[], size_t size, bool reverse)
  62:../../../../DaisyExamples/DaisySP//Source/Filters/fir.h ****     {
  63:../../../../DaisyExamples/DaisySP//Source/Filters/fir.h ****         /* truncate silently */
  64:../../../../DaisyExamples/DaisySP//Source/Filters/fir.h ****         size_ = DSY_MIN(size, max_size);
ARM GAS  C:\Users\samue\AppData\Local\Temp\ccTlvsL9.s 			page 3


  65:../../../../DaisyExamples/DaisySP//Source/Filters/fir.h **** 
  66:../../../../DaisyExamples/DaisySP//Source/Filters/fir.h ****         if(reverse)
  67:../../../../DaisyExamples/DaisySP//Source/Filters/fir.h ****         {
  68:../../../../DaisyExamples/DaisySP//Source/Filters/fir.h ****             /* reverse the IR */
  69:../../../../DaisyExamples/DaisySP//Source/Filters/fir.h ****             for(size_t i = 0; i < size_; i++)
  70:../../../../DaisyExamples/DaisySP//Source/Filters/fir.h ****             {
  71:../../../../DaisyExamples/DaisySP//Source/Filters/fir.h ****                 /* start from size, not size_! */
  72:../../../../DaisyExamples/DaisySP//Source/Filters/fir.h ****                 coefs_[i] = coefs[size - 1u - i];
  73:../../../../DaisyExamples/DaisySP//Source/Filters/fir.h ****             }
  74:../../../../DaisyExamples/DaisySP//Source/Filters/fir.h ****         }
  75:../../../../DaisyExamples/DaisySP//Source/Filters/fir.h ****         else
  76:../../../../DaisyExamples/DaisySP//Source/Filters/fir.h ****         {
  77:../../../../DaisyExamples/DaisySP//Source/Filters/fir.h ****             /* just copy as is */
  78:../../../../DaisyExamples/DaisySP//Source/Filters/fir.h ****             memcpy(coefs_, coefs, size_ * sizeof(coefs[0]));
  79:../../../../DaisyExamples/DaisySP//Source/Filters/fir.h ****         }
  80:../../../../DaisyExamples/DaisySP//Source/Filters/fir.h **** 
  81:../../../../DaisyExamples/DaisySP//Source/Filters/fir.h ****         return true;
  82:../../../../DaisyExamples/DaisySP//Source/Filters/fir.h ****     }
  83:../../../../DaisyExamples/DaisySP//Source/Filters/fir.h **** 
  84:../../../../DaisyExamples/DaisySP//Source/Filters/fir.h ****     static constexpr size_t state_size_ = max_size + max_block - 1u;
  85:../../../../DaisyExamples/DaisySP//Source/Filters/fir.h ****     float                   state_[state_size_]; /*< Internal state buffer */
  86:../../../../DaisyExamples/DaisySP//Source/Filters/fir.h ****     float                   coefs_[max_size];    /*< Filter coefficients */
  87:../../../../DaisyExamples/DaisySP//Source/Filters/fir.h ****     size_t                  size_; /*< Active filter length (<= max_size) */
  88:../../../../DaisyExamples/DaisySP//Source/Filters/fir.h **** };
  89:../../../../DaisyExamples/DaisySP//Source/Filters/fir.h **** 
  90:../../../../DaisyExamples/DaisySP//Source/Filters/fir.h **** /* Specialization for user-provided memory */
  91:../../../../DaisyExamples/DaisySP//Source/Filters/fir.h **** template <>
  92:../../../../DaisyExamples/DaisySP//Source/Filters/fir.h **** struct FIRMemory<FIRFILTER_USER_MEMORY>
  93:../../../../DaisyExamples/DaisySP//Source/Filters/fir.h **** {
  94:../../../../DaisyExamples/DaisySP//Source/Filters/fir.h ****     /* Public part of the API to be passed through to the FIRFilter user */
  95:../../../../DaisyExamples/DaisySP//Source/Filters/fir.h ****   public:
  96:../../../../DaisyExamples/DaisySP//Source/Filters/fir.h ****     /** Set user-provided state buffer
  97:../../../../DaisyExamples/DaisySP//Source/Filters/fir.h ****      * \param state - pointer to the allocated memory block
  98:../../../../DaisyExamples/DaisySP//Source/Filters/fir.h ****      * \param length - length of the provided memory block (in elements)
  99:../../../../DaisyExamples/DaisySP//Source/Filters/fir.h ****      * The length should be determined as follows 
 100:../../../../DaisyExamples/DaisySP//Source/Filters/fir.h ****      * length >= max_filter_size + max_processing_block - 1
 101:../../../../DaisyExamples/DaisySP//Source/Filters/fir.h ****      */
 102:../../../../DaisyExamples/DaisySP//Source/Filters/fir.h ****     void SetStateBuffer(float state[], size_t length)
 103:../../../../DaisyExamples/DaisySP//Source/Filters/fir.h ****     {
 104:../../../../DaisyExamples/DaisySP//Source/Filters/fir.h ****         state_      = state;
 105:../../../../DaisyExamples/DaisySP//Source/Filters/fir.h ****         state_size_ = length;
 106:../../../../DaisyExamples/DaisySP//Source/Filters/fir.h ****     }
 107:../../../../DaisyExamples/DaisySP//Source/Filters/fir.h ****     /* Reset the internal filter state (but not the coefficients) */
 108:../../../../DaisyExamples/DaisySP//Source/Filters/fir.h ****     void Reset()
  39              		.loc 1 108 10 view -0
  40              		.cfi_startproc
  41              		@ Volatile: function does not return.
  42              		@ args = 0, pretend = 0, frame = 0
  43              		@ frame_needed = 0, uses_anonymous_args = 0
  44              	.LVL0:
  45              		.loc 1 108 10 is_stmt 0 view .LVU1
  46 0000 08B5     		push	{r3, lr}
  47              		.cfi_def_cfa_offset 8
  48              		.cfi_offset 3, -8
  49              		.cfi_offset 14, -4
 109:../../../../DaisyExamples/DaisySP//Source/Filters/fir.h ****     {
 110:../../../../DaisyExamples/DaisySP//Source/Filters/fir.h ****         assert(nullptr != state_);
ARM GAS  C:\Users\samue\AppData\Local\Temp\ccTlvsL9.s 			page 4


 111:../../../../DaisyExamples/DaisySP//Source/Filters/fir.h ****         assert(0 != state_size_);
  50              		.loc 1 111 9 view .LVU2
  51 0002 034A     		ldr	r2, .L4
  52 0004 6F21     		movs	r1, #111
  53 0006 034B     		ldr	r3, .L4+4
  54 0008 0348     		ldr	r0, .L4+8
  55 000a FFF7FEFF 		bl	__assert_func
  56              	.LVL1:
  57              	.L5:
  58 000e 00BF     		.align	2
  59              	.L4:
  60 0010 14000000 		.word	.LC1
  61 0014 00000000 		.word	.LC0
  62 0018 3C000000 		.word	.LC2
  63              		.cfi_endproc
  64              	.LFE4087:
  66              		.section	.rodata._ZN7daisysp9FIRMemoryILj0ELj0EE8SetCoefsEPKfjb.part.0.str1.4,"aMS",%progbits,1
  67              		.align	2
  68              	.LC3:
  69 0000 6E756C6C 		.ascii	"nullptr != coefs || 0 == size\000"
  69      70747220 
  69      213D2063 
  69      6F656673 
  69      207C7C20 
  70 001e 0000     		.align	2
  71              	.LC4:
  72 0020 626F6F6C 		.ascii	"bool daisysp::FIRMemory<0, 0>::SetCoefs(const float"
  72      20646169 
  72      73797370 
  72      3A3A4649 
  72      524D656D 
  73 0053 2A2C2073 		.ascii	"*, size_t, bool)\000"
  73      697A655F 
  73      742C2062 
  73      6F6F6C29 
  73      00
  74              		.section	.text._ZN7daisysp9FIRMemoryILj0ELj0EE8SetCoefsEPKfjb.part.0,"ax",%progbits
  75              		.align	1
  76              		.p2align 2,,3
  77              		.syntax unified
  78              		.thumb
  79              		.thumb_func
  80              		.fpu fpv5-d16
  82              	_ZN7daisysp9FIRMemoryILj0ELj0EE8SetCoefsEPKfjb.part.0:
  83              	.LFB4088:
 112:../../../../DaisyExamples/DaisySP//Source/Filters/fir.h ****         if(nullptr != state_)
 113:../../../../DaisyExamples/DaisySP//Source/Filters/fir.h ****         {
 114:../../../../DaisyExamples/DaisySP//Source/Filters/fir.h ****             memset(state_, 0, state_size_ * sizeof(state_[0]));
 115:../../../../DaisyExamples/DaisySP//Source/Filters/fir.h ****         }
 116:../../../../DaisyExamples/DaisySP//Source/Filters/fir.h ****     }
 117:../../../../DaisyExamples/DaisySP//Source/Filters/fir.h **** 
 118:../../../../DaisyExamples/DaisySP//Source/Filters/fir.h ****   protected:
 119:../../../../DaisyExamples/DaisySP//Source/Filters/fir.h ****     FIRMemory() : state_(nullptr), coefs_(nullptr), size_(0), state_size_(0) {}
 120:../../../../DaisyExamples/DaisySP//Source/Filters/fir.h **** 
 121:../../../../DaisyExamples/DaisySP//Source/Filters/fir.h ****     /* Expression for the maximum processing block size currently supported */
 122:../../../../DaisyExamples/DaisySP//Source/Filters/fir.h ****     size_t MaxBlock() const
 123:../../../../DaisyExamples/DaisySP//Source/Filters/fir.h ****     {
ARM GAS  C:\Users\samue\AppData\Local\Temp\ccTlvsL9.s 			page 5


 124:../../../../DaisyExamples/DaisySP//Source/Filters/fir.h ****         return state_size_ + 1u > size_ ? state_size_ + 1u - size_ : 0;
 125:../../../../DaisyExamples/DaisySP//Source/Filters/fir.h ****     }
 126:../../../../DaisyExamples/DaisySP//Source/Filters/fir.h **** 
 127:../../../../DaisyExamples/DaisySP//Source/Filters/fir.h ****     /** Configure the filter coefficients
 128:../../../../DaisyExamples/DaisySP//Source/Filters/fir.h ****      * \param coefs - pointer to coefficients (tail-first order)
 129:../../../../DaisyExamples/DaisySP//Source/Filters/fir.h ****      * \param size - number of coefficients pointed by coefs (filter length)
 130:../../../../DaisyExamples/DaisySP//Source/Filters/fir.h ****      * \param reverse - flag to perform reversing of the filter
 131:../../../../DaisyExamples/DaisySP//Source/Filters/fir.h ****      * \return true if all conditions are met and the filter is configured
 132:../../../../DaisyExamples/DaisySP//Source/Filters/fir.h ****      */
 133:../../../../DaisyExamples/DaisySP//Source/Filters/fir.h ****     bool SetCoefs(const float coefs[], size_t size, bool reverse)
  84              		.loc 1 133 10 is_stmt 1 view -0
  85              		.cfi_startproc
  86              		@ Volatile: function does not return.
  87              		@ args = 0, pretend = 0, frame = 0
  88              		@ frame_needed = 0, uses_anonymous_args = 0
  89              	.LVL2:
  90              		.loc 1 133 10 is_stmt 0 view .LVU4
  91 0000 08B5     		push	{r3, lr}
  92              		.cfi_def_cfa_offset 8
  93              		.cfi_offset 3, -8
  94              		.cfi_offset 14, -4
 134:../../../../DaisyExamples/DaisySP//Source/Filters/fir.h ****     {
 135:../../../../DaisyExamples/DaisySP//Source/Filters/fir.h ****         /* reversing of external IR is not supported*/
 136:../../../../DaisyExamples/DaisySP//Source/Filters/fir.h ****         assert(false == reverse);
 137:../../../../DaisyExamples/DaisySP//Source/Filters/fir.h ****         assert(nullptr != coefs || 0 == size);
  95              		.loc 1 137 9 view .LVU5
  96 0002 034A     		ldr	r2, .L8
  97 0004 8921     		movs	r1, #137
  98 0006 034B     		ldr	r3, .L8+4
  99 0008 0348     		ldr	r0, .L8+8
 100 000a FFF7FEFF 		bl	__assert_func
 101              	.LVL3:
 102              	.L9:
 103 000e 00BF     		.align	2
 104              	.L8:
 105 0010 20000000 		.word	.LC4
 106 0014 00000000 		.word	.LC3
 107 0018 3C000000 		.word	.LC2
 108              		.cfi_endproc
 109              	.LFE4088:
 111              		.section	.rodata._ZN7daisysp20FIRFilterImplGenericILj0ELj0EE7ProcessEf.part.0.str1.4,"aMS",%progbi
 112              		.align	2
 113              	.LC5:
 114 0000 73697A65 		.ascii	"size_ > 0u\000"
 114      5F203E20 
 114      307500
 115 000b 00       		.align	2
 116              	.LC6:
 117 000c 666C6F61 		.ascii	"float daisysp::FIRFilterImplGeneric<max_size, max_b"
 117      74206461 
 117      69737973 
 117      703A3A46 
 117      49524669 
 118 003f 6C6F636B 		.ascii	"lock>::Process(float) [with unsigned int max_size ="
 118      3E3A3A50 
 118      726F6365 
 118      73732866 
ARM GAS  C:\Users\samue\AppData\Local\Temp\ccTlvsL9.s 			page 6


 118      6C6F6174 
 119 0072 20303B20 		.ascii	" 0; unsigned int max_block = 0]\000"
 119      756E7369 
 119      676E6564 
 119      20696E74 
 119      206D6178 
 120              		.section	.text._ZN7daisysp20FIRFilterImplGenericILj0ELj0EE7ProcessEf.part.0,"ax",%progbits
 121              		.align	1
 122              		.p2align 2,,3
 123              		.syntax unified
 124              		.thumb
 125              		.thumb_func
 126              		.fpu fpv5-d16
 128              	_ZN7daisysp20FIRFilterImplGenericILj0ELj0EE7ProcessEf.part.0:
 129              	.LFB4090:
 138:../../../../DaisyExamples/DaisySP//Source/Filters/fir.h **** 
 139:../../../../DaisyExamples/DaisySP//Source/Filters/fir.h ****         if(false == reverse && (nullptr != coefs || 0 == size))
 140:../../../../DaisyExamples/DaisySP//Source/Filters/fir.h ****         {
 141:../../../../DaisyExamples/DaisySP//Source/Filters/fir.h ****             coefs_ = coefs;
 142:../../../../DaisyExamples/DaisySP//Source/Filters/fir.h ****             size_  = size;
 143:../../../../DaisyExamples/DaisySP//Source/Filters/fir.h ****             return true;
 144:../../../../DaisyExamples/DaisySP//Source/Filters/fir.h ****         }
 145:../../../../DaisyExamples/DaisySP//Source/Filters/fir.h **** 
 146:../../../../DaisyExamples/DaisySP//Source/Filters/fir.h ****         return false;
 147:../../../../DaisyExamples/DaisySP//Source/Filters/fir.h ****     }
 148:../../../../DaisyExamples/DaisySP//Source/Filters/fir.h **** 
 149:../../../../DaisyExamples/DaisySP//Source/Filters/fir.h ****     /* Internal member variables */
 150:../../../../DaisyExamples/DaisySP//Source/Filters/fir.h **** 
 151:../../../../DaisyExamples/DaisySP//Source/Filters/fir.h ****     float*       state_;      /*< Internal state buffer */
 152:../../../../DaisyExamples/DaisySP//Source/Filters/fir.h ****     const float* coefs_;      /*< Filter coefficients */
 153:../../../../DaisyExamples/DaisySP//Source/Filters/fir.h ****     size_t       size_;       /*< number of filter coefficients */
 154:../../../../DaisyExamples/DaisySP//Source/Filters/fir.h ****     size_t       state_size_; /*< length of the state buffer */
 155:../../../../DaisyExamples/DaisySP//Source/Filters/fir.h **** };
 156:../../../../DaisyExamples/DaisySP//Source/Filters/fir.h **** 
 157:../../../../DaisyExamples/DaisySP//Source/Filters/fir.h **** 
 158:../../../../DaisyExamples/DaisySP//Source/Filters/fir.h **** /** Generic FIR implementation is always available
 159:../../../../DaisyExamples/DaisySP//Source/Filters/fir.h ****  * \param max_size - maximal filter length
 160:../../../../DaisyExamples/DaisySP//Source/Filters/fir.h ****  * \param max_block - maximal block size for ProcessBlock()
 161:../../../../DaisyExamples/DaisySP//Source/Filters/fir.h ****  * if both parameters are 0 (via FIRFILTER_USER_MEMORY macro)
 162:../../../../DaisyExamples/DaisySP//Source/Filters/fir.h ****  * Assumes the user will provide own memory buffers
 163:../../../../DaisyExamples/DaisySP//Source/Filters/fir.h ****  * via SetIR() and SetStateBuffer() functions
 164:../../../../DaisyExamples/DaisySP//Source/Filters/fir.h ****  * Otherwise statically allocates the necessary buffers itself
 165:../../../../DaisyExamples/DaisySP//Source/Filters/fir.h ****  */
 166:../../../../DaisyExamples/DaisySP//Source/Filters/fir.h **** template <size_t max_size, size_t max_block>
 167:../../../../DaisyExamples/DaisySP//Source/Filters/fir.h **** class FIRFilterImplGeneric : public FIRMemory<max_size, max_block>
 168:../../../../DaisyExamples/DaisySP//Source/Filters/fir.h **** {
 169:../../../../DaisyExamples/DaisySP//Source/Filters/fir.h ****   private:
 170:../../../../DaisyExamples/DaisySP//Source/Filters/fir.h ****     using FIRMem = FIRMemory<max_size, max_block>; // just a shorthand
 171:../../../../DaisyExamples/DaisySP//Source/Filters/fir.h **** 
 172:../../../../DaisyExamples/DaisySP//Source/Filters/fir.h ****   public:
 173:../../../../DaisyExamples/DaisySP//Source/Filters/fir.h ****     /* Default constructor */
 174:../../../../DaisyExamples/DaisySP//Source/Filters/fir.h ****     FIRFilterImplGeneric() {}
 175:../../../../DaisyExamples/DaisySP//Source/Filters/fir.h **** 
 176:../../../../DaisyExamples/DaisySP//Source/Filters/fir.h ****     /* Reset filter state (but not the coefficients) */
 177:../../../../DaisyExamples/DaisySP//Source/Filters/fir.h ****     using FIRMem::Reset;
 178:../../../../DaisyExamples/DaisySP//Source/Filters/fir.h **** 
 179:../../../../DaisyExamples/DaisySP//Source/Filters/fir.h ****     /* FIR Latency is always 0, but API is unified with FFT and fast convolution */
ARM GAS  C:\Users\samue\AppData\Local\Temp\ccTlvsL9.s 			page 7


 180:../../../../DaisyExamples/DaisySP//Source/Filters/fir.h ****     static constexpr size_t GetLatency() { return 0; }
 181:../../../../DaisyExamples/DaisySP//Source/Filters/fir.h **** 
 182:../../../../DaisyExamples/DaisySP//Source/Filters/fir.h ****     /* Process one sample at a time */
 183:../../../../DaisyExamples/DaisySP//Source/Filters/fir.h ****     float Process(float in)
 130              		.loc 1 183 11 is_stmt 1 view -0
 131              		.cfi_startproc
 132              		@ Volatile: function does not return.
 133              		@ args = 0, pretend = 0, frame = 0
 134              		@ frame_needed = 0, uses_anonymous_args = 0
 135              	.LVL4:
 136              		.loc 1 183 11 is_stmt 0 view .LVU7
 137 0000 08B5     		push	{r3, lr}
 138              		.cfi_def_cfa_offset 8
 139              		.cfi_offset 3, -8
 140              		.cfi_offset 14, -4
 184:../../../../DaisyExamples/DaisySP//Source/Filters/fir.h ****     {
 185:../../../../DaisyExamples/DaisySP//Source/Filters/fir.h ****         assert(size_ > 0u);
 141              		.loc 1 185 9 view .LVU8
 142 0002 034A     		ldr	r2, .L12
 143 0004 B921     		movs	r1, #185
 144 0006 034B     		ldr	r3, .L12+4
 145 0008 0348     		ldr	r0, .L12+8
 146 000a FFF7FEFF 		bl	__assert_func
 147              	.LVL5:
 148              	.L13:
 149 000e 00BF     		.align	2
 150              	.L12:
 151 0010 0C000000 		.word	.LC6
 152 0014 00000000 		.word	.LC5
 153 0018 3C000000 		.word	.LC2
 154              		.cfi_endproc
 155              	.LFE4090:
 157              		.section	.text._ZN5voice4InitEf,"ax",%progbits
 158              		.align	1
 159              		.p2align 2,,3
 160              		.global	_ZN5voice4InitEf
 161              		.syntax unified
 162              		.thumb
 163              		.thumb_func
 164              		.fpu fpv5-d16
 166              	_ZN5voice4InitEf:
 167              	.LVL6:
 168              	.LFB3515:
 169              		.file 2 "voice.cpp"
   1:voice.cpp     **** #include "voice.h"
   2:voice.cpp     **** 
   3:voice.cpp     **** void voice::Init(float fs)
   4:voice.cpp     **** {
 170              		.loc 2 4 1 is_stmt 1 view -0
 171              		.cfi_startproc
 172              		@ args = 0, pretend = 0, frame = 0
 173              		@ frame_needed = 0, uses_anonymous_args = 0
   5:voice.cpp     ****     osc_.Init(fs);
 174              		.loc 2 5 5 view .LVU10
   4:voice.cpp     ****     osc_.Init(fs);
 175              		.loc 2 4 1 is_stmt 0 view .LVU11
 176 0000 2DE9F041 		push	{r4, r5, r6, r7, r8, lr}
ARM GAS  C:\Users\samue\AppData\Local\Temp\ccTlvsL9.s 			page 8


 177              		.cfi_def_cfa_offset 24
 178              		.cfi_offset 4, -24
 179              		.cfi_offset 5, -20
 180              		.cfi_offset 6, -16
 181              		.cfi_offset 7, -12
 182              		.cfi_offset 8, -8
 183              		.cfi_offset 14, -4
 184 0004 2DED048B 		vpush.64	{d8, d9}
 185              		.cfi_def_cfa_offset 40
 186              		.cfi_offset 80, -40
 187              		.cfi_offset 81, -36
 188              		.cfi_offset 82, -32
 189              		.cfi_offset 83, -28
   4:voice.cpp     ****     osc_.Init(fs);
 190              		.loc 2 4 1 view .LVU12
 191 0008 B0EE408A 		vmov.f32	s16, s0
 192 000c 0446     		mov	r4, r0
 193              	.LVL7:
 194              	.LBB223:
 195              	.LBI223:
 196              		.file 3 "../../../../DaisyExamples/DaisySP//Source/Synthesis/oscillator.h"
   1:../../../../DaisyExamples/DaisySP//Source/Synthesis/oscillator.h **** /*
   2:../../../../DaisyExamples/DaisySP//Source/Synthesis/oscillator.h **** Copyright (c) 2020 Electrosmith, Corp
   3:../../../../DaisyExamples/DaisySP//Source/Synthesis/oscillator.h **** 
   4:../../../../DaisyExamples/DaisySP//Source/Synthesis/oscillator.h **** Use of this source code is governed by an MIT-style
   5:../../../../DaisyExamples/DaisySP//Source/Synthesis/oscillator.h **** license that can be found in the LICENSE file or at
   6:../../../../DaisyExamples/DaisySP//Source/Synthesis/oscillator.h **** https://opensource.org/licenses/MIT.
   7:../../../../DaisyExamples/DaisySP//Source/Synthesis/oscillator.h **** */
   8:../../../../DaisyExamples/DaisySP//Source/Synthesis/oscillator.h **** 
   9:../../../../DaisyExamples/DaisySP//Source/Synthesis/oscillator.h **** #pragma once
  10:../../../../DaisyExamples/DaisySP//Source/Synthesis/oscillator.h **** #ifndef DSY_OSCILLATOR_H
  11:../../../../DaisyExamples/DaisySP//Source/Synthesis/oscillator.h **** #define DSY_OSCILLATOR_H
  12:../../../../DaisyExamples/DaisySP//Source/Synthesis/oscillator.h **** #include <stdint.h>
  13:../../../../DaisyExamples/DaisySP//Source/Synthesis/oscillator.h **** #include "Utility/dsp.h"
  14:../../../../DaisyExamples/DaisySP//Source/Synthesis/oscillator.h **** #ifdef __cplusplus
  15:../../../../DaisyExamples/DaisySP//Source/Synthesis/oscillator.h **** 
  16:../../../../DaisyExamples/DaisySP//Source/Synthesis/oscillator.h **** namespace daisysp
  17:../../../../DaisyExamples/DaisySP//Source/Synthesis/oscillator.h **** {
  18:../../../../DaisyExamples/DaisySP//Source/Synthesis/oscillator.h **** /** Synthesis of several waveforms, including polyBLEP bandlimited waveforms.
  19:../../../../DaisyExamples/DaisySP//Source/Synthesis/oscillator.h **** */
  20:../../../../DaisyExamples/DaisySP//Source/Synthesis/oscillator.h **** class Oscillator
  21:../../../../DaisyExamples/DaisySP//Source/Synthesis/oscillator.h **** {
  22:../../../../DaisyExamples/DaisySP//Source/Synthesis/oscillator.h ****   public:
  23:../../../../DaisyExamples/DaisySP//Source/Synthesis/oscillator.h ****     Oscillator() {}
  24:../../../../DaisyExamples/DaisySP//Source/Synthesis/oscillator.h ****     ~Oscillator() {}
  25:../../../../DaisyExamples/DaisySP//Source/Synthesis/oscillator.h ****     /** Choices for output waveforms, POLYBLEP are appropriately labeled. Others are naive forms.
  26:../../../../DaisyExamples/DaisySP//Source/Synthesis/oscillator.h ****     */
  27:../../../../DaisyExamples/DaisySP//Source/Synthesis/oscillator.h ****     enum
  28:../../../../DaisyExamples/DaisySP//Source/Synthesis/oscillator.h ****     {
  29:../../../../DaisyExamples/DaisySP//Source/Synthesis/oscillator.h ****         WAVE_SIN,
  30:../../../../DaisyExamples/DaisySP//Source/Synthesis/oscillator.h ****         WAVE_TRI,
  31:../../../../DaisyExamples/DaisySP//Source/Synthesis/oscillator.h ****         WAVE_SAW,
  32:../../../../DaisyExamples/DaisySP//Source/Synthesis/oscillator.h ****         WAVE_RAMP,
  33:../../../../DaisyExamples/DaisySP//Source/Synthesis/oscillator.h ****         WAVE_SQUARE,
  34:../../../../DaisyExamples/DaisySP//Source/Synthesis/oscillator.h ****         WAVE_POLYBLEP_TRI,
  35:../../../../DaisyExamples/DaisySP//Source/Synthesis/oscillator.h ****         WAVE_POLYBLEP_SAW,
  36:../../../../DaisyExamples/DaisySP//Source/Synthesis/oscillator.h ****         WAVE_POLYBLEP_SQUARE,
ARM GAS  C:\Users\samue\AppData\Local\Temp\ccTlvsL9.s 			page 9


  37:../../../../DaisyExamples/DaisySP//Source/Synthesis/oscillator.h ****         WAVE_LAST,
  38:../../../../DaisyExamples/DaisySP//Source/Synthesis/oscillator.h ****     };
  39:../../../../DaisyExamples/DaisySP//Source/Synthesis/oscillator.h **** 
  40:../../../../DaisyExamples/DaisySP//Source/Synthesis/oscillator.h **** 
  41:../../../../DaisyExamples/DaisySP//Source/Synthesis/oscillator.h ****     /** Initializes the Oscillator
  42:../../../../DaisyExamples/DaisySP//Source/Synthesis/oscillator.h **** 
  43:../../../../DaisyExamples/DaisySP//Source/Synthesis/oscillator.h ****         \param sample_rate - sample rate of the audio engine being run, and the frequency that the 
  44:../../../../DaisyExamples/DaisySP//Source/Synthesis/oscillator.h **** 
  45:../../../../DaisyExamples/DaisySP//Source/Synthesis/oscillator.h ****         Defaults:
  46:../../../../DaisyExamples/DaisySP//Source/Synthesis/oscillator.h ****         - freq_ = 100 Hz
  47:../../../../DaisyExamples/DaisySP//Source/Synthesis/oscillator.h ****         - amp_ = 0.5
  48:../../../../DaisyExamples/DaisySP//Source/Synthesis/oscillator.h ****         - waveform_ = sine wave.
  49:../../../../DaisyExamples/DaisySP//Source/Synthesis/oscillator.h ****     */
  50:../../../../DaisyExamples/DaisySP//Source/Synthesis/oscillator.h ****     void Init(float sample_rate)
 197              		.loc 3 50 10 is_stmt 1 view .LVU13
 198              	.LBB224:
  51:../../../../DaisyExamples/DaisySP//Source/Synthesis/oscillator.h ****     {
  52:../../../../DaisyExamples/DaisySP//Source/Synthesis/oscillator.h ****         sr_        = sample_rate;
 199              		.loc 3 52 9 view .LVU14
  53:../../../../DaisyExamples/DaisySP//Source/Synthesis/oscillator.h ****         sr_recip_  = 1.0f / sample_rate;
 200              		.loc 3 53 27 is_stmt 0 view .LVU15
 201 000e B7EE009A 		vmov.f32	s18, #1.0e+0
  54:../../../../DaisyExamples/DaisySP//Source/Synthesis/oscillator.h ****         freq_      = 100.0f;
  55:../../../../DaisyExamples/DaisySP//Source/Synthesis/oscillator.h ****         amp_       = 0.5f;
  56:../../../../DaisyExamples/DaisySP//Source/Synthesis/oscillator.h ****         pw_        = 0.5f;
  57:../../../../DaisyExamples/DaisySP//Source/Synthesis/oscillator.h ****         phase_     = 0.0f;
 202              		.loc 3 57 20 view .LVU16
 203 0012 0025     		movs	r5, #0
  55:../../../../DaisyExamples/DaisySP//Source/Synthesis/oscillator.h ****         pw_        = 0.5f;
 204              		.loc 3 55 20 view .LVU17
 205 0014 F6EE008A 		vmov.f32	s17, #5.0e-1
  54:../../../../DaisyExamples/DaisySP//Source/Synthesis/oscillator.h ****         freq_      = 100.0f;
 206              		.loc 3 54 20 view .LVU18
 207 0018 9FED3B0A 		vldr.32	s0, .L16
 208              	.LVL8:
  52:../../../../DaisyExamples/DaisySP//Source/Synthesis/oscillator.h ****         sr_recip_  = 1.0f / sample_rate;
 209              		.loc 3 52 20 view .LVU19
 210 001c 84ED1F8A 		vstr.32	s16, [r4, #124]
  53:../../../../DaisyExamples/DaisySP//Source/Synthesis/oscillator.h ****         freq_      = 100.0f;
 211              		.loc 3 53 9 is_stmt 1 view .LVU20
  58:../../../../DaisyExamples/DaisySP//Source/Synthesis/oscillator.h ****         phase_inc_ = CalcPhaseInc(freq_);
 212              		.loc 3 58 34 is_stmt 0 view .LVU21
 213 0020 6C30     		adds	r0, r0, #108
 214              	.LVL9:
  53:../../../../DaisyExamples/DaisySP//Source/Synthesis/oscillator.h ****         freq_      = 100.0f;
 215              		.loc 3 53 27 view .LVU22
 216 0022 C9EE087A 		vdiv.f32	s15, s18, s16
  54:../../../../DaisyExamples/DaisySP//Source/Synthesis/oscillator.h ****         amp_       = 0.5f;
 217              		.loc 3 54 20 view .LVU23
 218 0026 84ED1D0A 		vstr.32	s0, [r4, #116]
  55:../../../../DaisyExamples/DaisySP//Source/Synthesis/oscillator.h ****         pw_        = 0.5f;
 219              		.loc 3 55 20 view .LVU24
 220 002a C4ED1C8A 		vstr.32	s17, [r4, #112]
 221              	.LBE224:
 222              	.LBE223:
 223              	.LBB229:
 224              	.LBB230:
ARM GAS  C:\Users\samue\AppData\Local\Temp\ccTlvsL9.s 			page 10


  59:../../../../DaisyExamples/DaisySP//Source/Synthesis/oscillator.h ****         waveform_  = WAVE_SIN;
  60:../../../../DaisyExamples/DaisySP//Source/Synthesis/oscillator.h ****         eoc_       = true;
  61:../../../../DaisyExamples/DaisySP//Source/Synthesis/oscillator.h ****         eor_       = true;
  62:../../../../DaisyExamples/DaisySP//Source/Synthesis/oscillator.h ****     }
  63:../../../../DaisyExamples/DaisySP//Source/Synthesis/oscillator.h **** 
  64:../../../../DaisyExamples/DaisySP//Source/Synthesis/oscillator.h **** 
  65:../../../../DaisyExamples/DaisySP//Source/Synthesis/oscillator.h ****     /** Changes the frequency of the Oscillator, and recalculates phase increment.
  66:../../../../DaisyExamples/DaisySP//Source/Synthesis/oscillator.h ****     */
  67:../../../../DaisyExamples/DaisySP//Source/Synthesis/oscillator.h ****     inline void SetFreq(const float f)
  68:../../../../DaisyExamples/DaisySP//Source/Synthesis/oscillator.h ****     {
  69:../../../../DaisyExamples/DaisySP//Source/Synthesis/oscillator.h ****         freq_      = f;
  70:../../../../DaisyExamples/DaisySP//Source/Synthesis/oscillator.h ****         phase_inc_ = CalcPhaseInc(f);
  71:../../../../DaisyExamples/DaisySP//Source/Synthesis/oscillator.h ****     }
  72:../../../../DaisyExamples/DaisySP//Source/Synthesis/oscillator.h **** 
  73:../../../../DaisyExamples/DaisySP//Source/Synthesis/oscillator.h **** 
  74:../../../../DaisyExamples/DaisySP//Source/Synthesis/oscillator.h ****     /** Sets the amplitude of the waveform.
  75:../../../../DaisyExamples/DaisySP//Source/Synthesis/oscillator.h ****     */
  76:../../../../DaisyExamples/DaisySP//Source/Synthesis/oscillator.h ****     inline void SetAmp(const float a) { amp_ = a; }
  77:../../../../DaisyExamples/DaisySP//Source/Synthesis/oscillator.h ****     /** Sets the waveform to be synthesized by the Process() function.
  78:../../../../DaisyExamples/DaisySP//Source/Synthesis/oscillator.h ****     */
  79:../../../../DaisyExamples/DaisySP//Source/Synthesis/oscillator.h ****     inline void SetWaveform(const uint8_t wf)
  80:../../../../DaisyExamples/DaisySP//Source/Synthesis/oscillator.h ****     {
  81:../../../../DaisyExamples/DaisySP//Source/Synthesis/oscillator.h ****         waveform_ = wf < WAVE_LAST ? wf : WAVE_SIN;
 225              		.loc 3 81 19 view .LVU25
 226 002e 0126     		movs	r6, #1
 227              	.LBE230:
 228              	.LBE229:
 229              	.LBB233:
 230              	.LBB225:
  56:../../../../DaisyExamples/DaisySP//Source/Synthesis/oscillator.h ****         phase_     = 0.0f;
 231              		.loc 3 56 20 view .LVU26
 232 0030 C4ED1E8A 		vstr.32	s17, [r4, #120]
 233              	.LBE225:
 234              	.LBE233:
 235              	.LBB234:
 236              	.LBB235:
 105:../../../../DaisyExamples/DaisySP//Source/Filters/fir.h ****     }
 237              		.loc 1 105 21 view .LVU27
 238 0034 4FF01E08 		mov	r8, #30
 239              	.LBE235:
 240              	.LBE234:
 241              	.LBB239:
 242              	.LBB226:
  57:../../../../DaisyExamples/DaisySP//Source/Synthesis/oscillator.h ****         phase_inc_ = CalcPhaseInc(freq_);
 243              		.loc 3 57 20 view .LVU28
 244 0038 C4F88450 		str	r5, [r4, #132]	@ float
 245              	.LBE226:
 246              	.LBE239:
 247              	.LBB240:
 248              	.LBB241:
 249              		.file 4 "../../../../DaisyExamples/DaisySP//Source/Control/adenv.h"
   1:../../../../DaisyExamples/DaisySP//Source/Control/adenv.h **** /*
   2:../../../../DaisyExamples/DaisySP//Source/Control/adenv.h **** Copyright (c) 2020 Electrosmith, Corp
   3:../../../../DaisyExamples/DaisySP//Source/Control/adenv.h **** 
   4:../../../../DaisyExamples/DaisySP//Source/Control/adenv.h **** Use of this source code is governed by an MIT-style
   5:../../../../DaisyExamples/DaisySP//Source/Control/adenv.h **** license that can be found in the LICENSE file or at
   6:../../../../DaisyExamples/DaisySP//Source/Control/adenv.h **** https://opensource.org/licenses/MIT.
ARM GAS  C:\Users\samue\AppData\Local\Temp\ccTlvsL9.s 			page 11


   7:../../../../DaisyExamples/DaisySP//Source/Control/adenv.h **** */
   8:../../../../DaisyExamples/DaisySP//Source/Control/adenv.h **** 
   9:../../../../DaisyExamples/DaisySP//Source/Control/adenv.h **** #pragma once
  10:../../../../DaisyExamples/DaisySP//Source/Control/adenv.h **** #ifndef ADENV_H
  11:../../../../DaisyExamples/DaisySP//Source/Control/adenv.h **** #define ADENV_H
  12:../../../../DaisyExamples/DaisySP//Source/Control/adenv.h **** #include <stdint.h>
  13:../../../../DaisyExamples/DaisySP//Source/Control/adenv.h **** #ifdef __cplusplus
  14:../../../../DaisyExamples/DaisySP//Source/Control/adenv.h **** 
  15:../../../../DaisyExamples/DaisySP//Source/Control/adenv.h **** namespace daisysp
  16:../../../../DaisyExamples/DaisySP//Source/Control/adenv.h **** {
  17:../../../../DaisyExamples/DaisySP//Source/Control/adenv.h **** /** Distinct stages that the phase of the envelope can be located in.
  18:../../../../DaisyExamples/DaisySP//Source/Control/adenv.h ****     @see AdEnv
  19:../../../../DaisyExamples/DaisySP//Source/Control/adenv.h **** */
  20:../../../../DaisyExamples/DaisySP//Source/Control/adenv.h **** enum AdEnvSegment
  21:../../../../DaisyExamples/DaisySP//Source/Control/adenv.h **** {
  22:../../../../DaisyExamples/DaisySP//Source/Control/adenv.h ****     /** located at phase location 0, and not currently running */
  23:../../../../DaisyExamples/DaisySP//Source/Control/adenv.h ****     ADENV_SEG_IDLE,
  24:../../../../DaisyExamples/DaisySP//Source/Control/adenv.h ****     /** First segment of envelope where phase moves from MIN value to MAX value */
  25:../../../../DaisyExamples/DaisySP//Source/Control/adenv.h ****     ADENV_SEG_ATTACK,
  26:../../../../DaisyExamples/DaisySP//Source/Control/adenv.h ****     /** Second segment of envelope where phase moves from MAX to MIN value */
  27:../../../../DaisyExamples/DaisySP//Source/Control/adenv.h ****     ADENV_SEG_DECAY,
  28:../../../../DaisyExamples/DaisySP//Source/Control/adenv.h ****     /** The final segment of the envelope (currently decay) */
  29:../../../../DaisyExamples/DaisySP//Source/Control/adenv.h ****     ADENV_SEG_LAST,
  30:../../../../DaisyExamples/DaisySP//Source/Control/adenv.h **** };
  31:../../../../DaisyExamples/DaisySP//Source/Control/adenv.h **** 
  32:../../../../DaisyExamples/DaisySP//Source/Control/adenv.h **** /** Trigger-able envelope with adjustable min/max, and independent per-segment time control.
  33:../../../../DaisyExamples/DaisySP//Source/Control/adenv.h **** 
  34:../../../../DaisyExamples/DaisySP//Source/Control/adenv.h ****     \author shensley
  35:../../../../DaisyExamples/DaisySP//Source/Control/adenv.h ****     \todo - Add Cycling
  36:../../../../DaisyExamples/DaisySP//Source/Control/adenv.h ****     \todo - Implement Curve (its only linear for now).
  37:../../../../DaisyExamples/DaisySP//Source/Control/adenv.h ****     \todo - Maybe make this an ADsr_ that has AD/AR/Asr_ modes.
  38:../../../../DaisyExamples/DaisySP//Source/Control/adenv.h ****  */
  39:../../../../DaisyExamples/DaisySP//Source/Control/adenv.h **** class AdEnv
  40:../../../../DaisyExamples/DaisySP//Source/Control/adenv.h **** {
  41:../../../../DaisyExamples/DaisySP//Source/Control/adenv.h ****   public:
  42:../../../../DaisyExamples/DaisySP//Source/Control/adenv.h ****     AdEnv() {}
  43:../../../../DaisyExamples/DaisySP//Source/Control/adenv.h ****     ~AdEnv() {}
  44:../../../../DaisyExamples/DaisySP//Source/Control/adenv.h ****     /** Initializes the ad envelope.
  45:../../../../DaisyExamples/DaisySP//Source/Control/adenv.h **** 
  46:../../../../DaisyExamples/DaisySP//Source/Control/adenv.h ****         Defaults:
  47:../../../../DaisyExamples/DaisySP//Source/Control/adenv.h ****             - current segment = idle
  48:../../../../DaisyExamples/DaisySP//Source/Control/adenv.h ****             - curve = linear
  49:../../../../DaisyExamples/DaisySP//Source/Control/adenv.h ****             - phase = 0
  50:../../../../DaisyExamples/DaisySP//Source/Control/adenv.h ****             - min = 0
  51:../../../../DaisyExamples/DaisySP//Source/Control/adenv.h ****             - max = 1
  52:../../../../DaisyExamples/DaisySP//Source/Control/adenv.h **** 
  53:../../../../DaisyExamples/DaisySP//Source/Control/adenv.h ****         \param sample_rate      sample rate of the audio engine being run
  54:../../../../DaisyExamples/DaisySP//Source/Control/adenv.h ****     */
  55:../../../../DaisyExamples/DaisySP//Source/Control/adenv.h ****     void Init(float sample_rate);
  56:../../../../DaisyExamples/DaisySP//Source/Control/adenv.h **** 
  57:../../../../DaisyExamples/DaisySP//Source/Control/adenv.h ****     /** Processes the current sample of the envelope. This should be called once
  58:../../../../DaisyExamples/DaisySP//Source/Control/adenv.h ****         per sample period.
  59:../../../../DaisyExamples/DaisySP//Source/Control/adenv.h ****         \return the current envelope value.
  60:../../../../DaisyExamples/DaisySP//Source/Control/adenv.h ****     */
  61:../../../../DaisyExamples/DaisySP//Source/Control/adenv.h ****     float Process();
  62:../../../../DaisyExamples/DaisySP//Source/Control/adenv.h **** 
  63:../../../../DaisyExamples/DaisySP//Source/Control/adenv.h ****     /** Starts or retriggers the envelope.*/
ARM GAS  C:\Users\samue\AppData\Local\Temp\ccTlvsL9.s 			page 12


  64:../../../../DaisyExamples/DaisySP//Source/Control/adenv.h ****     inline void Trigger() { trigger_ = 1; }
  65:../../../../DaisyExamples/DaisySP//Source/Control/adenv.h ****     /** Sets the length of time (in seconds) for a specific segment. */
  66:../../../../DaisyExamples/DaisySP//Source/Control/adenv.h ****     inline void SetTime(uint8_t seg, float time) { segment_time_[seg] = time; }
 250              		.loc 4 66 71 view .LVU29
 251 003c 334F     		ldr	r7, .L16+4
 252              	.LBE241:
 253              	.LBE240:
 254              	.LBB244:
 255              	.LBB227:
  53:../../../../DaisyExamples/DaisySP//Source/Synthesis/oscillator.h ****         freq_      = 100.0f;
 256              		.loc 3 53 20 view .LVU30
 257 003e C4ED207A 		vstr.32	s15, [r4, #128]
  54:../../../../DaisyExamples/DaisySP//Source/Synthesis/oscillator.h ****         amp_       = 0.5f;
 258              		.loc 3 54 9 is_stmt 1 view .LVU31
  55:../../../../DaisyExamples/DaisySP//Source/Synthesis/oscillator.h ****         pw_        = 0.5f;
 259              		.loc 3 55 9 view .LVU32
  56:../../../../DaisyExamples/DaisySP//Source/Synthesis/oscillator.h ****         phase_     = 0.0f;
 260              		.loc 3 56 9 view .LVU33
  57:../../../../DaisyExamples/DaisySP//Source/Synthesis/oscillator.h ****         phase_inc_ = CalcPhaseInc(freq_);
 261              		.loc 3 57 9 view .LVU34
  58:../../../../DaisyExamples/DaisySP//Source/Synthesis/oscillator.h ****         waveform_  = WAVE_SIN;
 262              		.loc 3 58 9 view .LVU35
  58:../../../../DaisyExamples/DaisySP//Source/Synthesis/oscillator.h ****         waveform_  = WAVE_SIN;
 263              		.loc 3 58 34 is_stmt 0 view .LVU36
 264 0042 FFF7FEFF 		bl	_ZN7daisysp10Oscillator12CalcPhaseIncEf
 265              	.LVL10:
  58:../../../../DaisyExamples/DaisySP//Source/Synthesis/oscillator.h ****         waveform_  = WAVE_SIN;
 266              		.loc 3 58 34 view .LVU37
 267 0046 F0EE407A 		vmov.f32	s15, s0
  61:../../../../DaisyExamples/DaisySP//Source/Synthesis/oscillator.h ****     }
 268              		.loc 3 61 20 view .LVU38
 269 004a 40F20113 		movw	r3, #257
 270              	.LBE227:
 271              	.LBE244:
   6:voice.cpp     ****     osc_.SetWaveform(osc_.WAVE_TRI);
   7:voice.cpp     ****     amp_env_.Init(fs);
 272              		.loc 2 7 18 view .LVU39
 273 004e B0EE480A 		vmov.f32	s0, s16
 274 0052 04F19800 		add	r0, r4, #152
 275              	.LBB245:
 276              	.LBB231:
 277              		.loc 3 81 19 view .LVU40
 278 0056 84F86C60 		strb	r6, [r4, #108]
 279              	.LBE231:
 280              	.LBE245:
 281              	.LBB246:
 282              	.LBB228:
  58:../../../../DaisyExamples/DaisySP//Source/Synthesis/oscillator.h ****         waveform_  = WAVE_SIN;
 283              		.loc 3 58 20 view .LVU41
 284 005a C4ED227A 		vstr.32	s15, [r4, #136]
  59:../../../../DaisyExamples/DaisySP//Source/Synthesis/oscillator.h ****         eoc_       = true;
 285              		.loc 3 59 9 is_stmt 1 view .LVU42
  60:../../../../DaisyExamples/DaisySP//Source/Synthesis/oscillator.h ****         eor_       = true;
 286              		.loc 3 60 9 view .LVU43
  61:../../../../DaisyExamples/DaisySP//Source/Synthesis/oscillator.h ****     }
 287              		.loc 3 61 9 view .LVU44
  61:../../../../DaisyExamples/DaisySP//Source/Synthesis/oscillator.h ****     }
ARM GAS  C:\Users\samue\AppData\Local\Temp\ccTlvsL9.s 			page 13


 288              		.loc 3 61 20 is_stmt 0 view .LVU45
 289 005e A4F89430 		strh	r3, [r4, #148]	@ movhi
 290              	.LVL11:
  61:../../../../DaisyExamples/DaisySP//Source/Synthesis/oscillator.h ****     }
 291              		.loc 3 61 20 view .LVU46
 292              	.LBE228:
 293              	.LBE246:
   6:voice.cpp     ****     amp_env_.Init(fs);
 294              		.loc 2 6 5 is_stmt 1 view .LVU47
 295              	.LBB247:
 296              	.LBI229:
  79:../../../../DaisyExamples/DaisySP//Source/Synthesis/oscillator.h ****     {
 297              		.loc 3 79 17 view .LVU48
 298              	.LBB232:
 299              		.loc 3 81 9 view .LVU49
 300              		.loc 3 81 9 is_stmt 0 view .LVU50
 301              	.LBE232:
 302              	.LBE247:
 303              		.loc 2 7 5 is_stmt 1 view .LVU51
 304              		.loc 2 7 18 is_stmt 0 view .LVU52
 305 0062 FFF7FEFF 		bl	_ZN7daisysp5AdEnv4InitEf
 306              	.LVL12:
   8:voice.cpp     ****     amp_env_.SetTime(ADENV_SEG_ATTACK, 0.002f);
 307              		.loc 2 8 5 is_stmt 1 view .LVU53
 308              	.LBB248:
 309              	.LBI240:
 310              		.loc 4 66 17 view .LVU54
 311              	.LBB242:
 312              		.loc 4 66 52 view .LVU55
 313              	.LBE242:
 314              	.LBE248:
   9:voice.cpp     ****     freq_env_.Init(fs);
 315              		.loc 2 9 19 is_stmt 0 view .LVU56
 316 0066 B0EE480A 		vmov.f32	s0, s16
 317 006a 04F1D000 		add	r0, r4, #208
 318              	.LBB249:
 319              	.LBB243:
 320              		.loc 4 66 71 view .LVU57
 321 006e C4F8A070 		str	r7, [r4, #160]	@ float
 322              	.LVL13:
 323              		.loc 4 66 71 view .LVU58
 324              	.LBE243:
 325              	.LBE249:
 326              		.loc 2 9 5 is_stmt 1 view .LVU59
 327              		.loc 2 9 19 is_stmt 0 view .LVU60
 328 0072 FFF7FEFF 		bl	_ZN7daisysp5AdEnv4InitEf
 329              	.LVL14:
  10:voice.cpp     ****     freq_env_.SetMin(1.0f);
 330              		.loc 2 10 5 is_stmt 1 view .LVU61
 331              	.LBB250:
 332              	.LBI250:
  67:../../../../DaisyExamples/DaisySP//Source/Control/adenv.h ****     /** Sets the amount of curve applied. A positve value will create a log
  68:../../../../DaisyExamples/DaisySP//Source/Control/adenv.h ****         curve. Input range: -100 to 100.  (or more)
  69:../../../../DaisyExamples/DaisySP//Source/Control/adenv.h ****     */
  70:../../../../DaisyExamples/DaisySP//Source/Control/adenv.h ****     inline void SetCurve(float scalar) { curve_scalar_ = scalar; }
  71:../../../../DaisyExamples/DaisySP//Source/Control/adenv.h ****     /** Sets the minimum value of the envelope output.
  72:../../../../DaisyExamples/DaisySP//Source/Control/adenv.h ****         Input range: -FLTmax_, to FLTmax_
ARM GAS  C:\Users\samue\AppData\Local\Temp\ccTlvsL9.s 			page 14


  73:../../../../DaisyExamples/DaisySP//Source/Control/adenv.h ****     */
  74:../../../../DaisyExamples/DaisySP//Source/Control/adenv.h ****     inline void SetMin(float min) { min_ = min; }
 333              		.loc 4 74 17 view .LVU62
 334              	.LBB251:
 335              		.loc 4 74 37 view .LVU63
 336              	.LBE251:
 337              	.LBE250:
  11:voice.cpp     ****     freq_env_.SetTime(ADENV_SEG_ATTACK, 0.002f);
  12:voice.cpp     ****     
  13:voice.cpp     **** 
  14:voice.cpp     ****     filter_up_.SetStateBuffer(filter_state_up_, DSY_COUNTOF(filter_state_up_));
  15:voice.cpp     ****     filter_up_.Init(taps_up_, ntaps_, false);
 338              		.loc 2 15 21 is_stmt 0 view .LVU64
 339 0076 04F53973 		add	r3, r4, #740
  14:voice.cpp     ****     filter_up_.Init(taps_up_, ntaps_, false);
 340              		.loc 2 14 31 view .LVU65
 341 007a 04F5BE70 		add	r0, r4, #380
 342              	.LBB253:
 343              	.LBB254:
  66:../../../../DaisyExamples/DaisySP//Source/Control/adenv.h ****     /** Sets the amount of curve applied. A positve value will create a log
 344              		.loc 4 66 71 view .LVU66
 345 007e C4F8D870 		str	r7, [r4, #216]	@ float
 346 0082 D4F87871 		ldr	r7, [r4, #376]
 347              	.LBE254:
 348              	.LBE253:
 349              	.LBB256:
 350              	.LBB257:
 351              	.LBB258:
 352              	.LBB259:
 353              	.LBB260:
 114:../../../../DaisyExamples/DaisySP//Source/Filters/fir.h ****         }
 354              		.loc 1 114 19 view .LVU67
 355 0086 7822     		movs	r2, #120
 356              	.LBE260:
 357              	.LBE259:
 358              	.LBE258:
 359              	.LBE257:
 360              	.LBE256:
 361              	.LBB277:
 362              	.LBB252:
 363              		.loc 4 74 42 view .LVU68
 364 0088 84ED399A 		vstr.32	s18, [r4, #228]
 365              	.LVL15:
 366              		.loc 4 74 42 view .LVU69
 367              	.LBE252:
 368              	.LBE277:
  11:voice.cpp     ****     
 369              		.loc 2 11 5 is_stmt 1 view .LVU70
 370              	.LBB278:
 371              	.LBI253:
  66:../../../../DaisyExamples/DaisySP//Source/Control/adenv.h ****     /** Sets the amount of curve applied. A positve value will create a log
 372              		.loc 4 66 17 view .LVU71
 373              	.LBB255:
  66:../../../../DaisyExamples/DaisySP//Source/Control/adenv.h ****     /** Sets the amount of curve applied. A positve value will create a log
 374              		.loc 4 66 52 view .LVU72
  66:../../../../DaisyExamples/DaisySP//Source/Control/adenv.h ****     /** Sets the amount of curve applied. A positve value will create a log
 375              		.loc 4 66 52 is_stmt 0 view .LVU73
ARM GAS  C:\Users\samue\AppData\Local\Temp\ccTlvsL9.s 			page 15


 376              	.LBE255:
 377              	.LBE278:
  14:voice.cpp     ****     filter_up_.Init(taps_up_, ntaps_, false);
 378              		.loc 2 14 5 is_stmt 1 view .LVU74
 379              	.LBB279:
 380              	.LBI234:
 102:../../../../DaisyExamples/DaisySP//Source/Filters/fir.h ****     {
 381              		.loc 1 102 10 view .LVU75
 382              	.LBB236:
 104:../../../../DaisyExamples/DaisySP//Source/Filters/fir.h ****         state_size_ = length;
 383              		.loc 1 104 9 view .LVU76
 384              	.LBE236:
 385              	.LBE279:
 386              	.LBB280:
 387              	.LBB274:
 388              	.LBB271:
 389              	.LBB263:
 390              	.LBB261:
 114:../../../../DaisyExamples/DaisySP//Source/Filters/fir.h ****         }
 391              		.loc 1 114 19 is_stmt 0 view .LVU77
 392 008c 0021     		movs	r1, #0
 393              	.LBE261:
 394              	.LBE263:
 395              	.LBB264:
 396              	.LBB265:
 141:../../../../DaisyExamples/DaisySP//Source/Filters/fir.h ****             size_  = size;
 397              		.loc 1 141 20 view .LVU78
 398 008e C4F85C31 		str	r3, [r4, #348]
 399              	.LBE265:
 400              	.LBE264:
 401              	.LBE271:
 402              	.LBE274:
 403              	.LBE280:
 404              	.LBB281:
 405              	.LBB237:
 104:../../../../DaisyExamples/DaisySP//Source/Filters/fir.h ****         state_size_ = length;
 406              		.loc 1 104 21 view .LVU79
 407 0092 C4F85801 		str	r0, [r4, #344]
 105:../../../../DaisyExamples/DaisySP//Source/Filters/fir.h ****     }
 408              		.loc 1 105 9 is_stmt 1 view .LVU80
 409              	.LBE237:
 410              	.LBE281:
 411              	.LBB282:
 412              	.LBB275:
 413              	.LBB272:
 414              	.LBB268:
 415              	.LBB266:
 142:../../../../DaisyExamples/DaisySP//Source/Filters/fir.h ****             return true;
 416              		.loc 1 142 20 is_stmt 0 view .LVU81
 417 0096 C4F86071 		str	r7, [r4, #352]
 418              	.LBE266:
 419              	.LBE268:
 420              	.LBE272:
 421              	.LBE275:
 422              	.LBE282:
 423              	.LBB283:
 424              	.LBB238:
ARM GAS  C:\Users\samue\AppData\Local\Temp\ccTlvsL9.s 			page 16


 105:../../../../DaisyExamples/DaisySP//Source/Filters/fir.h ****     }
 425              		.loc 1 105 21 view .LVU82
 426 009a C4F86481 		str	r8, [r4, #356]
 427              	.LVL16:
 105:../../../../DaisyExamples/DaisySP//Source/Filters/fir.h ****     }
 428              		.loc 1 105 21 view .LVU83
 429              	.LBE238:
 430              	.LBE283:
 431              		.loc 2 15 5 is_stmt 1 view .LVU84
 432              	.LBB284:
 433              	.LBI256:
 186:../../../../DaisyExamples/DaisySP//Source/Filters/fir.h ****         /* Feed data into the buffer */
 187:../../../../DaisyExamples/DaisySP//Source/Filters/fir.h ****         state_[size_ - 1u] = in;
 188:../../../../DaisyExamples/DaisySP//Source/Filters/fir.h **** 
 189:../../../../DaisyExamples/DaisySP//Source/Filters/fir.h ****         /* Convolution loop */
 190:../../../../DaisyExamples/DaisySP//Source/Filters/fir.h ****         float acc(0);
 191:../../../../DaisyExamples/DaisySP//Source/Filters/fir.h ****         for(size_t i = 0; i < size_ - 1; i++)
 192:../../../../DaisyExamples/DaisySP//Source/Filters/fir.h ****         {
 193:../../../../DaisyExamples/DaisySP//Source/Filters/fir.h ****             acc += state_[i] * coefs_[i];
 194:../../../../DaisyExamples/DaisySP//Source/Filters/fir.h ****             /** Shift the state simulatenously 
 195:../../../../DaisyExamples/DaisySP//Source/Filters/fir.h ****              * (note: better solutions are available) 
 196:../../../../DaisyExamples/DaisySP//Source/Filters/fir.h ****              */
 197:../../../../DaisyExamples/DaisySP//Source/Filters/fir.h ****             state_[i] = state_[1 + i];
 198:../../../../DaisyExamples/DaisySP//Source/Filters/fir.h ****         }
 199:../../../../DaisyExamples/DaisySP//Source/Filters/fir.h ****         acc += in * coefs_[size_ - 1u];
 200:../../../../DaisyExamples/DaisySP//Source/Filters/fir.h **** 
 201:../../../../DaisyExamples/DaisySP//Source/Filters/fir.h ****         return acc;
 202:../../../../DaisyExamples/DaisySP//Source/Filters/fir.h ****     }
 203:../../../../DaisyExamples/DaisySP//Source/Filters/fir.h **** 
 204:../../../../DaisyExamples/DaisySP//Source/Filters/fir.h ****     /* Process a block of data */
 205:../../../../DaisyExamples/DaisySP//Source/Filters/fir.h ****     void ProcessBlock(const float* pSrc, float* pDst, size_t block)
 206:../../../../DaisyExamples/DaisySP//Source/Filters/fir.h ****     {
 207:../../../../DaisyExamples/DaisySP//Source/Filters/fir.h ****         /* be sure to run debug version from time to time */
 208:../../../../DaisyExamples/DaisySP//Source/Filters/fir.h ****         assert(block <= FIRMem::MaxBlock());
 209:../../../../DaisyExamples/DaisySP//Source/Filters/fir.h ****         assert(size_ > 0u);
 210:../../../../DaisyExamples/DaisySP//Source/Filters/fir.h ****         assert(nullptr != pSrc);
 211:../../../../DaisyExamples/DaisySP//Source/Filters/fir.h ****         assert(nullptr != pDst);
 212:../../../../DaisyExamples/DaisySP//Source/Filters/fir.h **** 
 213:../../../../DaisyExamples/DaisySP//Source/Filters/fir.h ****         /* Process the block of data */
 214:../../../../DaisyExamples/DaisySP//Source/Filters/fir.h ****         for(size_t j = 0; j < block; j++)
 215:../../../../DaisyExamples/DaisySP//Source/Filters/fir.h ****         {
 216:../../../../DaisyExamples/DaisySP//Source/Filters/fir.h ****             /* Feed data into the buffer */
 217:../../../../DaisyExamples/DaisySP//Source/Filters/fir.h ****             state_[size_ - 1u + j] = pSrc[j];
 218:../../../../DaisyExamples/DaisySP//Source/Filters/fir.h **** 
 219:../../../../DaisyExamples/DaisySP//Source/Filters/fir.h ****             /* Convolution loop */
 220:../../../../DaisyExamples/DaisySP//Source/Filters/fir.h ****             float acc = 0.0f;
 221:../../../../DaisyExamples/DaisySP//Source/Filters/fir.h ****             for(size_t i = 0; i < size_; i++)
 222:../../../../DaisyExamples/DaisySP//Source/Filters/fir.h ****             {
 223:../../../../DaisyExamples/DaisySP//Source/Filters/fir.h ****                 acc += state_[j + i] * coefs_[i];
 224:../../../../DaisyExamples/DaisySP//Source/Filters/fir.h ****             }
 225:../../../../DaisyExamples/DaisySP//Source/Filters/fir.h **** 
 226:../../../../DaisyExamples/DaisySP//Source/Filters/fir.h ****             /* Write output */
 227:../../../../DaisyExamples/DaisySP//Source/Filters/fir.h ****             pDst[j] = acc;
 228:../../../../DaisyExamples/DaisySP//Source/Filters/fir.h ****         }
 229:../../../../DaisyExamples/DaisySP//Source/Filters/fir.h **** 
 230:../../../../DaisyExamples/DaisySP//Source/Filters/fir.h ****         /* Copy data tail for the next block */
 231:../../../../DaisyExamples/DaisySP//Source/Filters/fir.h ****         for(size_t i = 0; i < size_ - 1u; i++)
ARM GAS  C:\Users\samue\AppData\Local\Temp\ccTlvsL9.s 			page 17


 232:../../../../DaisyExamples/DaisySP//Source/Filters/fir.h ****         {
 233:../../../../DaisyExamples/DaisySP//Source/Filters/fir.h ****             state_[i] = state_[block + i];
 234:../../../../DaisyExamples/DaisySP//Source/Filters/fir.h ****         }
 235:../../../../DaisyExamples/DaisySP//Source/Filters/fir.h ****     }
 236:../../../../DaisyExamples/DaisySP//Source/Filters/fir.h **** 
 237:../../../../DaisyExamples/DaisySP//Source/Filters/fir.h ****     /** Set filter coefficients (aka Impulse Response)
 238:../../../../DaisyExamples/DaisySP//Source/Filters/fir.h ****      * Coefficients need to be in reversed order (tail-first)
 239:../../../../DaisyExamples/DaisySP//Source/Filters/fir.h ****      * If internal storage is used, makes a local copy
 240:../../../../DaisyExamples/DaisySP//Source/Filters/fir.h ****      * and allows reversing the impulse response
 241:../../../../DaisyExamples/DaisySP//Source/Filters/fir.h ****      */
 242:../../../../DaisyExamples/DaisySP//Source/Filters/fir.h ****     bool SetIR(const float* ir, size_t len, bool reverse)
 243:../../../../DaisyExamples/DaisySP//Source/Filters/fir.h ****     {
 244:../../../../DaisyExamples/DaisySP//Source/Filters/fir.h ****         /* Function order is important */
 245:../../../../DaisyExamples/DaisySP//Source/Filters/fir.h ****         const bool result = FIRMem::SetCoefs(ir, len, reverse);
 246:../../../../DaisyExamples/DaisySP//Source/Filters/fir.h ****         Reset();
 247:../../../../DaisyExamples/DaisySP//Source/Filters/fir.h ****         return result;
 248:../../../../DaisyExamples/DaisySP//Source/Filters/fir.h ****     }
 249:../../../../DaisyExamples/DaisySP//Source/Filters/fir.h **** 
 250:../../../../DaisyExamples/DaisySP//Source/Filters/fir.h ****     /* Create an alias to comply with DaisySP API conventions */
 251:../../../../DaisyExamples/DaisySP//Source/Filters/fir.h ****     template <typename... Args>
 252:../../../../DaisyExamples/DaisySP//Source/Filters/fir.h ****     inline auto Init(Args&&... args)
 434              		.loc 1 252 17 view .LVU85
 435              	.LBB276:
 436              	.LBI257:
 242:../../../../DaisyExamples/DaisySP//Source/Filters/fir.h ****     {
 437              		.loc 1 242 10 view .LVU86
 438              	.LBB273:
 439              	.LBB269:
 440              	.LBI264:
 133:../../../../DaisyExamples/DaisySP//Source/Filters/fir.h ****     {
 441              		.loc 1 133 10 view .LVU87
 442              	.LBB267:
 136:../../../../DaisyExamples/DaisySP//Source/Filters/fir.h ****         assert(nullptr != coefs || 0 == size);
 443              		.loc 1 136 9 view .LVU88
 137:../../../../DaisyExamples/DaisySP//Source/Filters/fir.h **** 
 444              		.loc 1 137 9 view .LVU89
 139:../../../../DaisyExamples/DaisySP//Source/Filters/fir.h ****         {
 445              		.loc 1 139 9 view .LVU90
 141:../../../../DaisyExamples/DaisySP//Source/Filters/fir.h ****             size_  = size;
 446              		.loc 1 141 13 view .LVU91
 142:../../../../DaisyExamples/DaisySP//Source/Filters/fir.h ****             return true;
 447              		.loc 1 142 13 view .LVU92
 143:../../../../DaisyExamples/DaisySP//Source/Filters/fir.h ****         }
 448              		.loc 1 143 13 view .LVU93
 143:../../../../DaisyExamples/DaisySP//Source/Filters/fir.h ****         }
 449              		.loc 1 143 13 is_stmt 0 view .LVU94
 450              	.LBE267:
 451              	.LBE269:
 452              	.LBB270:
 453              	.LBI259:
 108:../../../../DaisyExamples/DaisySP//Source/Filters/fir.h ****     {
 454              		.loc 1 108 10 is_stmt 1 view .LVU95
 455              	.LBB262:
 110:../../../../DaisyExamples/DaisySP//Source/Filters/fir.h ****         assert(0 != state_size_);
 456              		.loc 1 110 9 view .LVU96
 111:../../../../DaisyExamples/DaisySP//Source/Filters/fir.h ****         if(nullptr != state_)
 457              		.loc 1 111 9 view .LVU97
ARM GAS  C:\Users\samue\AppData\Local\Temp\ccTlvsL9.s 			page 18


 112:../../../../DaisyExamples/DaisySP//Source/Filters/fir.h ****         {
 458              		.loc 1 112 9 view .LVU98
 114:../../../../DaisyExamples/DaisySP//Source/Filters/fir.h ****         }
 459              		.loc 1 114 13 view .LVU99
 114:../../../../DaisyExamples/DaisySP//Source/Filters/fir.h ****         }
 460              		.loc 1 114 19 is_stmt 0 view .LVU100
 461 009e FFF7FEFF 		bl	memset
 462              	.LVL17:
 114:../../../../DaisyExamples/DaisySP//Source/Filters/fir.h ****         }
 463              		.loc 1 114 19 view .LVU101
 464              	.LBE262:
 465              	.LBE270:
 466              	.LBE273:
 467              	.LBE276:
 468              	.LBE284:
  16:voice.cpp     **** 
  17:voice.cpp     ****     filter_down_.SetStateBuffer(filter_state_down_, DSY_COUNTOF(filter_state_down_));
 469              		.loc 2 17 5 is_stmt 1 view .LVU102
  18:voice.cpp     ****     filter_down_.Init(taps_down_, ntaps_, false);
 470              		.loc 2 18 23 is_stmt 0 view .LVU103
 471 00a2 04F55673 		add	r3, r4, #856
  17:voice.cpp     ****     filter_down_.Init(taps_down_, ntaps_, false);
 472              		.loc 2 17 33 view .LVU104
 473 00a6 04F5FA70 		add	r0, r4, #500
 474              	.LVL18:
 475              	.LBB285:
 476              	.LBI285:
 102:../../../../DaisyExamples/DaisySP//Source/Filters/fir.h ****     {
 477              		.loc 1 102 10 is_stmt 1 view .LVU105
 478              	.LBB286:
 104:../../../../DaisyExamples/DaisySP//Source/Filters/fir.h ****         state_size_ = length;
 479              		.loc 1 104 9 view .LVU106
 480              	.LBE286:
 481              	.LBE285:
 482              	.LBB288:
 483              	.LBB289:
 484              	.LBB290:
 485              	.LBB291:
 486              	.LBB292:
 114:../../../../DaisyExamples/DaisySP//Source/Filters/fir.h ****         }
 487              		.loc 1 114 19 is_stmt 0 view .LVU107
 488 00aa 7822     		movs	r2, #120
 489              	.LBE292:
 490              	.LBE291:
 491              	.LBB296:
 492              	.LBB297:
 141:../../../../DaisyExamples/DaisySP//Source/Filters/fir.h ****             size_  = size;
 493              		.loc 1 141 20 view .LVU108
 494 00ac C4F86C31 		str	r3, [r4, #364]
 495              	.LBE297:
 496              	.LBE296:
 497              	.LBB300:
 498              	.LBB293:
 114:../../../../DaisyExamples/DaisySP//Source/Filters/fir.h ****         }
 499              		.loc 1 114 19 view .LVU109
 500 00b0 0021     		movs	r1, #0
 501              	.LBE293:
ARM GAS  C:\Users\samue\AppData\Local\Temp\ccTlvsL9.s 			page 19


 502              	.LBE300:
 503              	.LBE290:
 504              	.LBE289:
 505              	.LBE288:
 506              	.LBB307:
 507              	.LBB287:
 104:../../../../DaisyExamples/DaisySP//Source/Filters/fir.h ****         state_size_ = length;
 508              		.loc 1 104 21 view .LVU110
 509 00b2 C4F86801 		str	r0, [r4, #360]
 105:../../../../DaisyExamples/DaisySP//Source/Filters/fir.h ****     }
 510              		.loc 1 105 9 is_stmt 1 view .LVU111
 511              	.LVL19:
 105:../../../../DaisyExamples/DaisySP//Source/Filters/fir.h ****     }
 512              		.loc 1 105 9 is_stmt 0 view .LVU112
 513              	.LBE287:
 514              	.LBE307:
 515              		.loc 2 18 5 is_stmt 1 view .LVU113
 516              	.LBB308:
 517              	.LBI288:
 518              		.loc 1 252 17 view .LVU114
 519              	.LBB306:
 520              	.LBI289:
 242:../../../../DaisyExamples/DaisySP//Source/Filters/fir.h ****     {
 521              		.loc 1 242 10 view .LVU115
 522              	.LBB305:
 523              	.LBB301:
 524              	.LBI296:
 133:../../../../DaisyExamples/DaisySP//Source/Filters/fir.h ****     {
 525              		.loc 1 133 10 view .LVU116
 526              	.LBB298:
 136:../../../../DaisyExamples/DaisySP//Source/Filters/fir.h ****         assert(nullptr != coefs || 0 == size);
 527              		.loc 1 136 9 view .LVU117
 137:../../../../DaisyExamples/DaisySP//Source/Filters/fir.h **** 
 528              		.loc 1 137 9 view .LVU118
 139:../../../../DaisyExamples/DaisySP//Source/Filters/fir.h ****         {
 529              		.loc 1 139 9 view .LVU119
 141:../../../../DaisyExamples/DaisySP//Source/Filters/fir.h ****             size_  = size;
 530              		.loc 1 141 13 view .LVU120
 142:../../../../DaisyExamples/DaisySP//Source/Filters/fir.h ****             return true;
 531              		.loc 1 142 13 view .LVU121
 143:../../../../DaisyExamples/DaisySP//Source/Filters/fir.h ****         }
 532              		.loc 1 143 13 view .LVU122
 143:../../../../DaisyExamples/DaisySP//Source/Filters/fir.h ****         }
 533              		.loc 1 143 13 is_stmt 0 view .LVU123
 534              	.LBE298:
 535              	.LBE301:
 536              	.LBB302:
 537              	.LBI291:
 108:../../../../DaisyExamples/DaisySP//Source/Filters/fir.h ****     {
 538              		.loc 1 108 10 is_stmt 1 view .LVU124
 539              	.LBB294:
 110:../../../../DaisyExamples/DaisySP//Source/Filters/fir.h ****         assert(0 != state_size_);
 540              		.loc 1 110 9 view .LVU125
 111:../../../../DaisyExamples/DaisySP//Source/Filters/fir.h ****         if(nullptr != state_)
 541              		.loc 1 111 9 view .LVU126
 112:../../../../DaisyExamples/DaisySP//Source/Filters/fir.h ****         {
 542              		.loc 1 112 9 view .LVU127
ARM GAS  C:\Users\samue\AppData\Local\Temp\ccTlvsL9.s 			page 20


 114:../../../../DaisyExamples/DaisySP//Source/Filters/fir.h ****         }
 543              		.loc 1 114 13 view .LVU128
 544              	.LBE294:
 545              	.LBE302:
 546              	.LBB303:
 547              	.LBB299:
 142:../../../../DaisyExamples/DaisySP//Source/Filters/fir.h ****             return true;
 548              		.loc 1 142 20 is_stmt 0 view .LVU129
 549 00b6 C4E95C78 		strd	r7, r8, [r4, #368]
 550              	.LBE299:
 551              	.LBE303:
 552              	.LBB304:
 553              	.LBB295:
 114:../../../../DaisyExamples/DaisySP//Source/Filters/fir.h ****         }
 554              		.loc 1 114 19 view .LVU130
 555 00ba FFF7FEFF 		bl	memset
 556              	.LVL20:
 114:../../../../DaisyExamples/DaisySP//Source/Filters/fir.h ****         }
 557              		.loc 1 114 19 view .LVU131
 558              	.LBE295:
 559              	.LBE304:
 560              	.LBE305:
 561              	.LBE306:
 562              	.LBE308:
  19:voice.cpp     **** 
  20:voice.cpp     ****     noise_.Init();
 563              		.loc 2 20 5 is_stmt 1 view .LVU132
 564              	.LBB309:
 565              	.LBI309:
 566              		.file 5 "../../../../DaisyExamples/DaisySP//Source/Noise/whitenoise.h"
   1:../../../../DaisyExamples/DaisySP//Source/Noise/whitenoise.h **** /*
   2:../../../../DaisyExamples/DaisySP//Source/Noise/whitenoise.h **** Copyright (c) 2020 Electrosmith, Corp
   3:../../../../DaisyExamples/DaisySP//Source/Noise/whitenoise.h **** 
   4:../../../../DaisyExamples/DaisySP//Source/Noise/whitenoise.h **** Use of this source code is governed by an MIT-style
   5:../../../../DaisyExamples/DaisySP//Source/Noise/whitenoise.h **** license that can be found in the LICENSE file or at
   6:../../../../DaisyExamples/DaisySP//Source/Noise/whitenoise.h **** https://opensource.org/licenses/MIT.
   7:../../../../DaisyExamples/DaisySP//Source/Noise/whitenoise.h **** */
   8:../../../../DaisyExamples/DaisySP//Source/Noise/whitenoise.h **** 
   9:../../../../DaisyExamples/DaisySP//Source/Noise/whitenoise.h **** #pragma once
  10:../../../../DaisyExamples/DaisySP//Source/Noise/whitenoise.h **** #ifndef DSY_WHITENOISE_H
  11:../../../../DaisyExamples/DaisySP//Source/Noise/whitenoise.h **** #define DSY_WHITENOISE_H
  12:../../../../DaisyExamples/DaisySP//Source/Noise/whitenoise.h **** #include <stdint.h>
  13:../../../../DaisyExamples/DaisySP//Source/Noise/whitenoise.h **** #ifdef __cplusplus
  14:../../../../DaisyExamples/DaisySP//Source/Noise/whitenoise.h **** namespace daisysp
  15:../../../../DaisyExamples/DaisySP//Source/Noise/whitenoise.h **** {
  16:../../../../DaisyExamples/DaisySP//Source/Noise/whitenoise.h **** /** fast white noise generator
  17:../../../../DaisyExamples/DaisySP//Source/Noise/whitenoise.h **** 
  18:../../../../DaisyExamples/DaisySP//Source/Noise/whitenoise.h ****     I think this came from musicdsp.org at some point
  19:../../../../DaisyExamples/DaisySP//Source/Noise/whitenoise.h **** */
  20:../../../../DaisyExamples/DaisySP//Source/Noise/whitenoise.h **** class WhiteNoise
  21:../../../../DaisyExamples/DaisySP//Source/Noise/whitenoise.h **** {
  22:../../../../DaisyExamples/DaisySP//Source/Noise/whitenoise.h ****   public:
  23:../../../../DaisyExamples/DaisySP//Source/Noise/whitenoise.h ****     WhiteNoise() {}
  24:../../../../DaisyExamples/DaisySP//Source/Noise/whitenoise.h ****     ~WhiteNoise() {}
  25:../../../../DaisyExamples/DaisySP//Source/Noise/whitenoise.h ****     /** Initializes the WhiteNoise object
  26:../../../../DaisyExamples/DaisySP//Source/Noise/whitenoise.h ****     */
  27:../../../../DaisyExamples/DaisySP//Source/Noise/whitenoise.h ****     void Init()
ARM GAS  C:\Users\samue\AppData\Local\Temp\ccTlvsL9.s 			page 21


 567              		.loc 5 27 10 view .LVU133
 568              	.LBB310:
  28:../../../../DaisyExamples/DaisySP//Source/Noise/whitenoise.h ****     {
  29:../../../../DaisyExamples/DaisySP//Source/Noise/whitenoise.h ****         amp_      = 1.0f;
 569              		.loc 5 29 9 view .LVU134
 570              	.LBE310:
 571              	.LBE309:
 572              	.LBB312:
 573              	.LBB313:
 574              		.file 6 "../../../../DaisyExamples/DaisySP//Source/Filters/onepole.h"
   1:../../../../DaisyExamples/DaisySP//Source/Filters/onepole.h **** /*
   2:../../../../DaisyExamples/DaisySP//Source/Filters/onepole.h **** Copyright (c) 2020 Electrosmith, Corp, Emilie Gillet
   3:../../../../DaisyExamples/DaisySP//Source/Filters/onepole.h **** 
   4:../../../../DaisyExamples/DaisySP//Source/Filters/onepole.h **** Use of this source code is governed by an MIT-style
   5:../../../../DaisyExamples/DaisySP//Source/Filters/onepole.h **** license that can be found in the LICENSE file or at
   6:../../../../DaisyExamples/DaisySP//Source/Filters/onepole.h **** https://opensource.org/licenses/MIT.
   7:../../../../DaisyExamples/DaisySP//Source/Filters/onepole.h **** */
   8:../../../../DaisyExamples/DaisySP//Source/Filters/onepole.h **** 
   9:../../../../DaisyExamples/DaisySP//Source/Filters/onepole.h **** #ifndef DSY_ONEPOLE_H
  10:../../../../DaisyExamples/DaisySP//Source/Filters/onepole.h **** #define DSY_ONEPOLE_H
  11:../../../../DaisyExamples/DaisySP//Source/Filters/onepole.h **** 
  12:../../../../DaisyExamples/DaisySP//Source/Filters/onepole.h **** #include "Utility/dsp.h"
  13:../../../../DaisyExamples/DaisySP//Source/Filters/onepole.h **** #include <cmath>
  14:../../../../DaisyExamples/DaisySP//Source/Filters/onepole.h **** #include <algorithm>
  15:../../../../DaisyExamples/DaisySP//Source/Filters/onepole.h **** 
  16:../../../../DaisyExamples/DaisySP//Source/Filters/onepole.h **** namespace daisysp
  17:../../../../DaisyExamples/DaisySP//Source/Filters/onepole.h **** {
  18:../../../../DaisyExamples/DaisySP//Source/Filters/onepole.h **** /**         
  19:../../../../DaisyExamples/DaisySP//Source/Filters/onepole.h ****     @brief One Pole Lowpass / Highpass Filter
  20:../../../../DaisyExamples/DaisySP//Source/Filters/onepole.h ****     @author beserge
  21:../../../../DaisyExamples/DaisySP//Source/Filters/onepole.h ****     @date Dec 2023 
  22:../../../../DaisyExamples/DaisySP//Source/Filters/onepole.h ****     Ported from pichenettes/stmlib/dsp/filter.h \n 
  23:../../../../DaisyExamples/DaisySP//Source/Filters/onepole.h ****     \n to an independent module. \n
  24:../../../../DaisyExamples/DaisySP//Source/Filters/onepole.h ****     Original code written by Emilie Gillet. \n
  25:../../../../DaisyExamples/DaisySP//Source/Filters/onepole.h **** */
  26:../../../../DaisyExamples/DaisySP//Source/Filters/onepole.h **** class OnePole
  27:../../../../DaisyExamples/DaisySP//Source/Filters/onepole.h **** {
  28:../../../../DaisyExamples/DaisySP//Source/Filters/onepole.h ****   public:
  29:../../../../DaisyExamples/DaisySP//Source/Filters/onepole.h ****     OnePole() {}
  30:../../../../DaisyExamples/DaisySP//Source/Filters/onepole.h ****     ~OnePole() {}
  31:../../../../DaisyExamples/DaisySP//Source/Filters/onepole.h **** 
  32:../../../../DaisyExamples/DaisySP//Source/Filters/onepole.h ****     /**
  33:../../../../DaisyExamples/DaisySP//Source/Filters/onepole.h ****      * @brief Operational modes of the filter
  34:../../../../DaisyExamples/DaisySP//Source/Filters/onepole.h ****      * - LOW_PASS = cuts out high frequency sound, lets low frequency sound pass through
  35:../../../../DaisyExamples/DaisySP//Source/Filters/onepole.h ****      * - HIGH_PASS = cuts out low frequency sound, lets high frequency sound pass through
  36:../../../../DaisyExamples/DaisySP//Source/Filters/onepole.h ****      */
  37:../../../../DaisyExamples/DaisySP//Source/Filters/onepole.h ****     enum FilterMode
  38:../../../../DaisyExamples/DaisySP//Source/Filters/onepole.h ****     {
  39:../../../../DaisyExamples/DaisySP//Source/Filters/onepole.h ****         FILTER_MODE_LOW_PASS,
  40:../../../../DaisyExamples/DaisySP//Source/Filters/onepole.h ****         FILTER_MODE_HIGH_PASS
  41:../../../../DaisyExamples/DaisySP//Source/Filters/onepole.h ****     };
  42:../../../../DaisyExamples/DaisySP//Source/Filters/onepole.h **** 
  43:../../../../DaisyExamples/DaisySP//Source/Filters/onepole.h ****     /** Initializes the module */
  44:../../../../DaisyExamples/DaisySP//Source/Filters/onepole.h ****     void Init()
  45:../../../../DaisyExamples/DaisySP//Source/Filters/onepole.h ****     {
  46:../../../../DaisyExamples/DaisySP//Source/Filters/onepole.h ****         Reset();
  47:../../../../DaisyExamples/DaisySP//Source/Filters/onepole.h ****         mode_ = FILTER_MODE_LOW_PASS;
ARM GAS  C:\Users\samue\AppData\Local\Temp\ccTlvsL9.s 			page 22


  48:../../../../DaisyExamples/DaisySP//Source/Filters/onepole.h ****     }
  49:../../../../DaisyExamples/DaisySP//Source/Filters/onepole.h **** 
  50:../../../../DaisyExamples/DaisySP//Source/Filters/onepole.h ****     /** Reset the module to its default state */
  51:../../../../DaisyExamples/DaisySP//Source/Filters/onepole.h ****     inline void Reset() { state_ = 0.0f; }
  52:../../../../DaisyExamples/DaisySP//Source/Filters/onepole.h **** 
  53:../../../../DaisyExamples/DaisySP//Source/Filters/onepole.h ****     /** Set the filter cutoff frequency
  54:../../../../DaisyExamples/DaisySP//Source/Filters/onepole.h ****     *   \param freq Cutoff frequency. Valid range from 0 to .497f
  55:../../../../DaisyExamples/DaisySP//Source/Filters/onepole.h ****     */
  56:../../../../DaisyExamples/DaisySP//Source/Filters/onepole.h ****     inline void SetFrequency(float freq)
  57:../../../../DaisyExamples/DaisySP//Source/Filters/onepole.h ****     {
  58:../../../../DaisyExamples/DaisySP//Source/Filters/onepole.h ****         // Clip coefficient to about 100.
  59:../../../../DaisyExamples/DaisySP//Source/Filters/onepole.h ****         freq = freq < 0.497f ? freq : 0.497f;
  60:../../../../DaisyExamples/DaisySP//Source/Filters/onepole.h **** 
  61:../../../../DaisyExamples/DaisySP//Source/Filters/onepole.h ****         g_  = tanf(PI_F * freq);
 575              		.loc 6 61 13 is_stmt 0 view .LVU135
 576 00be 144A     		ldr	r2, .L16+8
  62:../../../../DaisyExamples/DaisySP//Source/Filters/onepole.h ****         gi_ = 1.f / (1.f + g_);
 577              		.loc 6 62 13 view .LVU136
 578 00c0 144B     		ldr	r3, .L16+12
 579              	.LBE313:
 580              	.LBE312:
  21:voice.cpp     ****     noise_hpf_.Init();
  22:voice.cpp     ****     noise_hpf_.SetFrequency(0.005f);
  23:voice.cpp     ****     noise_hpf_.SetFilterMode(noise_hpf_.FILTER_MODE_HIGH_PASS);
  24:voice.cpp     ****     noise_lpf_.Init();
  25:voice.cpp     ****     noise_lpf_.SetFrequency(0.005f);
  26:voice.cpp     **** 
  27:voice.cpp     ****     fm_.Init(fs);
 581              		.loc 2 27 13 view .LVU137
 582 00c2 B0EE480A 		vmov.f32	s0, s16
 583              	.LBB316:
 584              	.LBB314:
  61:../../../../DaisyExamples/DaisySP//Source/Filters/onepole.h ****         gi_ = 1.f / (1.f + g_);
 585              		.loc 6 61 13 view .LVU138
 586 00c6 C4F82021 		str	r2, [r4, #288]	@ float
 587              	.LBE314:
 588              	.LBE316:
 589              		.loc 2 27 13 view .LVU139
 590 00ca 2046     		mov	r0, r4
 591              	.LBB317:
 592              	.LBB318:
  61:../../../../DaisyExamples/DaisySP//Source/Filters/onepole.h ****         gi_ = 1.f / (1.f + g_);
 593              		.loc 6 61 13 view .LVU140
 594 00cc C4F81021 		str	r2, [r4, #272]	@ float
 595              	.LBE318:
 596              	.LBE317:
 597              	.LBB321:
 598              	.LBB322:
  47:../../../../DaisyExamples/DaisySP//Source/Filters/onepole.h ****     }
 599              		.loc 6 47 15 view .LVU141
 600 00d0 0022     		movs	r2, #0
 601              	.LBE322:
 602              	.LBE321:
 603              	.LBB327:
 604              	.LBB311:
 605              		.loc 5 29 19 view .LVU142
 606 00d2 84ED429A 		vstr.32	s18, [r4, #264]
ARM GAS  C:\Users\samue\AppData\Local\Temp\ccTlvsL9.s 			page 23


  30:../../../../DaisyExamples/DaisySP//Source/Noise/whitenoise.h ****         randseed_ = 1;
 607              		.loc 5 30 9 is_stmt 1 view .LVU143
 608              		.loc 5 30 19 is_stmt 0 view .LVU144
 609 00d6 C4F80C61 		str	r6, [r4, #268]
 610              	.LVL21:
 611              		.loc 5 30 19 view .LVU145
 612              	.LBE311:
 613              	.LBE327:
  21:voice.cpp     ****     noise_hpf_.SetFrequency(0.005f);
 614              		.loc 2 21 5 is_stmt 1 view .LVU146
 615              	.LBB328:
 616              	.LBI328:
  44:../../../../DaisyExamples/DaisySP//Source/Filters/onepole.h ****     {
 617              		.loc 6 44 10 view .LVU147
 618              	.LBE328:
  46:../../../../DaisyExamples/DaisySP//Source/Filters/onepole.h ****         mode_ = FILTER_MODE_LOW_PASS;
 619              		.loc 6 46 9 view .LVU148
 620              	.LBB331:
 621              	.LBB329:
 622              	.LBI329:
  51:../../../../DaisyExamples/DaisySP//Source/Filters/onepole.h **** 
 623              		.loc 6 51 17 view .LVU149
 624              	.LBB330:
  51:../../../../DaisyExamples/DaisySP//Source/Filters/onepole.h **** 
 625              		.loc 6 51 27 view .LVU150
  51:../../../../DaisyExamples/DaisySP//Source/Filters/onepole.h **** 
 626              		.loc 6 51 34 is_stmt 0 view .LVU151
 627 00da C4F82851 		str	r5, [r4, #296]	@ float
 628              	.LVL22:
  51:../../../../DaisyExamples/DaisySP//Source/Filters/onepole.h **** 
 629              		.loc 6 51 34 view .LVU152
 630              	.LBE330:
 631              	.LBE329:
 632              	.LBE331:
  47:../../../../DaisyExamples/DaisySP//Source/Filters/onepole.h ****     }
 633              		.loc 6 47 9 is_stmt 1 view .LVU153
  22:voice.cpp     ****     noise_hpf_.SetFilterMode(noise_hpf_.FILTER_MODE_HIGH_PASS);
 634              		.loc 2 22 5 view .LVU154
 635              	.LBB332:
 636              	.LBI312:
  56:../../../../DaisyExamples/DaisySP//Source/Filters/onepole.h ****     {
 637              		.loc 6 56 17 view .LVU155
 638              	.LBB315:
  59:../../../../DaisyExamples/DaisySP//Source/Filters/onepole.h **** 
 639              		.loc 6 59 9 view .LVU156
  61:../../../../DaisyExamples/DaisySP//Source/Filters/onepole.h ****         gi_ = 1.f / (1.f + g_);
 640              		.loc 6 61 9 view .LVU157
 641              		.loc 6 62 9 view .LVU158
 642              		.loc 6 62 13 is_stmt 0 view .LVU159
 643 00de C4F82431 		str	r3, [r4, #292]	@ float
 644              	.LVL23:
 645              		.loc 6 62 13 view .LVU160
 646              	.LBE315:
 647              	.LBE332:
  23:voice.cpp     ****     noise_lpf_.Init();
 648              		.loc 2 23 5 is_stmt 1 view .LVU161
 649              	.LBB333:
ARM GAS  C:\Users\samue\AppData\Local\Temp\ccTlvsL9.s 			page 24


 650              	.LBI333:
  63:../../../../DaisyExamples/DaisySP//Source/Filters/onepole.h ****     }
  64:../../../../DaisyExamples/DaisySP//Source/Filters/onepole.h **** 
  65:../../../../DaisyExamples/DaisySP//Source/Filters/onepole.h ****     /** Set the filter mode
  66:../../../../DaisyExamples/DaisySP//Source/Filters/onepole.h ****     *   \param mode Filter mode. Can be lowpass or highpass
  67:../../../../DaisyExamples/DaisySP//Source/Filters/onepole.h ****     */
  68:../../../../DaisyExamples/DaisySP//Source/Filters/onepole.h ****     inline void SetFilterMode(FilterMode mode) { mode_ = mode; }
 651              		.loc 6 68 17 view .LVU162
 652              	.LBB334:
 653              		.loc 6 68 50 view .LVU163
 654              		.loc 6 68 56 is_stmt 0 view .LVU164
 655 00e2 84F82C61 		strb	r6, [r4, #300]
 656              	.LVL24:
 657              		.loc 6 68 56 view .LVU165
 658              	.LBE334:
 659              	.LBE333:
  24:voice.cpp     ****     noise_lpf_.SetFrequency(0.005f);
 660              		.loc 2 24 5 is_stmt 1 view .LVU166
 661              	.LBB335:
 662              	.LBI321:
  44:../../../../DaisyExamples/DaisySP//Source/Filters/onepole.h ****     {
 663              		.loc 6 44 10 view .LVU167
 664              	.LBB325:
  46:../../../../DaisyExamples/DaisySP//Source/Filters/onepole.h ****         mode_ = FILTER_MODE_LOW_PASS;
 665              		.loc 6 46 9 view .LVU168
 666              	.LBB323:
 667              	.LBI323:
  51:../../../../DaisyExamples/DaisySP//Source/Filters/onepole.h **** 
 668              		.loc 6 51 17 view .LVU169
 669              	.LBB324:
  51:../../../../DaisyExamples/DaisySP//Source/Filters/onepole.h **** 
 670              		.loc 6 51 27 view .LVU170
  51:../../../../DaisyExamples/DaisySP//Source/Filters/onepole.h **** 
 671              		.loc 6 51 34 is_stmt 0 view .LVU171
 672 00e6 C4F81851 		str	r5, [r4, #280]	@ float
 673              	.LVL25:
  51:../../../../DaisyExamples/DaisySP//Source/Filters/onepole.h **** 
 674              		.loc 6 51 34 view .LVU172
 675              	.LBE324:
 676              	.LBE323:
  47:../../../../DaisyExamples/DaisySP//Source/Filters/onepole.h ****     }
 677              		.loc 6 47 9 is_stmt 1 view .LVU173
 678              	.LBE325:
 679              	.LBE335:
 680              	.LBB336:
 681              	.LBB319:
  62:../../../../DaisyExamples/DaisySP//Source/Filters/onepole.h ****     }
 682              		.loc 6 62 13 is_stmt 0 view .LVU174
 683 00ea C4F81431 		str	r3, [r4, #276]	@ float
 684              	.LBE319:
 685              	.LBE336:
 686              	.LBB337:
 687              	.LBB326:
  47:../../../../DaisyExamples/DaisySP//Source/Filters/onepole.h ****     }
 688              		.loc 6 47 15 view .LVU175
 689 00ee 84F81C21 		strb	r2, [r4, #284]
 690              	.LVL26:
ARM GAS  C:\Users\samue\AppData\Local\Temp\ccTlvsL9.s 			page 25


  47:../../../../DaisyExamples/DaisySP//Source/Filters/onepole.h ****     }
 691              		.loc 6 47 15 view .LVU176
 692              	.LBE326:
 693              	.LBE337:
  25:voice.cpp     **** 
 694              		.loc 2 25 5 is_stmt 1 view .LVU177
 695              	.LBB338:
 696              	.LBI317:
  56:../../../../DaisyExamples/DaisySP//Source/Filters/onepole.h ****     {
 697              		.loc 6 56 17 view .LVU178
 698              	.LBB320:
  59:../../../../DaisyExamples/DaisySP//Source/Filters/onepole.h **** 
 699              		.loc 6 59 9 view .LVU179
  61:../../../../DaisyExamples/DaisySP//Source/Filters/onepole.h ****         gi_ = 1.f / (1.f + g_);
 700              		.loc 6 61 9 view .LVU180
  62:../../../../DaisyExamples/DaisySP//Source/Filters/onepole.h ****     }
 701              		.loc 6 62 9 view .LVU181
  62:../../../../DaisyExamples/DaisySP//Source/Filters/onepole.h ****     }
 702              		.loc 6 62 9 is_stmt 0 view .LVU182
 703              	.LBE320:
 704              	.LBE338:
 705              		.loc 2 27 5 is_stmt 1 view .LVU183
 706              		.loc 2 27 13 is_stmt 0 view .LVU184
 707 00f2 FFF7FEFF 		bl	_ZN7daisysp3Fm24InitEf
 708              	.LVL27:
  28:voice.cpp     ****     fm_.SetRatio(0.5f);
 709              		.loc 2 28 5 is_stmt 1 view .LVU185
 710              		.loc 2 28 17 is_stmt 0 view .LVU186
 711 00f6 B0EE680A 		vmov.f32	s0, s17
 712 00fa 2046     		mov	r0, r4
  29:voice.cpp     ****     //filter_dist.SetStateBuffer(filter_state_dist, DSY_COUNTOF(filter_state_dist));
  30:voice.cpp     ****     //filter_dist.Init(taps_down, ntaps, false);    
  31:voice.cpp     **** }
 713              		.loc 2 31 1 view .LVU187
 714 00fc BDEC048B 		vldm	sp!, {d8-d9}
 715              		.cfi_restore 82
 716              		.cfi_restore 83
 717              		.cfi_restore 80
 718              		.cfi_restore 81
 719              		.cfi_def_cfa_offset 24
 720              	.LVL28:
 721              		.loc 2 31 1 view .LVU188
 722 0100 BDE8F041 		pop	{r4, r5, r6, r7, r8, lr}
 723              		.cfi_restore 14
 724              		.cfi_restore 8
 725              		.cfi_restore 7
 726              		.cfi_restore 6
 727              		.cfi_restore 5
 728              		.cfi_restore 4
 729              		.cfi_def_cfa_offset 0
 730              	.LVL29:
  28:voice.cpp     ****     fm_.SetRatio(0.5f);
 731              		.loc 2 28 17 view .LVU189
 732 0104 FFF7FEBF 		b	_ZN7daisysp3Fm28SetRatioEf
 733              	.LVL30:
 734              	.L17:
  28:voice.cpp     ****     fm_.SetRatio(0.5f);
ARM GAS  C:\Users\samue\AppData\Local\Temp\ccTlvsL9.s 			page 26


 735              		.loc 2 28 17 view .LVU190
 736              		.align	2
 737              	.L16:
 738 0108 0000C842 		.word	1120403456
 739 010c 6F12033B 		.word	990057071
 740 0110 B3B0803C 		.word	1015066803
 741 0114 660A7C3F 		.word	1065093734
 742              		.cfi_endproc
 743              	.LFE3515:
 745              		.section	.text._ZN5voice13set_noise_mixEf,"ax",%progbits
 746              		.align	1
 747              		.p2align 2,,3
 748              		.global	_ZN5voice13set_noise_mixEf
 749              		.syntax unified
 750              		.thumb
 751              		.thumb_func
 752              		.fpu fpv5-d16
 754              	_ZN5voice13set_noise_mixEf:
 755              	.LVL31:
 756              	.LFB3519:
  32:voice.cpp     **** 
  33:voice.cpp     **** void voice::set_noise_mix(float mix)
  34:voice.cpp     **** {
 757              		.loc 2 34 1 is_stmt 1 view -0
 758              		.cfi_startproc
 759              		@ args = 0, pretend = 0, frame = 0
 760              		@ frame_needed = 0, uses_anonymous_args = 0
 761              		@ link register save eliminated.
  35:voice.cpp     ****     fmap(mix, -0.05f, 1.05f);
 762              		.loc 2 35 5 view .LVU192
 763              	.LBB339:
 764              	.LBI339:
 765              		.file 7 "../../../../DaisyExamples/DaisySP//Source/Utility/dsp.h"
   1:../../../../DaisyExamples/DaisySP//Source/Utility/dsp.h **** /*
   2:../../../../DaisyExamples/DaisySP//Source/Utility/dsp.h **** Copyright (c) 2020 Electrosmith, Corp, Emilie Gillet
   3:../../../../DaisyExamples/DaisySP//Source/Utility/dsp.h **** 
   4:../../../../DaisyExamples/DaisySP//Source/Utility/dsp.h **** Use of this source code is governed by an MIT-style
   5:../../../../DaisyExamples/DaisySP//Source/Utility/dsp.h **** license that can be found in the LICENSE file or at
   6:../../../../DaisyExamples/DaisySP//Source/Utility/dsp.h **** https://opensource.org/licenses/MIT.
   7:../../../../DaisyExamples/DaisySP//Source/Utility/dsp.h **** */
   8:../../../../DaisyExamples/DaisySP//Source/Utility/dsp.h **** 
   9:../../../../DaisyExamples/DaisySP//Source/Utility/dsp.h **** /** Helpful defines, functions, and other utilities for use in/with daisysp modules.
  10:../../../../DaisyExamples/DaisySP//Source/Utility/dsp.h **** */
  11:../../../../DaisyExamples/DaisySP//Source/Utility/dsp.h **** #pragma once
  12:../../../../DaisyExamples/DaisySP//Source/Utility/dsp.h **** #ifndef DSY_CORE_DSP
  13:../../../../DaisyExamples/DaisySP//Source/Utility/dsp.h **** #define DSY_CORE_DSP
  14:../../../../DaisyExamples/DaisySP//Source/Utility/dsp.h **** #include <cassert>
  15:../../../../DaisyExamples/DaisySP//Source/Utility/dsp.h **** #include <cstdint>
  16:../../../../DaisyExamples/DaisySP//Source/Utility/dsp.h **** #include <random>
  17:../../../../DaisyExamples/DaisySP//Source/Utility/dsp.h **** #include <cmath>
  18:../../../../DaisyExamples/DaisySP//Source/Utility/dsp.h **** 
  19:../../../../DaisyExamples/DaisySP//Source/Utility/dsp.h **** /** PIs
  20:../../../../DaisyExamples/DaisySP//Source/Utility/dsp.h **** */
  21:../../../../DaisyExamples/DaisySP//Source/Utility/dsp.h **** #define PI_F 3.1415927410125732421875f
  22:../../../../DaisyExamples/DaisySP//Source/Utility/dsp.h **** #define TWOPI_F (2.0f * PI_F)
  23:../../../../DaisyExamples/DaisySP//Source/Utility/dsp.h **** #define HALFPI_F (PI_F * 0.5f)
  24:../../../../DaisyExamples/DaisySP//Source/Utility/dsp.h **** #define DSY_MIN(in, mn) (in < mn ? in : mn)
ARM GAS  C:\Users\samue\AppData\Local\Temp\ccTlvsL9.s 			page 27


  25:../../../../DaisyExamples/DaisySP//Source/Utility/dsp.h **** #define DSY_MAX(in, mx) (in > mx ? in : mx)
  26:../../../../DaisyExamples/DaisySP//Source/Utility/dsp.h **** #define DSY_CLAMP(in, mn, mx) (DSY_MIN(DSY_MAX(in, mn), mx))
  27:../../../../DaisyExamples/DaisySP//Source/Utility/dsp.h **** #define DSY_COUNTOF(_arr) (sizeof(_arr) / sizeof(_arr[0]))
  28:../../../../DaisyExamples/DaisySP//Source/Utility/dsp.h **** 
  29:../../../../DaisyExamples/DaisySP//Source/Utility/dsp.h **** namespace daisysp
  30:../../../../DaisyExamples/DaisySP//Source/Utility/dsp.h **** {
  31:../../../../DaisyExamples/DaisySP//Source/Utility/dsp.h **** //Avoids division for random floats. e.g. rand() * kRandFrac
  32:../../../../DaisyExamples/DaisySP//Source/Utility/dsp.h **** static constexpr float kRandFrac = 1.f / (float)RAND_MAX;
  33:../../../../DaisyExamples/DaisySP//Source/Utility/dsp.h **** 
  34:../../../../DaisyExamples/DaisySP//Source/Utility/dsp.h **** //Convert from semitones to other units. e.g. 2 ^ (kOneTwelfth * x)
  35:../../../../DaisyExamples/DaisySP//Source/Utility/dsp.h **** static constexpr float kOneTwelfth = 1.f / 12.f;
  36:../../../../DaisyExamples/DaisySP//Source/Utility/dsp.h **** 
  37:../../../../DaisyExamples/DaisySP//Source/Utility/dsp.h **** /** efficient floating point min/max
  38:../../../../DaisyExamples/DaisySP//Source/Utility/dsp.h **** c/o stephen mccaul
  39:../../../../DaisyExamples/DaisySP//Source/Utility/dsp.h **** */
  40:../../../../DaisyExamples/DaisySP//Source/Utility/dsp.h **** inline float fmax(float a, float b)
  41:../../../../DaisyExamples/DaisySP//Source/Utility/dsp.h **** {
  42:../../../../DaisyExamples/DaisySP//Source/Utility/dsp.h ****     float r;
  43:../../../../DaisyExamples/DaisySP//Source/Utility/dsp.h **** #ifdef __arm__
  44:../../../../DaisyExamples/DaisySP//Source/Utility/dsp.h ****     asm("vmaxnm.f32 %[d], %[n], %[m]" : [d] "=t"(r) : [n] "t"(a), [m] "t"(b) :);
  45:../../../../DaisyExamples/DaisySP//Source/Utility/dsp.h **** #else
  46:../../../../DaisyExamples/DaisySP//Source/Utility/dsp.h ****     r = (a > b) ? a : b;
  47:../../../../DaisyExamples/DaisySP//Source/Utility/dsp.h **** #endif // __arm__
  48:../../../../DaisyExamples/DaisySP//Source/Utility/dsp.h ****     return r;
  49:../../../../DaisyExamples/DaisySP//Source/Utility/dsp.h **** }
  50:../../../../DaisyExamples/DaisySP//Source/Utility/dsp.h **** 
  51:../../../../DaisyExamples/DaisySP//Source/Utility/dsp.h **** inline float fmin(float a, float b)
  52:../../../../DaisyExamples/DaisySP//Source/Utility/dsp.h **** {
  53:../../../../DaisyExamples/DaisySP//Source/Utility/dsp.h ****     float r;
  54:../../../../DaisyExamples/DaisySP//Source/Utility/dsp.h **** #ifdef __arm__
  55:../../../../DaisyExamples/DaisySP//Source/Utility/dsp.h ****     asm("vminnm.f32 %[d], %[n], %[m]" : [d] "=t"(r) : [n] "t"(a), [m] "t"(b) :);
  56:../../../../DaisyExamples/DaisySP//Source/Utility/dsp.h **** #else
  57:../../../../DaisyExamples/DaisySP//Source/Utility/dsp.h ****     r = (a < b) ? a : b;
  58:../../../../DaisyExamples/DaisySP//Source/Utility/dsp.h **** #endif // __arm__
  59:../../../../DaisyExamples/DaisySP//Source/Utility/dsp.h ****     return r;
  60:../../../../DaisyExamples/DaisySP//Source/Utility/dsp.h **** }
  61:../../../../DaisyExamples/DaisySP//Source/Utility/dsp.h **** 
  62:../../../../DaisyExamples/DaisySP//Source/Utility/dsp.h **** /** quick fp clamp
  63:../../../../DaisyExamples/DaisySP//Source/Utility/dsp.h **** */
  64:../../../../DaisyExamples/DaisySP//Source/Utility/dsp.h **** inline float fclamp(float in, float min, float max)
  65:../../../../DaisyExamples/DaisySP//Source/Utility/dsp.h **** {
  66:../../../../DaisyExamples/DaisySP//Source/Utility/dsp.h ****     return fmin(fmax(in, min), max);
  67:../../../../DaisyExamples/DaisySP//Source/Utility/dsp.h **** }
  68:../../../../DaisyExamples/DaisySP//Source/Utility/dsp.h **** 
  69:../../../../DaisyExamples/DaisySP//Source/Utility/dsp.h **** /** From Musicdsp.org "Fast power and root estimates for 32bit floats)
  70:../../../../DaisyExamples/DaisySP//Source/Utility/dsp.h **** Original code by Stefan Stenzel
  71:../../../../DaisyExamples/DaisySP//Source/Utility/dsp.h **** These are approximations
  72:../../../../DaisyExamples/DaisySP//Source/Utility/dsp.h **** */
  73:../../../../DaisyExamples/DaisySP//Source/Utility/dsp.h **** inline float fastpower(float f, int n)
  74:../../../../DaisyExamples/DaisySP//Source/Utility/dsp.h **** {
  75:../../../../DaisyExamples/DaisySP//Source/Utility/dsp.h ****     long *lp, l;
  76:../../../../DaisyExamples/DaisySP//Source/Utility/dsp.h ****     lp = (long *)(&f);
  77:../../../../DaisyExamples/DaisySP//Source/Utility/dsp.h ****     l  = *lp;
  78:../../../../DaisyExamples/DaisySP//Source/Utility/dsp.h ****     l -= 0x3F800000;
  79:../../../../DaisyExamples/DaisySP//Source/Utility/dsp.h ****     l <<= (n - 1);
  80:../../../../DaisyExamples/DaisySP//Source/Utility/dsp.h ****     l += 0x3F800000;
  81:../../../../DaisyExamples/DaisySP//Source/Utility/dsp.h ****     *lp = l;
ARM GAS  C:\Users\samue\AppData\Local\Temp\ccTlvsL9.s 			page 28


  82:../../../../DaisyExamples/DaisySP//Source/Utility/dsp.h ****     return f;
  83:../../../../DaisyExamples/DaisySP//Source/Utility/dsp.h **** }
  84:../../../../DaisyExamples/DaisySP//Source/Utility/dsp.h **** 
  85:../../../../DaisyExamples/DaisySP//Source/Utility/dsp.h **** inline float fastroot(float f, int n)
  86:../../../../DaisyExamples/DaisySP//Source/Utility/dsp.h **** {
  87:../../../../DaisyExamples/DaisySP//Source/Utility/dsp.h ****     long *lp, l;
  88:../../../../DaisyExamples/DaisySP//Source/Utility/dsp.h ****     lp = (long *)(&f);
  89:../../../../DaisyExamples/DaisySP//Source/Utility/dsp.h ****     l  = *lp;
  90:../../../../DaisyExamples/DaisySP//Source/Utility/dsp.h ****     l -= 0x3F800000;
  91:../../../../DaisyExamples/DaisySP//Source/Utility/dsp.h ****     l >>= (n - 1);
  92:../../../../DaisyExamples/DaisySP//Source/Utility/dsp.h ****     l += 0x3F800000;
  93:../../../../DaisyExamples/DaisySP//Source/Utility/dsp.h ****     *lp = l;
  94:../../../../DaisyExamples/DaisySP//Source/Utility/dsp.h ****     return f;
  95:../../../../DaisyExamples/DaisySP//Source/Utility/dsp.h **** }
  96:../../../../DaisyExamples/DaisySP//Source/Utility/dsp.h **** 
  97:../../../../DaisyExamples/DaisySP//Source/Utility/dsp.h **** /** Significantly more efficient than fmodf(x, 1.0f) for calculating
  98:../../../../DaisyExamples/DaisySP//Source/Utility/dsp.h ****  *  the decimal part of a floating point value.
  99:../../../../DaisyExamples/DaisySP//Source/Utility/dsp.h ****  */
 100:../../../../DaisyExamples/DaisySP//Source/Utility/dsp.h **** inline float fastmod1f(float x)
 101:../../../../DaisyExamples/DaisySP//Source/Utility/dsp.h **** {
 102:../../../../DaisyExamples/DaisySP//Source/Utility/dsp.h ****     return x - static_cast<int>(x);
 103:../../../../DaisyExamples/DaisySP//Source/Utility/dsp.h **** }
 104:../../../../DaisyExamples/DaisySP//Source/Utility/dsp.h **** 
 105:../../../../DaisyExamples/DaisySP//Source/Utility/dsp.h **** /** From http://openaudio.blogspot.com/2017/02/faster-log10-and-pow.html
 106:../../../../DaisyExamples/DaisySP//Source/Utility/dsp.h **** No approximation, pow10f(x) gives a 90% speed increase over powf(10.f, x)
 107:../../../../DaisyExamples/DaisySP//Source/Utility/dsp.h **** */
 108:../../../../DaisyExamples/DaisySP//Source/Utility/dsp.h **** inline float pow10f(float f)
 109:../../../../DaisyExamples/DaisySP//Source/Utility/dsp.h **** {
 110:../../../../DaisyExamples/DaisySP//Source/Utility/dsp.h ****     return expf(2.302585092994046f * f);
 111:../../../../DaisyExamples/DaisySP//Source/Utility/dsp.h **** }
 112:../../../../DaisyExamples/DaisySP//Source/Utility/dsp.h **** 
 113:../../../../DaisyExamples/DaisySP//Source/Utility/dsp.h **** /* Original code for fastlog2f by Dr. Paul Beckmann from the ARM community forum, adapted from the 
 114:../../../../DaisyExamples/DaisySP//Source/Utility/dsp.h **** About 25% performance increase over std::log10f
 115:../../../../DaisyExamples/DaisySP//Source/Utility/dsp.h **** */
 116:../../../../DaisyExamples/DaisySP//Source/Utility/dsp.h **** inline float fastlog2f(float f)
 117:../../../../DaisyExamples/DaisySP//Source/Utility/dsp.h **** {
 118:../../../../DaisyExamples/DaisySP//Source/Utility/dsp.h ****     float frac;
 119:../../../../DaisyExamples/DaisySP//Source/Utility/dsp.h ****     int   exp;
 120:../../../../DaisyExamples/DaisySP//Source/Utility/dsp.h ****     frac = frexpf(fabsf(f), &exp);
 121:../../../../DaisyExamples/DaisySP//Source/Utility/dsp.h ****     f    = 1.23149591368684f;
 122:../../../../DaisyExamples/DaisySP//Source/Utility/dsp.h ****     f *= frac;
 123:../../../../DaisyExamples/DaisySP//Source/Utility/dsp.h ****     f += -4.11852516267426f;
 124:../../../../DaisyExamples/DaisySP//Source/Utility/dsp.h ****     f *= frac;
 125:../../../../DaisyExamples/DaisySP//Source/Utility/dsp.h ****     f += 6.02197014179219f;
 126:../../../../DaisyExamples/DaisySP//Source/Utility/dsp.h ****     f *= frac;
 127:../../../../DaisyExamples/DaisySP//Source/Utility/dsp.h ****     f += -3.13396450166353f;
 128:../../../../DaisyExamples/DaisySP//Source/Utility/dsp.h ****     f += exp;
 129:../../../../DaisyExamples/DaisySP//Source/Utility/dsp.h ****     return (f);
 130:../../../../DaisyExamples/DaisySP//Source/Utility/dsp.h **** }
 131:../../../../DaisyExamples/DaisySP//Source/Utility/dsp.h **** 
 132:../../../../DaisyExamples/DaisySP//Source/Utility/dsp.h **** inline float fastlog10f(float f)
 133:../../../../DaisyExamples/DaisySP//Source/Utility/dsp.h **** {
 134:../../../../DaisyExamples/DaisySP//Source/Utility/dsp.h ****     return fastlog2f(f) * 0.3010299956639812f;
 135:../../../../DaisyExamples/DaisySP//Source/Utility/dsp.h **** }
 136:../../../../DaisyExamples/DaisySP//Source/Utility/dsp.h **** 
 137:../../../../DaisyExamples/DaisySP//Source/Utility/dsp.h **** /** Midi to frequency helper
 138:../../../../DaisyExamples/DaisySP//Source/Utility/dsp.h **** */
ARM GAS  C:\Users\samue\AppData\Local\Temp\ccTlvsL9.s 			page 29


 139:../../../../DaisyExamples/DaisySP//Source/Utility/dsp.h **** inline float mtof(float m)
 140:../../../../DaisyExamples/DaisySP//Source/Utility/dsp.h **** {
 141:../../../../DaisyExamples/DaisySP//Source/Utility/dsp.h ****     return powf(2, (m - 69.0f) / 12.0f) * 440.0f;
 142:../../../../DaisyExamples/DaisySP//Source/Utility/dsp.h **** }
 143:../../../../DaisyExamples/DaisySP//Source/Utility/dsp.h **** 
 144:../../../../DaisyExamples/DaisySP//Source/Utility/dsp.h **** 
 145:../../../../DaisyExamples/DaisySP//Source/Utility/dsp.h **** /** one pole lpf
 146:../../../../DaisyExamples/DaisySP//Source/Utility/dsp.h **** out is passed by reference, and must be retained between
 147:../../../../DaisyExamples/DaisySP//Source/Utility/dsp.h **** calls to properly filter the signal
 148:../../../../DaisyExamples/DaisySP//Source/Utility/dsp.h **** coeff can be calculated:
 149:../../../../DaisyExamples/DaisySP//Source/Utility/dsp.h **** coeff = 1.0 / (time * sample_rate) ; where time is in seconds
 150:../../../../DaisyExamples/DaisySP//Source/Utility/dsp.h **** */
 151:../../../../DaisyExamples/DaisySP//Source/Utility/dsp.h **** inline void fonepole(float &out, float in, float coeff)
 152:../../../../DaisyExamples/DaisySP//Source/Utility/dsp.h **** {
 153:../../../../DaisyExamples/DaisySP//Source/Utility/dsp.h ****     out += coeff * (in - out);
 154:../../../../DaisyExamples/DaisySP//Source/Utility/dsp.h **** }
 155:../../../../DaisyExamples/DaisySP//Source/Utility/dsp.h **** 
 156:../../../../DaisyExamples/DaisySP//Source/Utility/dsp.h **** /** Curves to use with the fmap function */
 157:../../../../DaisyExamples/DaisySP//Source/Utility/dsp.h **** enum class Mapping
 158:../../../../DaisyExamples/DaisySP//Source/Utility/dsp.h **** {
 159:../../../../DaisyExamples/DaisySP//Source/Utility/dsp.h ****     LINEAR,
 160:../../../../DaisyExamples/DaisySP//Source/Utility/dsp.h ****     EXP,
 161:../../../../DaisyExamples/DaisySP//Source/Utility/dsp.h ****     LOG,
 162:../../../../DaisyExamples/DaisySP//Source/Utility/dsp.h **** };
 163:../../../../DaisyExamples/DaisySP//Source/Utility/dsp.h **** 
 164:../../../../DaisyExamples/DaisySP//Source/Utility/dsp.h **** /** Maps a float between a specified range, using a specified curve.
 165:../../../../DaisyExamples/DaisySP//Source/Utility/dsp.h ****  *
 166:../../../../DaisyExamples/DaisySP//Source/Utility/dsp.h ****  *  \param in a value between 0 to 1 that will be mapped to the new range.
 167:../../../../DaisyExamples/DaisySP//Source/Utility/dsp.h ****  *  \param min the new minimum value
 168:../../../../DaisyExamples/DaisySP//Source/Utility/dsp.h ****  *  \param max the new maxmimum value
 169:../../../../DaisyExamples/DaisySP//Source/Utility/dsp.h ****  *  \param curve a Mapping Value to adjust the response curve of the transformation
 170:../../../../DaisyExamples/DaisySP//Source/Utility/dsp.h ****  *               defaults to Linear. @see Mapping
 171:../../../../DaisyExamples/DaisySP//Source/Utility/dsp.h ****  *
 172:../../../../DaisyExamples/DaisySP//Source/Utility/dsp.h ****  *  When using the log curve min and max, must be greater than zero.
 173:../../../../DaisyExamples/DaisySP//Source/Utility/dsp.h ****  *
 174:../../../../DaisyExamples/DaisySP//Source/Utility/dsp.h ****  *  \retval returns the transformed float within the new range.
 175:../../../../DaisyExamples/DaisySP//Source/Utility/dsp.h **** */
 176:../../../../DaisyExamples/DaisySP//Source/Utility/dsp.h **** inline float
 177:../../../../DaisyExamples/DaisySP//Source/Utility/dsp.h **** fmap(float in, float min, float max, Mapping curve = Mapping::LINEAR)
 766              		.loc 7 177 1 view .LVU193
 767              	.LBE339:
 178:../../../../DaisyExamples/DaisySP//Source/Utility/dsp.h **** {
 179:../../../../DaisyExamples/DaisySP//Source/Utility/dsp.h ****     switch(curve)
 768              		.loc 7 179 5 view .LVU194
 769              	.LBB348:
 770              	.LBB340:
 180:../../../../DaisyExamples/DaisySP//Source/Utility/dsp.h ****     {
 181:../../../../DaisyExamples/DaisySP//Source/Utility/dsp.h ****         case Mapping::EXP:
 182:../../../../DaisyExamples/DaisySP//Source/Utility/dsp.h ****             return fclamp(min + (in * in) * (max - min), min, max);
 183:../../../../DaisyExamples/DaisySP//Source/Utility/dsp.h ****         case Mapping::LOG:
 184:../../../../DaisyExamples/DaisySP//Source/Utility/dsp.h ****         {
 185:../../../../DaisyExamples/DaisySP//Source/Utility/dsp.h ****             const float a = 1.f / log10f(max / min);
 186:../../../../DaisyExamples/DaisySP//Source/Utility/dsp.h ****             return fclamp(min * powf(10, in / a), min, max);
 187:../../../../DaisyExamples/DaisySP//Source/Utility/dsp.h ****         }
 188:../../../../DaisyExamples/DaisySP//Source/Utility/dsp.h ****         case Mapping::LINEAR:
 771              		.loc 7 188 9 view .LVU195
 189:../../../../DaisyExamples/DaisySP//Source/Utility/dsp.h ****         default: return fclamp(min + in * (max - min), min, max);
ARM GAS  C:\Users\samue\AppData\Local\Temp\ccTlvsL9.s 			page 30


 772              		.loc 7 189 9 view .LVU196
 773              		.loc 7 189 18 view .LVU197
 774              	.LBB341:
 775              	.LBI341:
  64:../../../../DaisyExamples/DaisySP//Source/Utility/dsp.h **** {
 776              		.loc 7 64 14 view .LVU198
 777              	.LBE341:
 778              	.LBE340:
 779              	.LBE348:
  66:../../../../DaisyExamples/DaisySP//Source/Utility/dsp.h **** }
 780              		.loc 7 66 5 view .LVU199
 781              	.LBB349:
 782              	.LBB347:
 783              	.LBB346:
 784              	.LBB342:
 785              	.LBI342:
  40:../../../../DaisyExamples/DaisySP//Source/Utility/dsp.h **** {
 786              		.loc 7 40 14 view .LVU200
 787              	.LBB343:
  42:../../../../DaisyExamples/DaisySP//Source/Utility/dsp.h **** #ifdef __arm__
 788              		.loc 7 42 5 view .LVU201
  44:../../../../DaisyExamples/DaisySP//Source/Utility/dsp.h **** #else
 789              		.loc 7 44 5 view .LVU202
  48:../../../../DaisyExamples/DaisySP//Source/Utility/dsp.h **** }
 790              		.loc 7 48 5 view .LVU203
  48:../../../../DaisyExamples/DaisySP//Source/Utility/dsp.h **** }
 791              		.loc 7 48 5 is_stmt 0 view .LVU204
 792              	.LBE343:
 793              	.LBE342:
 794              	.LBB344:
 795              	.LBI344:
  51:../../../../DaisyExamples/DaisySP//Source/Utility/dsp.h **** {
 796              		.loc 7 51 14 is_stmt 1 view .LVU205
 797              	.LBB345:
  53:../../../../DaisyExamples/DaisySP//Source/Utility/dsp.h **** #ifdef __arm__
 798              		.loc 7 53 5 view .LVU206
  55:../../../../DaisyExamples/DaisySP//Source/Utility/dsp.h **** #else
 799              		.loc 7 55 5 view .LVU207
  59:../../../../DaisyExamples/DaisySP//Source/Utility/dsp.h **** }
 800              		.loc 7 59 5 view .LVU208
  59:../../../../DaisyExamples/DaisySP//Source/Utility/dsp.h **** }
 801              		.loc 7 59 5 is_stmt 0 view .LVU209
 802              	.LBE345:
 803              	.LBE344:
 804              	.LBE346:
 805              	.LBE347:
 806              	.LBE349:
  36:voice.cpp     ****     if(mix < 0.0f) mix = 0.0f;
 807              		.loc 2 36 5 is_stmt 1 view .LVU210
 808 0000 B5EEC00A 		vcmpe.f32	s0, #0
 809 0004 F1EE10FA 		vmrs	APSR_nzcv, FPSCR
 810 0008 0AD4     		bmi	.L21
  37:voice.cpp     ****     else if (mix > 1.0f) mix = 1.0f;
 811              		.loc 2 37 10 view .LVU211
 812 000a F7EE007A 		vmov.f32	s15, #1.0e+0
 813              		.loc 2 37 30 is_stmt 0 view .LVU212
 814 000e B4EE670A 		vcmp.f32	s0, s15
ARM GAS  C:\Users\samue\AppData\Local\Temp\ccTlvsL9.s 			page 31


 815 0012 F1EE10FA 		vmrs	APSR_nzcv, FPSCR
 816 0016 37FE800A 		vselgt.f32	s0, s15, s0
 817              	.LVL32:
  38:voice.cpp     ****     
  39:voice.cpp     ****     noise_mix_ = mix;
 818              		.loc 2 39 5 is_stmt 1 view .LVU213
 819              		.loc 2 39 16 is_stmt 0 view .LVU214
 820 001a 80ED500A 		vstr.32	s0, [r0, #320]
  40:voice.cpp     **** }
 821              		.loc 2 40 1 view .LVU215
 822 001e 7047     		bx	lr
 823              	.L21:
  36:voice.cpp     ****     else if (mix > 1.0f) mix = 1.0f;
 824              		.loc 2 36 24 view .LVU216
 825 0020 9FED020A 		vldr.32	s0, .L23
 826              	.LVL33:
  39:voice.cpp     **** }
 827              		.loc 2 39 5 is_stmt 1 view .LVU217
  39:voice.cpp     **** }
 828              		.loc 2 39 16 is_stmt 0 view .LVU218
 829 0024 80ED500A 		vstr.32	s0, [r0, #320]
 830              		.loc 2 40 1 view .LVU219
 831 0028 7047     		bx	lr
 832              	.L24:
 833 002a 00BF     		.align	2
 834              	.L23:
 835 002c 00000000 		.word	0
 836              		.cfi_endproc
 837              	.LFE3519:
 839              		.section	.text._ZN5voice8set_freqEf,"ax",%progbits
 840              		.align	1
 841              		.p2align 2,,3
 842              		.global	_ZN5voice8set_freqEf
 843              		.syntax unified
 844              		.thumb
 845              		.thumb_func
 846              		.fpu fpv5-d16
 848              	_ZN5voice8set_freqEf:
 849              	.LVL34:
 850              	.LFB3520:
  41:voice.cpp     **** 
  42:voice.cpp     **** void voice::set_freq(float freq)
  43:voice.cpp     **** {
 851              		.loc 2 43 1 is_stmt 1 view -0
 852              		.cfi_startproc
 853              		@ args = 0, pretend = 0, frame = 0
 854              		@ frame_needed = 0, uses_anonymous_args = 0
  44:voice.cpp     ****     freq = mtof(freq*120);
 855              		.loc 2 44 5 view .LVU221
  43:voice.cpp     ****     freq = mtof(freq*120);
 856              		.loc 2 43 1 is_stmt 0 view .LVU222
 857 0000 F0EE406A 		vmov.f32	s13, s0
 858              	.LVL35:
 859              	.LBB352:
 860              	.LBI352:
 139:../../../../DaisyExamples/DaisySP//Source/Utility/dsp.h **** {
 861              		.loc 7 139 14 is_stmt 1 view .LVU223
ARM GAS  C:\Users\samue\AppData\Local\Temp\ccTlvsL9.s 			page 32


 862              	.LBB353:
 141:../../../../DaisyExamples/DaisySP//Source/Utility/dsp.h **** }
 863              		.loc 7 141 5 view .LVU224
 141:../../../../DaisyExamples/DaisySP//Source/Utility/dsp.h **** }
 864              		.loc 7 141 23 is_stmt 0 view .LVU225
 865 0004 9FED0B7A 		vldr.32	s14, .L27
 866 0008 DFED0B7A 		vldr.32	s15, .L27+4
 141:../../../../DaisyExamples/DaisySP//Source/Utility/dsp.h **** }
 867              		.loc 7 141 16 view .LVU226
 868 000c F2EE080A 		vmov.f32	s1, #1.2e+1
 869 0010 B0EE000A 		vmov.f32	s0, #2.0e+0
 870              	.LVL36:
 141:../../../../DaisyExamples/DaisySP//Source/Utility/dsp.h **** }
 871              		.loc 7 141 23 view .LVU227
 872 0014 E6EE877A 		vfma.f32	s15, s13, s14
 873              	.LBE353:
 874              	.LBE352:
  43:voice.cpp     ****     freq = mtof(freq*120);
 875              		.loc 2 43 1 view .LVU228
 876 0018 10B5     		push	{r4, lr}
 877              		.cfi_def_cfa_offset 8
 878              		.cfi_offset 4, -8
 879              		.cfi_offset 14, -4
  43:voice.cpp     ****     freq = mtof(freq*120);
 880              		.loc 2 43 1 view .LVU229
 881 001a 0446     		mov	r4, r0
 882              	.LBB356:
 883              	.LBB354:
 141:../../../../DaisyExamples/DaisySP//Source/Utility/dsp.h **** }
 884              		.loc 7 141 16 view .LVU230
 885 001c C7EEA00A 		vdiv.f32	s1, s15, s1
 886 0020 FFF7FEFF 		bl	powf
 887              	.LVL37:
 141:../../../../DaisyExamples/DaisySP//Source/Utility/dsp.h **** }
 888              		.loc 7 141 16 view .LVU231
 889              	.LBE354:
 890              	.LBE356:
  45:voice.cpp     ****     //osc_.SetFreq(freq);
  46:voice.cpp     ****     osc_freq_ = freq;
 891              		.loc 2 46 5 is_stmt 1 view .LVU232
 892              	.LBB357:
 893              	.LBB355:
 141:../../../../DaisyExamples/DaisySP//Source/Utility/dsp.h **** }
 894              		.loc 7 141 43 is_stmt 0 view .LVU233
 895 0024 DFED057A 		vldr.32	s15, .L27+8
 896 0028 20EE270A 		vmul.f32	s0, s0, s15
 897              	.LVL38:
 141:../../../../DaisyExamples/DaisySP//Source/Utility/dsp.h **** }
 898              		.loc 7 141 43 view .LVU234
 899              	.LBE355:
 900              	.LBE357:
 901              		.loc 2 46 15 view .LVU235
 902 002c 84ED4D0A 		vstr.32	s0, [r4, #308]
  47:voice.cpp     **** }
 903              		.loc 2 47 1 view .LVU236
 904 0030 10BD     		pop	{r4, pc}
 905              	.LVL39:
ARM GAS  C:\Users\samue\AppData\Local\Temp\ccTlvsL9.s 			page 33


 906              	.L28:
 907              		.loc 2 47 1 view .LVU237
 908 0032 00BF     		.align	2
 909              	.L27:
 910 0034 0000F042 		.word	1123024896
 911 0038 00008AC2 		.word	-1031143424
 912 003c 0000DC43 		.word	1138491392
 913              		.cfi_endproc
 914              	.LFE3520:
 916              		.section	.text._ZN5voice14set_wave_shapeEh,"ax",%progbits
 917              		.align	1
 918              		.p2align 2,,3
 919              		.global	_ZN5voice14set_wave_shapeEh
 920              		.syntax unified
 921              		.thumb
 922              		.thumb_func
 923              		.fpu fpv5-d16
 925              	_ZN5voice14set_wave_shapeEh:
 926              	.LVL40:
 927              	.LFB3521:
  48:voice.cpp     **** 
  49:voice.cpp     **** void voice::set_wave_shape(uint8_t shape)
  50:voice.cpp     **** {
 928              		.loc 2 50 1 is_stmt 1 view -0
 929              		.cfi_startproc
 930              		@ args = 0, pretend = 0, frame = 0
 931              		@ frame_needed = 0, uses_anonymous_args = 0
 932              		@ link register save eliminated.
  51:voice.cpp     ****     if(shape == TRI) osc_.SetWaveform(osc_.WAVE_POLYBLEP_TRI);
 933              		.loc 2 51 5 view .LVU239
 934 0000 19B9     		cbnz	r1, .L30
 935              		.loc 2 51 22 discriminator 1 view .LVU240
 936              	.LVL41:
 937              	.LBB358:
 938              	.LBI358:
  79:../../../../DaisyExamples/DaisySP//Source/Synthesis/oscillator.h ****     {
 939              		.loc 3 79 17 discriminator 1 view .LVU241
 940              	.LBB359:
 941              		.loc 3 81 9 discriminator 1 view .LVU242
 942              		.loc 3 81 19 is_stmt 0 discriminator 1 view .LVU243
 943 0002 0523     		movs	r3, #5
 944 0004 80F86C30 		strb	r3, [r0, #108]
  82:../../../../DaisyExamples/DaisySP//Source/Synthesis/oscillator.h ****     }
 945              		.loc 3 82 5 discriminator 1 view .LVU244
 946 0008 7047     		bx	lr
 947              	.LVL42:
 948              	.L30:
 949              		.loc 3 82 5 discriminator 1 view .LVU245
 950              	.LBE359:
 951              	.LBE358:
  52:voice.cpp     ****     else if(shape == SIN) osc_.SetWaveform(osc_.WAVE_SIN);
 952              		.loc 2 52 10 is_stmt 1 view .LVU246
 953 000a 0129     		cmp	r1, #1
 954 000c 05D0     		beq	.L33
  53:voice.cpp     ****     else if(shape == SAW) osc_.SetWaveform(osc_.WAVE_POLYBLEP_SAW);
 955              		.loc 2 53 10 view .LVU247
 956 000e 0229     		cmp	r1, #2
ARM GAS  C:\Users\samue\AppData\Local\Temp\ccTlvsL9.s 			page 34


 957 0010 02D1     		bne	.L29
 958              		.loc 2 53 27 discriminator 1 view .LVU248
 959              	.LVL43:
 960              	.LBB360:
 961              	.LBI360:
  79:../../../../DaisyExamples/DaisySP//Source/Synthesis/oscillator.h ****     {
 962              		.loc 3 79 17 discriminator 1 view .LVU249
 963              	.LBB361:
  81:../../../../DaisyExamples/DaisySP//Source/Synthesis/oscillator.h ****     }
 964              		.loc 3 81 9 discriminator 1 view .LVU250
  81:../../../../DaisyExamples/DaisySP//Source/Synthesis/oscillator.h ****     }
 965              		.loc 3 81 19 is_stmt 0 discriminator 1 view .LVU251
 966 0012 0623     		movs	r3, #6
 967 0014 80F86C30 		strb	r3, [r0, #108]
 968              	.LVL44:
 969              	.L29:
  81:../../../../DaisyExamples/DaisySP//Source/Synthesis/oscillator.h ****     }
 970              		.loc 3 81 19 discriminator 1 view .LVU252
 971              	.LBE361:
 972              	.LBE360:
  54:voice.cpp     **** }
 973              		.loc 2 54 1 view .LVU253
 974 0018 7047     		bx	lr
 975              	.L33:
  52:voice.cpp     ****     else if(shape == SAW) osc_.SetWaveform(osc_.WAVE_POLYBLEP_SAW);
 976              		.loc 2 52 27 is_stmt 1 discriminator 1 view .LVU254
 977              	.LVL45:
 978              	.LBB362:
 979              	.LBI362:
  79:../../../../DaisyExamples/DaisySP//Source/Synthesis/oscillator.h ****     {
 980              		.loc 3 79 17 discriminator 1 view .LVU255
 981              	.LBB363:
  81:../../../../DaisyExamples/DaisySP//Source/Synthesis/oscillator.h ****     }
 982              		.loc 3 81 9 discriminator 1 view .LVU256
  81:../../../../DaisyExamples/DaisySP//Source/Synthesis/oscillator.h ****     }
 983              		.loc 3 81 19 is_stmt 0 discriminator 1 view .LVU257
 984 001a 0023     		movs	r3, #0
 985 001c 80F86C30 		strb	r3, [r0, #108]
 986              		.loc 3 82 5 discriminator 1 view .LVU258
 987 0020 7047     		bx	lr
 988              	.LBE363:
 989              	.LBE362:
 990              		.cfi_endproc
 991              	.LFE3521:
 993 0022 00BF     		.section	.text._ZN5voice14set_distortionEf,"ax",%progbits
 994              		.align	1
 995              		.p2align 2,,3
 996              		.global	_ZN5voice14set_distortionEf
 997              		.syntax unified
 998              		.thumb
 999              		.thumb_func
 1000              		.fpu fpv5-d16
 1002              	_ZN5voice14set_distortionEf:
 1003              	.LVL46:
 1004              	.LFB3522:
  55:voice.cpp     **** 
  56:voice.cpp     **** void voice::set_distortion(float gain)
ARM GAS  C:\Users\samue\AppData\Local\Temp\ccTlvsL9.s 			page 35


  57:voice.cpp     **** {
 1005              		.loc 2 57 1 is_stmt 1 view -0
 1006              		.cfi_startproc
 1007              		@ args = 0, pretend = 0, frame = 0
 1008              		@ frame_needed = 0, uses_anonymous_args = 0
  58:voice.cpp     ****     distortion_gain_ = pow10f(2*gain) - 0.99f;
 1009              		.loc 2 58 5 view .LVU260
 1010              	.LBB366:
 1011              	.LBI366:
 108:../../../../DaisyExamples/DaisySP//Source/Utility/dsp.h **** {
 1012              		.loc 7 108 14 view .LVU261
 1013              	.LBB367:
 110:../../../../DaisyExamples/DaisySP//Source/Utility/dsp.h **** }
 1014              		.loc 7 110 5 view .LVU262
 1015              	.LBE367:
 1016              	.LBE366:
 1017              		.loc 2 58 30 is_stmt 0 view .LVU263
 1018 0000 30EE000A 		vadd.f32	s0, s0, s0
 1019              	.LVL47:
 1020              	.LBB371:
 1021              	.LBB368:
 110:../../../../DaisyExamples/DaisySP//Source/Utility/dsp.h **** }
 1022              		.loc 7 110 16 view .LVU264
 1023 0004 DFED077A 		vldr.32	s15, .L36
 1024              	.LBE368:
 1025              	.LBE371:
  57:voice.cpp     ****     distortion_gain_ = pow10f(2*gain) - 0.99f;
 1026              		.loc 2 57 1 view .LVU265
 1027 0008 10B5     		push	{r4, lr}
 1028              		.cfi_def_cfa_offset 8
 1029              		.cfi_offset 4, -8
 1030              		.cfi_offset 14, -4
 1031              	.LBB372:
 1032              	.LBB369:
 110:../../../../DaisyExamples/DaisySP//Source/Utility/dsp.h **** }
 1033              		.loc 7 110 16 view .LVU266
 1034 000a 20EE270A 		vmul.f32	s0, s0, s15
 1035              	.LVL48:
 110:../../../../DaisyExamples/DaisySP//Source/Utility/dsp.h **** }
 1036              		.loc 7 110 16 view .LVU267
 1037              	.LBE369:
 1038              	.LBE372:
  57:voice.cpp     ****     distortion_gain_ = pow10f(2*gain) - 0.99f;
 1039              		.loc 2 57 1 view .LVU268
 1040 000e 0446     		mov	r4, r0
 1041              	.LBB373:
 1042              	.LBB370:
 110:../../../../DaisyExamples/DaisySP//Source/Utility/dsp.h **** }
 1043              		.loc 7 110 16 view .LVU269
 1044 0010 FFF7FEFF 		bl	expf
 1045              	.LVL49:
 110:../../../../DaisyExamples/DaisySP//Source/Utility/dsp.h **** }
 1046              		.loc 7 110 16 view .LVU270
 1047              	.LBE370:
 1048              	.LBE373:
 1049              		.loc 2 58 39 view .LVU271
 1050 0014 DFED047A 		vldr.32	s15, .L36+4
ARM GAS  C:\Users\samue\AppData\Local\Temp\ccTlvsL9.s 			page 36


 1051 0018 30EE670A 		vsub.f32	s0, s0, s15
 1052              		.loc 2 58 22 view .LVU272
 1053 001c 84ED4E0A 		vstr.32	s0, [r4, #312]
  59:voice.cpp     **** }
 1054              		.loc 2 59 1 view .LVU273
 1055 0020 10BD     		pop	{r4, pc}
 1056              	.LVL50:
 1057              	.L37:
 1058              		.loc 2 59 1 view .LVU274
 1059 0022 00BF     		.align	2
 1060              	.L36:
 1061 0024 8E5D1340 		.word	1075010958
 1062 0028 A4707D3F 		.word	1065185444
 1063              		.cfi_endproc
 1064              	.LFE3522:
 1066              		.section	.text._ZN5voice8set_foldEf,"ax",%progbits
 1067              		.align	1
 1068              		.p2align 2,,3
 1069              		.global	_ZN5voice8set_foldEf
 1070              		.syntax unified
 1071              		.thumb
 1072              		.thumb_func
 1073              		.fpu fpv5-d16
 1075              	_ZN5voice8set_foldEf:
 1076              	.LVL51:
 1077              	.LFB3523:
  60:voice.cpp     **** 
  61:voice.cpp     **** void voice::set_fold(float gain)
  62:voice.cpp     **** {
 1078              		.loc 2 62 1 is_stmt 1 view -0
 1079              		.cfi_startproc
 1080              		@ args = 0, pretend = 0, frame = 0
 1081              		@ frame_needed = 0, uses_anonymous_args = 0
 1082              		@ link register save eliminated.
  63:voice.cpp     ****     fold_gain_ = fmap(gain, 0.4f, 7.0f);
 1083              		.loc 2 63 5 view .LVU276
 1084              	.LBB374:
 1085              	.LBB375:
 1086              		.loc 7 189 31 is_stmt 0 view .LVU277
 1087 0000 9FED087A 		vldr.32	s14, .L39
 1088              	.LVL52:
 1089              		.loc 7 189 31 view .LVU278
 1090              	.LBE375:
 1091              	.LBI374:
 177:../../../../DaisyExamples/DaisySP//Source/Utility/dsp.h **** {
 1092              		.loc 7 177 1 is_stmt 1 view .LVU279
 1093              	.LBE374:
 179:../../../../DaisyExamples/DaisySP//Source/Utility/dsp.h ****     {
 1094              		.loc 7 179 5 view .LVU280
 1095              	.LBB387:
 1096              	.LBB385:
 188:../../../../DaisyExamples/DaisySP//Source/Utility/dsp.h ****         default: return fclamp(min + in * (max - min), min, max);
 1097              		.loc 7 188 9 view .LVU281
 1098              		.loc 7 189 9 view .LVU282
 1099              		.loc 7 189 18 view .LVU283
 1100              	.LBB376:
 1101              	.LBB377:
ARM GAS  C:\Users\samue\AppData\Local\Temp\ccTlvsL9.s 			page 37


 1102              	.LBB378:
  55:../../../../DaisyExamples/DaisySP//Source/Utility/dsp.h **** #else
 1103              		.loc 7 55 5 is_stmt 0 view .LVU284
 1104 0004 F1EE0C6A 		vmov.f32	s13, #7.0e+0
 1105              	.LBE378:
 1106              	.LBE377:
 1107              	.LBE376:
 1108              		.loc 7 189 31 view .LVU285
 1109 0008 9FED076A 		vldr.32	s12, .L39+4
 1110 000c F0EE477A 		vmov.f32	s15, s14
 1111 0010 E0EE067A 		vfma.f32	s15, s0, s12
 1112              	.LVL53:
 1113              	.LBB383:
 1114              	.LBI376:
  64:../../../../DaisyExamples/DaisySP//Source/Utility/dsp.h **** {
 1115              		.loc 7 64 14 is_stmt 1 view .LVU286
 1116              	.LBE383:
 1117              	.LBE385:
 1118              	.LBE387:
  66:../../../../DaisyExamples/DaisySP//Source/Utility/dsp.h **** }
 1119              		.loc 7 66 5 view .LVU287
 1120              	.LBB388:
 1121              	.LBB386:
 1122              	.LBB384:
 1123              	.LBB380:
 1124              	.LBI380:
  40:../../../../DaisyExamples/DaisySP//Source/Utility/dsp.h **** {
 1125              		.loc 7 40 14 view .LVU288
 1126              	.LBB381:
  42:../../../../DaisyExamples/DaisySP//Source/Utility/dsp.h **** #ifdef __arm__
 1127              		.loc 7 42 5 view .LVU289
  44:../../../../DaisyExamples/DaisySP//Source/Utility/dsp.h **** #else
 1128              		.loc 7 44 5 view .LVU290
 1129              		.syntax unified
 1130              	@ 44 "../../../../DaisyExamples/DaisySP//Source/Utility/dsp.h" 1
 1131 0014 C7FE877A 		vmaxnm.f32 s15, s15, s14
 1132              	@ 0 "" 2
 1133              	.LVL54:
  48:../../../../DaisyExamples/DaisySP//Source/Utility/dsp.h **** }
 1134              		.loc 7 48 5 view .LVU291
  48:../../../../DaisyExamples/DaisySP//Source/Utility/dsp.h **** }
 1135              		.loc 7 48 5 is_stmt 0 view .LVU292
 1136              		.thumb
 1137              		.syntax unified
 1138              	.LBE381:
 1139              	.LBE380:
 1140              	.LBB382:
 1141              	.LBI377:
  51:../../../../DaisyExamples/DaisySP//Source/Utility/dsp.h **** {
 1142              		.loc 7 51 14 is_stmt 1 view .LVU293
 1143              	.LBB379:
  53:../../../../DaisyExamples/DaisySP//Source/Utility/dsp.h **** #ifdef __arm__
 1144              		.loc 7 53 5 view .LVU294
  55:../../../../DaisyExamples/DaisySP//Source/Utility/dsp.h **** #else
 1145              		.loc 7 55 5 view .LVU295
 1146              		.syntax unified
 1147              	@ 55 "../../../../DaisyExamples/DaisySP//Source/Utility/dsp.h" 1
ARM GAS  C:\Users\samue\AppData\Local\Temp\ccTlvsL9.s 			page 38


 1148 0018 C7FEE67A 		vminnm.f32 s15, s15, s13
 1149              	@ 0 "" 2
 1150              	.LVL55:
  59:../../../../DaisyExamples/DaisySP//Source/Utility/dsp.h **** }
 1151              		.loc 7 59 5 view .LVU296
  59:../../../../DaisyExamples/DaisySP//Source/Utility/dsp.h **** }
 1152              		.loc 7 59 5 is_stmt 0 view .LVU297
 1153              		.thumb
 1154              		.syntax unified
 1155              	.LBE379:
 1156              	.LBE382:
 1157              	.LBE384:
 1158              	.LBE386:
 1159              	.LBE388:
 1160              		.loc 2 63 16 view .LVU298
 1161 001c C0ED4F7A 		vstr.32	s15, [r0, #316]
  64:voice.cpp     **** }
 1162              		.loc 2 64 1 view .LVU299
 1163 0020 7047     		bx	lr
 1164              	.L40:
 1165 0022 00BF     		.align	2
 1166              	.L39:
 1167 0024 CDCCCC3E 		.word	1053609165
 1168 0028 3333D340 		.word	1087583027
 1169              		.cfi_endproc
 1170              	.LFE3523:
 1172              		.section	.text._ZN5voice16set_effect_valueEf,"ax",%progbits
 1173              		.align	1
 1174              		.p2align 2,,3
 1175              		.global	_ZN5voice16set_effect_valueEf
 1176              		.syntax unified
 1177              		.thumb
 1178              		.thumb_func
 1179              		.fpu fpv5-d16
 1181              	_ZN5voice16set_effect_valueEf:
 1182              	.LVL56:
 1183              	.LFB3524:
  65:voice.cpp     **** 
  66:voice.cpp     **** void voice::set_effect_value(float value)
  67:voice.cpp     **** {
 1184              		.loc 2 67 1 is_stmt 1 view -0
 1185              		.cfi_startproc
 1186              		@ args = 0, pretend = 0, frame = 0
 1187              		@ frame_needed = 0, uses_anonymous_args = 0
  68:voice.cpp     ****     if(effect_ == FOLD) 
 1188              		.loc 2 68 5 view .LVU301
 1189              		.loc 2 68 8 is_stmt 0 view .LVU302
 1190 0000 90F85431 		ldrb	r3, [r0, #340]	@ zero_extendqisi2
 1191              		.loc 2 68 5 view .LVU303
 1192 0004 012B     		cmp	r3, #1
  67:voice.cpp     ****     if(effect_ == FOLD) 
 1193              		.loc 2 67 1 view .LVU304
 1194 0006 10B5     		push	{r4, lr}
 1195              		.cfi_def_cfa_offset 8
 1196              		.cfi_offset 4, -8
 1197              		.cfi_offset 14, -4
  67:voice.cpp     ****     if(effect_ == FOLD) 
ARM GAS  C:\Users\samue\AppData\Local\Temp\ccTlvsL9.s 			page 39


 1198              		.loc 2 67 1 view .LVU305
 1199 0008 0446     		mov	r4, r0
 1200              		.loc 2 68 5 view .LVU306
 1201 000a 10D0     		beq	.L45
  69:voice.cpp     ****     {
  70:voice.cpp     ****         set_fold(value);
  71:voice.cpp     ****     }
  72:voice.cpp     ****     else if(effect_ == DISTORT)
 1202              		.loc 2 72 10 is_stmt 1 view .LVU307
 1203 000c 03B1     		cbz	r3, .L46
  73:voice.cpp     ****     {
  74:voice.cpp     ****         set_distortion(value);
  75:voice.cpp     ****     } 
  76:voice.cpp     **** }
 1204              		.loc 2 76 1 is_stmt 0 view .LVU308
 1205 000e 10BD     		pop	{r4, pc}
 1206              	.L46:
  74:voice.cpp     ****     } 
 1207              		.loc 2 74 9 is_stmt 1 view .LVU309
 1208              	.LVL57:
 1209              	.LBB402:
 1210              	.LBI402:
  56:voice.cpp     **** {
 1211              		.loc 2 56 6 view .LVU310
 1212              	.LBB403:
  58:voice.cpp     **** }
 1213              		.loc 2 58 5 view .LVU311
 1214              	.LBB404:
 1215              	.LBI404:
 108:../../../../DaisyExamples/DaisySP//Source/Utility/dsp.h **** {
 1216              		.loc 7 108 14 view .LVU312
 1217              	.LBB405:
 110:../../../../DaisyExamples/DaisySP//Source/Utility/dsp.h **** }
 1218              		.loc 7 110 5 view .LVU313
 1219              	.LBE405:
 1220              	.LBE404:
  58:voice.cpp     **** }
 1221              		.loc 2 58 30 is_stmt 0 view .LVU314
 1222 0010 30EE000A 		vadd.f32	s0, s0, s0
 1223              	.LVL58:
 1224              	.LBB407:
 1225              	.LBB406:
 110:../../../../DaisyExamples/DaisySP//Source/Utility/dsp.h **** }
 1226              		.loc 7 110 16 view .LVU315
 1227 0014 DFED0E7A 		vldr.32	s15, .L47
 1228 0018 20EE270A 		vmul.f32	s0, s0, s15
 1229              	.LVL59:
 110:../../../../DaisyExamples/DaisySP//Source/Utility/dsp.h **** }
 1230              		.loc 7 110 16 view .LVU316
 1231 001c FFF7FEFF 		bl	expf
 1232              	.LVL60:
 110:../../../../DaisyExamples/DaisySP//Source/Utility/dsp.h **** }
 1233              		.loc 7 110 16 view .LVU317
 1234              	.LBE406:
 1235              	.LBE407:
  58:voice.cpp     **** }
 1236              		.loc 2 58 39 view .LVU318
ARM GAS  C:\Users\samue\AppData\Local\Temp\ccTlvsL9.s 			page 40


 1237 0020 DFED0C7A 		vldr.32	s15, .L47+4
 1238 0024 30EE670A 		vsub.f32	s0, s0, s15
  58:voice.cpp     **** }
 1239              		.loc 2 58 22 view .LVU319
 1240 0028 84ED4E0A 		vstr.32	s0, [r4, #312]
 1241              	.LVL61:
  58:voice.cpp     **** }
 1242              		.loc 2 58 22 view .LVU320
 1243              	.LBE403:
 1244              	.LBE402:
 1245              		.loc 2 76 1 view .LVU321
 1246 002c 10BD     		pop	{r4, pc}
 1247              	.LVL62:
 1248              	.L45:
  70:voice.cpp     ****     }
 1249              		.loc 2 70 9 is_stmt 1 view .LVU322
 1250              	.LBB408:
 1251              	.LBI408:
  61:voice.cpp     **** {
 1252              		.loc 2 61 6 view .LVU323
 1253              	.LBB409:
  63:voice.cpp     **** }
 1254              		.loc 2 63 5 view .LVU324
 1255              	.LBB410:
 1256              	.LBI410:
 177:../../../../DaisyExamples/DaisySP//Source/Utility/dsp.h **** {
 1257              		.loc 7 177 1 view .LVU325
 1258              	.LBE410:
 1259              	.LBE409:
 1260              	.LBE408:
 179:../../../../DaisyExamples/DaisySP//Source/Utility/dsp.h ****     {
 1261              		.loc 7 179 5 view .LVU326
 1262              	.LBB426:
 1263              	.LBB424:
 1264              	.LBB422:
 1265              	.LBB411:
 188:../../../../DaisyExamples/DaisySP//Source/Utility/dsp.h ****         default: return fclamp(min + in * (max - min), min, max);
 1266              		.loc 7 188 9 view .LVU327
 1267              		.loc 7 189 9 view .LVU328
 1268              		.loc 7 189 18 view .LVU329
 1269              		.loc 7 189 31 is_stmt 0 view .LVU330
 1270 002e 9FED0A7A 		vldr.32	s14, .L47+8
 1271              	.LBB412:
 1272              	.LBB413:
 1273              	.LBB414:
  55:../../../../DaisyExamples/DaisySP//Source/Utility/dsp.h **** #else
 1274              		.loc 7 55 5 view .LVU331
 1275 0032 F1EE0C6A 		vmov.f32	s13, #7.0e+0
 1276              	.LBE414:
 1277              	.LBE413:
 1278              	.LBE412:
 1279              		.loc 7 189 31 view .LVU332
 1280 0036 9FED096A 		vldr.32	s12, .L47+12
 1281 003a F0EE477A 		vmov.f32	s15, s14
 1282 003e E0EE067A 		vfma.f32	s15, s0, s12
 1283              	.LVL63:
 1284              	.LBB419:
ARM GAS  C:\Users\samue\AppData\Local\Temp\ccTlvsL9.s 			page 41


 1285              	.LBI412:
  64:../../../../DaisyExamples/DaisySP//Source/Utility/dsp.h **** {
 1286              		.loc 7 64 14 is_stmt 1 view .LVU333
 1287              	.LBE419:
 1288              	.LBE411:
 1289              	.LBE422:
 1290              	.LBE424:
 1291              	.LBE426:
  66:../../../../DaisyExamples/DaisySP//Source/Utility/dsp.h **** }
 1292              		.loc 7 66 5 view .LVU334
 1293              	.LBB427:
 1294              	.LBB425:
 1295              	.LBB423:
 1296              	.LBB421:
 1297              	.LBB420:
 1298              	.LBB416:
 1299              	.LBI416:
  40:../../../../DaisyExamples/DaisySP//Source/Utility/dsp.h **** {
 1300              		.loc 7 40 14 view .LVU335
 1301              	.LBB417:
  42:../../../../DaisyExamples/DaisySP//Source/Utility/dsp.h **** #ifdef __arm__
 1302              		.loc 7 42 5 view .LVU336
  44:../../../../DaisyExamples/DaisySP//Source/Utility/dsp.h **** #else
 1303              		.loc 7 44 5 view .LVU337
 1304              		.syntax unified
 1305              	@ 44 "../../../../DaisyExamples/DaisySP//Source/Utility/dsp.h" 1
 1306 0042 C7FE877A 		vmaxnm.f32 s15, s15, s14
 1307              	@ 0 "" 2
 1308              	.LVL64:
  48:../../../../DaisyExamples/DaisySP//Source/Utility/dsp.h **** }
 1309              		.loc 7 48 5 view .LVU338
  48:../../../../DaisyExamples/DaisySP//Source/Utility/dsp.h **** }
 1310              		.loc 7 48 5 is_stmt 0 view .LVU339
 1311              		.thumb
 1312              		.syntax unified
 1313              	.LBE417:
 1314              	.LBE416:
 1315              	.LBB418:
 1316              	.LBI413:
  51:../../../../DaisyExamples/DaisySP//Source/Utility/dsp.h **** {
 1317              		.loc 7 51 14 is_stmt 1 view .LVU340
 1318              	.LBB415:
  53:../../../../DaisyExamples/DaisySP//Source/Utility/dsp.h **** #ifdef __arm__
 1319              		.loc 7 53 5 view .LVU341
  55:../../../../DaisyExamples/DaisySP//Source/Utility/dsp.h **** #else
 1320              		.loc 7 55 5 view .LVU342
 1321              		.syntax unified
 1322              	@ 55 "../../../../DaisyExamples/DaisySP//Source/Utility/dsp.h" 1
 1323 0046 C7FEE67A 		vminnm.f32 s15, s15, s13
 1324              	@ 0 "" 2
 1325              	.LVL65:
  59:../../../../DaisyExamples/DaisySP//Source/Utility/dsp.h **** }
 1326              		.loc 7 59 5 view .LVU343
  59:../../../../DaisyExamples/DaisySP//Source/Utility/dsp.h **** }
 1327              		.loc 7 59 5 is_stmt 0 view .LVU344
 1328              		.thumb
 1329              		.syntax unified
ARM GAS  C:\Users\samue\AppData\Local\Temp\ccTlvsL9.s 			page 42


 1330              	.LBE415:
 1331              	.LBE418:
 1332              	.LBE420:
 1333              	.LBE421:
 1334              	.LBE423:
  63:voice.cpp     **** }
 1335              		.loc 2 63 16 view .LVU345
 1336 004a C0ED4F7A 		vstr.32	s15, [r0, #316]
 1337              	.LBE425:
 1338              	.LBE427:
 1339              		.loc 2 76 1 view .LVU346
 1340 004e 10BD     		pop	{r4, pc}
 1341              	.L48:
 1342              		.align	2
 1343              	.L47:
 1344 0050 8E5D1340 		.word	1075010958
 1345 0054 A4707D3F 		.word	1065185444
 1346 0058 CDCCCC3E 		.word	1053609165
 1347 005c 3333D340 		.word	1087583027
 1348              		.cfi_endproc
 1349              	.LFE3524:
 1351              		.section	.text._ZN5voice12process_drumEf,"ax",%progbits
 1352              		.align	1
 1353              		.p2align 2,,3
 1354              		.global	_ZN5voice12process_drumEf
 1355              		.syntax unified
 1356              		.thumb
 1357              		.thumb_func
 1358              		.fpu fpv5-d16
 1360              	_ZN5voice12process_drumEf:
 1361              	.LVL66:
 1362              	.LFB3526:
  77:voice.cpp     **** 
  78:voice.cpp     **** float voice::Process()
  79:voice.cpp     **** {
  80:voice.cpp     ****     float amplitude;
  81:voice.cpp     ****     amplitude = amp_env_.Process();
  82:voice.cpp     **** 
  83:voice.cpp     ****     return process_drum(amplitude) + noise_mix_*process_noise(amplitude);
  84:voice.cpp     **** }
  85:voice.cpp     **** 
  86:voice.cpp     **** float voice::process_drum(float amplitude)
  87:voice.cpp     **** {
 1363              		.loc 2 87 1 is_stmt 1 view -0
 1364              		.cfi_startproc
 1365              		@ args = 0, pretend = 0, frame = 8
 1366              		@ frame_needed = 0, uses_anonymous_args = 0
  88:voice.cpp     ****     float sample[2];
 1367              		.loc 2 88 5 view .LVU348
  89:voice.cpp     ****     osc_.SetFreq(osc_freq_ * freq_env_.Process());
 1368              		.loc 2 89 5 view .LVU349
  87:voice.cpp     ****     float sample[2];
 1369              		.loc 2 87 1 is_stmt 0 view .LVU350
 1370 0000 2DE9F04F 		push	{r4, r5, r6, r7, r8, r9, r10, fp, lr}
 1371              		.cfi_def_cfa_offset 36
 1372              		.cfi_offset 4, -36
 1373              		.cfi_offset 5, -32
ARM GAS  C:\Users\samue\AppData\Local\Temp\ccTlvsL9.s 			page 43


 1374              		.cfi_offset 6, -28
 1375              		.cfi_offset 7, -24
 1376              		.cfi_offset 8, -20
 1377              		.cfi_offset 9, -16
 1378              		.cfi_offset 10, -12
 1379              		.cfi_offset 11, -8
 1380              		.cfi_offset 14, -4
 1381 0004 0646     		mov	r6, r0
 1382              		.loc 2 89 47 view .LVU351
 1383 0006 D030     		adds	r0, r0, #208
 1384              	.LVL67:
  87:voice.cpp     ****     float sample[2];
 1385              		.loc 2 87 1 view .LVU352
 1386 0008 2DED068B 		vpush.64	{d8, d9, d10}
 1387              		.cfi_def_cfa_offset 60
 1388              		.cfi_offset 80, -60
 1389              		.cfi_offset 81, -56
 1390              		.cfi_offset 82, -52
 1391              		.cfi_offset 83, -48
 1392              		.cfi_offset 84, -44
 1393              		.cfi_offset 85, -40
 1394              		.loc 2 89 18 view .LVU353
 1395 000c 96ED4D8A 		vldr.32	s16, [r6, #308]
  87:voice.cpp     ****     float sample[2];
 1396              		.loc 2 87 1 view .LVU354
 1397 0010 83B0     		sub	sp, sp, #12
 1398              		.cfi_def_cfa_offset 72
  87:voice.cpp     ****     float sample[2];
 1399              		.loc 2 87 1 view .LVU355
 1400 0012 F0EE408A 		vmov.f32	s17, s0
 1401              		.loc 2 89 47 view .LVU356
 1402 0016 FFF7FEFF 		bl	_ZN7daisysp5AdEnv7ProcessEv
 1403              	.LVL68:
 1404              		.loc 2 89 17 view .LVU357
 1405 001a 28EE000A 		vmul.f32	s0, s16, s0
 1406 001e 06F16C00 		add	r0, r6, #108
 1407              	.LVL69:
 1408              	.LBB444:
 1409              	.LBI444:
  67:../../../../DaisyExamples/DaisySP//Source/Synthesis/oscillator.h ****     {
 1410              		.loc 3 67 17 is_stmt 1 view .LVU358
 1411              	.LBB445:
  69:../../../../DaisyExamples/DaisySP//Source/Synthesis/oscillator.h ****         phase_inc_ = CalcPhaseInc(f);
 1412              		.loc 3 69 9 view .LVU359
  70:../../../../DaisyExamples/DaisySP//Source/Synthesis/oscillator.h ****     }
 1413              		.loc 3 70 34 is_stmt 0 view .LVU360
 1414 0022 0090     		str	r0, [sp]
  69:../../../../DaisyExamples/DaisySP//Source/Synthesis/oscillator.h ****         phase_inc_ = CalcPhaseInc(f);
 1415              		.loc 3 69 20 view .LVU361
 1416 0024 86ED1D0A 		vstr.32	s0, [r6, #116]
  70:../../../../DaisyExamples/DaisySP//Source/Synthesis/oscillator.h ****     }
 1417              		.loc 3 70 9 is_stmt 1 view .LVU362
  70:../../../../DaisyExamples/DaisySP//Source/Synthesis/oscillator.h ****     }
 1418              		.loc 3 70 34 is_stmt 0 view .LVU363
 1419 0028 FFF7FEFF 		bl	_ZN7daisysp10Oscillator12CalcPhaseIncEf
 1420              	.LVL70:
  70:../../../../DaisyExamples/DaisySP//Source/Synthesis/oscillator.h ****     }
ARM GAS  C:\Users\samue\AppData\Local\Temp\ccTlvsL9.s 			page 44


 1421              		.loc 3 70 34 view .LVU364
 1422              	.LBE445:
 1423              	.LBE444:
  90:voice.cpp     ****     osc_.SetAmp(amplitude*(1-noise_mix_));
 1424              		.loc 2 90 29 view .LVU365
 1425 002c F7EE007A 		vmov.f32	s15, #1.0e+0
 1426 0030 96ED507A 		vldr.32	s14, [r6, #320]
  91:voice.cpp     **** 
  92:voice.cpp     ****     sample[0] = osc_.Process();
 1427              		.loc 2 92 29 view .LVU366
 1428 0034 0098     		ldr	r0, [sp]
  90:voice.cpp     ****     osc_.SetAmp(amplitude*(1-noise_mix_));
 1429              		.loc 2 90 29 view .LVU367
 1430 0036 37EEC77A 		vsub.f32	s14, s15, s14
 1431              	.LBB447:
 1432              	.LBB446:
  70:../../../../DaisyExamples/DaisySP//Source/Synthesis/oscillator.h ****     }
 1433              		.loc 3 70 20 view .LVU368
 1434 003a 86ED220A 		vstr.32	s0, [r6, #136]
 1435              	.LVL71:
  70:../../../../DaisyExamples/DaisySP//Source/Synthesis/oscillator.h ****     }
 1436              		.loc 3 70 20 view .LVU369
 1437              	.LBE446:
 1438              	.LBE447:
  90:voice.cpp     ****     osc_.SetAmp(amplitude*(1-noise_mix_));
 1439              		.loc 2 90 5 is_stmt 1 view .LVU370
 1440              	.LBB448:
 1441              	.LBI448:
  76:../../../../DaisyExamples/DaisySP//Source/Synthesis/oscillator.h ****     /** Sets the waveform to be synthesized by the Process() function.
 1442              		.loc 3 76 17 view .LVU371
 1443              	.LBB449:
  76:../../../../DaisyExamples/DaisySP//Source/Synthesis/oscillator.h ****     /** Sets the waveform to be synthesized by the Process() function.
 1444              		.loc 3 76 41 view .LVU372
 1445              	.LBE449:
 1446              	.LBE448:
  90:voice.cpp     **** 
 1447              		.loc 2 90 16 is_stmt 0 view .LVU373
 1448 003e 67EE287A 		vmul.f32	s15, s14, s17
 1449              	.LVL72:
 1450              	.LBB451:
 1451              	.LBB450:
  76:../../../../DaisyExamples/DaisySP//Source/Synthesis/oscillator.h ****     /** Sets the waveform to be synthesized by the Process() function.
 1452              		.loc 3 76 46 view .LVU374
 1453 0042 C6ED1C7A 		vstr.32	s15, [r6, #112]
 1454              	.LVL73:
  76:../../../../DaisyExamples/DaisySP//Source/Synthesis/oscillator.h ****     /** Sets the waveform to be synthesized by the Process() function.
 1455              		.loc 3 76 46 view .LVU375
 1456              	.LBE450:
 1457              	.LBE451:
 1458              		.loc 2 92 5 is_stmt 1 view .LVU376
 1459              		.loc 2 92 29 is_stmt 0 view .LVU377
 1460 0046 FFF7FEFF 		bl	_ZN7daisysp10Oscillator7ProcessEv
 1461              	.LVL74:
 1462              	.LBB452:
 1463              	.LBB453:
 185:../../../../DaisyExamples/DaisySP//Source/Filters/fir.h ****         /* Feed data into the buffer */
 1464              		.loc 1 185 9 view .LVU378
ARM GAS  C:\Users\samue\AppData\Local\Temp\ccTlvsL9.s 			page 45


 1465 004a D6F86071 		ldr	r7, [r6, #352]
 1466              	.LVL75:
 185:../../../../DaisyExamples/DaisySP//Source/Filters/fir.h ****         /* Feed data into the buffer */
 1467              		.loc 1 185 9 view .LVU379
 1468              	.LBE453:
 1469              	.LBE452:
  93:voice.cpp     ****     sample[0] = filter_up_.Process(sample[0]);
 1470              		.loc 2 93 5 is_stmt 1 view .LVU380
 1471              	.LBB460:
 1472              	.LBI452:
 183:../../../../DaisyExamples/DaisySP//Source/Filters/fir.h ****     {
 1473              		.loc 1 183 11 view .LVU381
 1474              	.LBB456:
 185:../../../../DaisyExamples/DaisySP//Source/Filters/fir.h ****         /* Feed data into the buffer */
 1475              		.loc 1 185 9 is_stmt 0 view .LVU382
 1476 004e 002F     		cmp	r7, #0
 1477 0050 00F0FE80 		beq	.L56
 187:../../../../DaisyExamples/DaisySP//Source/Filters/fir.h **** 
 1478              		.loc 1 187 15 view .LVU383
 1479 0054 6FF04048 		mvn	r8, #-1073741824
 187:../../../../DaisyExamples/DaisySP//Source/Filters/fir.h **** 
 1480              		.loc 1 187 9 view .LVU384
 1481 0058 D6F85841 		ldr	r4, [r6, #344]
 190:../../../../DaisyExamples/DaisySP//Source/Filters/fir.h ****         for(size_t i = 0; i < size_ - 1; i++)
 1482              		.loc 1 190 15 view .LVU385
 1483 005c 9FED827A 		vldr.32	s14, .L78+16
 187:../../../../DaisyExamples/DaisySP//Source/Filters/fir.h **** 
 1484              		.loc 1 187 15 view .LVU386
 1485 0060 B844     		add	r8, r8, r7
 1486              	.LBB454:
 191:../../../../DaisyExamples/DaisySP//Source/Filters/fir.h ****         {
 1487              		.loc 1 191 29 view .LVU387
 1488 0062 013F     		subs	r7, r7, #1
 1489              	.LBE454:
 199:../../../../DaisyExamples/DaisySP//Source/Filters/fir.h **** 
 1490              		.loc 1 199 21 view .LVU388
 1491 0064 D6F85C51 		ldr	r5, [r6, #348]
 187:../../../../DaisyExamples/DaisySP//Source/Filters/fir.h **** 
 1492              		.loc 1 187 15 view .LVU389
 1493 0068 4FEA880A 		lsl	r10, r8, #2
 1494 006c 04EB8808 		add	r8, r4, r8, lsl #2
 187:../../../../DaisyExamples/DaisySP//Source/Filters/fir.h **** 
 1495              		.loc 1 187 28 view .LVU390
 1496 0070 88ED000A 		vstr.32	s0, [r8]
 1497              	.LVL76:
 1498              	.LBB455:
 191:../../../../DaisyExamples/DaisySP//Source/Filters/fir.h ****         {
 1499              		.loc 1 191 29 is_stmt 1 view .LVU391
 1500 0074 0FD0     		beq	.L52
 1501 0076 2346     		mov	r3, r4
 1502 0078 211D     		adds	r1, r4, #4
 1503 007a 2A46     		mov	r2, r5
 1504 007c C446     		mov	ip, r8
 1505              	.LVL77:
 1506              	.L53:
 197:../../../../DaisyExamples/DaisySP//Source/Filters/fir.h ****         }
 1507              		.loc 1 197 31 is_stmt 0 view .LVU392
ARM GAS  C:\Users\samue\AppData\Local\Temp\ccTlvsL9.s 			page 46


 1508 007e 51F8040B 		ldr	r0, [r1], #4	@ float
 193:../../../../DaisyExamples/DaisySP//Source/Filters/fir.h ****             /** Shift the state simulatenously 
 1509              		.loc 1 193 26 view .LVU393
 1510 0082 D3ED006A 		vldr.32	s13, [r3]
 193:../../../../DaisyExamples/DaisySP//Source/Filters/fir.h ****             /** Shift the state simulatenously 
 1511              		.loc 1 193 38 view .LVU394
 1512 0086 F2EC017A 		vldmia.32	r2!, {s15}
 197:../../../../DaisyExamples/DaisySP//Source/Filters/fir.h ****         }
 1513              		.loc 1 197 23 view .LVU395
 1514 008a 43F8040B 		str	r0, [r3], #4	@ float
 191:../../../../DaisyExamples/DaisySP//Source/Filters/fir.h ****         {
 1515              		.loc 1 191 29 view .LVU396
 1516 008e 9C45     		cmp	ip, r3
 193:../../../../DaisyExamples/DaisySP//Source/Filters/fir.h ****             /** Shift the state simulatenously 
 1517              		.loc 1 193 17 view .LVU397
 1518 0090 A6EEA77A 		vfma.f32	s14, s13, s15
 1519              	.LVL78:
 191:../../../../DaisyExamples/DaisySP//Source/Filters/fir.h ****         {
 1520              		.loc 1 191 9 is_stmt 1 view .LVU398
 191:../../../../DaisyExamples/DaisySP//Source/Filters/fir.h ****         {
 1521              		.loc 1 191 29 view .LVU399
 1522 0094 F3D1     		bne	.L53
 1523              	.LVL79:
 1524              	.L52:
 191:../../../../DaisyExamples/DaisySP//Source/Filters/fir.h ****         {
 1525              		.loc 1 191 29 is_stmt 0 view .LVU400
 1526              	.LBE455:
 199:../../../../DaisyExamples/DaisySP//Source/Filters/fir.h **** 
 1527              		.loc 1 199 27 view .LVU401
 1528 0096 AA44     		add	r10, r10, r5
 1529              	.LBE456:
 1530              	.LBE460:
  94:voice.cpp     **** 
  95:voice.cpp     ****     if(effect_ == FOLD) sample[0] = (tanhf(sample[0]*fold_gain_) / tanhf(fold_gain_) + 0.8*sinf(2*f
 1531              		.loc 2 95 8 view .LVU402
 1532 0098 96F854B1 		ldrb	fp, [r6, #340]	@ zero_extendqisi2
 1533              	.LBB461:
 1534              	.LBB457:
 199:../../../../DaisyExamples/DaisySP//Source/Filters/fir.h **** 
 1535              		.loc 1 199 13 view .LVU403
 1536 009c DAED007A 		vldr.32	s15, [r10]
 1537              	.LBE457:
 1538              	.LBE461:
 1539              		.loc 2 95 5 view .LVU404
 1540 00a0 BBF1010F 		cmp	fp, #1
 1541              	.LBB462:
 1542              	.LBB458:
 199:../../../../DaisyExamples/DaisySP//Source/Filters/fir.h **** 
 1543              		.loc 1 199 13 view .LVU405
 1544 00a4 A0EE277A 		vfma.f32	s14, s0, s15
 1545 00a8 B0EE478A 		vmov.f32	s16, s14
 1546              	.LVL80:
 199:../../../../DaisyExamples/DaisySP//Source/Filters/fir.h **** 
 1547              		.loc 1 199 13 view .LVU406
 1548              	.LBE458:
 1549              	.LBE462:
 1550              		.loc 2 95 5 is_stmt 1 view .LVU407
ARM GAS  C:\Users\samue\AppData\Local\Temp\ccTlvsL9.s 			page 47


 1551 00ac 00F0AB80 		beq	.L74
  96:voice.cpp     ****     else if(effect_ == DISTORT) sample[0] = tanhf(sample[0]*distortion_gain_) / tanhf(distortion_ga
 1552              		.loc 2 96 10 view .LVU408
 1553 00b0 BBF1000F 		cmp	fp, #0
 1554 00b4 73D0     		beq	.L75
 1555              	.LVL81:
 1556              	.L55:
  97:voice.cpp     ****     else sample[0] = sample[0];
  98:voice.cpp     **** 
  99:voice.cpp     ****     sample[0] = filter_down_.Process(sample[0]);
 1557              		.loc 2 99 5 view .LVU409
 1558              	.LBB463:
 1559              	.LBI463:
 183:../../../../DaisyExamples/DaisySP//Source/Filters/fir.h ****     {
 1560              		.loc 1 183 11 view .LVU410
 1561              	.LBB464:
 185:../../../../DaisyExamples/DaisySP//Source/Filters/fir.h ****         /* Feed data into the buffer */
 1562              		.loc 1 185 9 is_stmt 0 view .LVU411
 1563 00b6 D6F87021 		ldr	r2, [r6, #368]
 1564 00ba 002A     		cmp	r2, #0
 1565 00bc 00F0C880 		beq	.L56
 187:../../../../DaisyExamples/DaisySP//Source/Filters/fir.h **** 
 1566              		.loc 1 187 15 view .LVU412
 1567 00c0 6FF0404E 		mvn	lr, #-1073741824
 187:../../../../DaisyExamples/DaisySP//Source/Filters/fir.h **** 
 1568              		.loc 1 187 9 view .LVU413
 1569 00c4 D6F86891 		ldr	r9, [r6, #360]
 190:../../../../DaisyExamples/DaisySP//Source/Filters/fir.h ****         for(size_t i = 0; i < size_ - 1; i++)
 1570              		.loc 1 190 15 view .LVU414
 1571 00c8 9FED670A 		vldr.32	s0, .L78+16
 187:../../../../DaisyExamples/DaisySP//Source/Filters/fir.h **** 
 1572              		.loc 1 187 15 view .LVU415
 1573 00cc 9644     		add	lr, lr, r2
 199:../../../../DaisyExamples/DaisySP//Source/Filters/fir.h **** 
 1574              		.loc 1 199 21 view .LVU416
 1575 00ce D6F86C01 		ldr	r0, [r6, #364]
 187:../../../../DaisyExamples/DaisySP//Source/Filters/fir.h **** 
 1576              		.loc 1 187 15 view .LVU417
 1577 00d2 09EB8E03 		add	r3, r9, lr, lsl #2
 1578 00d6 4FEA8E0E 		lsl	lr, lr, #2
 1579 00da 0093     		str	r3, [sp]
 187:../../../../DaisyExamples/DaisySP//Source/Filters/fir.h **** 
 1580              		.loc 1 187 28 view .LVU418
 1581 00dc 83ED008A 		vstr.32	s16, [r3]
 1582              	.LVL82:
 1583              	.LBB465:
 191:../../../../DaisyExamples/DaisySP//Source/Filters/fir.h ****         {
 1584              		.loc 1 191 29 is_stmt 1 view .LVU419
 1585 00e0 531E     		subs	r3, r2, #1
 1586 00e2 0193     		str	r3, [sp, #4]
 1587 00e4 11D0     		beq	.L58
 1588 00e6 4B46     		mov	r3, r9
 1589 00e8 09F10401 		add	r1, r9, #4
 1590 00ec 0246     		mov	r2, r0
 1591 00ee 09EB0E0C 		add	ip, r9, lr
 1592              	.LVL83:
 1593              	.L59:
ARM GAS  C:\Users\samue\AppData\Local\Temp\ccTlvsL9.s 			page 48


 193:../../../../DaisyExamples/DaisySP//Source/Filters/fir.h ****             /** Shift the state simulatenously 
 1594              		.loc 1 193 38 is_stmt 0 view .LVU420
 1595 00f2 F2EC017A 		vldmia.32	r2!, {s15}
 193:../../../../DaisyExamples/DaisySP//Source/Filters/fir.h ****             /** Shift the state simulatenously 
 1596              		.loc 1 193 26 view .LVU421
 1597 00f6 93ED007A 		vldr.32	s14, [r3]
 193:../../../../DaisyExamples/DaisySP//Source/Filters/fir.h ****             /** Shift the state simulatenously 
 1598              		.loc 1 193 17 view .LVU422
 1599 00fa A7EE270A 		vfma.f32	s0, s14, s15
 1600              	.LVL84:
 197:../../../../DaisyExamples/DaisySP//Source/Filters/fir.h ****         }
 1601              		.loc 1 197 31 view .LVU423
 1602 00fe F1EC017A 		vldmia.32	r1!, {s15}
 197:../../../../DaisyExamples/DaisySP//Source/Filters/fir.h ****         }
 1603              		.loc 1 197 23 view .LVU424
 1604 0102 E3EC017A 		vstmia.32	r3!, {s15}
 191:../../../../DaisyExamples/DaisySP//Source/Filters/fir.h ****         {
 1605              		.loc 1 191 9 is_stmt 1 view .LVU425
 191:../../../../DaisyExamples/DaisySP//Source/Filters/fir.h ****         {
 1606              		.loc 1 191 29 view .LVU426
 1607 0106 9C45     		cmp	ip, r3
 1608 0108 F3D1     		bne	.L59
 1609              	.LVL85:
 1610              	.L58:
 191:../../../../DaisyExamples/DaisySP//Source/Filters/fir.h ****         {
 1611              		.loc 1 191 29 is_stmt 0 view .LVU427
 1612              	.LBE465:
 199:../../../../DaisyExamples/DaisySP//Source/Filters/fir.h **** 
 1613              		.loc 1 199 27 view .LVU428
 1614 010a 8644     		add	lr, lr, r0
 1615              	.LBE464:
 1616              	.LBE463:
 1617              	.LBB468:
 1618              	.LBB469:
 187:../../../../DaisyExamples/DaisySP//Source/Filters/fir.h **** 
 1619              		.loc 1 187 28 view .LVU429
 1620 010c 9FED567A 		vldr.32	s14, .L78+16
 1621              	.LBE469:
 1622              	.LBE468:
 1623              	.LBB474:
 1624              	.LBB466:
 199:../../../../DaisyExamples/DaisySP//Source/Filters/fir.h **** 
 1625              		.loc 1 199 13 view .LVU430
 1626 0110 DEED007A 		vldr.32	s15, [lr]
 1627              	.LBE466:
 1628              	.LBE474:
 1629              	.LBB475:
 1630              	.LBB471:
 187:../../../../DaisyExamples/DaisySP//Source/Filters/fir.h **** 
 1631              		.loc 1 187 28 view .LVU431
 1632 0114 88ED007A 		vstr.32	s14, [r8]
 1633              	.LBE471:
 1634              	.LBE475:
 1635              	.LBB476:
 1636              	.LBB467:
 199:../../../../DaisyExamples/DaisySP//Source/Filters/fir.h **** 
 1637              		.loc 1 199 13 view .LVU432
ARM GAS  C:\Users\samue\AppData\Local\Temp\ccTlvsL9.s 			page 49


 1638 0118 A8EE270A 		vfma.f32	s0, s16, s15
 1639 011c F0EE408A 		vmov.f32	s17, s0
 1640              	.LVL86:
 199:../../../../DaisyExamples/DaisySP//Source/Filters/fir.h **** 
 1641              		.loc 1 199 13 view .LVU433
 1642              	.LBE467:
 1643              	.LBE476:
 100:voice.cpp     **** 
 101:voice.cpp     **** 
 102:voice.cpp     ****     sample[1] = 0.0f;
 1644              		.loc 2 102 5 is_stmt 1 view .LVU434
 103:voice.cpp     ****     sample[1] = filter_up_.Process(sample[1]);
 1645              		.loc 2 103 5 view .LVU435
 1646              	.LBB477:
 1647              	.LBI468:
 183:../../../../DaisyExamples/DaisySP//Source/Filters/fir.h ****     {
 1648              		.loc 1 183 11 view .LVU436
 1649              	.LBB472:
 1650              	.LBB470:
 191:../../../../DaisyExamples/DaisySP//Source/Filters/fir.h ****         {
 1651              		.loc 1 191 29 view .LVU437
 1652 0120 77B1     		cbz	r7, .L60
 1653 0122 04EB8707 		add	r7, r4, r7, lsl #2
 1654 0126 231D     		adds	r3, r4, #4
 1655              	.LVL87:
 1656              	.L61:
 197:../../../../DaisyExamples/DaisySP//Source/Filters/fir.h ****         }
 1657              		.loc 1 197 31 is_stmt 0 view .LVU438
 1658 0128 53F8042B 		ldr	r2, [r3], #4	@ float
 193:../../../../DaisyExamples/DaisySP//Source/Filters/fir.h ****             /** Shift the state simulatenously 
 1659              		.loc 1 193 26 view .LVU439
 1660 012c D4ED006A 		vldr.32	s13, [r4]
 193:../../../../DaisyExamples/DaisySP//Source/Filters/fir.h ****             /** Shift the state simulatenously 
 1661              		.loc 1 193 38 view .LVU440
 1662 0130 F5EC017A 		vldmia.32	r5!, {s15}
 197:../../../../DaisyExamples/DaisySP//Source/Filters/fir.h ****         }
 1663              		.loc 1 197 23 view .LVU441
 1664 0134 44F8042B 		str	r2, [r4], #4	@ float
 191:../../../../DaisyExamples/DaisySP//Source/Filters/fir.h ****         {
 1665              		.loc 1 191 29 view .LVU442
 1666 0138 BC42     		cmp	r4, r7
 193:../../../../DaisyExamples/DaisySP//Source/Filters/fir.h ****             /** Shift the state simulatenously 
 1667              		.loc 1 193 17 view .LVU443
 1668 013a A6EEA77A 		vfma.f32	s14, s13, s15
 1669              	.LVL88:
 191:../../../../DaisyExamples/DaisySP//Source/Filters/fir.h ****         {
 1670              		.loc 1 191 9 is_stmt 1 view .LVU444
 191:../../../../DaisyExamples/DaisySP//Source/Filters/fir.h ****         {
 1671              		.loc 1 191 29 view .LVU445
 1672 013e F3D1     		bne	.L61
 1673              	.LVL89:
 1674              	.L60:
 191:../../../../DaisyExamples/DaisySP//Source/Filters/fir.h ****         {
 1675              		.loc 1 191 29 is_stmt 0 view .LVU446
 1676              	.LBE470:
 199:../../../../DaisyExamples/DaisySP//Source/Filters/fir.h **** 
 1677              		.loc 1 199 13 view .LVU447
ARM GAS  C:\Users\samue\AppData\Local\Temp\ccTlvsL9.s 			page 50


 1678 0140 DAED006A 		vldr.32	s13, [r10]
 1679              	.LBE472:
 1680              	.LBE477:
 104:voice.cpp     **** 
 105:voice.cpp     ****     if(effect_ == FOLD) sample[1] = (tanhf(sample[1]*fold_gain_) / tanhf(fold_gain_) + 0.8*sinf(2*f
 1681              		.loc 2 105 5 view .LVU448
 1682 0144 BBF1010F 		cmp	fp, #1
 1683              	.LBB478:
 1684              	.LBB473:
 199:../../../../DaisyExamples/DaisySP//Source/Filters/fir.h **** 
 1685              		.loc 1 199 13 view .LVU449
 1686 0148 DFED477A 		vldr.32	s15, .L78+16
 1687 014c A6EEA77A 		vfma.f32	s14, s13, s15
 1688 0150 B0EE478A 		vmov.f32	s16, s14
 1689              	.LVL90:
 199:../../../../DaisyExamples/DaisySP//Source/Filters/fir.h **** 
 1690              		.loc 1 199 13 view .LVU450
 1691              	.LBE473:
 1692              	.LBE478:
 1693              		.loc 2 105 5 is_stmt 1 view .LVU451
 1694 0154 32D0     		beq	.L76
 106:voice.cpp     ****     else if(effect_ == DISTORT) sample[1] = tanhf(sample[1]*distortion_gain_) / tanhf(distortion_ga
 1695              		.loc 2 106 10 view .LVU452
 1696 0156 BBF1000F 		cmp	fp, #0
 1697 015a 11D0     		beq	.L77
 1698              	.LVL91:
 1699              	.L63:
 107:voice.cpp     ****     else sample[1] = sample[1];
 108:voice.cpp     **** 
 109:voice.cpp     ****     sample[1] = filter_down_.Process(sample[1]);
 1700              		.loc 2 109 5 view .LVU453
 1701              	.LBB479:
 1702              	.LBI479:
 183:../../../../DaisyExamples/DaisySP//Source/Filters/fir.h ****     {
 1703              		.loc 1 183 11 view .LVU454
 1704              	.LBB480:
 187:../../../../DaisyExamples/DaisySP//Source/Filters/fir.h **** 
 1705              		.loc 1 187 28 is_stmt 0 view .LVU455
 1706 015c 009B     		ldr	r3, [sp]
 1707 015e 83ED008A 		vstr.32	s16, [r3]
 1708              	.LVL92:
 1709              	.LBB481:
 191:../../../../DaisyExamples/DaisySP//Source/Filters/fir.h ****         {
 1710              		.loc 1 191 29 is_stmt 1 view .LVU456
 1711 0162 019B     		ldr	r3, [sp, #4]
 1712 0164 2BB1     		cbz	r3, .L49
 197:../../../../DaisyExamples/DaisySP//Source/Filters/fir.h ****         }
 1713              		.loc 1 197 23 is_stmt 0 view .LVU457
 1714 0166 9A00     		lsls	r2, r3, #2
 1715 0168 09F10401 		add	r1, r9, #4
 1716 016c 4846     		mov	r0, r9
 1717 016e FFF7FEFF 		bl	memmove
 1718              	.LVL93:
 1719              	.L49:
 197:../../../../DaisyExamples/DaisySP//Source/Filters/fir.h ****         }
 1720              		.loc 1 197 23 view .LVU458
 1721              	.LBE481:
ARM GAS  C:\Users\samue\AppData\Local\Temp\ccTlvsL9.s 			page 51


 1722              	.LBE480:
 1723              	.LBE479:
 110:voice.cpp     ****     
 111:voice.cpp     ****     return sample[0];
 112:voice.cpp     **** }
 1724              		.loc 2 112 1 view .LVU459
 1725 0172 B0EE680A 		vmov.f32	s0, s17
 1726 0176 03B0     		add	sp, sp, #12
 1727              		.cfi_remember_state
 1728              		.cfi_def_cfa_offset 60
 1729              		@ sp needed
 1730 0178 BDEC068B 		vldm	sp!, {d8-d10}
 1731              		.cfi_restore 84
 1732              		.cfi_restore 85
 1733              		.cfi_restore 82
 1734              		.cfi_restore 83
 1735              		.cfi_restore 80
 1736              		.cfi_restore 81
 1737              		.cfi_def_cfa_offset 36
 1738              	.LVL94:
 1739              		.loc 2 112 1 view .LVU460
 1740 017c BDE8F08F 		pop	{r4, r5, r6, r7, r8, r9, r10, fp, pc}
 1741              	.LVL95:
 1742              	.L77:
 1743              		.cfi_restore_state
 106:voice.cpp     ****     else sample[1] = sample[1];
 1744              		.loc 2 106 33 is_stmt 1 discriminator 1 view .LVU461
 106:voice.cpp     ****     else sample[1] = sample[1];
 1745              		.loc 2 106 61 is_stmt 0 discriminator 1 view .LVU462
 1746 0180 D6ED4E9A 		vldr.32	s19, [r6, #312]
 106:voice.cpp     ****     else sample[1] = sample[1];
 1747              		.loc 2 106 50 discriminator 1 view .LVU463
 1748 0184 29EE870A 		vmul.f32	s0, s19, s14
 1749              	.LVL96:
 106:voice.cpp     ****     else sample[1] = sample[1];
 1750              		.loc 2 106 50 discriminator 1 view .LVU464
 1751 0188 FFF7FEFF 		bl	tanhf
 1752              	.LVL97:
 106:voice.cpp     ****     else sample[1] = sample[1];
 1753              		.loc 2 106 50 discriminator 1 view .LVU465
 1754 018c B0EE409A 		vmov.f32	s18, s0
 106:voice.cpp     ****     else sample[1] = sample[1];
 1755              		.loc 2 106 86 discriminator 1 view .LVU466
 1756 0190 B0EE690A 		vmov.f32	s0, s19
 1757 0194 FFF7FEFF 		bl	tanhf
 1758              	.LVL98:
 106:voice.cpp     ****     else sample[1] = sample[1];
 1759              		.loc 2 106 79 discriminator 1 view .LVU467
 1760 0198 89EE008A 		vdiv.f32	s16, s18, s0
 1761              	.LVL99:
 106:voice.cpp     ****     else sample[1] = sample[1];
 1762              		.loc 2 106 79 discriminator 1 view .LVU468
 1763 019c DEE7     		b	.L63
 1764              	.LVL100:
 1765              	.L75:
  96:voice.cpp     ****     else sample[0] = sample[0];
 1766              		.loc 2 96 33 is_stmt 1 discriminator 1 view .LVU469
ARM GAS  C:\Users\samue\AppData\Local\Temp\ccTlvsL9.s 			page 52


  96:voice.cpp     ****     else sample[0] = sample[0];
 1767              		.loc 2 96 61 is_stmt 0 discriminator 1 view .LVU470
 1768 019e 96ED4E9A 		vldr.32	s18, [r6, #312]
  96:voice.cpp     ****     else sample[0] = sample[0];
 1769              		.loc 2 96 50 discriminator 1 view .LVU471
 1770 01a2 29EE070A 		vmul.f32	s0, s18, s14
 1771 01a6 FFF7FEFF 		bl	tanhf
 1772              	.LVL101:
  96:voice.cpp     ****     else sample[0] = sample[0];
 1773              		.loc 2 96 50 discriminator 1 view .LVU472
 1774 01aa F0EE408A 		vmov.f32	s17, s0
 1775              	.LVL102:
  96:voice.cpp     ****     else sample[0] = sample[0];
 1776              		.loc 2 96 86 discriminator 1 view .LVU473
 1777 01ae B0EE490A 		vmov.f32	s0, s18
 1778 01b2 FFF7FEFF 		bl	tanhf
 1779              	.LVL103:
  96:voice.cpp     ****     else sample[0] = sample[0];
 1780              		.loc 2 96 79 discriminator 1 view .LVU474
 1781 01b6 88EE808A 		vdiv.f32	s16, s17, s0
 1782              	.LVL104:
  96:voice.cpp     ****     else sample[0] = sample[0];
 1783              		.loc 2 96 79 discriminator 1 view .LVU475
 1784 01ba 7CE7     		b	.L55
 1785              	.LVL105:
 1786              	.L76:
 105:voice.cpp     ****     else if(effect_ == DISTORT) sample[1] = tanhf(sample[1]*distortion_gain_) / tanhf(distortion_ga
 1787              		.loc 2 105 25 is_stmt 1 discriminator 1 view .LVU476
 105:voice.cpp     ****     else if(effect_ == DISTORT) sample[1] = tanhf(sample[1]*distortion_gain_) / tanhf(distortion_ga
 1788              		.loc 2 105 54 is_stmt 0 discriminator 1 view .LVU477
 1789 01bc 96ED4F9A 		vldr.32	s18, [r6, #316]
 105:voice.cpp     ****     else if(effect_ == DISTORT) sample[1] = tanhf(sample[1]*distortion_gain_) / tanhf(distortion_ga
 1790              		.loc 2 105 43 discriminator 1 view .LVU478
 1791 01c0 29EE070A 		vmul.f32	s0, s18, s14
 1792              	.LVL106:
 105:voice.cpp     ****     else if(effect_ == DISTORT) sample[1] = tanhf(sample[1]*distortion_gain_) / tanhf(distortion_ga
 1793              		.loc 2 105 43 discriminator 1 view .LVU479
 1794 01c4 FFF7FEFF 		bl	tanhf
 1795              	.LVL107:
 105:voice.cpp     ****     else if(effect_ == DISTORT) sample[1] = tanhf(sample[1]*distortion_gain_) / tanhf(distortion_ga
 1796              		.loc 2 105 43 discriminator 1 view .LVU480
 1797 01c8 B0EE40AA 		vmov.f32	s20, s0
 105:voice.cpp     ****     else if(effect_ == DISTORT) sample[1] = tanhf(sample[1]*distortion_gain_) / tanhf(distortion_ga
 1798              		.loc 2 105 73 discriminator 1 view .LVU481
 1799 01cc B0EE490A 		vmov.f32	s0, s18
 105:voice.cpp     ****     else if(effect_ == DISTORT) sample[1] = tanhf(sample[1]*distortion_gain_) / tanhf(distortion_ga
 1800              		.loc 2 105 98 discriminator 1 view .LVU482
 1801 01d0 39EE099A 		vadd.f32	s18, s18, s18
 105:voice.cpp     ****     else if(effect_ == DISTORT) sample[1] = tanhf(sample[1]*distortion_gain_) / tanhf(distortion_ga
 1802              		.loc 2 105 73 discriminator 1 view .LVU483
 1803 01d4 FFF7FEFF 		bl	tanhf
 1804              	.LVL108:
 1805 01d8 F0EE409A 		vmov.f32	s19, s0
 105:voice.cpp     ****     else if(effect_ == DISTORT) sample[1] = tanhf(sample[1]*distortion_gain_) / tanhf(distortion_ga
 1806              		.loc 2 105 96 discriminator 1 view .LVU484
 1807 01dc 29EE080A 		vmul.f32	s0, s18, s16
 1808 01e0 FFF7FEFF 		bl	sinf
ARM GAS  C:\Users\samue\AppData\Local\Temp\ccTlvsL9.s 			page 53


 1809              	.LVL109:
 105:voice.cpp     ****     else if(effect_ == DISTORT) sample[1] = tanhf(sample[1]*distortion_gain_) / tanhf(distortion_ga
 1810              		.loc 2 105 66 discriminator 1 view .LVU485
 1811 01e4 8AEE296A 		vdiv.f32	s12, s20, s19
 105:voice.cpp     ****     else if(effect_ == DISTORT) sample[1] = tanhf(sample[1]*distortion_gain_) / tanhf(distortion_ga
 1812              		.loc 2 105 96 discriminator 1 view .LVU486
 1813 01e8 B7EEC00A 		vcvt.f64.f32	d0, s0
 105:voice.cpp     ****     else if(effect_ == DISTORT) sample[1] = tanhf(sample[1]*distortion_gain_) / tanhf(distortion_ga
 1814              		.loc 2 105 86 discriminator 1 view .LVU487
 1815 01ec 9FED1A7B 		vldr.64	d7, .L78
 105:voice.cpp     ****     else if(effect_ == DISTORT) sample[1] = tanhf(sample[1]*distortion_gain_) / tanhf(distortion_ga
 1816              		.loc 2 105 121 discriminator 1 view .LVU488
 1817 01f0 9FED1B5B 		vldr.64	d5, .L78+8
 105:voice.cpp     ****     else if(effect_ == DISTORT) sample[1] = tanhf(sample[1]*distortion_gain_) / tanhf(distortion_ga
 1818              		.loc 2 105 66 discriminator 1 view .LVU489
 1819 01f4 B7EEC66A 		vcvt.f64.f32	d6, s12
 105:voice.cpp     ****     else if(effect_ == DISTORT) sample[1] = tanhf(sample[1]*distortion_gain_) / tanhf(distortion_ga
 1820              		.loc 2 105 86 discriminator 1 view .LVU490
 1821 01f8 A0EE076B 		vfma.f64	d6, d0, d7
 105:voice.cpp     ****     else if(effect_ == DISTORT) sample[1] = tanhf(sample[1]*distortion_gain_) / tanhf(distortion_ga
 1822              		.loc 2 105 121 discriminator 1 view .LVU491
 1823 01fc 86EE057B 		vdiv.f64	d7, d6, d5
 1824 0200 B7EEC78B 		vcvt.f32.f64	s16, d7
 1825              	.LVL110:
 105:voice.cpp     ****     else if(effect_ == DISTORT) sample[1] = tanhf(sample[1]*distortion_gain_) / tanhf(distortion_ga
 1826              		.loc 2 105 121 discriminator 1 view .LVU492
 1827 0204 AAE7     		b	.L63
 1828              	.LVL111:
 1829              	.L74:
  95:voice.cpp     ****     else if(effect_ == DISTORT) sample[0] = tanhf(sample[0]*distortion_gain_) / tanhf(distortion_ga
 1830              		.loc 2 95 25 is_stmt 1 discriminator 1 view .LVU493
  95:voice.cpp     ****     else if(effect_ == DISTORT) sample[0] = tanhf(sample[0]*distortion_gain_) / tanhf(distortion_ga
 1831              		.loc 2 95 54 is_stmt 0 discriminator 1 view .LVU494
 1832 0206 D6ED4F8A 		vldr.32	s17, [r6, #316]
 1833              	.LVL112:
  95:voice.cpp     ****     else if(effect_ == DISTORT) sample[0] = tanhf(sample[0]*distortion_gain_) / tanhf(distortion_ga
 1834              		.loc 2 95 43 discriminator 1 view .LVU495
 1835 020a 28EE870A 		vmul.f32	s0, s17, s14
 1836 020e FFF7FEFF 		bl	tanhf
 1837              	.LVL113:
  95:voice.cpp     ****     else if(effect_ == DISTORT) sample[0] = tanhf(sample[0]*distortion_gain_) / tanhf(distortion_ga
 1838              		.loc 2 95 43 discriminator 1 view .LVU496
 1839 0212 F0EE409A 		vmov.f32	s19, s0
  95:voice.cpp     ****     else if(effect_ == DISTORT) sample[0] = tanhf(sample[0]*distortion_gain_) / tanhf(distortion_ga
 1840              		.loc 2 95 73 discriminator 1 view .LVU497
 1841 0216 B0EE680A 		vmov.f32	s0, s17
  95:voice.cpp     ****     else if(effect_ == DISTORT) sample[0] = tanhf(sample[0]*distortion_gain_) / tanhf(distortion_ga
 1842              		.loc 2 95 98 discriminator 1 view .LVU498
 1843 021a 78EEA88A 		vadd.f32	s17, s17, s17
  95:voice.cpp     ****     else if(effect_ == DISTORT) sample[0] = tanhf(sample[0]*distortion_gain_) / tanhf(distortion_ga
 1844              		.loc 2 95 73 discriminator 1 view .LVU499
 1845 021e FFF7FEFF 		bl	tanhf
 1846              	.LVL114:
 1847 0222 B0EE409A 		vmov.f32	s18, s0
  95:voice.cpp     ****     else if(effect_ == DISTORT) sample[0] = tanhf(sample[0]*distortion_gain_) / tanhf(distortion_ga
 1848              		.loc 2 95 96 discriminator 1 view .LVU500
 1849 0226 28EE880A 		vmul.f32	s0, s17, s16
ARM GAS  C:\Users\samue\AppData\Local\Temp\ccTlvsL9.s 			page 54


 1850 022a FFF7FEFF 		bl	sinf
 1851              	.LVL115:
  95:voice.cpp     ****     else if(effect_ == DISTORT) sample[0] = tanhf(sample[0]*distortion_gain_) / tanhf(distortion_ga
 1852              		.loc 2 95 66 discriminator 1 view .LVU501
 1853 022e 89EE896A 		vdiv.f32	s12, s19, s18
  95:voice.cpp     ****     else if(effect_ == DISTORT) sample[0] = tanhf(sample[0]*distortion_gain_) / tanhf(distortion_ga
 1854              		.loc 2 95 96 discriminator 1 view .LVU502
 1855 0232 B7EEC00A 		vcvt.f64.f32	d0, s0
  95:voice.cpp     ****     else if(effect_ == DISTORT) sample[0] = tanhf(sample[0]*distortion_gain_) / tanhf(distortion_ga
 1856              		.loc 2 95 86 discriminator 1 view .LVU503
 1857 0236 9FED084B 		vldr.64	d4, .L78
  95:voice.cpp     ****     else if(effect_ == DISTORT) sample[0] = tanhf(sample[0]*distortion_gain_) / tanhf(distortion_ga
 1858              		.loc 2 95 121 discriminator 1 view .LVU504
 1859 023a 9FED095B 		vldr.64	d5, .L78+8
  95:voice.cpp     ****     else if(effect_ == DISTORT) sample[0] = tanhf(sample[0]*distortion_gain_) / tanhf(distortion_ga
 1860              		.loc 2 95 66 discriminator 1 view .LVU505
 1861 023e B7EEC66A 		vcvt.f64.f32	d6, s12
  95:voice.cpp     ****     else if(effect_ == DISTORT) sample[0] = tanhf(sample[0]*distortion_gain_) / tanhf(distortion_ga
 1862              		.loc 2 95 86 discriminator 1 view .LVU506
 1863 0242 A0EE046B 		vfma.f64	d6, d0, d4
  95:voice.cpp     ****     else if(effect_ == DISTORT) sample[0] = tanhf(sample[0]*distortion_gain_) / tanhf(distortion_ga
 1864              		.loc 2 95 121 discriminator 1 view .LVU507
 1865 0246 86EE058B 		vdiv.f64	d8, d6, d5
 1866              	.LVL116:
  95:voice.cpp     ****     else if(effect_ == DISTORT) sample[0] = tanhf(sample[0]*distortion_gain_) / tanhf(distortion_ga
 1867              		.loc 2 95 121 discriminator 1 view .LVU508
 1868 024a B7EEC88B 		vcvt.f32.f64	s16, d8
 1869              	.LVL117:
  95:voice.cpp     ****     else if(effect_ == DISTORT) sample[0] = tanhf(sample[0]*distortion_gain_) / tanhf(distortion_ga
 1870              		.loc 2 95 121 discriminator 1 view .LVU509
 1871 024e 32E7     		b	.L55
 1872              	.LVL118:
 1873              	.L56:
 1874              	.LBB482:
 1875              	.LBB459:
  95:voice.cpp     ****     else if(effect_ == DISTORT) sample[0] = tanhf(sample[0]*distortion_gain_) / tanhf(distortion_ga
 1876              		.loc 2 95 121 discriminator 1 view .LVU510
 1877 0250 FFF7FEFF 		bl	_ZN7daisysp20FIRFilterImplGenericILj0ELj0EE7ProcessEf.part.0
 1878              	.LVL119:
 1879              	.L79:
 1880 0254 AFF30080 		.align	3
 1881              	.L78:
 1882 0258 9A999999 		.word	-1717986918
 1883 025c 9999E93F 		.word	1072273817
 1884 0260 000000C0 		.word	-1073741824
 1885 0264 CCCCFC3F 		.word	1073532108
 1886 0268 00000000 		.word	0
 1887              	.LBE459:
 1888              	.LBE482:
 1889              		.cfi_endproc
 1890              	.LFE3526:
 1892              		.section	.text._ZN5voice13process_noiseEf,"ax",%progbits
 1893              		.align	1
 1894              		.p2align 2,,3
 1895              		.global	_ZN5voice13process_noiseEf
 1896              		.syntax unified
 1897              		.thumb
ARM GAS  C:\Users\samue\AppData\Local\Temp\ccTlvsL9.s 			page 55


 1898              		.thumb_func
 1899              		.fpu fpv5-d16
 1901              	_ZN5voice13process_noiseEf:
 1902              	.LVL120:
 1903              	.LFB3527:
 113:voice.cpp     **** 
 114:voice.cpp     **** float voice::process_noise(float amplitude)
 115:voice.cpp     **** {
 1904              		.loc 2 115 1 is_stmt 1 view -0
 1905              		.cfi_startproc
 1906              		@ args = 0, pretend = 0, frame = 0
 1907              		@ frame_needed = 0, uses_anonymous_args = 0
 116:voice.cpp     ****     float noise, noise_low, noise_high;
 1908              		.loc 2 116 5 view .LVU512
 117:voice.cpp     **** 
 118:voice.cpp     ****     noise = 0.0f;
 1909              		.loc 2 118 5 view .LVU513
 119:voice.cpp     ****     if(noise_mode_ == NOISE)
 1910              		.loc 2 119 5 view .LVU514
 115:voice.cpp     ****     float noise, noise_low, noise_high;
 1911              		.loc 2 115 1 is_stmt 0 view .LVU515
 1912 0000 10B5     		push	{r4, lr}
 1913              		.cfi_def_cfa_offset 8
 1914              		.cfi_offset 4, -8
 1915              		.cfi_offset 14, -4
 1916 0002 2DED028B 		vpush.64	{d8}
 1917              		.cfi_def_cfa_offset 16
 1918              		.cfi_offset 80, -16
 1919              		.cfi_offset 81, -12
 1920              		.loc 2 119 8 view .LVU516
 1921 0006 90F85531 		ldrb	r3, [r0, #341]	@ zero_extendqisi2
 115:voice.cpp     ****     float noise, noise_low, noise_high;
 1922              		.loc 2 115 1 view .LVU517
 1923 000a B0EE408A 		vmov.f32	s16, s0
 1924 000e 0446     		mov	r4, r0
 1925              		.loc 2 119 5 view .LVU518
 1926 0010 33B1     		cbz	r3, .L95
 120:voice.cpp     ****     {
 121:voice.cpp     ****         noise_.SetAmp(amplitude);
 122:voice.cpp     ****         noise = noise_.Process();
 123:voice.cpp     ****         noise_low = noise_lpf_.Process(noise);
 124:voice.cpp     ****         noise_high = noise_hpf_.Process(noise);
 125:voice.cpp     **** 
 126:voice.cpp     ****         noise = noise_low * noise_color_ + noise_high * (1.0f - noise_color_);
 127:voice.cpp     ****     }
 128:voice.cpp     ****     else if (noise_mode_ == GONG)
 1927              		.loc 2 128 10 is_stmt 1 view .LVU519
 129:voice.cpp     ****     {
 130:voice.cpp     ****         noise = 0.0f;
 131:voice.cpp     ****     }
 132:voice.cpp     ****     else if (noise_mode_ == FM)
 1928              		.loc 2 132 10 view .LVU520
 1929 0012 022B     		cmp	r3, #2
 1930 0014 55D0     		beq	.L96
 118:voice.cpp     ****     if(noise_mode_ == NOISE)
 1931              		.loc 2 118 11 is_stmt 0 view .LVU521
 1932 0016 9FED310A 		vldr.32	s0, .L97
ARM GAS  C:\Users\samue\AppData\Local\Temp\ccTlvsL9.s 			page 56


 1933              	.LVL121:
 133:voice.cpp     ****     {
 134:voice.cpp     ****         fm_.SetIndex(mod_ind_*amplitude);
 135:voice.cpp     ****         noise = fm_.Process()*amplitude; 
 136:voice.cpp     ****     }
 137:voice.cpp     ****     
 138:voice.cpp     ****     return noise;
 1934              		.loc 2 138 5 is_stmt 1 view .LVU522
 1935              	.L80:
 139:voice.cpp     **** }
 1936              		.loc 2 139 1 is_stmt 0 view .LVU523
 1937 001a BDEC028B 		vldm	sp!, {d8}
 1938              		.cfi_remember_state
 1939              		.cfi_restore 80
 1940              		.cfi_restore 81
 1941              		.cfi_def_cfa_offset 8
 1942              	.LVL122:
 1943              		.loc 2 139 1 view .LVU524
 1944 001e 10BD     		pop	{r4, pc}
 1945              	.LVL123:
 1946              	.L95:
 1947              		.cfi_restore_state
 1948              	.LBB493:
 1949              	.LBI493:
 114:voice.cpp     **** {
 1950              		.loc 2 114 7 is_stmt 1 view .LVU525
 1951              	.LBB494:
 121:voice.cpp     ****         noise = noise_.Process();
 1952              		.loc 2 121 9 view .LVU526
 1953              	.LBB495:
 1954              	.LBI495:
  31:../../../../DaisyExamples/DaisySP//Source/Noise/whitenoise.h ****     }
  32:../../../../DaisyExamples/DaisySP//Source/Noise/whitenoise.h **** 
  33:../../../../DaisyExamples/DaisySP//Source/Noise/whitenoise.h ****     /** sets the amplitude of the noise output
  34:../../../../DaisyExamples/DaisySP//Source/Noise/whitenoise.h ****     */
  35:../../../../DaisyExamples/DaisySP//Source/Noise/whitenoise.h ****     inline void SetAmp(float a) { amp_ = a; }
 1955              		.loc 5 35 17 view .LVU527
 1956              	.LBB496:
 1957              		.loc 5 35 35 view .LVU528
 1958              	.LBE496:
 1959              	.LBE495:
 1960              	.LBB498:
 1961              	.LBB499:
  36:../../../../DaisyExamples/DaisySP//Source/Noise/whitenoise.h ****     /** returns a new sample of noise in the range of -amp_ to amp_
  37:../../../../DaisyExamples/DaisySP//Source/Noise/whitenoise.h ****     */
  38:../../../../DaisyExamples/DaisySP//Source/Noise/whitenoise.h ****     inline float Process()
  39:../../../../DaisyExamples/DaisySP//Source/Noise/whitenoise.h ****     {
  40:../../../../DaisyExamples/DaisySP//Source/Noise/whitenoise.h ****         randseed_ *= 16807;
 1962              		.loc 5 40 19 is_stmt 0 view .LVU529
 1963 0020 D0F80C31 		ldr	r3, [r0, #268]
 1964 0024 44F2A712 		movw	r2, #16807
 1965              	.LBE499:
 1966              	.LBE498:
 1967              	.LBB502:
 1968              	.LBB503:
  69:../../../../DaisyExamples/DaisySP//Source/Filters/onepole.h **** 
  70:../../../../DaisyExamples/DaisySP//Source/Filters/onepole.h ****     /** Process audio through the filter
ARM GAS  C:\Users\samue\AppData\Local\Temp\ccTlvsL9.s 			page 57


  71:../../../../DaisyExamples/DaisySP//Source/Filters/onepole.h ****     *   \param in The next sample to be processed
  72:../../../../DaisyExamples/DaisySP//Source/Filters/onepole.h ****     */
  73:../../../../DaisyExamples/DaisySP//Source/Filters/onepole.h ****     inline float Process(float in)
  74:../../../../DaisyExamples/DaisySP//Source/Filters/onepole.h ****     {
  75:../../../../DaisyExamples/DaisySP//Source/Filters/onepole.h ****         float lp;
  76:../../../../DaisyExamples/DaisySP//Source/Filters/onepole.h ****         lp     = (g_ * in + state_) * gi_;
 1969              		.loc 6 76 19 view .LVU530
 1970 0028 D0ED446A 		vldr.32	s13, [r0, #272]
 1971              	.LBE503:
 1972              	.LBE502:
 1973              	.LBB506:
 1974              	.LBB500:
 1975              		.loc 5 40 19 view .LVU531
 1976 002c 02FB03F3 		mul	r3, r2, r3
 1977              	.LBE500:
 1978              	.LBE506:
 1979              	.LBB507:
 1980              	.LBB504:
 1981              		.loc 6 76 27 view .LVU532
 1982 0030 D0ED467A 		vldr.32	s15, [r0, #280]
 1983              		.loc 6 76 16 view .LVU533
 1984 0034 90ED457A 		vldr.32	s14, [r0, #276]
  77:../../../../DaisyExamples/DaisySP//Source/Filters/onepole.h ****         state_ = g_ * (in - lp) + lp;
  78:../../../../DaisyExamples/DaisySP//Source/Filters/onepole.h **** 
  79:../../../../DaisyExamples/DaisySP//Source/Filters/onepole.h ****         switch(mode_)
 1985              		.loc 6 79 16 view .LVU534
 1986 0038 90F81C21 		ldrb	r2, [r0, #284]	@ zero_extendqisi2
 1987              	.LBE504:
 1988              	.LBE507:
 1989              	.LBB508:
 1990              	.LBB497:
  35:../../../../DaisyExamples/DaisySP//Source/Noise/whitenoise.h ****     /** returns a new sample of noise in the range of -amp_ to amp_
 1991              		.loc 5 35 40 view .LVU535
 1992 003c 84ED420A 		vstr.32	s0, [r4, #264]
 1993              	.LVL124:
  35:../../../../DaisyExamples/DaisySP//Source/Noise/whitenoise.h ****     /** returns a new sample of noise in the range of -amp_ to amp_
 1994              		.loc 5 35 40 view .LVU536
 1995              	.LBE497:
 1996              	.LBE508:
 122:voice.cpp     ****         noise_low = noise_lpf_.Process(noise);
 1997              		.loc 2 122 9 is_stmt 1 view .LVU537
 1998              	.LBB509:
 1999              	.LBI498:
  38:../../../../DaisyExamples/DaisySP//Source/Noise/whitenoise.h ****     {
 2000              		.loc 5 38 18 view .LVU538
 2001              	.LBB501:
 2002              		.loc 5 40 9 view .LVU539
  41:../../../../DaisyExamples/DaisySP//Source/Noise/whitenoise.h ****         return (randseed_ * coeff_) * amp_;
 2003              		.loc 5 41 27 is_stmt 0 view .LVU540
 2004 0040 00EE103A 		vmov	s0, r3	@ int
 2005              	.LVL125:
  40:../../../../DaisyExamples/DaisySP//Source/Noise/whitenoise.h ****         return (randseed_ * coeff_) * amp_;
 2006              		.loc 5 40 19 view .LVU541
 2007 0044 C0F80C31 		str	r3, [r0, #268]
 2008              		.loc 5 41 9 is_stmt 1 view .LVU542
 2009              		.loc 5 41 27 is_stmt 0 view .LVU543
 2010 0048 BAEEE00A 		vcvt.f32.s32	s0, s0, #31
ARM GAS  C:\Users\samue\AppData\Local\Temp\ccTlvsL9.s 			page 58


 2011              		.loc 5 41 39 view .LVU544
 2012 004c 20EE088A 		vmul.f32	s16, s0, s16
 2013              	.LVL126:
 2014              		.loc 5 41 39 view .LVU545
 2015              	.LBE501:
 2016              	.LBE509:
 123:voice.cpp     ****         noise_high = noise_hpf_.Process(noise);
 2017              		.loc 2 123 9 is_stmt 1 view .LVU546
 2018              	.LBB510:
 2019              	.LBI502:
  73:../../../../DaisyExamples/DaisySP//Source/Filters/onepole.h ****     {
 2020              		.loc 6 73 18 view .LVU547
 2021              	.LBB505:
  75:../../../../DaisyExamples/DaisySP//Source/Filters/onepole.h ****         lp     = (g_ * in + state_) * gi_;
 2022              		.loc 6 75 9 view .LVU548
  76:../../../../DaisyExamples/DaisySP//Source/Filters/onepole.h ****         state_ = g_ * (in - lp) + lp;
 2023              		.loc 6 76 9 view .LVU549
  76:../../../../DaisyExamples/DaisySP//Source/Filters/onepole.h ****         state_ = g_ * (in - lp) + lp;
 2024              		.loc 6 76 27 is_stmt 0 view .LVU550
 2025 0050 E8EE267A 		vfma.f32	s15, s16, s13
  76:../../../../DaisyExamples/DaisySP//Source/Filters/onepole.h ****         state_ = g_ * (in - lp) + lp;
 2026              		.loc 6 76 16 view .LVU551
 2027 0054 67EE877A 		vmul.f32	s15, s15, s14
 2028              	.LVL127:
  77:../../../../DaisyExamples/DaisySP//Source/Filters/onepole.h **** 
 2029              		.loc 6 77 9 is_stmt 1 view .LVU552
  77:../../../../DaisyExamples/DaisySP//Source/Filters/onepole.h **** 
 2030              		.loc 6 77 27 is_stmt 0 view .LVU553
 2031 0058 38EE677A 		vsub.f32	s14, s16, s15
  77:../../../../DaisyExamples/DaisySP//Source/Filters/onepole.h **** 
 2032              		.loc 6 77 33 view .LVU554
 2033 005c B0EE676A 		vmov.f32	s12, s15
 2034 0060 A6EE876A 		vfma.f32	s12, s13, s14
  77:../../../../DaisyExamples/DaisySP//Source/Filters/onepole.h **** 
 2035              		.loc 6 77 16 view .LVU555
 2036 0064 80ED466A 		vstr.32	s12, [r0, #280]
 2037              		.loc 6 79 9 is_stmt 1 view .LVU556
 2038 0068 22B1     		cbz	r2, .L82
 2039              		.loc 6 79 9 is_stmt 0 view .LVU557
 2040 006a DFED1C7A 		vldr.32	s15, .L97
 2041              	.LVL128:
 2042              		.loc 6 79 9 view .LVU558
 2043 006e 012A     		cmp	r2, #1
 2044 0070 47FE277A 		vseleq.f32	s15, s14, s15
 2045              	.L82:
 2046              	.LVL129:
 2047              		.loc 6 79 9 view .LVU559
 2048              	.LBE505:
 2049              	.LBE510:
 124:voice.cpp     **** 
 2050              		.loc 2 124 9 is_stmt 1 view .LVU560
 2051              	.LBB511:
 2052              	.LBI511:
  73:../../../../DaisyExamples/DaisySP//Source/Filters/onepole.h ****     {
 2053              		.loc 6 73 18 view .LVU561
 2054              	.LBB512:
  75:../../../../DaisyExamples/DaisySP//Source/Filters/onepole.h ****         lp     = (g_ * in + state_) * gi_;
ARM GAS  C:\Users\samue\AppData\Local\Temp\ccTlvsL9.s 			page 59


 2055              		.loc 6 75 9 view .LVU562
  76:../../../../DaisyExamples/DaisySP//Source/Filters/onepole.h ****         state_ = g_ * (in - lp) + lp;
 2056              		.loc 6 76 9 view .LVU563
  76:../../../../DaisyExamples/DaisySP//Source/Filters/onepole.h ****         state_ = g_ * (in - lp) + lp;
 2057              		.loc 6 76 19 is_stmt 0 view .LVU564
 2058 0074 D4ED486A 		vldr.32	s13, [r4, #288]
  76:../../../../DaisyExamples/DaisySP//Source/Filters/onepole.h ****         state_ = g_ * (in - lp) + lp;
 2059              		.loc 6 76 27 view .LVU565
 2060 0078 94ED4A0A 		vldr.32	s0, [r4, #296]
  76:../../../../DaisyExamples/DaisySP//Source/Filters/onepole.h ****         state_ = g_ * (in - lp) + lp;
 2061              		.loc 6 76 16 view .LVU566
 2062 007c 94ED497A 		vldr.32	s14, [r4, #292]
  76:../../../../DaisyExamples/DaisySP//Source/Filters/onepole.h ****         state_ = g_ * (in - lp) + lp;
 2063              		.loc 6 76 27 view .LVU567
 2064 0080 A8EE260A 		vfma.f32	s0, s16, s13
 2065              		.loc 6 79 16 view .LVU568
 2066 0084 94F82C31 		ldrb	r3, [r4, #300]	@ zero_extendqisi2
  76:../../../../DaisyExamples/DaisySP//Source/Filters/onepole.h ****         state_ = g_ * (in - lp) + lp;
 2067              		.loc 6 76 16 view .LVU569
 2068 0088 20EE077A 		vmul.f32	s14, s0, s14
 2069              	.LVL130:
  77:../../../../DaisyExamples/DaisySP//Source/Filters/onepole.h **** 
 2070              		.loc 6 77 9 is_stmt 1 view .LVU570
  77:../../../../DaisyExamples/DaisySP//Source/Filters/onepole.h **** 
 2071              		.loc 6 77 27 is_stmt 0 view .LVU571
 2072 008c 38EE478A 		vsub.f32	s16, s16, s14
 2073              	.LVL131:
  77:../../../../DaisyExamples/DaisySP//Source/Filters/onepole.h **** 
 2074              		.loc 6 77 33 view .LVU572
 2075 0090 B0EE476A 		vmov.f32	s12, s14
 2076 0094 A6EE886A 		vfma.f32	s12, s13, s16
  77:../../../../DaisyExamples/DaisySP//Source/Filters/onepole.h **** 
 2077              		.loc 6 77 16 view .LVU573
 2078 0098 84ED4A6A 		vstr.32	s12, [r4, #296]
 2079              		.loc 6 79 9 is_stmt 1 view .LVU574
 2080 009c 23B1     		cbz	r3, .L83
 2081 009e 9FED0F0A 		vldr.32	s0, .L97
 2082 00a2 012B     		cmp	r3, #1
 2083 00a4 08FE007A 		vseleq.f32	s14, s16, s0
 2084              	.LVL132:
 2085              	.L83:
 2086              		.loc 6 79 9 is_stmt 0 view .LVU575
 2087              	.LBE512:
 2088              	.LBE511:
 126:voice.cpp     ****     }
 2089              		.loc 2 126 9 is_stmt 1 view .LVU576
 126:voice.cpp     ****     }
 2090              		.loc 2 126 63 is_stmt 0 view .LVU577
 2091 00a8 B7EE000A 		vmov.f32	s0, #1.0e+0
 126:voice.cpp     ****     }
 2092              		.loc 2 126 29 view .LVU578
 2093 00ac D4ED516A 		vldr.32	s13, [r4, #324]
 2094              	.LBE494:
 2095              	.LBE493:
 2096              		.loc 2 139 1 view .LVU579
 2097 00b0 BDEC028B 		vldm	sp!, {d8}
 2098              		.cfi_remember_state
ARM GAS  C:\Users\samue\AppData\Local\Temp\ccTlvsL9.s 			page 60


 2099              		.cfi_restore 80
 2100              		.cfi_restore 81
 2101              		.cfi_def_cfa_offset 8
 2102              	.LBB514:
 2103              	.LBB513:
 126:voice.cpp     ****     }
 2104              		.loc 2 126 63 view .LVU580
 2105 00b4 30EE660A 		vsub.f32	s0, s0, s13
 126:voice.cpp     ****     }
 2106              		.loc 2 126 55 view .LVU581
 2107 00b8 20EE070A 		vmul.f32	s0, s0, s14
 126:voice.cpp     ****     }
 2108              		.loc 2 126 15 view .LVU582
 2109 00bc A6EEA70A 		vfma.f32	s0, s13, s15
 2110              	.LVL133:
 138:voice.cpp     **** }
 2111              		.loc 2 138 5 is_stmt 1 view .LVU583
 138:voice.cpp     **** }
 2112              		.loc 2 138 5 is_stmt 0 view .LVU584
 2113              	.LBE513:
 2114              	.LBE514:
 2115              		.loc 2 139 1 view .LVU585
 2116 00c0 10BD     		pop	{r4, pc}
 2117              	.LVL134:
 2118              	.L96:
 2119              		.cfi_restore_state
 134:voice.cpp     ****         noise = fm_.Process()*amplitude; 
 2120              		.loc 2 134 9 is_stmt 1 view .LVU586
 134:voice.cpp     ****         noise = fm_.Process()*amplitude; 
 2121              		.loc 2 134 21 is_stmt 0 view .LVU587
 2122 00c2 90ED530A 		vldr.32	s0, [r0, #332]
 2123              	.LVL135:
 134:voice.cpp     ****         noise = fm_.Process()*amplitude; 
 2124              		.loc 2 134 21 view .LVU588
 2125 00c6 28EE000A 		vmul.f32	s0, s16, s0
 2126 00ca FFF7FEFF 		bl	_ZN7daisysp3Fm28SetIndexEf
 2127              	.LVL136:
 135:voice.cpp     ****     }
 2128              		.loc 2 135 9 is_stmt 1 view .LVU589
 135:voice.cpp     ****     }
 2129              		.loc 2 135 28 is_stmt 0 view .LVU590
 2130 00ce 2046     		mov	r0, r4
 2131 00d0 FFF7FEFF 		bl	_ZN7daisysp3Fm27ProcessEv
 2132              	.LVL137:
 135:voice.cpp     ****     }
 2133              		.loc 2 135 15 view .LVU591
 2134 00d4 20EE080A 		vmul.f32	s0, s0, s16
 2135              	.LVL138:
 135:voice.cpp     ****     }
 2136              		.loc 2 135 15 view .LVU592
 2137 00d8 9FE7     		b	.L80
 2138              	.L98:
 2139 00da 00BF     		.align	2
 2140              	.L97:
 2141 00dc 00000000 		.word	0
 2142              		.cfi_endproc
 2143              	.LFE3527:
ARM GAS  C:\Users\samue\AppData\Local\Temp\ccTlvsL9.s 			page 61


 2145              		.section	.text._ZN5voice7ProcessEv,"ax",%progbits
 2146              		.align	1
 2147              		.p2align 2,,3
 2148              		.global	_ZN5voice7ProcessEv
 2149              		.syntax unified
 2150              		.thumb
 2151              		.thumb_func
 2152              		.fpu fpv5-d16
 2154              	_ZN5voice7ProcessEv:
 2155              	.LVL139:
 2156              	.LFB3525:
  79:voice.cpp     ****     float amplitude;
 2157              		.loc 2 79 1 is_stmt 1 view -0
 2158              		.cfi_startproc
 2159              		@ args = 0, pretend = 0, frame = 0
 2160              		@ frame_needed = 0, uses_anonymous_args = 0
  80:voice.cpp     ****     amplitude = amp_env_.Process();
 2161              		.loc 2 80 5 view .LVU594
  81:voice.cpp     **** 
 2162              		.loc 2 81 5 view .LVU595
  79:voice.cpp     ****     float amplitude;
 2163              		.loc 2 79 1 is_stmt 0 view .LVU596
 2164 0000 10B5     		push	{r4, lr}
 2165              		.cfi_def_cfa_offset 8
 2166              		.cfi_offset 4, -8
 2167              		.cfi_offset 14, -4
 2168 0002 0446     		mov	r4, r0
  81:voice.cpp     **** 
 2169              		.loc 2 81 33 view .LVU597
 2170 0004 9830     		adds	r0, r0, #152
 2171              	.LVL140:
  79:voice.cpp     ****     float amplitude;
 2172              		.loc 2 79 1 view .LVU598
 2173 0006 2DED028B 		vpush.64	{d8}
 2174              		.cfi_def_cfa_offset 16
 2175              		.cfi_offset 80, -16
 2176              		.cfi_offset 81, -12
  81:voice.cpp     **** 
 2177              		.loc 2 81 33 view .LVU599
 2178 000a FFF7FEFF 		bl	_ZN7daisysp5AdEnv7ProcessEv
 2179              	.LVL141:
 2180 000e F0EE408A 		vmov.f32	s17, s0
 2181              	.LVL142:
  83:voice.cpp     **** }
 2182              		.loc 2 83 5 is_stmt 1 view .LVU600
  83:voice.cpp     **** }
 2183              		.loc 2 83 24 is_stmt 0 view .LVU601
 2184 0012 2046     		mov	r0, r4
 2185 0014 FFF7FEFF 		bl	_ZN5voice12process_drumEf
 2186              	.LVL143:
  83:voice.cpp     **** }
 2187              		.loc 2 83 24 view .LVU602
 2188 0018 B0EE408A 		vmov.f32	s16, s0
  83:voice.cpp     **** }
 2189              		.loc 2 83 62 view .LVU603
 2190 001c B0EE680A 		vmov.f32	s0, s17
  83:voice.cpp     **** }
ARM GAS  C:\Users\samue\AppData\Local\Temp\ccTlvsL9.s 			page 62


 2191              		.loc 2 83 38 view .LVU604
 2192 0020 D4ED508A 		vldr.32	s17, [r4, #320]
 2193              	.LVL144:
  83:voice.cpp     **** }
 2194              		.loc 2 83 62 view .LVU605
 2195 0024 2046     		mov	r0, r4
 2196 0026 FFF7FEFF 		bl	_ZN5voice13process_noiseEf
 2197              	.LVL145:
  84:voice.cpp     **** 
 2198              		.loc 2 84 1 view .LVU606
 2199 002a A8EE808A 		vfma.f32	s16, s17, s0
 2200 002e B0EE480A 		vmov.f32	s0, s16
 2201 0032 BDEC028B 		vldm	sp!, {d8}
 2202              		.cfi_restore 80
 2203              		.cfi_restore 81
 2204              		.cfi_def_cfa_offset 8
 2205 0036 10BD     		pop	{r4, pc}
  84:voice.cpp     **** 
 2206              		.loc 2 84 1 view .LVU607
 2207              		.cfi_endproc
 2208              	.LFE3525:
 2210              		.section	.text._ZN5voice14set_noise_modeEh,"ax",%progbits
 2211              		.align	1
 2212              		.p2align 2,,3
 2213              		.global	_ZN5voice14set_noise_modeEh
 2214              		.syntax unified
 2215              		.thumb
 2216              		.thumb_func
 2217              		.fpu fpv5-d16
 2219              	_ZN5voice14set_noise_modeEh:
 2220              	.LVL146:
 2221              	.LFB3528:
 140:voice.cpp     **** 
 141:voice.cpp     **** void voice::set_noise_mode(uint8_t mode)
 142:voice.cpp     **** {
 2222              		.loc 2 142 1 is_stmt 1 view -0
 2223              		.cfi_startproc
 2224              		@ args = 0, pretend = 0, frame = 0
 2225              		@ frame_needed = 0, uses_anonymous_args = 0
 2226              		@ link register save eliminated.
 143:voice.cpp     ****     noise_mode_ = mode;
 2227              		.loc 2 143 5 view .LVU609
 2228              		.loc 2 143 17 is_stmt 0 view .LVU610
 2229 0000 80F85511 		strb	r1, [r0, #341]
 144:voice.cpp     **** }
 2230              		.loc 2 144 1 view .LVU611
 2231 0004 7047     		bx	lr
 2232              		.cfi_endproc
 2233              	.LFE3528:
 2235 0006 00BF     		.section	.text._ZN5voice18set_noise_effect_1Ef,"ax",%progbits
 2236              		.align	1
 2237              		.p2align 2,,3
 2238              		.global	_ZN5voice18set_noise_effect_1Ef
 2239              		.syntax unified
 2240              		.thumb
 2241              		.thumb_func
 2242              		.fpu fpv5-d16
ARM GAS  C:\Users\samue\AppData\Local\Temp\ccTlvsL9.s 			page 63


 2244              	_ZN5voice18set_noise_effect_1Ef:
 2245              	.LVL147:
 2246              	.LFB3529:
 145:voice.cpp     **** 
 146:voice.cpp     **** void voice::set_noise_effect_1(float value)
 147:voice.cpp     **** {
 2247              		.loc 2 147 1 is_stmt 1 view -0
 2248              		.cfi_startproc
 2249              		@ args = 0, pretend = 0, frame = 0
 2250              		@ frame_needed = 0, uses_anonymous_args = 0
 148:voice.cpp     ****     noise_color_ = value;
 2251              		.loc 2 148 5 view .LVU613
 147:voice.cpp     ****     noise_color_ = value;
 2252              		.loc 2 147 1 is_stmt 0 view .LVU614
 2253 0000 F0EE407A 		vmov.f32	s15, s0
 2254              	.LBB517:
 2255              	.LBB518:
 141:../../../../DaisyExamples/DaisySP//Source/Utility/dsp.h **** }
 2256              		.loc 7 141 23 view .LVU615
 2257 0004 DFED106A 		vldr.32	s13, .L104
 2258 0008 DFED100A 		vldr.32	s1, .L104+4
 141:../../../../DaisyExamples/DaisySP//Source/Utility/dsp.h **** }
 2259              		.loc 7 141 16 view .LVU616
 2260 000c B2EE087A 		vmov.f32	s14, #1.2e+1
 2261 0010 B0EE000A 		vmov.f32	s0, #2.0e+0
 2262              	.LVL148:
 141:../../../../DaisyExamples/DaisySP//Source/Utility/dsp.h **** }
 2263              		.loc 7 141 23 view .LVU617
 2264 0014 E7EEA60A 		vfma.f32	s1, s15, s13
 2265              	.LBE518:
 2266              	.LBE517:
 147:voice.cpp     ****     noise_color_ = value;
 2267              		.loc 2 147 1 view .LVU618
 2268 0018 10B5     		push	{r4, lr}
 2269              		.cfi_def_cfa_offset 8
 2270              		.cfi_offset 4, -8
 2271              		.cfi_offset 14, -4
 2272 001a 2DED028B 		vpush.64	{d8}
 2273              		.cfi_def_cfa_offset 16
 2274              		.cfi_offset 80, -16
 2275              		.cfi_offset 81, -12
 2276              	.LBB522:
 2277              	.LBB519:
 141:../../../../DaisyExamples/DaisySP//Source/Utility/dsp.h **** }
 2278              		.loc 7 141 43 view .LVU619
 2279 001e 9FED0C8A 		vldr.32	s16, .L104+8
 2280              	.LBE519:
 2281              	.LBE522:
 147:voice.cpp     ****     noise_color_ = value;
 2282              		.loc 2 147 1 view .LVU620
 2283 0022 0446     		mov	r4, r0
 2284              		.loc 2 148 18 view .LVU621
 2285 0024 C0ED517A 		vstr.32	s15, [r0, #324]
 149:voice.cpp     ****     
 150:voice.cpp     ****     value = mtof(value*120);
 2286              		.loc 2 150 5 is_stmt 1 view .LVU622
 2287              	.LVL149:
ARM GAS  C:\Users\samue\AppData\Local\Temp\ccTlvsL9.s 			page 64


 2288              	.LBB523:
 2289              	.LBI517:
 139:../../../../DaisyExamples/DaisySP//Source/Utility/dsp.h **** {
 2290              		.loc 7 139 14 view .LVU623
 2291              	.LBB520:
 141:../../../../DaisyExamples/DaisySP//Source/Utility/dsp.h **** }
 2292              		.loc 7 141 5 view .LVU624
 141:../../../../DaisyExamples/DaisySP//Source/Utility/dsp.h **** }
 2293              		.loc 7 141 16 is_stmt 0 view .LVU625
 2294 0028 C0EE870A 		vdiv.f32	s1, s1, s14
 2295 002c FFF7FEFF 		bl	powf
 2296              	.LVL150:
 141:../../../../DaisyExamples/DaisySP//Source/Utility/dsp.h **** }
 2297              		.loc 7 141 16 view .LVU626
 2298              	.LBE520:
 2299              	.LBE523:
 151:voice.cpp     ****     fm_.SetFrequency(value);
 2300              		.loc 2 151 21 view .LVU627
 2301 0030 2046     		mov	r0, r4
 2302              	.LBB524:
 2303              	.LBB521:
 141:../../../../DaisyExamples/DaisySP//Source/Utility/dsp.h **** }
 2304              		.loc 7 141 43 view .LVU628
 2305 0032 20EE088A 		vmul.f32	s16, s0, s16
 2306              	.LVL151:
 141:../../../../DaisyExamples/DaisySP//Source/Utility/dsp.h **** }
 2307              		.loc 7 141 43 view .LVU629
 2308              	.LBE521:
 2309              	.LBE524:
 2310              		.loc 2 151 5 is_stmt 1 view .LVU630
 2311              		.loc 2 151 21 is_stmt 0 view .LVU631
 2312 0036 B0EE480A 		vmov.f32	s0, s16
 2313 003a FFF7FEFF 		bl	_ZN7daisysp3Fm212SetFrequencyEf
 2314              	.LVL152:
 152:voice.cpp     ****     fm_carrier_ = value;
 2315              		.loc 2 152 5 is_stmt 1 view .LVU632
 2316              		.loc 2 152 17 is_stmt 0 view .LVU633
 2317 003e 84ED528A 		vstr.32	s16, [r4, #328]
 153:voice.cpp     ****     
 154:voice.cpp     **** }
 2318              		.loc 2 154 1 view .LVU634
 2319 0042 BDEC028B 		vldm	sp!, {d8}
 2320              		.cfi_restore 80
 2321              		.cfi_restore 81
 2322              		.cfi_def_cfa_offset 8
 2323              	.LVL153:
 2324              		.loc 2 154 1 view .LVU635
 2325 0046 10BD     		pop	{r4, pc}
 2326              	.LVL154:
 2327              	.L105:
 2328              		.loc 2 154 1 view .LVU636
 2329              		.align	2
 2330              	.L104:
 2331 0048 0000F042 		.word	1123024896
 2332 004c 00008AC2 		.word	-1031143424
 2333 0050 0000DC43 		.word	1138491392
 2334              		.cfi_endproc
ARM GAS  C:\Users\samue\AppData\Local\Temp\ccTlvsL9.s 			page 65


 2335              	.LFE3529:
 2337              		.section	.text._ZN5voice18set_noise_effect_2Ef,"ax",%progbits
 2338              		.align	1
 2339              		.p2align 2,,3
 2340              		.global	_ZN5voice18set_noise_effect_2Ef
 2341              		.syntax unified
 2342              		.thumb
 2343              		.thumb_func
 2344              		.fpu fpv5-d16
 2346              	_ZN5voice18set_noise_effect_2Ef:
 2347              	.LVL155:
 2348              	.LFB3530:
 155:voice.cpp     **** 
 156:voice.cpp     **** void voice::set_noise_effect_2(float value)
 157:voice.cpp     **** {
 2349              		.loc 2 157 1 is_stmt 1 view -0
 2350              		.cfi_startproc
 2351              		@ args = 0, pretend = 0, frame = 0
 2352              		@ frame_needed = 0, uses_anonymous_args = 0
 2353              		@ link register save eliminated.
 158:voice.cpp     ****     value = fmap(value, -0.05f, 2.0f);
 2354              		.loc 2 158 5 view .LVU638
 2355              	.LBB525:
 2356              	.LBB526:
 2357              		.loc 7 189 31 is_stmt 0 view .LVU639
 2358 0000 DFED0B7A 		vldr.32	s15, .L110
 2359              	.LVL156:
 2360              		.loc 7 189 31 view .LVU640
 2361              	.LBE526:
 2362              	.LBI525:
 177:../../../../DaisyExamples/DaisySP//Source/Utility/dsp.h **** {
 2363              		.loc 7 177 1 is_stmt 1 view .LVU641
 2364              	.LBE525:
 179:../../../../DaisyExamples/DaisySP//Source/Utility/dsp.h ****     {
 2365              		.loc 7 179 5 view .LVU642
 2366              	.LBB538:
 2367              	.LBB536:
 188:../../../../DaisyExamples/DaisySP//Source/Utility/dsp.h ****         default: return fclamp(min + in * (max - min), min, max);
 2368              		.loc 7 188 9 view .LVU643
 2369              		.loc 7 189 9 view .LVU644
 2370              		.loc 7 189 18 view .LVU645
 2371              	.LBB527:
 2372              	.LBB528:
 2373              	.LBB529:
  55:../../../../DaisyExamples/DaisySP//Source/Utility/dsp.h **** #else
 2374              		.loc 7 55 5 is_stmt 0 view .LVU646
 2375 0004 F0EE006A 		vmov.f32	s13, #2.0e+0
 2376              	.LBE529:
 2377              	.LBE528:
 2378              	.LBE527:
 2379              		.loc 7 189 31 view .LVU647
 2380 0008 9FED0A6A 		vldr.32	s12, .L110+4
 2381 000c B0EE677A 		vmov.f32	s14, s15
 2382 0010 A0EE067A 		vfma.f32	s14, s0, s12
 2383              	.LVL157:
 2384              	.LBB534:
 2385              	.LBI527:
ARM GAS  C:\Users\samue\AppData\Local\Temp\ccTlvsL9.s 			page 66


  64:../../../../DaisyExamples/DaisySP//Source/Utility/dsp.h **** {
 2386              		.loc 7 64 14 is_stmt 1 view .LVU648
 2387              	.LBE534:
 2388              	.LBE536:
 2389              	.LBE538:
  66:../../../../DaisyExamples/DaisySP//Source/Utility/dsp.h **** }
 2390              		.loc 7 66 5 view .LVU649
 2391              	.LBB539:
 2392              	.LBB537:
 2393              	.LBB535:
 2394              	.LBB531:
 2395              	.LBI531:
  40:../../../../DaisyExamples/DaisySP//Source/Utility/dsp.h **** {
 2396              		.loc 7 40 14 view .LVU650
 2397              	.LBB532:
  42:../../../../DaisyExamples/DaisySP//Source/Utility/dsp.h **** #ifdef __arm__
 2398              		.loc 7 42 5 view .LVU651
  44:../../../../DaisyExamples/DaisySP//Source/Utility/dsp.h **** #else
 2399              		.loc 7 44 5 view .LVU652
 2400              		.syntax unified
 2401              	@ 44 "../../../../DaisyExamples/DaisySP//Source/Utility/dsp.h" 1
 2402 0014 C7FE277A 		vmaxnm.f32 s15, s14, s15
 2403              	@ 0 "" 2
 2404              	.LVL158:
  48:../../../../DaisyExamples/DaisySP//Source/Utility/dsp.h **** }
 2405              		.loc 7 48 5 view .LVU653
  48:../../../../DaisyExamples/DaisySP//Source/Utility/dsp.h **** }
 2406              		.loc 7 48 5 is_stmt 0 view .LVU654
 2407              		.thumb
 2408              		.syntax unified
 2409              	.LBE532:
 2410              	.LBE531:
 2411              	.LBB533:
 2412              	.LBI528:
  51:../../../../DaisyExamples/DaisySP//Source/Utility/dsp.h **** {
 2413              		.loc 7 51 14 is_stmt 1 view .LVU655
 2414              	.LBB530:
  53:../../../../DaisyExamples/DaisySP//Source/Utility/dsp.h **** #ifdef __arm__
 2415              		.loc 7 53 5 view .LVU656
  55:../../../../DaisyExamples/DaisySP//Source/Utility/dsp.h **** #else
 2416              		.loc 7 55 5 view .LVU657
 2417              		.syntax unified
 2418              	@ 55 "../../../../DaisyExamples/DaisySP//Source/Utility/dsp.h" 1
 2419 0018 C7FEE67A 		vminnm.f32 s15, s15, s13
 2420              	@ 0 "" 2
 2421              	.LVL159:
  59:../../../../DaisyExamples/DaisySP//Source/Utility/dsp.h **** }
 2422              		.loc 7 59 5 view .LVU658
  59:../../../../DaisyExamples/DaisySP//Source/Utility/dsp.h **** }
 2423              		.loc 7 59 5 is_stmt 0 view .LVU659
 2424              		.thumb
 2425              		.syntax unified
 2426              	.LBE530:
 2427              	.LBE533:
 2428              	.LBE535:
 2429              	.LBE537:
 2430              	.LBE539:
ARM GAS  C:\Users\samue\AppData\Local\Temp\ccTlvsL9.s 			page 67


 159:voice.cpp     ****     if(value < 0.0f)
 2431              		.loc 2 159 5 is_stmt 1 view .LVU660
 2432 001c F5EEC07A 		vcmpe.f32	s15, #0
 2433 0020 F1EE10FA 		vmrs	APSR_nzcv, FPSCR
 160:voice.cpp     ****     {
 161:voice.cpp     ****         value = 0.0f;
 2434              		.loc 2 161 15 is_stmt 0 view .LVU661
 2435 0024 48BF     		it	mi
 2436 0026 DFED047A 		vldrmi.32	s15, .L110+8
 2437              	.LVL160:
 162:voice.cpp     ****     }
 163:voice.cpp     ****     mod_ind_ = value;
 2438              		.loc 2 163 5 is_stmt 1 view .LVU662
 2439              		.loc 2 163 14 is_stmt 0 view .LVU663
 2440 002a C0ED537A 		vstr.32	s15, [r0, #332]
 164:voice.cpp     **** }
 2441              		.loc 2 164 1 view .LVU664
 2442 002e 7047     		bx	lr
 2443              	.L111:
 2444              		.align	2
 2445              	.L110:
 2446 0030 CDCC4CBD 		.word	-1119040307
 2447 0034 33330340 		.word	1073951539
 2448 0038 00000000 		.word	0
 2449              		.cfi_endproc
 2450              	.LFE3530:
 2452              		.section	.text._ZN5voice17set_amp_env_decayEf,"ax",%progbits
 2453              		.align	1
 2454              		.p2align 2,,3
 2455              		.global	_ZN5voice17set_amp_env_decayEf
 2456              		.syntax unified
 2457              		.thumb
 2458              		.thumb_func
 2459              		.fpu fpv5-d16
 2461              	_ZN5voice17set_amp_env_decayEf:
 2462              	.LVL161:
 2463              	.LFB3531:
 165:voice.cpp     **** 
 166:voice.cpp     **** void voice::set_amp_env_decay(float time)
 167:voice.cpp     **** {
 2464              		.loc 2 167 1 is_stmt 1 view -0
 2465              		.cfi_startproc
 2466              		@ args = 0, pretend = 0, frame = 0
 2467              		@ frame_needed = 0, uses_anonymous_args = 0
 2468              		@ link register save eliminated.
 168:voice.cpp     ****     time = fmap(time, 0.002f, 2.0f, Mapping::LINEAR);
 2469              		.loc 2 168 5 view .LVU666
 2470              	.LBB540:
 2471              	.LBB541:
 2472              		.loc 7 189 31 is_stmt 0 view .LVU667
 2473 0000 DFED097A 		vldr.32	s15, .L113
 2474              	.LVL162:
 2475              		.loc 7 189 31 view .LVU668
 2476              	.LBE541:
 2477              	.LBI540:
 177:../../../../DaisyExamples/DaisySP//Source/Utility/dsp.h **** {
 2478              		.loc 7 177 1 is_stmt 1 view .LVU669
ARM GAS  C:\Users\samue\AppData\Local\Temp\ccTlvsL9.s 			page 68


 2479              	.LBE540:
 179:../../../../DaisyExamples/DaisySP//Source/Utility/dsp.h ****     {
 2480              		.loc 7 179 5 view .LVU670
 2481              	.LBB553:
 2482              	.LBB551:
 188:../../../../DaisyExamples/DaisySP//Source/Utility/dsp.h ****         default: return fclamp(min + in * (max - min), min, max);
 2483              		.loc 7 188 9 view .LVU671
 2484              		.loc 7 189 9 view .LVU672
 2485              		.loc 7 189 18 view .LVU673
 2486              	.LBB542:
 2487              	.LBB543:
 2488              	.LBB544:
  55:../../../../DaisyExamples/DaisySP//Source/Utility/dsp.h **** #else
 2489              		.loc 7 55 5 is_stmt 0 view .LVU674
 2490 0004 F0EE006A 		vmov.f32	s13, #2.0e+0
 2491              	.LBE544:
 2492              	.LBE543:
 2493              	.LBE542:
 2494              		.loc 7 189 31 view .LVU675
 2495 0008 9FED086A 		vldr.32	s12, .L113+4
 2496 000c B0EE677A 		vmov.f32	s14, s15
 2497 0010 A0EE067A 		vfma.f32	s14, s0, s12
 2498              	.LVL163:
 2499              	.LBB549:
 2500              	.LBI542:
  64:../../../../DaisyExamples/DaisySP//Source/Utility/dsp.h **** {
 2501              		.loc 7 64 14 is_stmt 1 view .LVU676
 2502              	.LBE549:
 2503              	.LBE551:
 2504              	.LBE553:
  66:../../../../DaisyExamples/DaisySP//Source/Utility/dsp.h **** }
 2505              		.loc 7 66 5 view .LVU677
 2506              	.LBB554:
 2507              	.LBB552:
 2508              	.LBB550:
 2509              	.LBB546:
 2510              	.LBI546:
  40:../../../../DaisyExamples/DaisySP//Source/Utility/dsp.h **** {
 2511              		.loc 7 40 14 view .LVU678
 2512              	.LBB547:
  42:../../../../DaisyExamples/DaisySP//Source/Utility/dsp.h **** #ifdef __arm__
 2513              		.loc 7 42 5 view .LVU679
  44:../../../../DaisyExamples/DaisySP//Source/Utility/dsp.h **** #else
 2514              		.loc 7 44 5 view .LVU680
 2515              		.syntax unified
 2516              	@ 44 "../../../../DaisyExamples/DaisySP//Source/Utility/dsp.h" 1
 2517 0014 C7FE277A 		vmaxnm.f32 s15, s14, s15
 2518              	@ 0 "" 2
 2519              	.LVL164:
  48:../../../../DaisyExamples/DaisySP//Source/Utility/dsp.h **** }
 2520              		.loc 7 48 5 view .LVU681
  48:../../../../DaisyExamples/DaisySP//Source/Utility/dsp.h **** }
 2521              		.loc 7 48 5 is_stmt 0 view .LVU682
 2522              		.thumb
 2523              		.syntax unified
 2524              	.LBE547:
 2525              	.LBE546:
ARM GAS  C:\Users\samue\AppData\Local\Temp\ccTlvsL9.s 			page 69


 2526              	.LBB548:
 2527              	.LBI543:
  51:../../../../DaisyExamples/DaisySP//Source/Utility/dsp.h **** {
 2528              		.loc 7 51 14 is_stmt 1 view .LVU683
 2529              	.LBB545:
  53:../../../../DaisyExamples/DaisySP//Source/Utility/dsp.h **** #ifdef __arm__
 2530              		.loc 7 53 5 view .LVU684
  55:../../../../DaisyExamples/DaisySP//Source/Utility/dsp.h **** #else
 2531              		.loc 7 55 5 view .LVU685
 2532              		.syntax unified
 2533              	@ 55 "../../../../DaisyExamples/DaisySP//Source/Utility/dsp.h" 1
 2534 0018 C7FEE67A 		vminnm.f32 s15, s15, s13
 2535              	@ 0 "" 2
 2536              	.LVL165:
  59:../../../../DaisyExamples/DaisySP//Source/Utility/dsp.h **** }
 2537              		.loc 7 59 5 view .LVU686
  59:../../../../DaisyExamples/DaisySP//Source/Utility/dsp.h **** }
 2538              		.loc 7 59 5 is_stmt 0 view .LVU687
 2539              		.thumb
 2540              		.syntax unified
 2541              	.LBE545:
 2542              	.LBE548:
 2543              	.LBE550:
 2544              	.LBE552:
 2545              	.LBE554:
 169:voice.cpp     ****     amp_decay_time_ = time;
 2546              		.loc 2 169 5 is_stmt 1 view .LVU688
 2547              		.loc 2 169 21 is_stmt 0 view .LVU689
 2548 001c C0ED547A 		vstr.32	s15, [r0, #336]
 170:voice.cpp     ****     amp_env_.SetTime(ADENV_SEG_DECAY, time);
 2549              		.loc 2 170 5 is_stmt 1 view .LVU690
 2550              	.LVL166:
 2551              	.LBB555:
 2552              	.LBI555:
  66:../../../../DaisyExamples/DaisySP//Source/Control/adenv.h ****     /** Sets the amount of curve applied. A positve value will create a log
 2553              		.loc 4 66 17 view .LVU691
 2554              	.LBB556:
  66:../../../../DaisyExamples/DaisySP//Source/Control/adenv.h ****     /** Sets the amount of curve applied. A positve value will create a log
 2555              		.loc 4 66 52 view .LVU692
  66:../../../../DaisyExamples/DaisySP//Source/Control/adenv.h ****     /** Sets the amount of curve applied. A positve value will create a log
 2556              		.loc 4 66 71 is_stmt 0 view .LVU693
 2557 0020 C0ED297A 		vstr.32	s15, [r0, #164]
 2558              	.LVL167:
  66:../../../../DaisyExamples/DaisySP//Source/Control/adenv.h ****     /** Sets the amount of curve applied. A positve value will create a log
 2559              		.loc 4 66 71 view .LVU694
 2560              	.LBE556:
 2561              	.LBE555:
 171:voice.cpp     **** }
 2562              		.loc 2 171 1 view .LVU695
 2563 0024 7047     		bx	lr
 2564              	.L114:
 2565 0026 00BF     		.align	2
 2566              	.L113:
 2567 0028 6F12033B 		.word	990057071
 2568 002c 77BEFF3F 		.word	1073725047
 2569              		.cfi_endproc
 2570              	.LFE3531:
ARM GAS  C:\Users\samue\AppData\Local\Temp\ccTlvsL9.s 			page 70


 2572              		.section	.text._ZN5voice11env_triggerEv,"ax",%progbits
 2573              		.align	1
 2574              		.p2align 2,,3
 2575              		.global	_ZN5voice11env_triggerEv
 2576              		.syntax unified
 2577              		.thumb
 2578              		.thumb_func
 2579              		.fpu fpv5-d16
 2581              	_ZN5voice11env_triggerEv:
 2582              	.LVL168:
 2583              	.LFB3532:
 172:voice.cpp     **** 
 173:voice.cpp     **** void voice::env_trigger()
 174:voice.cpp     **** {
 2584              		.loc 2 174 1 is_stmt 1 view -0
 2585              		.cfi_startproc
 2586              		@ args = 0, pretend = 0, frame = 0
 2587              		@ frame_needed = 0, uses_anonymous_args = 0
 2588              		@ link register save eliminated.
 175:voice.cpp     ****     amp_env_.Trigger();
 2589              		.loc 2 175 5 view .LVU697
 2590              	.LBB557:
 2591              	.LBB558:
  64:../../../../DaisyExamples/DaisySP//Source/Control/adenv.h ****     /** Sets the length of time (in seconds) for a specific segment. */
 2592              		.loc 4 64 38 is_stmt 0 view .LVU698
 2593 0000 0123     		movs	r3, #1
 2594              	.LVL169:
  64:../../../../DaisyExamples/DaisySP//Source/Control/adenv.h ****     /** Sets the length of time (in seconds) for a specific segment. */
 2595              		.loc 4 64 38 view .LVU699
 2596              	.LBE558:
 2597              	.LBI557:
  64:../../../../DaisyExamples/DaisySP//Source/Control/adenv.h ****     /** Sets the length of time (in seconds) for a specific segment. */
 2598              		.loc 4 64 17 is_stmt 1 view .LVU700
 2599              	.LBB559:
  64:../../../../DaisyExamples/DaisySP//Source/Control/adenv.h ****     /** Sets the length of time (in seconds) for a specific segment. */
 2600              		.loc 4 64 29 view .LVU701
  64:../../../../DaisyExamples/DaisySP//Source/Control/adenv.h ****     /** Sets the length of time (in seconds) for a specific segment. */
 2601              		.loc 4 64 38 is_stmt 0 view .LVU702
 2602 0002 80F8CC30 		strb	r3, [r0, #204]
 2603              	.LVL170:
  64:../../../../DaisyExamples/DaisySP//Source/Control/adenv.h ****     /** Sets the length of time (in seconds) for a specific segment. */
 2604              		.loc 4 64 38 view .LVU703
 2605              	.LBE559:
 2606              	.LBE557:
 176:voice.cpp     ****     freq_env_.Trigger();
 2607              		.loc 2 176 5 is_stmt 1 view .LVU704
 2608              	.LBB560:
 2609              	.LBI560:
  64:../../../../DaisyExamples/DaisySP//Source/Control/adenv.h ****     /** Sets the length of time (in seconds) for a specific segment. */
 2610              		.loc 4 64 17 view .LVU705
 2611              	.LBB561:
  64:../../../../DaisyExamples/DaisySP//Source/Control/adenv.h ****     /** Sets the length of time (in seconds) for a specific segment. */
 2612              		.loc 4 64 29 view .LVU706
  64:../../../../DaisyExamples/DaisySP//Source/Control/adenv.h ****     /** Sets the length of time (in seconds) for a specific segment. */
 2613              		.loc 4 64 38 is_stmt 0 view .LVU707
 2614 0006 80F80431 		strb	r3, [r0, #260]
 2615              	.LVL171:
ARM GAS  C:\Users\samue\AppData\Local\Temp\ccTlvsL9.s 			page 71


  64:../../../../DaisyExamples/DaisySP//Source/Control/adenv.h ****     /** Sets the length of time (in seconds) for a specific segment. */
 2616              		.loc 4 64 38 view .LVU708
 2617              	.LBE561:
 2618              	.LBE560:
 177:voice.cpp     **** }
 2619              		.loc 2 177 1 view .LVU709
 2620 000a 7047     		bx	lr
 2621              		.cfi_endproc
 2622              	.LFE3532:
 2624              		.section	.text._ZN5voice15set_effect_modeEh,"ax",%progbits
 2625              		.align	1
 2626              		.p2align 2,,3
 2627              		.global	_ZN5voice15set_effect_modeEh
 2628              		.syntax unified
 2629              		.thumb
 2630              		.thumb_func
 2631              		.fpu fpv5-d16
 2633              	_ZN5voice15set_effect_modeEh:
 2634              	.LVL172:
 2635              	.LFB3533:
 178:voice.cpp     **** 
 179:voice.cpp     **** void voice::set_effect_mode(uint8_t mode)
 180:voice.cpp     **** {
 2636              		.loc 2 180 1 is_stmt 1 view -0
 2637              		.cfi_startproc
 2638              		@ args = 0, pretend = 0, frame = 0
 2639              		@ frame_needed = 0, uses_anonymous_args = 0
 2640              		@ link register save eliminated.
 181:voice.cpp     ****     effect_ = mode;
 2641              		.loc 2 181 5 view .LVU711
 2642              		.loc 2 181 13 is_stmt 0 view .LVU712
 2643 0000 80F85411 		strb	r1, [r0, #340]
 182:voice.cpp     **** }
 2644              		.loc 2 182 1 view .LVU713
 2645 0004 7047     		bx	lr
 2646              		.cfi_endproc
 2647              	.LFE3533:
 2649 0006 00BF     		.section	.text._ZN5voice18set_freq_env_decayEf,"ax",%progbits
 2650              		.align	1
 2651              		.p2align 2,,3
 2652              		.global	_ZN5voice18set_freq_env_decayEf
 2653              		.syntax unified
 2654              		.thumb
 2655              		.thumb_func
 2656              		.fpu fpv5-d16
 2658              	_ZN5voice18set_freq_env_decayEf:
 2659              	.LVL173:
 2660              	.LFB3534:
 183:voice.cpp     **** 
 184:voice.cpp     **** void voice::set_freq_env_decay(float time)
 185:voice.cpp     **** {
 2661              		.loc 2 185 1 is_stmt 1 view -0
 2662              		.cfi_startproc
 2663              		@ args = 0, pretend = 0, frame = 0
 2664              		@ frame_needed = 0, uses_anonymous_args = 0
 2665              		@ link register save eliminated.
 186:voice.cpp     ****     time = time * amp_decay_time_;
ARM GAS  C:\Users\samue\AppData\Local\Temp\ccTlvsL9.s 			page 72


 2666              		.loc 2 186 5 view .LVU715
 187:voice.cpp     ****     freq_env_.SetTime(ADENV_SEG_DECAY, time);
 2667              		.loc 2 187 5 view .LVU716
 2668              	.LBB562:
 2669              	.LBI562:
  66:../../../../DaisyExamples/DaisySP//Source/Control/adenv.h ****     /** Sets the amount of curve applied. A positve value will create a log
 2670              		.loc 4 66 17 view .LVU717
 2671              	.LBB563:
  66:../../../../DaisyExamples/DaisySP//Source/Control/adenv.h ****     /** Sets the amount of curve applied. A positve value will create a log
 2672              		.loc 4 66 52 view .LVU718
 2673              	.LBE563:
 2674              	.LBE562:
 186:voice.cpp     ****     time = time * amp_decay_time_;
 2675              		.loc 2 186 10 is_stmt 0 view .LVU719
 2676 0000 D0ED547A 		vldr.32	s15, [r0, #336]
 2677 0004 27EE800A 		vmul.f32	s0, s15, s0
 2678              	.LVL174:
 2679              	.LBB565:
 2680              	.LBB564:
  66:../../../../DaisyExamples/DaisySP//Source/Control/adenv.h ****     /** Sets the amount of curve applied. A positve value will create a log
 2681              		.loc 4 66 71 view .LVU720
 2682 0008 80ED370A 		vstr.32	s0, [r0, #220]
 2683              	.LVL175:
  66:../../../../DaisyExamples/DaisySP//Source/Control/adenv.h ****     /** Sets the amount of curve applied. A positve value will create a log
 2684              		.loc 4 66 71 view .LVU721
 2685              	.LBE564:
 2686              	.LBE565:
 188:voice.cpp     **** }
 2687              		.loc 2 188 1 view .LVU722
 2688 000c 7047     		bx	lr
 2689              		.cfi_endproc
 2690              	.LFE3534:
 2692 000e 00BF     		.section	.text._ZN5voice10set_impactEf,"ax",%progbits
 2693              		.align	1
 2694              		.p2align 2,,3
 2695              		.global	_ZN5voice10set_impactEf
 2696              		.syntax unified
 2697              		.thumb
 2698              		.thumb_func
 2699              		.fpu fpv5-d16
 2701              	_ZN5voice10set_impactEf:
 2702              	.LVL176:
 2703              	.LFB3535:
 189:voice.cpp     **** 
 190:voice.cpp     **** void voice::set_impact(float impact)
 191:voice.cpp     **** {
 2704              		.loc 2 191 1 is_stmt 1 view -0
 2705              		.cfi_startproc
 2706              		@ args = 0, pretend = 0, frame = 0
 2707              		@ frame_needed = 0, uses_anonymous_args = 0
 2708              		@ link register save eliminated.
 192:voice.cpp     ****     freq_env_.SetMax(1.0f + 8.0f*impact);
 2709              		.loc 2 192 5 view .LVU724
 2710              		.loc 2 192 21 is_stmt 0 view .LVU725
 2711 0000 B2EE007A 		vmov.f32	s14, #8.0e+0
 2712 0004 F7EE007A 		vmov.f32	s15, #1.0e+0
 2713 0008 E0EE077A 		vfma.f32	s15, s0, s14
ARM GAS  C:\Users\samue\AppData\Local\Temp\ccTlvsL9.s 			page 73


 2714              	.LVL177:
 2715              	.LBB566:
 2716              	.LBI566:
  75:../../../../DaisyExamples/DaisySP//Source/Control/adenv.h ****     /** Sets the maximum value of the envelope output.
  76:../../../../DaisyExamples/DaisySP//Source/Control/adenv.h ****         Input range: -FLTmax_, to FLTmax_
  77:../../../../DaisyExamples/DaisySP//Source/Control/adenv.h ****     */
  78:../../../../DaisyExamples/DaisySP//Source/Control/adenv.h ****     inline void SetMax(float max) { max_ = max; }
 2717              		.loc 4 78 17 is_stmt 1 view .LVU726
 2718              	.LBB567:
 2719              		.loc 4 78 37 view .LVU727
 2720              		.loc 4 78 42 is_stmt 0 view .LVU728
 2721 000c C0ED3A7A 		vstr.32	s15, [r0, #232]
 2722              	.LVL178:
 2723              		.loc 4 78 42 view .LVU729
 2724              	.LBE567:
 2725              	.LBE566:
 193:voice.cpp     **** }...
 2726              		.loc 2 193 1 view .LVU730
 2727 0010 7047     		bx	lr
 2728              		.cfi_endproc
 2729              	.LFE3535:
 2731 0012 00BF     		.text
 2732              	.Letext0:
 2733              		.file 8 "c:\\program files\\daisytoolchain\\arm-none-eabi\\include\\machine\\_default_types.h"
 2734              		.file 9 "c:\\program files\\daisytoolchain\\arm-none-eabi\\include\\sys\\_stdint.h"
 2735              		.file 10 "c:\\program files\\daisytoolchain\\arm-none-eabi\\include\\stdint.h"
 2736              		.file 11 "c:\\program files\\daisytoolchain\\lib\\gcc\\arm-none-eabi\\10.2.1\\include\\stddef.h"
 2737              		.file 12 "c:\\program files\\daisytoolchain\\arm-none-eabi\\include\\c++\\10.2.1\\cmath"
 2738              		.file 13 "c:\\program files\\daisytoolchain\\arm-none-eabi\\include\\c++\\10.2.1\\bits\\std_abs.h"
 2739              		.file 14 "c:\\program files\\daisytoolchain\\arm-none-eabi\\include\\c++\\10.2.1\\cstdint"
 2740              		.file 15 "c:\\program files\\daisytoolchain\\arm-none-eabi\\include\\c++\\10.2.1\\cstdlib"
 2741              		.file 16 "c:\\program files\\daisytoolchain\\arm-none-eabi\\include\\c++\\10.2.1\\type_traits"
 2742              		.file 17 "c:\\program files\\daisytoolchain\\arm-none-eabi\\include\\c++\\10.2.1\\debug\\debug.h"
 2743              		.file 18 "c:\\program files\\daisytoolchain\\arm-none-eabi\\include\\c++\\10.2.1\\cwchar"
 2744              		.file 19 "c:\\program files\\daisytoolchain\\arm-none-eabi\\include\\c++\\10.2.1\\bits\\stl_pair.h
 2745              		.file 20 "c:\\program files\\daisytoolchain\\arm-none-eabi\\include\\c++\\10.2.1\\bits\\exception_
 2746              		.file 21 "c:\\program files\\daisytoolchain\\arm-none-eabi\\include\\c++\\10.2.1\\arm-none-eabi\\t
 2747              		.file 22 "c:\\program files\\daisytoolchain\\arm-none-eabi\\include\\c++\\10.2.1\\clocale"
 2748              		.file 23 "c:\\program files\\daisytoolchain\\arm-none-eabi\\include\\c++\\10.2.1\\cstdio"
 2749              		.file 24 "c:\\program files\\daisytoolchain\\arm-none-eabi\\include\\c++\\10.2.1\\bits\\basic_stri
 2750              		.file 25 "c:\\program files\\daisytoolchain\\arm-none-eabi\\include\\c++\\10.2.1\\bits\\charconv.h
 2751              		.file 26 "c:\\program files\\daisytoolchain\\arm-none-eabi\\include\\c++\\10.2.1\\bits\\algorithmf
 2752              		.file 27 "c:\\program files\\daisytoolchain\\arm-none-eabi\\include\\c++\\10.2.1\\cstring"
 2753              		.file 28 "c:\\program files\\daisytoolchain\\arm-none-eabi\\include\\c++\\10.2.1\\bits\\move.h"
 2754              		.file 29 "c:\\program files\\daisytoolchain\\arm-none-eabi\\include\\c++\\10.2.1\\bits\\predefined
 2755              		.file 30 "c:\\program files\\daisytoolchain\\arm-none-eabi\\include\\sys\\_types.h"
 2756              		.file 31 "c:\\program files\\daisytoolchain\\arm-none-eabi\\include\\sys\\reent.h"
 2757              		.file 32 "c:\\program files\\daisytoolchain\\arm-none-eabi\\include\\sys\\lock.h"
 2758              		.file 33 "c:\\program files\\daisytoolchain\\arm-none-eabi\\include\\math.h"
 2759              		.file 34 "c:\\program files\\daisytoolchain\\arm-none-eabi\\include\\stdlib.h"
 2760              		.file 35 "c:\\program files\\daisytoolchain\\arm-none-eabi\\include\\c++\\10.2.1\\math.h"
 2761              		.file 36 "../../../../DaisyExamples/DaisySP//Source/Synthesis/fm2.h"
 2762              		.file 37 "c:\\program files\\daisytoolchain\\lib\\gcc\\arm-none-eabi\\10.2.1\\include\\stdarg.h"
 2763              		.file 38 "c:\\program files\\daisytoolchain\\arm-none-eabi\\include\\wchar.h"
 2764              		.file 39 "c:\\program files\\daisytoolchain\\arm-none-eabi\\include\\locale.h"
 2765              		.file 40 "c:\\program files\\daisytoolchain\\arm-none-eabi\\include\\stdio.h"
 2766              		.file 41 "c:\\program files\\daisytoolchain\\arm-none-eabi\\include\\c++\\10.2.1\\stdlib.h"
ARM GAS  C:\Users\samue\AppData\Local\Temp\ccTlvsL9.s 			page 74


 2767              		.file 42 "c:\\program files\\daisytoolchain\\arm-none-eabi\\include\\string.h"
 2768              		.file 43 "voice.h"
 2769              		.file 44 "c:\\program files\\daisytoolchain\\arm-none-eabi\\include\\assert.h"
 2770              		.file 45 "<built-in>"
ARM GAS  C:\Users\samue\AppData\Local\Temp\ccTlvsL9.s 			page 75


DEFINED SYMBOLS
                            *ABS*:00000000 voice.cpp
C:\Users\samue\AppData\Local\Temp\ccTlvsL9.s:17     .rodata._ZN7daisysp9FIRMemoryILj0ELj0EE5ResetEv.part.0.str1.4:00000000 $d
C:\Users\samue\AppData\Local\Temp\ccTlvsL9.s:28     .text._ZN7daisysp9FIRMemoryILj0ELj0EE5ResetEv.part.0:00000000 $t
C:\Users\samue\AppData\Local\Temp\ccTlvsL9.s:36     .text._ZN7daisysp9FIRMemoryILj0ELj0EE5ResetEv.part.0:00000000 _ZN7daisysp9FIRMemoryILj0ELj0EE5ResetEv.part.0
C:\Users\samue\AppData\Local\Temp\ccTlvsL9.s:60     .text._ZN7daisysp9FIRMemoryILj0ELj0EE5ResetEv.part.0:00000010 $d
C:\Users\samue\AppData\Local\Temp\ccTlvsL9.s:67     .rodata._ZN7daisysp9FIRMemoryILj0ELj0EE8SetCoefsEPKfjb.part.0.str1.4:00000000 $d
C:\Users\samue\AppData\Local\Temp\ccTlvsL9.s:75     .text._ZN7daisysp9FIRMemoryILj0ELj0EE8SetCoefsEPKfjb.part.0:00000000 $t
C:\Users\samue\AppData\Local\Temp\ccTlvsL9.s:82     .text._ZN7daisysp9FIRMemoryILj0ELj0EE8SetCoefsEPKfjb.part.0:00000000 _ZN7daisysp9FIRMemoryILj0ELj0EE8SetCoefsEPKfjb.part.0
C:\Users\samue\AppData\Local\Temp\ccTlvsL9.s:105    .text._ZN7daisysp9FIRMemoryILj0ELj0EE8SetCoefsEPKfjb.part.0:00000010 $d
C:\Users\samue\AppData\Local\Temp\ccTlvsL9.s:112    .rodata._ZN7daisysp20FIRFilterImplGenericILj0ELj0EE7ProcessEf.part.0.str1.4:00000000 $d
C:\Users\samue\AppData\Local\Temp\ccTlvsL9.s:121    .text._ZN7daisysp20FIRFilterImplGenericILj0ELj0EE7ProcessEf.part.0:00000000 $t
C:\Users\samue\AppData\Local\Temp\ccTlvsL9.s:128    .text._ZN7daisysp20FIRFilterImplGenericILj0ELj0EE7ProcessEf.part.0:00000000 _ZN7daisysp20FIRFilterImplGenericILj0ELj0EE7ProcessEf.part.0
C:\Users\samue\AppData\Local\Temp\ccTlvsL9.s:151    .text._ZN7daisysp20FIRFilterImplGenericILj0ELj0EE7ProcessEf.part.0:00000010 $d
C:\Users\samue\AppData\Local\Temp\ccTlvsL9.s:158    .text._ZN5voice4InitEf:00000000 $t
C:\Users\samue\AppData\Local\Temp\ccTlvsL9.s:166    .text._ZN5voice4InitEf:00000000 _ZN5voice4InitEf
C:\Users\samue\AppData\Local\Temp\ccTlvsL9.s:738    .text._ZN5voice4InitEf:00000108 $d
C:\Users\samue\AppData\Local\Temp\ccTlvsL9.s:746    .text._ZN5voice13set_noise_mixEf:00000000 $t
C:\Users\samue\AppData\Local\Temp\ccTlvsL9.s:754    .text._ZN5voice13set_noise_mixEf:00000000 _ZN5voice13set_noise_mixEf
C:\Users\samue\AppData\Local\Temp\ccTlvsL9.s:835    .text._ZN5voice13set_noise_mixEf:0000002c $d
C:\Users\samue\AppData\Local\Temp\ccTlvsL9.s:840    .text._ZN5voice8set_freqEf:00000000 $t
C:\Users\samue\AppData\Local\Temp\ccTlvsL9.s:848    .text._ZN5voice8set_freqEf:00000000 _ZN5voice8set_freqEf
C:\Users\samue\AppData\Local\Temp\ccTlvsL9.s:910    .text._ZN5voice8set_freqEf:00000034 $d
C:\Users\samue\AppData\Local\Temp\ccTlvsL9.s:917    .text._ZN5voice14set_wave_shapeEh:00000000 $t
C:\Users\samue\AppData\Local\Temp\ccTlvsL9.s:925    .text._ZN5voice14set_wave_shapeEh:00000000 _ZN5voice14set_wave_shapeEh
C:\Users\samue\AppData\Local\Temp\ccTlvsL9.s:994    .text._ZN5voice14set_distortionEf:00000000 $t
C:\Users\samue\AppData\Local\Temp\ccTlvsL9.s:1002   .text._ZN5voice14set_distortionEf:00000000 _ZN5voice14set_distortionEf
C:\Users\samue\AppData\Local\Temp\ccTlvsL9.s:1061   .text._ZN5voice14set_distortionEf:00000024 $d
C:\Users\samue\AppData\Local\Temp\ccTlvsL9.s:1067   .text._ZN5voice8set_foldEf:00000000 $t
C:\Users\samue\AppData\Local\Temp\ccTlvsL9.s:1075   .text._ZN5voice8set_foldEf:00000000 _ZN5voice8set_foldEf
C:\Users\samue\AppData\Local\Temp\ccTlvsL9.s:1167   .text._ZN5voice8set_foldEf:00000024 $d
C:\Users\samue\AppData\Local\Temp\ccTlvsL9.s:1173   .text._ZN5voice16set_effect_valueEf:00000000 $t
C:\Users\samue\AppData\Local\Temp\ccTlvsL9.s:1181   .text._ZN5voice16set_effect_valueEf:00000000 _ZN5voice16set_effect_valueEf
C:\Users\samue\AppData\Local\Temp\ccTlvsL9.s:1344   .text._ZN5voice16set_effect_valueEf:00000050 $d
C:\Users\samue\AppData\Local\Temp\ccTlvsL9.s:1352   .text._ZN5voice12process_drumEf:00000000 $t
C:\Users\samue\AppData\Local\Temp\ccTlvsL9.s:1360   .text._ZN5voice12process_drumEf:00000000 _ZN5voice12process_drumEf
C:\Users\samue\AppData\Local\Temp\ccTlvsL9.s:1882   .text._ZN5voice12process_drumEf:00000258 $d
C:\Users\samue\AppData\Local\Temp\ccTlvsL9.s:1893   .text._ZN5voice13process_noiseEf:00000000 $t
C:\Users\samue\AppData\Local\Temp\ccTlvsL9.s:1901   .text._ZN5voice13process_noiseEf:00000000 _ZN5voice13process_noiseEf
C:\Users\samue\AppData\Local\Temp\ccTlvsL9.s:2141   .text._ZN5voice13process_noiseEf:000000dc $d
C:\Users\samue\AppData\Local\Temp\ccTlvsL9.s:2146   .text._ZN5voice7ProcessEv:00000000 $t
C:\Users\samue\AppData\Local\Temp\ccTlvsL9.s:2154   .text._ZN5voice7ProcessEv:00000000 _ZN5voice7ProcessEv
C:\Users\samue\AppData\Local\Temp\ccTlvsL9.s:2211   .text._ZN5voice14set_noise_modeEh:00000000 $t
C:\Users\samue\AppData\Local\Temp\ccTlvsL9.s:2219   .text._ZN5voice14set_noise_modeEh:00000000 _ZN5voice14set_noise_modeEh
C:\Users\samue\AppData\Local\Temp\ccTlvsL9.s:2236   .text._ZN5voice18set_noise_effect_1Ef:00000000 $t
C:\Users\samue\AppData\Local\Temp\ccTlvsL9.s:2244   .text._ZN5voice18set_noise_effect_1Ef:00000000 _ZN5voice18set_noise_effect_1Ef
C:\Users\samue\AppData\Local\Temp\ccTlvsL9.s:2331   .text._ZN5voice18set_noise_effect_1Ef:00000048 $d
C:\Users\samue\AppData\Local\Temp\ccTlvsL9.s:2338   .text._ZN5voice18set_noise_effect_2Ef:00000000 $t
C:\Users\samue\AppData\Local\Temp\ccTlvsL9.s:2346   .text._ZN5voice18set_noise_effect_2Ef:00000000 _ZN5voice18set_noise_effect_2Ef
C:\Users\samue\AppData\Local\Temp\ccTlvsL9.s:2446   .text._ZN5voice18set_noise_effect_2Ef:00000030 $d
C:\Users\samue\AppData\Local\Temp\ccTlvsL9.s:2453   .text._ZN5voice17set_amp_env_decayEf:00000000 $t
C:\Users\samue\AppData\Local\Temp\ccTlvsL9.s:2461   .text._ZN5voice17set_amp_env_decayEf:00000000 _ZN5voice17set_amp_env_decayEf
C:\Users\samue\AppData\Local\Temp\ccTlvsL9.s:2567   .text._ZN5voice17set_amp_env_decayEf:00000028 $d
C:\Users\samue\AppData\Local\Temp\ccTlvsL9.s:2573   .text._ZN5voice11env_triggerEv:00000000 $t
C:\Users\samue\AppData\Local\Temp\ccTlvsL9.s:2581   .text._ZN5voice11env_triggerEv:00000000 _ZN5voice11env_triggerEv
C:\Users\samue\AppData\Local\Temp\ccTlvsL9.s:2625   .text._ZN5voice15set_effect_modeEh:00000000 $t
C:\Users\samue\AppData\Local\Temp\ccTlvsL9.s:2633   .text._ZN5voice15set_effect_modeEh:00000000 _ZN5voice15set_effect_modeEh
ARM GAS  C:\Users\samue\AppData\Local\Temp\ccTlvsL9.s 			page 76


C:\Users\samue\AppData\Local\Temp\ccTlvsL9.s:2650   .text._ZN5voice18set_freq_env_decayEf:00000000 $t
C:\Users\samue\AppData\Local\Temp\ccTlvsL9.s:2658   .text._ZN5voice18set_freq_env_decayEf:00000000 _ZN5voice18set_freq_env_decayEf
C:\Users\samue\AppData\Local\Temp\ccTlvsL9.s:2693   .text._ZN5voice10set_impactEf:00000000 $t
C:\Users\samue\AppData\Local\Temp\ccTlvsL9.s:2701   .text._ZN5voice10set_impactEf:00000000 _ZN5voice10set_impactEf

UNDEFINED SYMBOLS
__assert_func
_ZN7daisysp10Oscillator12CalcPhaseIncEf
_ZN7daisysp5AdEnv4InitEf
memset
_ZN7daisysp3Fm24InitEf
_ZN7daisysp3Fm28SetRatioEf
powf
expf
_ZN7daisysp5AdEnv7ProcessEv
_ZN7daisysp10Oscillator7ProcessEv
memmove
tanhf
sinf
_ZN7daisysp3Fm28SetIndexEf
_ZN7daisysp3Fm27ProcessEv
_ZN7daisysp3Fm212SetFrequencyEf
