ARM GAS  C:\Users\samue\AppData\Local\Temp\ccTqPziZ.s 			page 1


   1              		.cpu cortex-m7
   2              		.eabi_attribute 28, 1
   3              		.eabi_attribute 20, 1
   4              		.eabi_attribute 21, 1
   5              		.eabi_attribute 23, 3
   6              		.eabi_attribute 24, 1
   7              		.eabi_attribute 25, 1
   8              		.eabi_attribute 26, 1
   9              		.eabi_attribute 30, 2
  10              		.eabi_attribute 34, 1
  11              		.eabi_attribute 18, 4
  12              		.file	"helloTest.cpp"
  13              		.text
  14              	.Ltext0:
  15              		.cfi_sections	.debug_frame
  16              		.section	.text._ZN5daisy11daisyCommonD2Ev,"axG",%progbits,_ZN5daisy11daisyCommonD5Ev,comdat
  17              		.align	1
  18              		.p2align 2,,3
  19              		.weak	_ZN5daisy11daisyCommonD2Ev
  20              		.arch armv7e-m
  21              		.syntax unified
  22              		.thumb
  23              		.thumb_func
  24              		.fpu fpv5-d16
  26              	_ZN5daisy11daisyCommonD2Ev:
  27              	.LVL0:
  28              	.LFB4685:
  29              		.file 1 "daisy_common.h"
   1:daisy_common.h **** /*
   2:daisy_common.h **** * This implements drivers for the Daisy Common Hardware Platform
   3:daisy_common.h **** *
   4:daisy_common.h **** *
   5:daisy_common.h **** *
   6:daisy_common.h **** *
   7:daisy_common.h **** *
   8:daisy_common.h **** *
   9:daisy_common.h **** */
  10:daisy_common.h **** 
  11:daisy_common.h **** #include "daisy_seed.h"
  12:daisy_common.h **** #include "daisysp.h"
  13:daisy_common.h **** 
  14:daisy_common.h **** using namespace daisy::seed;
  15:daisy_common.h **** using namespace daisy;
  16:daisy_common.h **** 
  17:daisy_common.h **** 
  18:daisy_common.h **** namespace daisy
  19:daisy_common.h **** {
  20:daisy_common.h **** 
  21:daisy_common.h **** class daisyCommon
  22:daisy_common.h **** {
  23:daisy_common.h ****     public:
  24:daisy_common.h ****     daisyCommon() {}
  25:daisy_common.h ****     ~daisyCommon() {}
  30              		.loc 1 25 5 view -0
  31              		.cfi_startproc
  32              		@ args = 0, pretend = 0, frame = 0
  33              		@ frame_needed = 0, uses_anonymous_args = 0
ARM GAS  C:\Users\samue\AppData\Local\Temp\ccTqPziZ.s 			page 2


  34              		@ link register save eliminated.
  35              	.LBB279:
  36              	.LBI279:
  37              		.file 2 "../../../../DaisyExamples/libDaisy//src/daisy_seed.h"
   1:../../../../DaisyExamples/libDaisy//src/daisy_seed.h **** #pragma once
   2:../../../../DaisyExamples/libDaisy//src/daisy_seed.h **** #ifndef DSY_SEED_H
   3:../../../../DaisyExamples/libDaisy//src/daisy_seed.h **** #define DSY_SEED_H
   4:../../../../DaisyExamples/libDaisy//src/daisy_seed.h **** 
   5:../../../../DaisyExamples/libDaisy//src/daisy_seed.h **** #include "daisy.h"
   6:../../../../DaisyExamples/libDaisy//src/daisy_seed.h **** 
   7:../../../../DaisyExamples/libDaisy//src/daisy_seed.h **** //Uncomment this out if you're still using the rev2 hardware
   8:../../../../DaisyExamples/libDaisy//src/daisy_seed.h **** //#define SEED_REV2
   9:../../../../DaisyExamples/libDaisy//src/daisy_seed.h **** 
  10:../../../../DaisyExamples/libDaisy//src/daisy_seed.h **** namespace daisy
  11:../../../../DaisyExamples/libDaisy//src/daisy_seed.h **** {
  12:../../../../DaisyExamples/libDaisy//src/daisy_seed.h **** /**
  13:../../../../DaisyExamples/libDaisy//src/daisy_seed.h ****    @brief This is the higher-level interface for the Daisy board. \n 
  14:../../../../DaisyExamples/libDaisy//src/daisy_seed.h ****     All basic peripheral configuration/initialization is setup here. \n
  15:../../../../DaisyExamples/libDaisy//src/daisy_seed.h **** 
  16:../../../../DaisyExamples/libDaisy//src/daisy_seed.h ****    @ingroup boards
  17:../../../../DaisyExamples/libDaisy//src/daisy_seed.h **** */
  18:../../../../DaisyExamples/libDaisy//src/daisy_seed.h **** class DaisySeed
  19:../../../../DaisyExamples/libDaisy//src/daisy_seed.h **** {
  20:../../../../DaisyExamples/libDaisy//src/daisy_seed.h ****   public:
  21:../../../../DaisyExamples/libDaisy//src/daisy_seed.h ****     DaisySeed() {}
  22:../../../../DaisyExamples/libDaisy//src/daisy_seed.h ****     ~DaisySeed() {}
  38              		.loc 2 22 5 view .LVU1
  39              	.LBB280:
  40              	.LBI280:
  41              		.file 3 "../../../../DaisyExamples/libDaisy//src/sys/system.h"
   1:../../../../DaisyExamples/libDaisy//src/sys/system.h **** #ifndef DSY_SYSTEM_H
   2:../../../../DaisyExamples/libDaisy//src/sys/system.h **** #define DSY_SYSTEM_H
   3:../../../../DaisyExamples/libDaisy//src/sys/system.h **** 
   4:../../../../DaisyExamples/libDaisy//src/sys/system.h **** #ifndef UNIT_TEST // for unit tests, a dummy implementation is provided below
   5:../../../../DaisyExamples/libDaisy//src/sys/system.h **** 
   6:../../../../DaisyExamples/libDaisy//src/sys/system.h **** #include <cstdint>
   7:../../../../DaisyExamples/libDaisy//src/sys/system.h **** #include "per/tim.h"
   8:../../../../DaisyExamples/libDaisy//src/sys/system.h **** 
   9:../../../../DaisyExamples/libDaisy//src/sys/system.h **** namespace daisy
  10:../../../../DaisyExamples/libDaisy//src/sys/system.h **** {
  11:../../../../DaisyExamples/libDaisy//src/sys/system.h **** /** A handle for interacting with the Core System.
  12:../../../../DaisyExamples/libDaisy//src/sys/system.h ****  ** This includes the Clock tree, MPU, global DMA initialization,
  13:../../../../DaisyExamples/libDaisy//src/sys/system.h ****  ** cache handling, and any other necessary global initiailzation
  14:../../../../DaisyExamples/libDaisy//src/sys/system.h ****  **
  15:../../../../DaisyExamples/libDaisy//src/sys/system.h ****  ** @author shensley
  16:../../../../DaisyExamples/libDaisy//src/sys/system.h ****  ** @ingroup system
  17:../../../../DaisyExamples/libDaisy//src/sys/system.h ****  */
  18:../../../../DaisyExamples/libDaisy//src/sys/system.h **** class System
  19:../../../../DaisyExamples/libDaisy//src/sys/system.h **** {
  20:../../../../DaisyExamples/libDaisy//src/sys/system.h ****   public:
  21:../../../../DaisyExamples/libDaisy//src/sys/system.h ****     /** Contains settings for initializing the System */
  22:../../../../DaisyExamples/libDaisy//src/sys/system.h ****     struct Config
  23:../../../../DaisyExamples/libDaisy//src/sys/system.h ****     {
  24:../../../../DaisyExamples/libDaisy//src/sys/system.h ****         /** Specifies the system clock frequency that feeds APB/AHB clocks, etc. */
  25:../../../../DaisyExamples/libDaisy//src/sys/system.h ****         enum class SysClkFreq
  26:../../../../DaisyExamples/libDaisy//src/sys/system.h ****         {
  27:../../../../DaisyExamples/libDaisy//src/sys/system.h ****             FREQ_400MHZ,
ARM GAS  C:\Users\samue\AppData\Local\Temp\ccTqPziZ.s 			page 3


  28:../../../../DaisyExamples/libDaisy//src/sys/system.h ****             FREQ_480MHZ,
  29:../../../../DaisyExamples/libDaisy//src/sys/system.h ****         };
  30:../../../../DaisyExamples/libDaisy//src/sys/system.h **** 
  31:../../../../DaisyExamples/libDaisy//src/sys/system.h ****         /** Method to call on the struct to set to defaults
  32:../../../../DaisyExamples/libDaisy//src/sys/system.h ****          ** CPU Freq set to 400MHz
  33:../../../../DaisyExamples/libDaisy//src/sys/system.h ****          ** Cache Enabled
  34:../../../../DaisyExamples/libDaisy//src/sys/system.h ****          ** */
  35:../../../../DaisyExamples/libDaisy//src/sys/system.h ****         void Defaults()
  36:../../../../DaisyExamples/libDaisy//src/sys/system.h ****         {
  37:../../../../DaisyExamples/libDaisy//src/sys/system.h ****             cpu_freq    = SysClkFreq::FREQ_400MHZ;
  38:../../../../DaisyExamples/libDaisy//src/sys/system.h ****             use_dcache  = true;
  39:../../../../DaisyExamples/libDaisy//src/sys/system.h ****             use_icache  = true;
  40:../../../../DaisyExamples/libDaisy//src/sys/system.h ****             skip_clocks = false;
  41:../../../../DaisyExamples/libDaisy//src/sys/system.h ****         }
  42:../../../../DaisyExamples/libDaisy//src/sys/system.h **** 
  43:../../../../DaisyExamples/libDaisy//src/sys/system.h ****         /** Method to call on the struct to set to boost mode:
  44:../../../../DaisyExamples/libDaisy//src/sys/system.h ****          ** CPU Freq set to 480MHz
  45:../../../../DaisyExamples/libDaisy//src/sys/system.h ****          ** Cache Enabled
  46:../../../../DaisyExamples/libDaisy//src/sys/system.h ****          ** */
  47:../../../../DaisyExamples/libDaisy//src/sys/system.h ****         void Boost()
  48:../../../../DaisyExamples/libDaisy//src/sys/system.h ****         {
  49:../../../../DaisyExamples/libDaisy//src/sys/system.h ****             cpu_freq    = SysClkFreq::FREQ_480MHZ;
  50:../../../../DaisyExamples/libDaisy//src/sys/system.h ****             use_dcache  = true;
  51:../../../../DaisyExamples/libDaisy//src/sys/system.h ****             use_icache  = true;
  52:../../../../DaisyExamples/libDaisy//src/sys/system.h ****             skip_clocks = false;
  53:../../../../DaisyExamples/libDaisy//src/sys/system.h ****         }
  54:../../../../DaisyExamples/libDaisy//src/sys/system.h **** 
  55:../../../../DaisyExamples/libDaisy//src/sys/system.h ****         SysClkFreq cpu_freq;
  56:../../../../DaisyExamples/libDaisy//src/sys/system.h ****         bool       use_dcache;
  57:../../../../DaisyExamples/libDaisy//src/sys/system.h ****         bool       use_icache;
  58:../../../../DaisyExamples/libDaisy//src/sys/system.h ****         bool       skip_clocks;
  59:../../../../DaisyExamples/libDaisy//src/sys/system.h ****     };
  60:../../../../DaisyExamples/libDaisy//src/sys/system.h **** 
  61:../../../../DaisyExamples/libDaisy//src/sys/system.h ****     /** Describes the different regions of memory available to the Daisy */
  62:../../../../DaisyExamples/libDaisy//src/sys/system.h ****     enum MemoryRegion
  63:../../../../DaisyExamples/libDaisy//src/sys/system.h ****     {
  64:../../../../DaisyExamples/libDaisy//src/sys/system.h ****         INTERNAL_FLASH = 0,
  65:../../../../DaisyExamples/libDaisy//src/sys/system.h ****         ITCMRAM,
  66:../../../../DaisyExamples/libDaisy//src/sys/system.h ****         DTCMRAM,
  67:../../../../DaisyExamples/libDaisy//src/sys/system.h ****         SRAM_D1,
  68:../../../../DaisyExamples/libDaisy//src/sys/system.h ****         SRAM_D2,
  69:../../../../DaisyExamples/libDaisy//src/sys/system.h ****         SRAM_D3,
  70:../../../../DaisyExamples/libDaisy//src/sys/system.h ****         SDRAM,
  71:../../../../DaisyExamples/libDaisy//src/sys/system.h ****         QSPI,
  72:../../../../DaisyExamples/libDaisy//src/sys/system.h ****         INVALID_ADDRESS,
  73:../../../../DaisyExamples/libDaisy//src/sys/system.h ****     };
  74:../../../../DaisyExamples/libDaisy//src/sys/system.h **** 
  75:../../../../DaisyExamples/libDaisy//src/sys/system.h ****     /** Bootloader struct for controlling bootloading parameters */
  76:../../../../DaisyExamples/libDaisy//src/sys/system.h ****     struct BootInfo
  77:../../../../DaisyExamples/libDaisy//src/sys/system.h ****     {
  78:../../../../DaisyExamples/libDaisy//src/sys/system.h ****         enum class Type : uint32_t
  79:../../../../DaisyExamples/libDaisy//src/sys/system.h ****         {
  80:../../../../DaisyExamples/libDaisy//src/sys/system.h ****             INVALID      = 0x00000000,
  81:../../../../DaisyExamples/libDaisy//src/sys/system.h ****             JUMP         = 0xDEADBEEF,
  82:../../../../DaisyExamples/libDaisy//src/sys/system.h ****             SKIP_TIMEOUT = 0x5AFEB007,
  83:../../../../DaisyExamples/libDaisy//src/sys/system.h ****             INF_TIMEOUT  = 0xB0074EFA,
  84:../../../../DaisyExamples/libDaisy//src/sys/system.h ****         } status;
ARM GAS  C:\Users\samue\AppData\Local\Temp\ccTqPziZ.s 			page 4


  85:../../../../DaisyExamples/libDaisy//src/sys/system.h ****         uint32_t data;
  86:../../../../DaisyExamples/libDaisy//src/sys/system.h ****         enum class Version : uint32_t
  87:../../../../DaisyExamples/libDaisy//src/sys/system.h ****         {
  88:../../../../DaisyExamples/libDaisy//src/sys/system.h ****             LT_v6_0 = 0, // Less than v6.0
  89:../../../../DaisyExamples/libDaisy//src/sys/system.h ****             NONE,        // No bootloader present
  90:../../../../DaisyExamples/libDaisy//src/sys/system.h ****             v6_0,        // v6.0
  91:../../../../DaisyExamples/libDaisy//src/sys/system.h ****             v6_1,        // v6.1 or greater
  92:../../../../DaisyExamples/libDaisy//src/sys/system.h ****             LAST
  93:../../../../DaisyExamples/libDaisy//src/sys/system.h ****         } version;
  94:../../../../DaisyExamples/libDaisy//src/sys/system.h ****     };
  95:../../../../DaisyExamples/libDaisy//src/sys/system.h **** 
  96:../../../../DaisyExamples/libDaisy//src/sys/system.h ****     System() {}
  97:../../../../DaisyExamples/libDaisy//src/sys/system.h ****     ~System() {}
  42              		.loc 3 97 5 view .LVU2
  43              		.loc 3 97 5 is_stmt 0 view .LVU3
  44              	.LBE280:
  45              	.LBB281:
  46              	.LBI281:
  47              		.file 4 "../../../../DaisyExamples/libDaisy//src/hid/usb.h"
   1:../../../../DaisyExamples/libDaisy//src/hid/usb.h **** #pragma once
   2:../../../../DaisyExamples/libDaisy//src/hid/usb.h **** #ifndef DSY_HID_USB_H
   3:../../../../DaisyExamples/libDaisy//src/hid/usb.h **** #define DSY_HID_USB_H
   4:../../../../DaisyExamples/libDaisy//src/hid/usb.h **** #include <stdint.h>
   5:../../../../DaisyExamples/libDaisy//src/hid/usb.h **** #include <stdlib.h>
   6:../../../../DaisyExamples/libDaisy//src/hid/usb.h **** 
   7:../../../../DaisyExamples/libDaisy//src/hid/usb.h **** namespace daisy
   8:../../../../DaisyExamples/libDaisy//src/hid/usb.h **** /** @addtogroup human_interface
   9:../../../../DaisyExamples/libDaisy//src/hid/usb.h ****     @{
  10:../../../../DaisyExamples/libDaisy//src/hid/usb.h **** */
  11:../../../../DaisyExamples/libDaisy//src/hid/usb.h **** 
  12:../../../../DaisyExamples/libDaisy//src/hid/usb.h **** {
  13:../../../../DaisyExamples/libDaisy//src/hid/usb.h **** /** 
  14:../../../../DaisyExamples/libDaisy//src/hid/usb.h ****     @brief Interface for initializing and using the USB Peripherals on the daisy
  15:../../../../DaisyExamples/libDaisy//src/hid/usb.h ****     @author Stephen Hensley
  16:../../../../DaisyExamples/libDaisy//src/hid/usb.h ****     @date December 2019
  17:../../../../DaisyExamples/libDaisy//src/hid/usb.h **** */
  18:../../../../DaisyExamples/libDaisy//src/hid/usb.h **** class UsbHandle
  19:../../../../DaisyExamples/libDaisy//src/hid/usb.h **** {
  20:../../../../DaisyExamples/libDaisy//src/hid/usb.h ****   public:
  21:../../../../DaisyExamples/libDaisy//src/hid/usb.h ****     /** Return values for USBHandle Functions */
  22:../../../../DaisyExamples/libDaisy//src/hid/usb.h ****     enum class Result
  23:../../../../DaisyExamples/libDaisy//src/hid/usb.h ****     {
  24:../../../../DaisyExamples/libDaisy//src/hid/usb.h ****         OK,
  25:../../../../DaisyExamples/libDaisy//src/hid/usb.h ****         ERR,
  26:../../../../DaisyExamples/libDaisy//src/hid/usb.h ****     };
  27:../../../../DaisyExamples/libDaisy//src/hid/usb.h **** 
  28:../../../../DaisyExamples/libDaisy//src/hid/usb.h ****     /** Specified which of the two USB Peripherals to initialize. */
  29:../../../../DaisyExamples/libDaisy//src/hid/usb.h ****     enum UsbPeriph
  30:../../../../DaisyExamples/libDaisy//src/hid/usb.h ****     {
  31:../../../../DaisyExamples/libDaisy//src/hid/usb.h ****         FS_INTERNAL, /**< Internal pin */
  32:../../../../DaisyExamples/libDaisy//src/hid/usb.h ****         FS_EXTERNAL, /**< FS External D+ pin is Pin 38 (GPIO32). FS External D- pin is Pin 37 (GPIO
  33:../../../../DaisyExamples/libDaisy//src/hid/usb.h ****         FS_BOTH,     /**< Both */
  34:../../../../DaisyExamples/libDaisy//src/hid/usb.h ****     };
  35:../../../../DaisyExamples/libDaisy//src/hid/usb.h **** 
  36:../../../../DaisyExamples/libDaisy//src/hid/usb.h **** 
  37:../../../../DaisyExamples/libDaisy//src/hid/usb.h ****     /** Function called upon reception of a buffer */
  38:../../../../DaisyExamples/libDaisy//src/hid/usb.h ****     typedef void (*ReceiveCallback)(uint8_t* buff, uint32_t* len);
ARM GAS  C:\Users\samue\AppData\Local\Temp\ccTqPziZ.s 			page 5


  39:../../../../DaisyExamples/libDaisy//src/hid/usb.h **** 
  40:../../../../DaisyExamples/libDaisy//src/hid/usb.h ****     UsbHandle() {}
  41:../../../../DaisyExamples/libDaisy//src/hid/usb.h **** 
  42:../../../../DaisyExamples/libDaisy//src/hid/usb.h ****     ~UsbHandle() {}
  48              		.loc 4 42 5 is_stmt 1 view .LVU4
  49              		.loc 4 42 5 is_stmt 0 view .LVU5
  50              	.LBE281:
  51              	.LBB282:
  52              	.LBI282:
  53              		.file 5 "../../../../DaisyExamples/libDaisy//src/per/adc.h"
   1:../../../../DaisyExamples/libDaisy//src/per/adc.h **** #pragma once
   2:../../../../DaisyExamples/libDaisy//src/per/adc.h **** #ifndef DSY_ADC_H
   3:../../../../DaisyExamples/libDaisy//src/per/adc.h **** #define DSY_ADC_H /**< Macro */
   4:../../../../DaisyExamples/libDaisy//src/per/adc.h **** #include <stdint.h>
   5:../../../../DaisyExamples/libDaisy//src/per/adc.h **** #include <stdlib.h>
   6:../../../../DaisyExamples/libDaisy//src/per/adc.h **** #include "daisy_core.h"
   7:../../../../DaisyExamples/libDaisy//src/per/adc.h **** #include "per/gpio.h"
   8:../../../../DaisyExamples/libDaisy//src/per/adc.h **** 
   9:../../../../DaisyExamples/libDaisy//src/per/adc.h **** #define DSY_ADC_MAX_CHANNELS 16 /**< Maximum number of ADC channels */
  10:../../../../DaisyExamples/libDaisy//src/per/adc.h **** 
  11:../../../../DaisyExamples/libDaisy//src/per/adc.h **** namespace daisy
  12:../../../../DaisyExamples/libDaisy//src/per/adc.h **** {
  13:../../../../DaisyExamples/libDaisy//src/per/adc.h **** /** @addtogroup per_analog
  14:../../../../DaisyExamples/libDaisy//src/per/adc.h ****     @{
  15:../../../../DaisyExamples/libDaisy//src/per/adc.h **** */
  16:../../../../DaisyExamples/libDaisy//src/per/adc.h **** 
  17:../../../../DaisyExamples/libDaisy//src/per/adc.h **** /* While there may not be many configuration options here,
  18:../../../../DaisyExamples/libDaisy//src/per/adc.h **** using a struct like this allows us to add more configuration
  19:../../../../DaisyExamples/libDaisy//src/per/adc.h **** later without breaking existing functionality.
  20:../../../../DaisyExamples/libDaisy//src/per/adc.h **** */
  21:../../../../DaisyExamples/libDaisy//src/per/adc.h **** 
  22:../../../../DaisyExamples/libDaisy//src/per/adc.h **** /** @brief   Configuration Structure for an ADC Channel 
  23:../../../../DaisyExamples/libDaisy//src/per/adc.h ****  *  @details This can be used to configure a a single input, 
  24:../../../../DaisyExamples/libDaisy//src/per/adc.h ****  *           or a multiplexed input, allowing up to 8 inputs on 
  25:../../../../DaisyExamples/libDaisy//src/per/adc.h ****  *           one channel.
  26:../../../../DaisyExamples/libDaisy//src/per/adc.h ****  *  @note    Sharing data lines to multiple muxes _is_ possible, but
  27:../../../../DaisyExamples/libDaisy//src/per/adc.h ****  *           each channel sharing data lines must be set to the maximum
  28:../../../../DaisyExamples/libDaisy//src/per/adc.h ****  *           number of channels, even if some multiplexers have fewer
  29:../../../../DaisyExamples/libDaisy//src/per/adc.h ****  *           inputs connected.
  30:../../../../DaisyExamples/libDaisy//src/per/adc.h **** */
  31:../../../../DaisyExamples/libDaisy//src/per/adc.h **** struct AdcChannelConfig
  32:../../../../DaisyExamples/libDaisy//src/per/adc.h **** {
  33:../../../../DaisyExamples/libDaisy//src/per/adc.h ****     /** Which pin to use for multiplexing */
  34:../../../../DaisyExamples/libDaisy//src/per/adc.h ****     enum MuxPin
  35:../../../../DaisyExamples/libDaisy//src/per/adc.h ****     {
  36:../../../../DaisyExamples/libDaisy//src/per/adc.h ****         MUX_SEL_0,    /**< & */
  37:../../../../DaisyExamples/libDaisy//src/per/adc.h ****         MUX_SEL_1,    /**< & */
  38:../../../../DaisyExamples/libDaisy//src/per/adc.h ****         MUX_SEL_2,    /**< & */
  39:../../../../DaisyExamples/libDaisy//src/per/adc.h ****         MUX_SEL_LAST, /**< & */
  40:../../../../DaisyExamples/libDaisy//src/per/adc.h ****     };
  41:../../../../DaisyExamples/libDaisy//src/per/adc.h **** 
  42:../../../../DaisyExamples/libDaisy//src/per/adc.h ****     /** \brief per channel conversion speed added to fixed time based on bitdepth, etc. */
  43:../../../../DaisyExamples/libDaisy//src/per/adc.h ****     enum ConversionSpeed
  44:../../../../DaisyExamples/libDaisy//src/per/adc.h ****     {
  45:../../../../DaisyExamples/libDaisy//src/per/adc.h ****         SPEED_1CYCLES_5,
  46:../../../../DaisyExamples/libDaisy//src/per/adc.h ****         SPEED_2CYCLES_5,
  47:../../../../DaisyExamples/libDaisy//src/per/adc.h ****         SPEED_8CYCLES_5,
ARM GAS  C:\Users\samue\AppData\Local\Temp\ccTqPziZ.s 			page 6


  48:../../../../DaisyExamples/libDaisy//src/per/adc.h ****         SPEED_16CYCLES_5,
  49:../../../../DaisyExamples/libDaisy//src/per/adc.h ****         SPEED_32CYCLES_5,
  50:../../../../DaisyExamples/libDaisy//src/per/adc.h ****         SPEED_64CYCLES_5,
  51:../../../../DaisyExamples/libDaisy//src/per/adc.h ****         SPEED_387CYCLES_5,
  52:../../../../DaisyExamples/libDaisy//src/per/adc.h ****         SPEED_810CYCLES_5,
  53:../../../../DaisyExamples/libDaisy//src/per/adc.h ****     };
  54:../../../../DaisyExamples/libDaisy//src/per/adc.h **** 
  55:../../../../DaisyExamples/libDaisy//src/per/adc.h ****     /** Initializes a single ADC pin as an ADC. 
  56:../../../../DaisyExamples/libDaisy//src/per/adc.h ****     \param pin Pin to init.
  57:../../../../DaisyExamples/libDaisy//src/per/adc.h ****     \param speed conversion speed for this pin defaults to 8.5 cycles
  58:../../../../DaisyExamples/libDaisy//src/per/adc.h ****      */
  59:../../../../DaisyExamples/libDaisy//src/per/adc.h ****     void InitSingle(dsy_gpio_pin pin, ConversionSpeed speed = SPEED_8CYCLES_5);
  60:../../../../DaisyExamples/libDaisy//src/per/adc.h **** 
  61:../../../../DaisyExamples/libDaisy//src/per/adc.h ****     /** 
  62:../../../../DaisyExamples/libDaisy//src/per/adc.h ****     Initializes a single ADC pin as a Multiplexed ADC.
  63:../../../../DaisyExamples/libDaisy//src/per/adc.h ****     Requires a CD405X Multiplexer connected to the pin.
  64:../../../../DaisyExamples/libDaisy//src/per/adc.h ****     You only need to supply the mux pins that are required,
  65:../../../../DaisyExamples/libDaisy//src/per/adc.h ****     e.g. a 4052 mux would only require mux_0 and mux_1.
  66:../../../../DaisyExamples/libDaisy//src/per/adc.h ****     Internal Callbacks handle the pin addressing.
  67:../../../../DaisyExamples/libDaisy//src/per/adc.h ****     \param adc_pin &
  68:../../../../DaisyExamples/libDaisy//src/per/adc.h ****     \param mux_channels must be 1-8
  69:../../../../DaisyExamples/libDaisy//src/per/adc.h ****     \param mux_0 First mux pin
  70:../../../../DaisyExamples/libDaisy//src/per/adc.h ****     \param mux_1 Second mux pin
  71:../../../../DaisyExamples/libDaisy//src/per/adc.h ****     \param mux_2 Third mux pin
  72:../../../../DaisyExamples/libDaisy//src/per/adc.h ****     \param speed conversion speed for this pin defaults to 8.5 cycles
  73:../../../../DaisyExamples/libDaisy//src/per/adc.h ****     */
  74:../../../../DaisyExamples/libDaisy//src/per/adc.h ****     void InitMux(dsy_gpio_pin    adc_pin,
  75:../../../../DaisyExamples/libDaisy//src/per/adc.h ****                  size_t          mux_channels,
  76:../../../../DaisyExamples/libDaisy//src/per/adc.h ****                  dsy_gpio_pin    mux_0,
  77:../../../../DaisyExamples/libDaisy//src/per/adc.h ****                  dsy_gpio_pin    mux_1 = {DSY_GPIOX, 0},
  78:../../../../DaisyExamples/libDaisy//src/per/adc.h ****                  dsy_gpio_pin    mux_2 = {DSY_GPIOX, 0},
  79:../../../../DaisyExamples/libDaisy//src/per/adc.h ****                  ConversionSpeed speed = SPEED_8CYCLES_5);
  80:../../../../DaisyExamples/libDaisy//src/per/adc.h **** 
  81:../../../../DaisyExamples/libDaisy//src/per/adc.h ****     dsy_gpio        pin_;                   /**< & */
  82:../../../../DaisyExamples/libDaisy//src/per/adc.h ****     dsy_gpio        mux_pin_[MUX_SEL_LAST]; /**< & */
  83:../../../../DaisyExamples/libDaisy//src/per/adc.h ****     uint8_t         mux_channels_;          /**< & */
  84:../../../../DaisyExamples/libDaisy//src/per/adc.h ****     ConversionSpeed speed_;
  85:../../../../DaisyExamples/libDaisy//src/per/adc.h **** };
  86:../../../../DaisyExamples/libDaisy//src/per/adc.h **** 
  87:../../../../DaisyExamples/libDaisy//src/per/adc.h **** /**
  88:../../../../DaisyExamples/libDaisy//src/per/adc.h ****    @brief Handler for analog to digital conversion
  89:../../../../DaisyExamples/libDaisy//src/per/adc.h **** */
  90:../../../../DaisyExamples/libDaisy//src/per/adc.h **** class AdcHandle
  91:../../../../DaisyExamples/libDaisy//src/per/adc.h **** {
  92:../../../../DaisyExamples/libDaisy//src/per/adc.h ****   public:
  93:../../../../DaisyExamples/libDaisy//src/per/adc.h ****     /** Supported oversampling amounts */
  94:../../../../DaisyExamples/libDaisy//src/per/adc.h ****     enum OverSampling
  95:../../../../DaisyExamples/libDaisy//src/per/adc.h ****     {
  96:../../../../DaisyExamples/libDaisy//src/per/adc.h ****         OVS_NONE, /**< & */
  97:../../../../DaisyExamples/libDaisy//src/per/adc.h ****         OVS_4,    /**< & */
  98:../../../../DaisyExamples/libDaisy//src/per/adc.h ****         OVS_8,    /**< & */
  99:../../../../DaisyExamples/libDaisy//src/per/adc.h ****         OVS_16,   /**< & */
 100:../../../../DaisyExamples/libDaisy//src/per/adc.h ****         OVS_32,   /**< & */
 101:../../../../DaisyExamples/libDaisy//src/per/adc.h ****         OVS_64,   /**< & */
 102:../../../../DaisyExamples/libDaisy//src/per/adc.h ****         OVS_128,  /**< & */
 103:../../../../DaisyExamples/libDaisy//src/per/adc.h ****         OVS_256,  /**< & */
 104:../../../../DaisyExamples/libDaisy//src/per/adc.h ****         OVS_512,  /**< & */
ARM GAS  C:\Users\samue\AppData\Local\Temp\ccTqPziZ.s 			page 7


 105:../../../../DaisyExamples/libDaisy//src/per/adc.h ****         OVS_1024, /**< & */
 106:../../../../DaisyExamples/libDaisy//src/per/adc.h ****         OVS_LAST, /**< & */
 107:../../../../DaisyExamples/libDaisy//src/per/adc.h ****     };
 108:../../../../DaisyExamples/libDaisy//src/per/adc.h **** 
 109:../../../../DaisyExamples/libDaisy//src/per/adc.h ****     AdcHandle() {}
 110:../../../../DaisyExamples/libDaisy//src/per/adc.h ****     ~AdcHandle() {}
  54              		.loc 5 110 5 is_stmt 1 view .LVU6
  55              		.loc 5 110 5 is_stmt 0 view .LVU7
  56              	.LBE282:
  57              	.LBB283:
  58              	.LBI283:
  59              		.file 6 "../../../../DaisyExamples/libDaisy//src/hid/audio.h"
   1:../../../../DaisyExamples/libDaisy//src/hid/audio.h **** #ifndef DSY_AUDIO_H
   2:../../../../DaisyExamples/libDaisy//src/hid/audio.h **** #define DSY_AUDIO_H /**< & */
   3:../../../../DaisyExamples/libDaisy//src/hid/audio.h **** 
   4:../../../../DaisyExamples/libDaisy//src/hid/audio.h **** #include "per/sai.h"
   5:../../../../DaisyExamples/libDaisy//src/hid/audio.h **** 
   6:../../../../DaisyExamples/libDaisy//src/hid/audio.h **** namespace daisy
   7:../../../../DaisyExamples/libDaisy//src/hid/audio.h **** {
   8:../../../../DaisyExamples/libDaisy//src/hid/audio.h **** /** @brief Audio Engine Handle
   9:../../../../DaisyExamples/libDaisy//src/hid/audio.h ****  *  @ingroup audio 
  10:../../../../DaisyExamples/libDaisy//src/hid/audio.h ****  *  @details This class allows for higher level access to an audio engine.
  11:../../../../DaisyExamples/libDaisy//src/hid/audio.h ****  *           If you're using a SOM like the DaisySeed or DaisyPatchSM (or any 
  12:../../../../DaisyExamples/libDaisy//src/hid/audio.h ****  *            board that includes one of those objects) then the intialization
  13:../../../../DaisyExamples/libDaisy//src/hid/audio.h ****  *            is already taken  care of.
  14:../../../../DaisyExamples/libDaisy//src/hid/audio.h ****  *           If you're setting up your own custom hardware, or need to make changes
  15:../../../../DaisyExamples/libDaisy//src/hid/audio.h ****  *           you will have to take the following steps:
  16:../../../../DaisyExamples/libDaisy//src/hid/audio.h ****  *             1. Create and Initialize an SaiHandle or two depending on your requirements
  17:../../../../DaisyExamples/libDaisy//src/hid/audio.h ****  *             2. Initialize the Audio Handle with the desired settings and the Initialized SaiHand
  18:../../../../DaisyExamples/libDaisy//src/hid/audio.h ****  *             3. If the connected codec requires special configuration or initialization, do so
  19:../../../../DaisyExamples/libDaisy//src/hid/audio.h ****  *             4. Write a callback method using either the AudioCallback or the InterleavingAudioCa
  20:../../../../DaisyExamples/libDaisy//src/hid/audio.h ****  *             5. Start the Audio using one of the StartAudio function
  21:../../../../DaisyExamples/libDaisy//src/hid/audio.h ****  */
  22:../../../../DaisyExamples/libDaisy//src/hid/audio.h **** class AudioHandle
  23:../../../../DaisyExamples/libDaisy//src/hid/audio.h **** {
  24:../../../../DaisyExamples/libDaisy//src/hid/audio.h ****   public:
  25:../../../../DaisyExamples/libDaisy//src/hid/audio.h ****     /** Manually configurable details about the Audio Engine */
  26:../../../../DaisyExamples/libDaisy//src/hid/audio.h ****     /** TODO: Figure out how to get samplerate in here. */
  27:../../../../DaisyExamples/libDaisy//src/hid/audio.h ****     struct Config
  28:../../../../DaisyExamples/libDaisy//src/hid/audio.h ****     {
  29:../../../../DaisyExamples/libDaisy//src/hid/audio.h ****         /** number of samples to process per callback */
  30:../../../../DaisyExamples/libDaisy//src/hid/audio.h ****         size_t blocksize;
  31:../../../../DaisyExamples/libDaisy//src/hid/audio.h **** 
  32:../../../../DaisyExamples/libDaisy//src/hid/audio.h ****         /**< Sample rate of audio */
  33:../../../../DaisyExamples/libDaisy//src/hid/audio.h ****         SaiHandle::Config::SampleRate samplerate;
  34:../../../../DaisyExamples/libDaisy//src/hid/audio.h **** 
  35:../../../../DaisyExamples/libDaisy//src/hid/audio.h ****         /** factor for adjustment before and after callback for hardware that may have extra headro
  36:../../../../DaisyExamples/libDaisy//src/hid/audio.h ****         float postgain;
  37:../../../../DaisyExamples/libDaisy//src/hid/audio.h **** 
  38:../../../../DaisyExamples/libDaisy//src/hid/audio.h ****         /** factor for additional one-sided compensation to audio path for hardware that may
  39:../../../../DaisyExamples/libDaisy//src/hid/audio.h ****          *  have unequal input/output ranges
  40:../../../../DaisyExamples/libDaisy//src/hid/audio.h ****          */
  41:../../../../DaisyExamples/libDaisy//src/hid/audio.h ****         float output_compensation;
  42:../../../../DaisyExamples/libDaisy//src/hid/audio.h **** 
  43:../../../../DaisyExamples/libDaisy//src/hid/audio.h ****         /** Sets default values for config struct */
  44:../../../../DaisyExamples/libDaisy//src/hid/audio.h ****         Config()
  45:../../../../DaisyExamples/libDaisy//src/hid/audio.h ****         : blocksize(48),
ARM GAS  C:\Users\samue\AppData\Local\Temp\ccTqPziZ.s 			page 8


  46:../../../../DaisyExamples/libDaisy//src/hid/audio.h ****           samplerate(SaiHandle::Config::SampleRate::SAI_48KHZ),
  47:../../../../DaisyExamples/libDaisy//src/hid/audio.h ****           postgain(1.f),
  48:../../../../DaisyExamples/libDaisy//src/hid/audio.h ****           output_compensation(1.f)
  49:../../../../DaisyExamples/libDaisy//src/hid/audio.h ****         {
  50:../../../../DaisyExamples/libDaisy//src/hid/audio.h ****         }
  51:../../../../DaisyExamples/libDaisy//src/hid/audio.h ****     };
  52:../../../../DaisyExamples/libDaisy//src/hid/audio.h **** 
  53:../../../../DaisyExamples/libDaisy//src/hid/audio.h ****     enum class Result
  54:../../../../DaisyExamples/libDaisy//src/hid/audio.h ****     {
  55:../../../../DaisyExamples/libDaisy//src/hid/audio.h ****         OK,
  56:../../../../DaisyExamples/libDaisy//src/hid/audio.h ****         ERR,
  57:../../../../DaisyExamples/libDaisy//src/hid/audio.h ****     };
  58:../../../../DaisyExamples/libDaisy//src/hid/audio.h **** 
  59:../../../../DaisyExamples/libDaisy//src/hid/audio.h ****     /** Non-Interleaving input buffer
  60:../../../../DaisyExamples/libDaisy//src/hid/audio.h ****      * Buffer arranged by float[chn][sample] 
  61:../../../../DaisyExamples/libDaisy//src/hid/audio.h ****      * const so that the user can't modify the input
  62:../../../../DaisyExamples/libDaisy//src/hid/audio.h ****      */
  63:../../../../DaisyExamples/libDaisy//src/hid/audio.h ****     typedef const float* const* InputBuffer;
  64:../../../../DaisyExamples/libDaisy//src/hid/audio.h **** 
  65:../../../../DaisyExamples/libDaisy//src/hid/audio.h ****     /** Non-Interleaving output buffer
  66:../../../../DaisyExamples/libDaisy//src/hid/audio.h ****      * Arranged by float[chn][sample] 
  67:../../../../DaisyExamples/libDaisy//src/hid/audio.h ****      */
  68:../../../../DaisyExamples/libDaisy//src/hid/audio.h ****     typedef float** OutputBuffer;
  69:../../../../DaisyExamples/libDaisy//src/hid/audio.h **** 
  70:../../../../DaisyExamples/libDaisy//src/hid/audio.h ****     /** Type for a Non-Interleaving audio callback 
  71:../../../../DaisyExamples/libDaisy//src/hid/audio.h ****      * Non-Interleaving audio callbacks in daisy will be of this type
  72:../../../../DaisyExamples/libDaisy//src/hid/audio.h ****      */
  73:../../../../DaisyExamples/libDaisy//src/hid/audio.h ****     typedef void (*AudioCallback)(InputBuffer  in,
  74:../../../../DaisyExamples/libDaisy//src/hid/audio.h ****                                   OutputBuffer out,
  75:../../../../DaisyExamples/libDaisy//src/hid/audio.h ****                                   size_t       size);
  76:../../../../DaisyExamples/libDaisy//src/hid/audio.h **** 
  77:../../../../DaisyExamples/libDaisy//src/hid/audio.h ****     /** Interleaving Input buffer
  78:../../../../DaisyExamples/libDaisy//src/hid/audio.h ****      ** audio is prepared as { L0, R0, L1, R1, . . . LN, RN }]
  79:../../../../DaisyExamples/libDaisy//src/hid/audio.h ****      ** this is const, as the user shouldn't modify it
  80:../../../../DaisyExamples/libDaisy//src/hid/audio.h ****     */
  81:../../../../DaisyExamples/libDaisy//src/hid/audio.h ****     typedef const float* InterleavingInputBuffer;
  82:../../../../DaisyExamples/libDaisy//src/hid/audio.h **** 
  83:../../../../DaisyExamples/libDaisy//src/hid/audio.h ****     /** Interleaving Output buffer 
  84:../../../../DaisyExamples/libDaisy//src/hid/audio.h ****      ** audio is prepared as { L0, R0, L1, R1, . . . LN, RN }
  85:../../../../DaisyExamples/libDaisy//src/hid/audio.h ****     */
  86:../../../../DaisyExamples/libDaisy//src/hid/audio.h ****     typedef float* InterleavingOutputBuffer;
  87:../../../../DaisyExamples/libDaisy//src/hid/audio.h **** 
  88:../../../../DaisyExamples/libDaisy//src/hid/audio.h ****     /** Interleaving Audio Callback 
  89:../../../../DaisyExamples/libDaisy//src/hid/audio.h ****      * Interleaving audio callbacks in daisy must be of this type
  90:../../../../DaisyExamples/libDaisy//src/hid/audio.h ****      */
  91:../../../../DaisyExamples/libDaisy//src/hid/audio.h ****     typedef void (*InterleavingAudioCallback)(InterleavingInputBuffer  in,
  92:../../../../DaisyExamples/libDaisy//src/hid/audio.h ****                                               InterleavingOutputBuffer out,
  93:../../../../DaisyExamples/libDaisy//src/hid/audio.h ****                                               size_t                   size);
  94:../../../../DaisyExamples/libDaisy//src/hid/audio.h **** 
  95:../../../../DaisyExamples/libDaisy//src/hid/audio.h ****     AudioHandle() : pimpl_(nullptr) {}
  96:../../../../DaisyExamples/libDaisy//src/hid/audio.h ****     ~AudioHandle() {}
  60              		.loc 6 96 5 is_stmt 1 view .LVU8
  61              		.loc 6 96 5 is_stmt 0 view .LVU9
  62              	.LBE283:
  63              	.LBE279:
  64              	.LBB284:
  65              	.LBI284:
ARM GAS  C:\Users\samue\AppData\Local\Temp\ccTqPziZ.s 			page 9


  66              		.file 7 "../../../../DaisyExamples/libDaisy//src/hid/switch.h"
   1:../../../../DaisyExamples/libDaisy//src/hid/switch.h **** #pragma once
   2:../../../../DaisyExamples/libDaisy//src/hid/switch.h **** #ifndef DSY_SWITCH_H
   3:../../../../DaisyExamples/libDaisy//src/hid/switch.h **** #define DSY_SWITCH_H
   4:../../../../DaisyExamples/libDaisy//src/hid/switch.h **** #include "daisy_core.h"
   5:../../../../DaisyExamples/libDaisy//src/hid/switch.h **** #include "per/gpio.h"
   6:../../../../DaisyExamples/libDaisy//src/hid/switch.h **** #include "sys/system.h"
   7:../../../../DaisyExamples/libDaisy//src/hid/switch.h **** 
   8:../../../../DaisyExamples/libDaisy//src/hid/switch.h **** namespace daisy
   9:../../../../DaisyExamples/libDaisy//src/hid/switch.h **** {
  10:../../../../DaisyExamples/libDaisy//src/hid/switch.h **** /** 
  11:../../../../DaisyExamples/libDaisy//src/hid/switch.h ****     Generic Class for handling momentary/latching switches \n 
  12:../../../../DaisyExamples/libDaisy//src/hid/switch.h ****     Inspired/influenced by Mutable Instruments (pichenettes) Switch classes
  13:../../../../DaisyExamples/libDaisy//src/hid/switch.h ****     @author Stephen Hensley
  14:../../../../DaisyExamples/libDaisy//src/hid/switch.h ****     @date December 2019
  15:../../../../DaisyExamples/libDaisy//src/hid/switch.h ****     @ingroup controls
  16:../../../../DaisyExamples/libDaisy//src/hid/switch.h **** */
  17:../../../../DaisyExamples/libDaisy//src/hid/switch.h **** class Switch
  18:../../../../DaisyExamples/libDaisy//src/hid/switch.h **** {
  19:../../../../DaisyExamples/libDaisy//src/hid/switch.h ****   public:
  20:../../../../DaisyExamples/libDaisy//src/hid/switch.h ****     /** Specifies the expected behavior of the switch */
  21:../../../../DaisyExamples/libDaisy//src/hid/switch.h ****     enum Type
  22:../../../../DaisyExamples/libDaisy//src/hid/switch.h ****     {
  23:../../../../DaisyExamples/libDaisy//src/hid/switch.h ****         TYPE_TOGGLE,    /**< & */
  24:../../../../DaisyExamples/libDaisy//src/hid/switch.h ****         TYPE_MOMENTARY, /**< & */
  25:../../../../DaisyExamples/libDaisy//src/hid/switch.h ****     };
  26:../../../../DaisyExamples/libDaisy//src/hid/switch.h ****     /** Specifies whether the pressed is HIGH or LOW. */
  27:../../../../DaisyExamples/libDaisy//src/hid/switch.h ****     enum Polarity
  28:../../../../DaisyExamples/libDaisy//src/hid/switch.h ****     {
  29:../../../../DaisyExamples/libDaisy//src/hid/switch.h ****         POLARITY_NORMAL,   /**< & */
  30:../../../../DaisyExamples/libDaisy//src/hid/switch.h ****         POLARITY_INVERTED, /**< & */
  31:../../../../DaisyExamples/libDaisy//src/hid/switch.h ****     };
  32:../../../../DaisyExamples/libDaisy//src/hid/switch.h **** 
  33:../../../../DaisyExamples/libDaisy//src/hid/switch.h ****     /** Specifies whether to use built-in Pull Up/Down resistors to hold button at a given state wh
  34:../../../../DaisyExamples/libDaisy//src/hid/switch.h ****     enum Pull
  35:../../../../DaisyExamples/libDaisy//src/hid/switch.h ****     {
  36:../../../../DaisyExamples/libDaisy//src/hid/switch.h ****         PULL_UP,   /**< & */
  37:../../../../DaisyExamples/libDaisy//src/hid/switch.h ****         PULL_DOWN, /**< & */
  38:../../../../DaisyExamples/libDaisy//src/hid/switch.h ****         PULL_NONE, /**< & */
  39:../../../../DaisyExamples/libDaisy//src/hid/switch.h ****     };
  40:../../../../DaisyExamples/libDaisy//src/hid/switch.h **** 
  41:../../../../DaisyExamples/libDaisy//src/hid/switch.h ****     Switch() {}
  42:../../../../DaisyExamples/libDaisy//src/hid/switch.h ****     ~Switch() {}
  67              		.loc 7 42 5 is_stmt 1 view .LVU10
  68              		.loc 7 42 5 is_stmt 0 view .LVU11
  69              	.LBE284:
  70              	.LBB285:
  71              	.LBI285:
  72              		.file 8 "../../../../DaisyExamples/libDaisy//src/hid/switch3.h"
   1:../../../../DaisyExamples/libDaisy//src/hid/switch3.h **** #pragma once
   2:../../../../DaisyExamples/libDaisy//src/hid/switch3.h **** #include "daisy_core.h"
   3:../../../../DaisyExamples/libDaisy//src/hid/switch3.h **** #include "per/gpio.h"
   4:../../../../DaisyExamples/libDaisy//src/hid/switch3.h **** 
   5:../../../../DaisyExamples/libDaisy//src/hid/switch3.h **** namespace daisy
   6:../../../../DaisyExamples/libDaisy//src/hid/switch3.h **** {
   7:../../../../DaisyExamples/libDaisy//src/hid/switch3.h **** class Switch3
   8:../../../../DaisyExamples/libDaisy//src/hid/switch3.h **** {
ARM GAS  C:\Users\samue\AppData\Local\Temp\ccTqPziZ.s 			page 10


   9:../../../../DaisyExamples/libDaisy//src/hid/switch3.h ****   public:
  10:../../../../DaisyExamples/libDaisy//src/hid/switch3.h ****     enum
  11:../../../../DaisyExamples/libDaisy//src/hid/switch3.h ****     {
  12:../../../../DaisyExamples/libDaisy//src/hid/switch3.h ****         POS_CENTER = 0,
  13:../../../../DaisyExamples/libDaisy//src/hid/switch3.h ****         POS_LEFT   = 1,
  14:../../../../DaisyExamples/libDaisy//src/hid/switch3.h ****         POS_UP     = 1,
  15:../../../../DaisyExamples/libDaisy//src/hid/switch3.h ****         POS_RIGHT  = 2,
  16:../../../../DaisyExamples/libDaisy//src/hid/switch3.h ****         POS_DOWN   = 2,
  17:../../../../DaisyExamples/libDaisy//src/hid/switch3.h ****     };
  18:../../../../DaisyExamples/libDaisy//src/hid/switch3.h **** 
  19:../../../../DaisyExamples/libDaisy//src/hid/switch3.h **** 
  20:../../../../DaisyExamples/libDaisy//src/hid/switch3.h ****     Switch3() {}
  21:../../../../DaisyExamples/libDaisy//src/hid/switch3.h ****     ~Switch3() {}
  73              		.loc 8 21 5 is_stmt 1 view .LVU12
  74              		.loc 8 21 5 is_stmt 0 view .LVU13
  75              	.LBE285:
  76              	.LBB286:
  77              	.LBI286:
  78              		.loc 8 21 5 is_stmt 1 view .LVU14
  79              		.loc 8 21 5 is_stmt 0 view .LVU15
  80              	.LBE286:
  81              		.loc 1 25 21 view .LVU16
  82 0000 7047     		bx	lr
  83              		.cfi_endproc
  84              	.LFE4685:
  86              		.weak	_ZN5daisy11daisyCommonD1Ev
  87              		.thumb_set _ZN5daisy11daisyCommonD1Ev,_ZN5daisy11daisyCommonD2Ev
  88 0002 00BF     		.section	.text.__tcf_0,"ax",%progbits
  89              		.align	1
  90              		.p2align 2,,3
  91              		.syntax unified
  92              		.thumb
  93              		.thumb_func
  94              		.fpu fpv5-d16
  96              	__tcf_0:
  97              	.LFB5260:
  98              		.file 9 "helloTest.cpp"
   1:helloTest.cpp **** #include "daisy_seed.h"
   2:helloTest.cpp **** #include "daisysp.h"
   3:helloTest.cpp **** #include "daisy_common.h"
   4:helloTest.cpp **** #include "fho.h"
   5:helloTest.cpp **** 
   6:helloTest.cpp **** using namespace daisy;
   7:helloTest.cpp **** using namespace daisysp;
   8:helloTest.cpp **** using namespace daisy::seed;
   9:helloTest.cpp **** 
  10:helloTest.cpp **** CpuLoadMeter loadMeter;
  11:helloTest.cpp **** daisyCommon board;
  12:helloTest.cpp **** 
  13:helloTest.cpp **** int blocksize = 256;
  14:helloTest.cpp **** fho osc[2];
  99              		.loc 9 14 5 is_stmt 1 view -0
 100              		.cfi_startproc
 101              		@ args = 0, pretend = 0, frame = 0
 102              		@ frame_needed = 0, uses_anonymous_args = 0
 103              		@ link register save eliminated.
 104              		.loc 9 14 5 is_stmt 0 view .LVU18
ARM GAS  C:\Users\samue\AppData\Local\Temp\ccTqPziZ.s 			page 11


 105 0000 7047     		bx	lr
 106              		.cfi_endproc
 107              	.LFE5260:
 109 0002 00BF     		.section	.text._Z13AudioCallbackPKPKfPPfj,"ax",%progbits
 110              		.align	1
 111              		.p2align 2,,3
 112              		.global	_Z13AudioCallbackPKPKfPPfj
 113              		.syntax unified
 114              		.thumb
 115              		.thumb_func
 116              		.fpu fpv5-d16
 118              	_Z13AudioCallbackPKPKfPPfj:
 119              	.LVL1:
 120              	.LFB4693:
  15:helloTest.cpp **** 
  16:helloTest.cpp **** enum
  17:helloTest.cpp **** {
  18:helloTest.cpp **** 	freq_1 = 1, fold_gain_1, hyperbolic_1, fold_off_1, freq_2, fold_gain_2, hyperbolic_2, fold_off_2
  19:helloTest.cpp **** };
  20:helloTest.cpp **** 
  21:helloTest.cpp **** void AudioCallback(AudioHandle::InputBuffer in, AudioHandle::OutputBuffer out, size_t size)
  22:helloTest.cpp **** {
 121              		.loc 9 22 1 is_stmt 1 view -0
 122              		.cfi_startproc
 123              		@ args = 0, pretend = 0, frame = 0
 124              		@ frame_needed = 0, uses_anonymous_args = 0
  23:helloTest.cpp **** 	//loadMeter.OnBlockStart();
  24:helloTest.cpp **** 	float signal[2];
 125              		.loc 9 24 2 view .LVU20
  25:helloTest.cpp **** 
  26:helloTest.cpp **** 	for (size_t i = 0; i < size; i++)
 126              		.loc 9 26 2 view .LVU21
 127              	.LBB287:
 128              		.loc 9 26 23 view .LVU22
 129 0000 A2B1     		cbz	r2, .L12
 130              	.LBE287:
  22:helloTest.cpp **** 	//loadMeter.OnBlockStart();
 131              		.loc 9 22 1 is_stmt 0 view .LVU23
 132 0002 70B5     		push	{r4, r5, r6, lr}
 133              		.cfi_def_cfa_offset 16
 134              		.cfi_offset 4, -16
 135              		.cfi_offset 5, -12
 136              		.cfi_offset 6, -8
 137              		.cfi_offset 14, -4
 138 0004 0D46     		mov	r5, r1
 139 0006 1646     		mov	r6, r2
 140              	.LBB288:
 141              		.loc 9 26 14 view .LVU24
 142 0008 0024     		movs	r4, #0
 143              	.LVL2:
 144              	.L6:
  27:helloTest.cpp **** 	{
  28:helloTest.cpp **** 		signal[0] = osc[0].Process();
 145              		.loc 9 28 3 is_stmt 1 discriminator 2 view .LVU25
 146              		.loc 9 28 29 is_stmt 0 discriminator 2 view .LVU26
 147 000a 0948     		ldr	r0, .L15
 148 000c FFF7FEFF 		bl	_ZN3fho7ProcessEv
ARM GAS  C:\Users\samue\AppData\Local\Temp\ccTqPziZ.s 			page 12


 149              	.LVL3:
  29:helloTest.cpp **** 		//signal[1] = osc[1].Process();
  30:helloTest.cpp **** 		
  31:helloTest.cpp **** 		out[0][i] = signal[0];
  32:helloTest.cpp **** 		out[1][i] = signal[0];
 150              		.loc 9 32 13 discriminator 2 view .LVU27
 151 0010 D5E90003 		ldrd	r0, r3, [r5]
 152              	.LVL4:
  31:helloTest.cpp **** 		out[1][i] = signal[0];
 153              		.loc 9 31 3 is_stmt 1 discriminator 2 view .LVU28
  31:helloTest.cpp **** 		out[1][i] = signal[0];
 154              		.loc 9 31 13 is_stmt 0 discriminator 2 view .LVU29
 155 0014 00EB8400 		add	r0, r0, r4, lsl #2
 156              		.loc 9 32 13 discriminator 2 view .LVU30
 157 0018 03EB8403 		add	r3, r3, r4, lsl #2
  26:helloTest.cpp **** 	{
 158              		.loc 9 26 2 discriminator 2 view .LVU31
 159 001c 0134     		adds	r4, r4, #1
 160              	.LVL5:
  31:helloTest.cpp **** 		out[1][i] = signal[0];
 161              		.loc 9 31 13 discriminator 2 view .LVU32
 162 001e 80ED000A 		vstr.32	s0, [r0]
 163              		.loc 9 32 3 is_stmt 1 discriminator 2 view .LVU33
  26:helloTest.cpp **** 	{
 164              		.loc 9 26 23 is_stmt 0 discriminator 2 view .LVU34
 165 0022 A642     		cmp	r6, r4
 166              		.loc 9 32 13 discriminator 2 view .LVU35
 167 0024 83ED000A 		vstr.32	s0, [r3]
  26:helloTest.cpp **** 	{
 168              		.loc 9 26 2 is_stmt 1 discriminator 2 view .LVU36
 169              	.LVL6:
  26:helloTest.cpp **** 	{
 170              		.loc 9 26 23 discriminator 2 view .LVU37
 171 0028 EFD1     		bne	.L6
 172              	.LBE288:
  33:helloTest.cpp **** 	}
  34:helloTest.cpp **** 	//loadMeter.OnBlockEnd();
  35:helloTest.cpp **** }
 173              		.loc 9 35 1 is_stmt 0 view .LVU38
 174 002a 70BD     		pop	{r4, r5, r6, pc}
 175              	.LVL7:
 176              	.L12:
 177              		.cfi_def_cfa_offset 0
 178              		.cfi_restore 4
 179              		.cfi_restore 5
 180              		.cfi_restore 6
 181              		.cfi_restore 14
 182              		.loc 9 35 1 view .LVU39
 183 002c 7047     		bx	lr
 184              	.L16:
 185 002e 00BF     		.align	2
 186              	.L15:
 187 0030 00000000 		.word	.LANCHOR0
 188              		.cfi_endproc
 189              	.LFE4693:
 191              		.section	.text.startup.main,"ax",%progbits
 192              		.align	1
ARM GAS  C:\Users\samue\AppData\Local\Temp\ccTqPziZ.s 			page 13


 193              		.p2align 2,,3
 194              		.global	main
 195              		.syntax unified
 196              		.thumb
 197              		.thumb_func
 198              		.fpu fpv5-d16
 200              	main:
 201              	.LFB4694:
  36:helloTest.cpp **** 
  37:helloTest.cpp **** int main(void)
  38:helloTest.cpp **** {
 202              		.loc 9 38 1 is_stmt 1 view -0
 203              		.cfi_startproc
 204              		@ args = 0, pretend = 0, frame = 0
 205              		@ frame_needed = 0, uses_anonymous_args = 0
  39:helloTest.cpp **** 	board.add_dual_control(freq_1, board.in_1, board.knob_1);
 206              		.loc 9 39 2 view .LVU41
  38:helloTest.cpp **** 	board.add_dual_control(freq_1, board.in_1, board.knob_1);
 207              		.loc 9 38 1 is_stmt 0 view .LVU42
 208 0000 08B5     		push	{r3, lr}
 209              		.cfi_def_cfa_offset 8
 210              		.cfi_offset 3, -8
 211              		.cfi_offset 14, -4
 212              		.loc 9 39 24 view .LVU43
 213 0002 0023     		movs	r3, #0
 214 0004 0121     		movs	r1, #1
 215 0006 6448     		ldr	r0, .L26
 216 0008 1A46     		mov	r2, r3
  38:helloTest.cpp **** 	board.add_dual_control(freq_1, board.in_1, board.knob_1);
 217              		.loc 9 38 1 view .LVU44
 218 000a 2DED028B 		vpush.64	{d8}
 219              		.cfi_def_cfa_offset 16
 220              		.cfi_offset 80, -16
 221              		.cfi_offset 81, -12
 222              		.loc 9 39 24 view .LVU45
 223 000e FFF7FEFF 		bl	_ZN5daisy11daisyCommon16add_dual_controlEiii
 224              	.LVL8:
  40:helloTest.cpp **** 	board.add_dual_control(freq_2, board.in_5, board.knob_6);
 225              		.loc 9 40 2 is_stmt 1 view .LVU46
 226              		.loc 9 40 24 is_stmt 0 view .LVU47
 227 0012 0523     		movs	r3, #5
 228 0014 0422     		movs	r2, #4
 229 0016 6048     		ldr	r0, .L26
 230 0018 1946     		mov	r1, r3
 231 001a FFF7FEFF 		bl	_ZN5daisy11daisyCommon16add_dual_controlEiii
 232              	.LVL9:
  41:helloTest.cpp **** 	board.add_dual_control(hyperbolic_1, board.gate_1_in_4, board.knob_4);
 233              		.loc 9 41 2 is_stmt 1 view .LVU48
 234              		.loc 9 41 24 is_stmt 0 view .LVU49
 235 001e 0323     		movs	r3, #3
 236 0020 5D48     		ldr	r0, .L26
 237 0022 1A46     		mov	r2, r3
 238 0024 1946     		mov	r1, r3
 239 0026 FFF7FEFF 		bl	_ZN5daisy11daisyCommon16add_dual_controlEiii
 240              	.LVL10:
  42:helloTest.cpp **** 	board.add_dual_control(hyperbolic_2, board.gate_2_in_8, board.knob_5);
 241              		.loc 9 42 2 is_stmt 1 view .LVU50
ARM GAS  C:\Users\samue\AppData\Local\Temp\ccTqPziZ.s 			page 14


 242              		.loc 9 42 24 is_stmt 0 view .LVU51
 243 002a 0722     		movs	r2, #7
 244 002c 0423     		movs	r3, #4
 245 002e 5A48     		ldr	r0, .L26
 246 0030 1146     		mov	r1, r2
 247 0032 FFF7FEFF 		bl	_ZN5daisy11daisyCommon16add_dual_controlEiii
 248              	.LVL11:
  43:helloTest.cpp **** 	board.add_dual_control(fold_gain_1, board.in_3, board.knob_3);
 249              		.loc 9 43 2 is_stmt 1 view .LVU52
 250              		.loc 9 43 24 is_stmt 0 view .LVU53
 251 0036 0223     		movs	r3, #2
 252 0038 5748     		ldr	r0, .L26
 253 003a 1A46     		mov	r2, r3
 254 003c 1946     		mov	r1, r3
 255 003e FFF7FEFF 		bl	_ZN5daisy11daisyCommon16add_dual_controlEiii
 256              	.LVL12:
  44:helloTest.cpp **** 	board.add_dual_control(fold_gain_2, board.in_7, board.knob_8);
 257              		.loc 9 44 2 is_stmt 1 view .LVU54
 258              		.loc 9 44 24 is_stmt 0 view .LVU55
 259 0042 0622     		movs	r2, #6
 260 0044 0723     		movs	r3, #7
 261 0046 5448     		ldr	r0, .L26
 262 0048 1146     		mov	r1, r2
 263 004a FFF7FEFF 		bl	_ZN5daisy11daisyCommon16add_dual_controlEiii
 264              	.LVL13:
  45:helloTest.cpp **** 	board.add_dual_control(fold_off_1, board.in_2, board.knob_2);
 265              		.loc 9 45 2 is_stmt 1 view .LVU56
 266              		.loc 9 45 24 is_stmt 0 view .LVU57
 267 004e 0123     		movs	r3, #1
 268 0050 0421     		movs	r1, #4
 269 0052 5148     		ldr	r0, .L26
 270 0054 1A46     		mov	r2, r3
 271 0056 FFF7FEFF 		bl	_ZN5daisy11daisyCommon16add_dual_controlEiii
 272              	.LVL14:
  46:helloTest.cpp **** 	board.add_dual_control(fold_off_2, board.in_6, board.knob_7);
 273              		.loc 9 46 2 is_stmt 1 view .LVU58
 274              		.loc 9 46 24 is_stmt 0 view .LVU59
 275 005a 0522     		movs	r2, #5
 276 005c 0623     		movs	r3, #6
 277 005e 0821     		movs	r1, #8
 278 0060 4D48     		ldr	r0, .L26
 279 0062 FFF7FEFF 		bl	_ZN5daisy11daisyCommon16add_dual_controlEiii
 280              	.LVL15:
  47:helloTest.cpp **** 	
  48:helloTest.cpp **** 	board.Init();
 281              		.loc 9 48 2 is_stmt 1 view .LVU60
 282              		.loc 9 48 12 is_stmt 0 view .LVU61
 283 0066 0021     		movs	r1, #0
 284 0068 4B48     		ldr	r0, .L26
 285 006a FFF7FEFF 		bl	_ZN5daisy11daisyCommon4InitEb
 286              	.LVL16:
  49:helloTest.cpp **** 	board.seed.SetAudioBlockSize(blocksize); // number of samples handled per callback
 287              		.loc 9 49 2 is_stmt 1 view .LVU62
 288              		.loc 9 49 30 is_stmt 0 view .LVU63
 289 006e 4B4B     		ldr	r3, .L26+4
 290 0070 4B48     		ldr	r0, .L26+8
 291 0072 1968     		ldr	r1, [r3]
ARM GAS  C:\Users\samue\AppData\Local\Temp\ccTqPziZ.s 			page 15


 292 0074 FFF7FEFF 		bl	_ZN5daisy9DaisySeed17SetAudioBlockSizeEj
 293              	.LVL17:
  50:helloTest.cpp **** 	board.seed.SetAudioSampleRate(SaiHandle::Config::SampleRate::SAI_96KHZ);
 294              		.loc 9 50 2 is_stmt 1 view .LVU64
 295              		.loc 9 50 31 is_stmt 0 view .LVU65
 296 0078 0421     		movs	r1, #4
 297 007a 4948     		ldr	r0, .L26+8
 298 007c FFF7FEFF 		bl	_ZN5daisy9DaisySeed18SetAudioSampleRateENS_9SaiHandle6Config10SampleRateE
 299              	.LVL18:
  51:helloTest.cpp **** 	
  52:helloTest.cpp **** 	//loadMeter.Init(board.seed.AudioSampleRate(), board.seed.AudioBlockSize());
  53:helloTest.cpp **** 	board.seed.StartAudio(AudioCallback);
 300              		.loc 9 53 2 is_stmt 1 view .LVU66
 301              		.loc 9 53 23 is_stmt 0 view .LVU67
 302 0080 4849     		ldr	r1, .L26+12
 303 0082 4748     		ldr	r0, .L26+8
 304 0084 FFF7FEFF 		bl	_ZN5daisy9DaisySeed10StartAudioEPFvPKPKfPPfjE
 305              	.LVL19:
  54:helloTest.cpp **** 	
  55:helloTest.cpp **** 
  56:helloTest.cpp **** 	float samplerate = board.seed.AudioSampleRate();
 306              		.loc 9 56 2 is_stmt 1 view .LVU68
 307              		.loc 9 56 47 is_stmt 0 view .LVU69
 308 0088 4548     		ldr	r0, .L26+8
 309 008a FFF7FEFF 		bl	_ZN5daisy9DaisySeed15AudioSampleRateEv
 310              	.LVL20:
 311 008e B0EE408A 		vmov.f32	s16, s0
 312              	.LVL21:
  57:helloTest.cpp **** 	//osc[0].Init(oversample*samplerate);
  58:helloTest.cpp **** 	//osc[1].Init(oversample*samplerate);
  59:helloTest.cpp **** 	osc[0].Init(samplerate);	
 313              		.loc 9 59 2 is_stmt 1 view .LVU70
 314              		.loc 9 59 13 is_stmt 0 view .LVU71
 315 0092 4548     		ldr	r0, .L26+16
 316 0094 FFF7FEFF 		bl	_ZN3fho4InitEf
 317              	.LVL22:
  60:helloTest.cpp **** 	osc[1].Init(samplerate);	
 318              		.loc 9 60 2 is_stmt 1 view .LVU72
 319              		.loc 9 60 13 is_stmt 0 view .LVU73
 320 0098 4448     		ldr	r0, .L26+20
 321 009a B0EE480A 		vmov.f32	s0, s16
 322 009e FFF7FEFF 		bl	_ZN3fho4InitEf
 323              	.LVL23:
 324              	.L18:
  61:helloTest.cpp **** 	
  62:helloTest.cpp **** 
  63:helloTest.cpp **** 	while(1) {
 325              		.loc 9 63 2 is_stmt 1 view .LVU74
 326              	.LBB298:
  64:helloTest.cpp **** 		/*const float avgLoad = loadMeter.GetAvgCpuLoad();
  65:helloTest.cpp **** 		const float maxLoad = loadMeter.GetMaxCpuLoad();
  66:helloTest.cpp **** 		const float minLoad = loadMeter.GetMinCpuLoad();
  67:helloTest.cpp **** 		board.seed.PrintLine("Processing Load %");
  68:helloTest.cpp **** 		board.seed.PrintLine("Max: " FLT_FMT3, FLT_VAR3(maxLoad * 100.0f));
  69:helloTest.cpp ****         board.seed.PrintLine("Avg: " FLT_FMT3, FLT_VAR3(avgLoad * 100.0f));
  70:helloTest.cpp ****         board.seed.PrintLine("Min: " FLT_FMT3, FLT_VAR3(minLoad * 100.0f));*/
  71:helloTest.cpp **** 
ARM GAS  C:\Users\samue\AppData\Local\Temp\ccTqPziZ.s 			page 16


  72:helloTest.cpp **** 
  73:helloTest.cpp **** 		bool slow_blink = (System::GetNow() & 1023) < 511;
 327              		.loc 9 73 3 view .LVU75
 328              		.loc 9 73 36 is_stmt 0 view .LVU76
 329 00a2 FFF7FEFF 		bl	_ZN5daisy6System6GetNowEv
 330              	.LVL24:
 331 00a6 0146     		mov	r1, r0
 332              	.LVL25:
  74:helloTest.cpp **** 		board.seed.SetLed(slow_blink);
 333              		.loc 9 74 3 is_stmt 1 view .LVU77
 334              		.loc 9 74 20 is_stmt 0 view .LVU78
 335 00a8 3D48     		ldr	r0, .L26+8
 336              	.LVL26:
  73:helloTest.cpp **** 		board.seed.SetLed(slow_blink);
 337              		.loc 9 73 39 view .LVU79
 338 00aa C1F30901 		ubfx	r1, r1, #0, #10
 339              	.LVL27:
 340              		.loc 9 74 20 view .LVU80
 341 00ae B1F5FF7F 		cmp	r1, #510
 342 00b2 8CBF     		ite	hi
 343 00b4 0021     		movhi	r1, #0
 344 00b6 0121     		movls	r1, #1
 345 00b8 FFF7FEFF 		bl	_ZN5daisy9DaisySeed6SetLedEb
 346              	.LVL28:
  75:helloTest.cpp **** 
  76:helloTest.cpp **** 		osc[0].set_tanh_gain(board.get_dual_control(hyperbolic_1));
 347              		.loc 9 76 3 is_stmt 1 view .LVU81
 348              		.loc 9 76 23 is_stmt 0 view .LVU82
 349 00bc 0321     		movs	r1, #3
 350 00be 3648     		ldr	r0, .L26
 351 00c0 FFF7FEFF 		bl	_ZN5daisy11daisyCommon16get_dual_controlEi
 352              	.LVL29:
 353 00c4 3848     		ldr	r0, .L26+16
 354 00c6 FFF7FEFF 		bl	_ZN3fho13set_tanh_gainEf
 355              	.LVL30:
  77:helloTest.cpp **** 		osc[1].set_tanh_gain(board.get_dual_control(hyperbolic_2));
 356              		.loc 9 77 3 is_stmt 1 view .LVU83
 357              		.loc 9 77 23 is_stmt 0 view .LVU84
 358 00ca 0721     		movs	r1, #7
 359 00cc 3248     		ldr	r0, .L26
 360 00ce FFF7FEFF 		bl	_ZN5daisy11daisyCommon16get_dual_controlEi
 361              	.LVL31:
 362 00d2 3648     		ldr	r0, .L26+20
 363 00d4 FFF7FEFF 		bl	_ZN3fho13set_tanh_gainEf
 364              	.LVL32:
  78:helloTest.cpp **** 
  79:helloTest.cpp **** 		osc[0].set_fold_gain(board.get_dual_control(fold_gain_1));
 365              		.loc 9 79 3 is_stmt 1 view .LVU85
 366              		.loc 9 79 23 is_stmt 0 view .LVU86
 367 00d8 0221     		movs	r1, #2
 368 00da 2F48     		ldr	r0, .L26
 369 00dc FFF7FEFF 		bl	_ZN5daisy11daisyCommon16get_dual_controlEi
 370              	.LVL33:
 371 00e0 3148     		ldr	r0, .L26+16
 372 00e2 FFF7FEFF 		bl	_ZN3fho13set_fold_gainEf
 373              	.LVL34:
  80:helloTest.cpp **** 		osc[1].set_fold_gain(board.get_dual_control(fold_gain_2));
ARM GAS  C:\Users\samue\AppData\Local\Temp\ccTqPziZ.s 			page 17


 374              		.loc 9 80 3 is_stmt 1 view .LVU87
 375              		.loc 9 80 23 is_stmt 0 view .LVU88
 376 00e6 0621     		movs	r1, #6
 377 00e8 2B48     		ldr	r0, .L26
 378 00ea FFF7FEFF 		bl	_ZN5daisy11daisyCommon16get_dual_controlEi
 379              	.LVL35:
 380 00ee 2F48     		ldr	r0, .L26+20
 381 00f0 FFF7FEFF 		bl	_ZN3fho13set_fold_gainEf
 382              	.LVL36:
  81:helloTest.cpp **** 
  82:helloTest.cpp **** 		osc[0].set_fold_off(board.get_dual_control(fold_off_1));
 383              		.loc 9 82 3 is_stmt 1 view .LVU89
 384              		.loc 9 82 22 is_stmt 0 view .LVU90
 385 00f4 0421     		movs	r1, #4
 386 00f6 2848     		ldr	r0, .L26
 387 00f8 FFF7FEFF 		bl	_ZN5daisy11daisyCommon16get_dual_controlEi
 388              	.LVL37:
 389 00fc 2A48     		ldr	r0, .L26+16
 390 00fe FFF7FEFF 		bl	_ZN3fho12set_fold_offEf
 391              	.LVL38:
  83:helloTest.cpp **** 		osc[1].set_fold_off(board.get_dual_control(fold_off_2));
 392              		.loc 9 83 3 is_stmt 1 view .LVU91
 393              		.loc 9 83 22 is_stmt 0 view .LVU92
 394 0102 0821     		movs	r1, #8
 395 0104 2448     		ldr	r0, .L26
 396 0106 FFF7FEFF 		bl	_ZN5daisy11daisyCommon16get_dual_controlEi
 397              	.LVL39:
 398 010a 2848     		ldr	r0, .L26+20
 399 010c FFF7FEFF 		bl	_ZN3fho12set_fold_offEf
 400              	.LVL40:
  84:helloTest.cpp **** 	
  85:helloTest.cpp **** 		switch(board.toggle_left.Read())
 401              		.loc 9 85 3 is_stmt 1 view .LVU93
 402              	.LBB299:
 403              	.LBI299:
  22:../../../../DaisyExamples/libDaisy//src/hid/switch3.h **** 
  23:../../../../DaisyExamples/libDaisy//src/hid/switch3.h ****     void Init(dsy_gpio_pin pina, dsy_gpio_pin pinb)
  24:../../../../DaisyExamples/libDaisy//src/hid/switch3.h ****     {
  25:../../../../DaisyExamples/libDaisy//src/hid/switch3.h ****         pina_gpio_.pin  = pina;
  26:../../../../DaisyExamples/libDaisy//src/hid/switch3.h ****         pina_gpio_.mode = DSY_GPIO_MODE_INPUT;
  27:../../../../DaisyExamples/libDaisy//src/hid/switch3.h ****         pina_gpio_.pull = DSY_GPIO_PULLUP;
  28:../../../../DaisyExamples/libDaisy//src/hid/switch3.h ****         dsy_gpio_init(&pina_gpio_);
  29:../../../../DaisyExamples/libDaisy//src/hid/switch3.h **** 
  30:../../../../DaisyExamples/libDaisy//src/hid/switch3.h ****         pinb_gpio_.pin  = pinb;
  31:../../../../DaisyExamples/libDaisy//src/hid/switch3.h ****         pinb_gpio_.mode = DSY_GPIO_MODE_INPUT;
  32:../../../../DaisyExamples/libDaisy//src/hid/switch3.h ****         pinb_gpio_.pull = DSY_GPIO_PULLUP;
  33:../../../../DaisyExamples/libDaisy//src/hid/switch3.h ****         dsy_gpio_init(&pinb_gpio_);
  34:../../../../DaisyExamples/libDaisy//src/hid/switch3.h ****     }
  35:../../../../DaisyExamples/libDaisy//src/hid/switch3.h **** 
  36:../../../../DaisyExamples/libDaisy//src/hid/switch3.h ****     int Read()
 404              		.loc 8 36 9 view .LVU94
 405              	.LBB300:
  37:../../../../DaisyExamples/libDaisy//src/hid/switch3.h ****     {
  38:../../../../DaisyExamples/libDaisy//src/hid/switch3.h ****         if(!dsy_gpio_read(&pina_gpio_))
 406              		.loc 8 38 9 view .LVU95
 407              		.loc 8 38 26 is_stmt 0 view .LVU96
 408 0110 2748     		ldr	r0, .L26+24
ARM GAS  C:\Users\samue\AppData\Local\Temp\ccTqPziZ.s 			page 18


 409 0112 FFF7FEFF 		bl	dsy_gpio_read
 410              	.LVL41:
 411              		.loc 8 38 26 view .LVU97
 412              	.LBE300:
 413              	.LBE299:
  86:helloTest.cpp **** 		{
  87:helloTest.cpp **** 			case Switch3::POS_UP: osc[0].set_freq_voct(board.get_dual_control(freq_1)); break;
 414              		.loc 9 87 4 is_stmt 1 view .LVU98
 415              		.loc 9 87 26 view .LVU99
 416              	.LBB319:
 417              	.LBB313:
 418              	.LBB301:
 419              	.LBI301:
  36:../../../../DaisyExamples/libDaisy//src/hid/switch3.h ****     {
 420              		.loc 8 36 9 view .LVU100
 421              	.LBB302:
  39:../../../../DaisyExamples/libDaisy//src/hid/switch3.h ****             return POS_UP;
  40:../../../../DaisyExamples/libDaisy//src/hid/switch3.h ****         if(!dsy_gpio_read(&pinb_gpio_))
 422              		.loc 8 40 9 view .LVU101
 423              	.LBE302:
 424              	.LBE301:
  38:../../../../DaisyExamples/libDaisy//src/hid/switch3.h ****             return POS_UP;
 425              		.loc 8 38 26 is_stmt 0 view .LVU102
 426 0116 0346     		mov	r3, r0
 427              	.LBE313:
 428              	.LBE319:
 429              		.loc 9 87 46 view .LVU103
 430 0118 0121     		movs	r1, #1
 431              	.LBB320:
 432              	.LBB314:
 433              	.LBB308:
 434              	.LBB303:
 435              		.loc 8 40 26 view .LVU104
 436 011a 2648     		ldr	r0, .L26+28
 437              	.LBE303:
 438              	.LBE308:
  38:../../../../DaisyExamples/libDaisy//src/hid/switch3.h ****             return POS_UP;
 439              		.loc 8 38 9 view .LVU105
 440 011c 03BB     		cbnz	r3, .L19
 441              	.LBE314:
 442              	.LBE320:
 443              		.loc 9 87 46 view .LVU106
 444 011e A0F5A470 		sub	r0, r0, #328
 445 0122 FFF7FEFF 		bl	_ZN5daisy11daisyCommon16get_dual_controlEi
 446              	.LVL42:
 447 0126 2048     		ldr	r0, .L26+16
 448 0128 FFF7FEFF 		bl	_ZN3fho13set_freq_voctEf
 449              	.LVL43:
 450              		.loc 9 87 80 is_stmt 1 view .LVU107
 451              	.L20:
  88:helloTest.cpp **** 			case Switch3::POS_CENTER: osc[0].set_freq_lin(board.get_dual_control(freq_1)); break;
  89:helloTest.cpp **** 			case Switch3::POS_DOWN: osc[0].set_freq_lfo(board.get_dual_control(freq_1)); break;
  90:helloTest.cpp **** 			/*case Switch3::POS_UP: osc[0].set_freq(65.41f); break;
  91:helloTest.cpp **** 			case Switch3::POS_CENTER: osc[0].set_freq(261.63f); break;
  92:helloTest.cpp **** 			case Switch3::POS_DOWN: osc[0].set_freq(2093.0f); break;*/
  93:helloTest.cpp **** 		}
  94:helloTest.cpp **** 
ARM GAS  C:\Users\samue\AppData\Local\Temp\ccTqPziZ.s 			page 19


  95:helloTest.cpp **** 		switch(board.toggle_right.Read())
 452              		.loc 9 95 3 view .LVU108
 453              	.LBB321:
 454              	.LBI321:
  36:../../../../DaisyExamples/libDaisy//src/hid/switch3.h ****     {
 455              		.loc 8 36 9 view .LVU109
 456              	.LBB322:
  38:../../../../DaisyExamples/libDaisy//src/hid/switch3.h ****             return POS_UP;
 457              		.loc 8 38 9 view .LVU110
  38:../../../../DaisyExamples/libDaisy//src/hid/switch3.h ****             return POS_UP;
 458              		.loc 8 38 26 is_stmt 0 view .LVU111
 459 012c 2248     		ldr	r0, .L26+32
 460 012e FFF7FEFF 		bl	dsy_gpio_read
 461              	.LVL44:
 462              	.LBB323:
 463              	.LBI323:
  36:../../../../DaisyExamples/libDaisy//src/hid/switch3.h ****     {
 464              		.loc 8 36 9 is_stmt 1 view .LVU112
 465              	.LBB324:
 466              		.loc 8 40 9 view .LVU113
 467              		.loc 8 40 9 is_stmt 0 view .LVU114
 468              	.LBE324:
 469              	.LBE323:
 470              	.LBE322:
 471              	.LBE321:
  96:helloTest.cpp **** 		{
  97:helloTest.cpp **** 			case Switch3::POS_UP: osc[1].set_freq_voct(board.get_dual_control(freq_2)); break;
 472              		.loc 9 97 4 is_stmt 1 view .LVU115
 473              		.loc 9 97 26 view .LVU116
 474              	.LBB340:
 475              	.LBB335:
  38:../../../../DaisyExamples/libDaisy//src/hid/switch3.h ****             return POS_UP;
 476              		.loc 8 38 26 is_stmt 0 view .LVU117
 477 0132 0346     		mov	r3, r0
 478              	.LBE335:
 479              	.LBE340:
 480              		.loc 9 97 46 view .LVU118
 481 0134 0521     		movs	r1, #5
 482              	.LBB341:
 483              	.LBB336:
 484              	.LBB330:
 485              	.LBB325:
 486              		.loc 8 40 26 view .LVU119
 487 0136 2148     		ldr	r0, .L26+36
 488              	.LBE325:
 489              	.LBE330:
  38:../../../../DaisyExamples/libDaisy//src/hid/switch3.h ****             return POS_UP;
 490              		.loc 8 38 9 view .LVU120
 491 0138 5BB1     		cbz	r3, .L22
 492              	.LBB331:
 493              	.LBB326:
 494              		.loc 8 40 26 view .LVU121
 495 013a FFF7FEFF 		bl	dsy_gpio_read
 496              	.LVL45:
 497              	.LBE326:
 498              	.LBE331:
 499              	.LBE336:
ARM GAS  C:\Users\samue\AppData\Local\Temp\ccTqPziZ.s 			page 20


 500              	.LBE341:
  98:helloTest.cpp **** 			case Switch3::POS_CENTER: osc[1].set_freq_lin(board.get_dual_control(freq_2)); break;
 501              		.loc 9 98 4 is_stmt 1 view .LVU122
 502              		.loc 9 98 30 view .LVU123
 503              	.LBB342:
 504              	.LBB337:
 505              	.LBB332:
 506              	.LBB327:
 507              		.loc 8 40 26 is_stmt 0 view .LVU124
 508 013e 0346     		mov	r3, r0
 509              	.LBE327:
 510              	.LBE332:
 511              	.LBE337:
 512              	.LBE342:
 513              		.loc 9 98 49 view .LVU125
 514 0140 0521     		movs	r1, #5
 515 0142 1548     		ldr	r0, .L26
 516              	.LBB343:
 517              	.LBB338:
 518              	.LBB333:
 519              	.LBB328:
 520              		.loc 8 40 9 view .LVU126
 521 0144 03B3     		cbz	r3, .L23
 522              	.LBE328:
 523              	.LBE333:
 524              	.LBE338:
 525              	.LBE343:
 526              		.loc 9 98 49 view .LVU127
 527 0146 FFF7FEFF 		bl	_ZN5daisy11daisyCommon16get_dual_controlEi
 528              	.LVL46:
 529 014a 1848     		ldr	r0, .L26+20
 530 014c FFF7FEFF 		bl	_ZN3fho12set_freq_linEf
 531              	.LVL47:
 532              		.loc 9 98 83 is_stmt 1 view .LVU128
 533 0150 A7E7     		b	.L18
 534              	.L22:
  97:helloTest.cpp **** 			case Switch3::POS_CENTER: osc[1].set_freq_lin(board.get_dual_control(freq_2)); break;
 535              		.loc 9 97 46 is_stmt 0 view .LVU129
 536 0152 1148     		ldr	r0, .L26
 537 0154 FFF7FEFF 		bl	_ZN5daisy11daisyCommon16get_dual_controlEi
 538              	.LVL48:
 539 0158 1448     		ldr	r0, .L26+20
 540 015a FFF7FEFF 		bl	_ZN3fho13set_freq_voctEf
 541              	.LVL49:
  97:helloTest.cpp **** 			case Switch3::POS_CENTER: osc[1].set_freq_lin(board.get_dual_control(freq_2)); break;
 542              		.loc 9 97 80 is_stmt 1 view .LVU130
 543 015e A0E7     		b	.L18
 544              	.LVL50:
 545              	.L19:
 546              	.LBB344:
 547              	.LBB315:
 548              	.LBB309:
 549              	.LBB304:
 550              		.loc 8 40 26 is_stmt 0 view .LVU131
 551 0160 FFF7FEFF 		bl	dsy_gpio_read
 552              	.LVL51:
 553              		.loc 8 40 26 view .LVU132
ARM GAS  C:\Users\samue\AppData\Local\Temp\ccTqPziZ.s 			page 21


 554              	.LBE304:
 555              	.LBE309:
 556              	.LBE315:
 557              	.LBE344:
  88:helloTest.cpp **** 			case Switch3::POS_DOWN: osc[0].set_freq_lfo(board.get_dual_control(freq_1)); break;
 558              		.loc 9 88 4 is_stmt 1 view .LVU133
  88:helloTest.cpp **** 			case Switch3::POS_DOWN: osc[0].set_freq_lfo(board.get_dual_control(freq_1)); break;
 559              		.loc 9 88 30 view .LVU134
 560              	.LBB345:
 561              	.LBB316:
 562              	.LBB310:
 563              	.LBB305:
 564              		.loc 8 40 26 is_stmt 0 view .LVU135
 565 0164 0346     		mov	r3, r0
 566              	.LBE305:
 567              	.LBE310:
 568              	.LBE316:
 569              	.LBE345:
  88:helloTest.cpp **** 			case Switch3::POS_DOWN: osc[0].set_freq_lfo(board.get_dual_control(freq_1)); break;
 570              		.loc 9 88 49 view .LVU136
 571 0166 0121     		movs	r1, #1
 572 0168 0B48     		ldr	r0, .L26
 573              	.LBB346:
 574              	.LBB317:
 575              	.LBB311:
 576              	.LBB306:
 577              		.loc 8 40 9 view .LVU137
 578 016a 2BB1     		cbz	r3, .L21
 579              	.LBE306:
 580              	.LBE311:
 581              	.LBE317:
 582              	.LBE346:
  88:helloTest.cpp **** 			case Switch3::POS_DOWN: osc[0].set_freq_lfo(board.get_dual_control(freq_1)); break;
 583              		.loc 9 88 49 view .LVU138
 584 016c FFF7FEFF 		bl	_ZN5daisy11daisyCommon16get_dual_controlEi
 585              	.LVL52:
 586 0170 0D48     		ldr	r0, .L26+16
 587 0172 FFF7FEFF 		bl	_ZN3fho12set_freq_linEf
 588              	.LVL53:
  88:helloTest.cpp **** 			case Switch3::POS_DOWN: osc[0].set_freq_lfo(board.get_dual_control(freq_1)); break;
 589              		.loc 9 88 83 is_stmt 1 view .LVU139
 590 0176 D9E7     		b	.L20
 591              	.L21:
 592              	.LBB347:
 593              	.LBB318:
 594              	.LBB312:
 595              	.LBB307:
  41:../../../../DaisyExamples/libDaisy//src/hid/switch3.h ****             return POS_DOWN;
 596              		.loc 8 41 13 view .LVU140
 597              	.LBE307:
 598              	.LBE312:
 599              	.LBE318:
 600              	.LBE347:
  89:helloTest.cpp **** 			/*case Switch3::POS_UP: osc[0].set_freq(65.41f); break;
 601              		.loc 9 89 4 view .LVU141
  89:helloTest.cpp **** 			/*case Switch3::POS_UP: osc[0].set_freq(65.41f); break;
 602              		.loc 9 89 28 view .LVU142
ARM GAS  C:\Users\samue\AppData\Local\Temp\ccTqPziZ.s 			page 22


  89:helloTest.cpp **** 			/*case Switch3::POS_UP: osc[0].set_freq(65.41f); break;
 603              		.loc 9 89 47 is_stmt 0 view .LVU143
 604 0178 0121     		movs	r1, #1
 605 017a 0748     		ldr	r0, .L26
 606 017c FFF7FEFF 		bl	_ZN5daisy11daisyCommon16get_dual_controlEi
 607              	.LVL54:
 608 0180 0948     		ldr	r0, .L26+16
 609 0182 FFF7FEFF 		bl	_ZN3fho12set_freq_lfoEf
 610              	.LVL55:
  89:helloTest.cpp **** 			/*case Switch3::POS_UP: osc[0].set_freq(65.41f); break;
 611              		.loc 9 89 81 is_stmt 1 view .LVU144
 612 0186 D1E7     		b	.L20
 613              	.L23:
 614              	.LBB348:
 615              	.LBB339:
 616              	.LBB334:
 617              	.LBB329:
 618              		.loc 8 41 13 view .LVU145
 619              	.LBE329:
 620              	.LBE334:
 621              	.LBE339:
 622              	.LBE348:
  99:helloTest.cpp **** 			case Switch3::POS_DOWN: osc[1].set_freq_lfo(board.get_dual_control(freq_2)); break;
 623              		.loc 9 99 4 view .LVU146
 624              		.loc 9 99 28 view .LVU147
 625              		.loc 9 99 47 is_stmt 0 view .LVU148
 626 0188 0521     		movs	r1, #5
 627 018a 0348     		ldr	r0, .L26
 628 018c FFF7FEFF 		bl	_ZN5daisy11daisyCommon16get_dual_controlEi
 629              	.LVL56:
 630 0190 0648     		ldr	r0, .L26+20
 631 0192 FFF7FEFF 		bl	_ZN3fho12set_freq_lfoEf
 632              	.LVL57:
 633              		.loc 9 99 81 is_stmt 1 view .LVU149
 634 0196 84E7     		b	.L18
 635              	.L27:
 636              		.align	2
 637              	.L26:
 638 0198 00000000 		.word	.LANCHOR1
 639 019c 00000000 		.word	.LANCHOR2
 640 01a0 68010000 		.word	.LANCHOR1+360
 641 01a4 00000000 		.word	_Z13AudioCallbackPKPKfPPfj
 642 01a8 00000000 		.word	.LANCHOR0
 643 01ac B4010000 		.word	.LANCHOR0+436
 644 01b0 44010000 		.word	.LANCHOR1+324
 645 01b4 48010000 		.word	.LANCHOR1+328
 646 01b8 4C010000 		.word	.LANCHOR1+332
 647 01bc 50010000 		.word	.LANCHOR1+336
 648              	.LBE298:
 649              		.cfi_endproc
 650              	.LFE4694:
 652              		.section	.text.startup._GLOBAL__sub_I_loadMeter,"ax",%progbits
 653              		.align	1
 654              		.p2align 2,,3
 655              		.syntax unified
 656              		.thumb
 657              		.thumb_func
ARM GAS  C:\Users\samue\AppData\Local\Temp\ccTqPziZ.s 			page 23


 658              		.fpu fpv5-d16
 660              	_GLOBAL__sub_I_loadMeter:
 661              	.LFB5261:
 100:helloTest.cpp **** 		}
 101:helloTest.cpp **** 		//System::Delay(500);
 102:helloTest.cpp **** 		//board.seed.PrintLine("tail");
 103:helloTest.cpp **** 	}
 104:helloTest.cpp **** }...
 662              		.loc 9 104 1 view -0
 663              		.cfi_startproc
 664              		@ args = 0, pretend = 0, frame = 0
 665              		@ frame_needed = 0, uses_anonymous_args = 0
 666              	.LBB523:
 667              	.LBI523:
 668              		.loc 9 104 1 view .LVU151
 669              	.LVL58:
 670              	.LBB524:
 671              	.LBB525:
 672              	.LBI525:
 673              		.file 10 "../../../../DaisyExamples/libDaisy//src/util/CpuLoadMeter.h"
   1:../../../../DaisyExamples/libDaisy//src/util/CpuLoadMeter.h **** #pragma once
   2:../../../../DaisyExamples/libDaisy//src/util/CpuLoadMeter.h **** 
   3:../../../../DaisyExamples/libDaisy//src/util/CpuLoadMeter.h **** #include "sys/system.h"
   4:../../../../DaisyExamples/libDaisy//src/util/CpuLoadMeter.h **** #include <cmath>
   5:../../../../DaisyExamples/libDaisy//src/util/CpuLoadMeter.h **** 
   6:../../../../DaisyExamples/libDaisy//src/util/CpuLoadMeter.h **** namespace daisy
   7:../../../../DaisyExamples/libDaisy//src/util/CpuLoadMeter.h **** {
   8:../../../../DaisyExamples/libDaisy//src/util/CpuLoadMeter.h **** /** @brief CPU load metering
   9:../../../../DaisyExamples/libDaisy//src/util/CpuLoadMeter.h ****  *  @author jelliesen
  10:../../../../DaisyExamples/libDaisy//src/util/CpuLoadMeter.h ****  *  @addtogroup utility
  11:../../../../DaisyExamples/libDaisy//src/util/CpuLoadMeter.h ****  * 
  12:../../../../DaisyExamples/libDaisy//src/util/CpuLoadMeter.h ****  *  To measure the CPU load of your audio processing, create a CpuLoadMeter
  13:../../../../DaisyExamples/libDaisy//src/util/CpuLoadMeter.h ****  *  and initialize it with your block size and sample rate.
  14:../../../../DaisyExamples/libDaisy//src/util/CpuLoadMeter.h ****  *  Then at the beginning of the audio callback, call `OnBlockStart()`, 
  15:../../../../DaisyExamples/libDaisy//src/util/CpuLoadMeter.h ****  *  and at the end of the audio callback, call `OnBlockEnd()`.
  16:../../../../DaisyExamples/libDaisy//src/util/CpuLoadMeter.h ****  *  You can then read out the minimum, maximum and average CPU load.
  17:../../../../DaisyExamples/libDaisy//src/util/CpuLoadMeter.h ****  */
  18:../../../../DaisyExamples/libDaisy//src/util/CpuLoadMeter.h **** class CpuLoadMeter
  19:../../../../DaisyExamples/libDaisy//src/util/CpuLoadMeter.h **** {
  20:../../../../DaisyExamples/libDaisy//src/util/CpuLoadMeter.h ****   public:
  21:../../../../DaisyExamples/libDaisy//src/util/CpuLoadMeter.h ****     CpuLoadMeter(){};
 674              		.loc 10 21 5 view .LVU152
 675              		.loc 10 21 5 is_stmt 0 view .LVU153
 676              	.LBE525:
 677              	.LBB526:
 678              	.LBI526:
  24:daisy_common.h ****     ~daisyCommon() {}
 679              		.loc 1 24 5 is_stmt 1 view .LVU154
 680              	.LBB527:
 681              	.LBB528:
 682              	.LBB529:
 683              	.LBI529:
 684              		.file 11 "../../../../DaisyExamples/libDaisy//src/per/gpio.h"
   1:../../../../DaisyExamples/libDaisy//src/per/gpio.h **** #pragma once
   2:../../../../DaisyExamples/libDaisy//src/per/gpio.h **** #ifndef DSY_GPIO_H
   3:../../../../DaisyExamples/libDaisy//src/per/gpio.h **** #define DSY_GPIO_H
   4:../../../../DaisyExamples/libDaisy//src/per/gpio.h **** #include "daisy_core.h"
ARM GAS  C:\Users\samue\AppData\Local\Temp\ccTqPziZ.s 			page 24


   5:../../../../DaisyExamples/libDaisy//src/per/gpio.h **** 
   6:../../../../DaisyExamples/libDaisy//src/per/gpio.h **** #ifdef __cplusplus
   7:../../../../DaisyExamples/libDaisy//src/per/gpio.h **** 
   8:../../../../DaisyExamples/libDaisy//src/per/gpio.h **** namespace daisy
   9:../../../../DaisyExamples/libDaisy//src/per/gpio.h **** {
  10:../../../../DaisyExamples/libDaisy//src/per/gpio.h **** /** @brief General Purpose I/O control 
  11:../../../../DaisyExamples/libDaisy//src/per/gpio.h ****  *  @details peripheral control over a single GPIO
  12:../../../../DaisyExamples/libDaisy//src/per/gpio.h ****  *  @ingroup peripheral
  13:../../../../DaisyExamples/libDaisy//src/per/gpio.h ****  *   
  14:../../../../DaisyExamples/libDaisy//src/per/gpio.h ****  *  Button Input (with internal Pullup resistor)
  15:../../../../DaisyExamples/libDaisy//src/per/gpio.h ****  *  @include GPIO_Input.cpp 
  16:../../../../DaisyExamples/libDaisy//src/per/gpio.h ****  * 
  17:../../../../DaisyExamples/libDaisy//src/per/gpio.h ****  *  Output Example (perfect for blinking an LED)
  18:../../../../DaisyExamples/libDaisy//src/per/gpio.h ****  *  @include GPIO_Output.cpp
  19:../../../../DaisyExamples/libDaisy//src/per/gpio.h ****  * 
  20:../../../../DaisyExamples/libDaisy//src/per/gpio.h **** */
  21:../../../../DaisyExamples/libDaisy//src/per/gpio.h **** class GPIO
  22:../../../../DaisyExamples/libDaisy//src/per/gpio.h **** {
  23:../../../../DaisyExamples/libDaisy//src/per/gpio.h ****   public:
  24:../../../../DaisyExamples/libDaisy//src/per/gpio.h ****     /** @brief Mode of operation for the specified GPIO */
  25:../../../../DaisyExamples/libDaisy//src/per/gpio.h ****     enum class Mode
  26:../../../../DaisyExamples/libDaisy//src/per/gpio.h ****     {
  27:../../../../DaisyExamples/libDaisy//src/per/gpio.h ****         INPUT,     /**< Input for reading state of pin */
  28:../../../../DaisyExamples/libDaisy//src/per/gpio.h ****         OUTPUT,    /**< Output w/ push-pull configuration */
  29:../../../../DaisyExamples/libDaisy//src/per/gpio.h ****         OUTPUT_OD, /**< Output w/ open-drain configuration */
  30:../../../../DaisyExamples/libDaisy//src/per/gpio.h ****         ANALOG,    /**< Analog for connection to ADC or DAC peripheral */
  31:../../../../DaisyExamples/libDaisy//src/per/gpio.h ****     };
  32:../../../../DaisyExamples/libDaisy//src/per/gpio.h **** 
  33:../../../../DaisyExamples/libDaisy//src/per/gpio.h ****     /** @brief Configures whether an internal Pull up or Pull down resistor is used. 
  34:../../../../DaisyExamples/libDaisy//src/per/gpio.h ****      *  
  35:../../../../DaisyExamples/libDaisy//src/per/gpio.h ****      * Internal Pull up/down resistors are typically 40k ohms, and will be between
  36:../../../../DaisyExamples/libDaisy//src/per/gpio.h ****      * 30k and 50k
  37:../../../../DaisyExamples/libDaisy//src/per/gpio.h ****      * 
  38:../../../../DaisyExamples/libDaisy//src/per/gpio.h ****      * When the Pin is configured in Analog mode, the pull up/down resistors are
  39:../../../../DaisyExamples/libDaisy//src/per/gpio.h ****      * disabled by hardware. 
  40:../../../../DaisyExamples/libDaisy//src/per/gpio.h ****      */
  41:../../../../DaisyExamples/libDaisy//src/per/gpio.h ****     enum class Pull
  42:../../../../DaisyExamples/libDaisy//src/per/gpio.h ****     {
  43:../../../../DaisyExamples/libDaisy//src/per/gpio.h ****         NOPULL,   /**< No pull up resistor */
  44:../../../../DaisyExamples/libDaisy//src/per/gpio.h ****         PULLUP,   /**< Internal pull up enabled */
  45:../../../../DaisyExamples/libDaisy//src/per/gpio.h ****         PULLDOWN, /**< Internal pull down enabled*/
  46:../../../../DaisyExamples/libDaisy//src/per/gpio.h ****     };
  47:../../../../DaisyExamples/libDaisy//src/per/gpio.h **** 
  48:../../../../DaisyExamples/libDaisy//src/per/gpio.h ****     /** @brief Output speed controls the drive strength, and slew rate of the pin */
  49:../../../../DaisyExamples/libDaisy//src/per/gpio.h ****     enum class Speed
  50:../../../../DaisyExamples/libDaisy//src/per/gpio.h ****     {
  51:../../../../DaisyExamples/libDaisy//src/per/gpio.h ****         LOW,
  52:../../../../DaisyExamples/libDaisy//src/per/gpio.h ****         MEDIUM,
  53:../../../../DaisyExamples/libDaisy//src/per/gpio.h ****         HIGH,
  54:../../../../DaisyExamples/libDaisy//src/per/gpio.h ****         VERY_HIGH,
  55:../../../../DaisyExamples/libDaisy//src/per/gpio.h ****     };
  56:../../../../DaisyExamples/libDaisy//src/per/gpio.h **** 
  57:../../../../DaisyExamples/libDaisy//src/per/gpio.h ****     /** @brief Configuration for a given GPIO */
  58:../../../../DaisyExamples/libDaisy//src/per/gpio.h ****     struct Config
  59:../../../../DaisyExamples/libDaisy//src/per/gpio.h ****     {
  60:../../../../DaisyExamples/libDaisy//src/per/gpio.h ****         Pin   pin;
  61:../../../../DaisyExamples/libDaisy//src/per/gpio.h ****         Mode  mode;
ARM GAS  C:\Users\samue\AppData\Local\Temp\ccTqPziZ.s 			page 25


  62:../../../../DaisyExamples/libDaisy//src/per/gpio.h ****         Pull  pull;
  63:../../../../DaisyExamples/libDaisy//src/per/gpio.h ****         Speed speed;
  64:../../../../DaisyExamples/libDaisy//src/per/gpio.h **** 
  65:../../../../DaisyExamples/libDaisy//src/per/gpio.h ****         /** Constructor with no arguments will prepare an invalid GPIO set as
  66:../../../../DaisyExamples/libDaisy//src/per/gpio.h ****          *  an input, with no pullup. 
  67:../../../../DaisyExamples/libDaisy//src/per/gpio.h ****          */
  68:../../../../DaisyExamples/libDaisy//src/per/gpio.h ****         Config()
  69:../../../../DaisyExamples/libDaisy//src/per/gpio.h ****         : pin(), mode(Mode::INPUT), pull(Pull::NOPULL), speed(Speed::LOW)
  70:../../../../DaisyExamples/libDaisy//src/per/gpio.h ****         {
  71:../../../../DaisyExamples/libDaisy//src/per/gpio.h ****         }
  72:../../../../DaisyExamples/libDaisy//src/per/gpio.h ****     };
  73:../../../../DaisyExamples/libDaisy//src/per/gpio.h **** 
  74:../../../../DaisyExamples/libDaisy//src/per/gpio.h ****     GPIO() {}
 685              		.loc 11 74 5 view .LVU155
 686              	.LBB530:
 687              	.LBB531:
 688              	.LBI531:
  68:../../../../DaisyExamples/libDaisy//src/per/gpio.h ****         : pin(), mode(Mode::INPUT), pull(Pull::NOPULL), speed(Speed::LOW)
 689              		.loc 11 68 9 view .LVU156
 690              	.LBB532:
 691              	.LBB533:
 692              	.LBB534:
 693              	.LBI534:
 694              		.file 12 "../../../../DaisyExamples/libDaisy//src/daisy_core.h"
   1:../../../../DaisyExamples/libDaisy//src/daisy_core.h **** #pragma once
   2:../../../../DaisyExamples/libDaisy//src/daisy_core.h **** #ifndef DSY_CORE_HW_H
   3:../../../../DaisyExamples/libDaisy//src/daisy_core.h **** #define DSY_CORE_HW_H /**< & */
   4:../../../../DaisyExamples/libDaisy//src/daisy_core.h **** #include <stdint.h>
   5:../../../../DaisyExamples/libDaisy//src/daisy_core.h **** #include <stdlib.h>
   6:../../../../DaisyExamples/libDaisy//src/daisy_core.h **** 
   7:../../../../DaisyExamples/libDaisy//src/daisy_core.h **** #if defined(_MSC_VER)
   8:../../../../DaisyExamples/libDaisy//src/daisy_core.h **** #define FORCE_INLINE __forceinline /**< & */
   9:../../../../DaisyExamples/libDaisy//src/daisy_core.h **** #elif defined(__clang__)
  10:../../../../DaisyExamples/libDaisy//src/daisy_core.h **** #define FORCE_INLINE inline __attribute__((always_inline)) /**< & */
  11:../../../../DaisyExamples/libDaisy//src/daisy_core.h **** #pragma clang diagnostic ignored "-Wduplicate-decl-specifier"
  12:../../../../DaisyExamples/libDaisy//src/daisy_core.h **** #elif defined(__GNUC__)
  13:../../../../DaisyExamples/libDaisy//src/daisy_core.h **** #define FORCE_INLINE inline __attribute__((always_inline)) /**< & */
  14:../../../../DaisyExamples/libDaisy//src/daisy_core.h **** #else
  15:../../../../DaisyExamples/libDaisy//src/daisy_core.h **** #error unknown compiler
  16:../../../../DaisyExamples/libDaisy//src/daisy_core.h **** #endif
  17:../../../../DaisyExamples/libDaisy//src/daisy_core.h **** 
  18:../../../../DaisyExamples/libDaisy//src/daisy_core.h **** /** @addtogroup utility
  19:../../../../DaisyExamples/libDaisy//src/daisy_core.h ****     @{
  20:../../../../DaisyExamples/libDaisy//src/daisy_core.h **** */
  21:../../../../DaisyExamples/libDaisy//src/daisy_core.h **** 
  22:../../../../DaisyExamples/libDaisy//src/daisy_core.h **** /** Macro for area of memory that is configured as cacheless
  23:../../../../DaisyExamples/libDaisy//src/daisy_core.h **** This should be used primarily for DMA buffers, and the like.
  24:../../../../DaisyExamples/libDaisy//src/daisy_core.h **** */
  25:../../../../DaisyExamples/libDaisy//src/daisy_core.h **** #define DMA_BUFFER_MEM_SECTION __attribute__((section(".sram1_bss")))
  26:../../../../DaisyExamples/libDaisy//src/daisy_core.h **** /** 
  27:../../../../DaisyExamples/libDaisy//src/daisy_core.h **** THE DTCM RAM section is also non-cached. However, is not suitable 
  28:../../../../DaisyExamples/libDaisy//src/daisy_core.h **** for DMA transfers. Performance is on par with internal SRAM w/ 
  29:../../../../DaisyExamples/libDaisy//src/daisy_core.h **** cache enabled.
  30:../../../../DaisyExamples/libDaisy//src/daisy_core.h **** */
  31:../../../../DaisyExamples/libDaisy//src/daisy_core.h **** #define DTCM_MEM_SECTION __attribute__((section(".dtcmram_bss")))
  32:../../../../DaisyExamples/libDaisy//src/daisy_core.h **** 
  33:../../../../DaisyExamples/libDaisy//src/daisy_core.h **** #define FBIPMAX 0.999985f             /**< close to 1.0f-LSB at 16 bit */
ARM GAS  C:\Users\samue\AppData\Local\Temp\ccTqPziZ.s 			page 26


  34:../../../../DaisyExamples/libDaisy//src/daisy_core.h **** #define FBIPMIN (-FBIPMAX)            /**< - (1 - LSB) */
  35:../../../../DaisyExamples/libDaisy//src/daisy_core.h **** #define U82F_SCALE 0.0078740f         /**< 1 / 127 */
  36:../../../../DaisyExamples/libDaisy//src/daisy_core.h **** #define F2U8_SCALE 127.0f             /**< 128 - 1 */
  37:../../../../DaisyExamples/libDaisy//src/daisy_core.h **** #define S82F_SCALE 0.0078125f         /**< 1 / (2**7) */
  38:../../../../DaisyExamples/libDaisy//src/daisy_core.h **** #define F2S8_SCALE 127.0f             /**< (2 ** 7) - 1 */
  39:../../../../DaisyExamples/libDaisy//src/daisy_core.h **** #define S162F_SCALE 3.0517578125e-05f /**< 1 / (2** 15) */
  40:../../../../DaisyExamples/libDaisy//src/daisy_core.h **** #define F2S16_SCALE 32767.0f          /**< (2 ** 15) - 1 */
  41:../../../../DaisyExamples/libDaisy//src/daisy_core.h **** #define F2S24_SCALE 8388608.0f        /**< 2 ** 23 */
  42:../../../../DaisyExamples/libDaisy//src/daisy_core.h **** #define S242F_SCALE 1.192092896e-07f  /**< 1 / (2 ** 23) */
  43:../../../../DaisyExamples/libDaisy//src/daisy_core.h **** #define S24SIGN 0x800000              /**< 2 ** 23 */
  44:../../../../DaisyExamples/libDaisy//src/daisy_core.h **** #define S322F_SCALE 4.6566129e-10f    /**< 1 / (2** 31) */
  45:../../../../DaisyExamples/libDaisy//src/daisy_core.h **** #define F2S32_SCALE 2147483647.f      /**< (2 ** 31) - 1 */
  46:../../../../DaisyExamples/libDaisy//src/daisy_core.h **** 
  47:../../../../DaisyExamples/libDaisy//src/daisy_core.h **** 
  48:../../../../DaisyExamples/libDaisy//src/daisy_core.h **** /** shorthand macro for simplifying the reading of the left 
  49:../../../../DaisyExamples/libDaisy//src/daisy_core.h ****  *  channel of a non-interleaved output buffer named out */
  50:../../../../DaisyExamples/libDaisy//src/daisy_core.h **** #define OUT_L out[0]
  51:../../../../DaisyExamples/libDaisy//src/daisy_core.h **** 
  52:../../../../DaisyExamples/libDaisy//src/daisy_core.h **** /** shorthand macro for simplifying the reading of the right 
  53:../../../../DaisyExamples/libDaisy//src/daisy_core.h ****  *  channel of a non-interleaved output buffer named out */
  54:../../../../DaisyExamples/libDaisy//src/daisy_core.h **** #define OUT_R out[1]
  55:../../../../DaisyExamples/libDaisy//src/daisy_core.h **** 
  56:../../../../DaisyExamples/libDaisy//src/daisy_core.h **** /** shorthand macro for simplifying the reading of the left 
  57:../../../../DaisyExamples/libDaisy//src/daisy_core.h ****  *  channel of a non-interleaved input buffer named in */
  58:../../../../DaisyExamples/libDaisy//src/daisy_core.h **** #define IN_L in[0]
  59:../../../../DaisyExamples/libDaisy//src/daisy_core.h **** 
  60:../../../../DaisyExamples/libDaisy//src/daisy_core.h **** /** shorthand macro for simplifying the reading of the right 
  61:../../../../DaisyExamples/libDaisy//src/daisy_core.h ****  *  channel of a non-interleaved input buffer named in */
  62:../../../../DaisyExamples/libDaisy//src/daisy_core.h **** #define IN_R in[1]
  63:../../../../DaisyExamples/libDaisy//src/daisy_core.h **** 
  64:../../../../DaisyExamples/libDaisy//src/daisy_core.h **** /** 
  65:../../../../DaisyExamples/libDaisy//src/daisy_core.h ****     Computes cube.
  66:../../../../DaisyExamples/libDaisy//src/daisy_core.h ****     \param x Number to be cubed
  67:../../../../DaisyExamples/libDaisy//src/daisy_core.h ****     \return x ^ 3
  68:../../../../DaisyExamples/libDaisy//src/daisy_core.h **** */
  69:../../../../DaisyExamples/libDaisy//src/daisy_core.h **** FORCE_INLINE float cube(float x)
  70:../../../../DaisyExamples/libDaisy//src/daisy_core.h **** {
  71:../../../../DaisyExamples/libDaisy//src/daisy_core.h ****     return (x * x) * x;
  72:../../../../DaisyExamples/libDaisy//src/daisy_core.h **** }
  73:../../../../DaisyExamples/libDaisy//src/daisy_core.h **** 
  74:../../../../DaisyExamples/libDaisy//src/daisy_core.h **** /** 
  75:../../../../DaisyExamples/libDaisy//src/daisy_core.h ****     Converts unsigned 8-bit to float
  76:../../../../DaisyExamples/libDaisy//src/daisy_core.h ****     \param x Number to be scaled.
  77:../../../../DaisyExamples/libDaisy//src/daisy_core.h ****     \return Scaled number.
  78:../../../../DaisyExamples/libDaisy//src/daisy_core.h **** */
  79:../../../../DaisyExamples/libDaisy//src/daisy_core.h **** FORCE_INLINE float u82f(uint8_t x)
  80:../../../../DaisyExamples/libDaisy//src/daisy_core.h **** {
  81:../../../../DaisyExamples/libDaisy//src/daisy_core.h ****     return ((float)x - 127.f) * U82F_SCALE;
  82:../../../../DaisyExamples/libDaisy//src/daisy_core.h **** }
  83:../../../../DaisyExamples/libDaisy//src/daisy_core.h **** 
  84:../../../../DaisyExamples/libDaisy//src/daisy_core.h **** /**
  85:../../../../DaisyExamples/libDaisy//src/daisy_core.h ****     Converts float to unsigned 8-bit
  86:../../../../DaisyExamples/libDaisy//src/daisy_core.h **** */
  87:../../../../DaisyExamples/libDaisy//src/daisy_core.h **** FORCE_INLINE uint8_t f2u8(float x)
  88:../../../../DaisyExamples/libDaisy//src/daisy_core.h **** {
  89:../../../../DaisyExamples/libDaisy//src/daisy_core.h ****     x = x <= FBIPMIN ? FBIPMIN : x;
  90:../../../../DaisyExamples/libDaisy//src/daisy_core.h ****     x = x >= FBIPMAX ? FBIPMAX : x;
ARM GAS  C:\Users\samue\AppData\Local\Temp\ccTqPziZ.s 			page 27


  91:../../../../DaisyExamples/libDaisy//src/daisy_core.h ****     return (uint8_t)((x * F2U8_SCALE) + F2U8_SCALE);
  92:../../../../DaisyExamples/libDaisy//src/daisy_core.h **** }
  93:../../../../DaisyExamples/libDaisy//src/daisy_core.h **** 
  94:../../../../DaisyExamples/libDaisy//src/daisy_core.h **** 
  95:../../../../DaisyExamples/libDaisy//src/daisy_core.h **** /** 
  96:../../../../DaisyExamples/libDaisy//src/daisy_core.h ****     Converts Signed 8-bit to float
  97:../../../../DaisyExamples/libDaisy//src/daisy_core.h ****     \param x Number to be scaled.
  98:../../../../DaisyExamples/libDaisy//src/daisy_core.h ****     \return Scaled number.
  99:../../../../DaisyExamples/libDaisy//src/daisy_core.h **** */
 100:../../../../DaisyExamples/libDaisy//src/daisy_core.h **** FORCE_INLINE float s82f(int8_t x)
 101:../../../../DaisyExamples/libDaisy//src/daisy_core.h **** {
 102:../../../../DaisyExamples/libDaisy//src/daisy_core.h ****     return (float)x * S82F_SCALE;
 103:../../../../DaisyExamples/libDaisy//src/daisy_core.h **** }
 104:../../../../DaisyExamples/libDaisy//src/daisy_core.h **** 
 105:../../../../DaisyExamples/libDaisy//src/daisy_core.h **** /**
 106:../../../../DaisyExamples/libDaisy//src/daisy_core.h ****     Converts float to Signed 8-bit
 107:../../../../DaisyExamples/libDaisy//src/daisy_core.h **** */
 108:../../../../DaisyExamples/libDaisy//src/daisy_core.h **** FORCE_INLINE int8_t f2s8(float x)
 109:../../../../DaisyExamples/libDaisy//src/daisy_core.h **** {
 110:../../../../DaisyExamples/libDaisy//src/daisy_core.h ****     x = x <= FBIPMIN ? FBIPMIN : x;
 111:../../../../DaisyExamples/libDaisy//src/daisy_core.h ****     x = x >= FBIPMAX ? FBIPMAX : x;
 112:../../../../DaisyExamples/libDaisy//src/daisy_core.h ****     return (int32_t)(x * F2S8_SCALE);
 113:../../../../DaisyExamples/libDaisy//src/daisy_core.h **** }
 114:../../../../DaisyExamples/libDaisy//src/daisy_core.h **** 
 115:../../../../DaisyExamples/libDaisy//src/daisy_core.h **** /** 
 116:../../../../DaisyExamples/libDaisy//src/daisy_core.h ****     Converts Signed 16-bit to float
 117:../../../../DaisyExamples/libDaisy//src/daisy_core.h ****     \param x Number to be scaled.
 118:../../../../DaisyExamples/libDaisy//src/daisy_core.h ****     \return Scaled number.
 119:../../../../DaisyExamples/libDaisy//src/daisy_core.h **** */
 120:../../../../DaisyExamples/libDaisy//src/daisy_core.h **** FORCE_INLINE float s162f(int16_t x)
 121:../../../../DaisyExamples/libDaisy//src/daisy_core.h **** {
 122:../../../../DaisyExamples/libDaisy//src/daisy_core.h ****     return (float)x * S162F_SCALE;
 123:../../../../DaisyExamples/libDaisy//src/daisy_core.h **** }
 124:../../../../DaisyExamples/libDaisy//src/daisy_core.h **** 
 125:../../../../DaisyExamples/libDaisy//src/daisy_core.h **** /**
 126:../../../../DaisyExamples/libDaisy//src/daisy_core.h ****     Converts float to Signed 16-bit
 127:../../../../DaisyExamples/libDaisy//src/daisy_core.h **** */
 128:../../../../DaisyExamples/libDaisy//src/daisy_core.h **** FORCE_INLINE int16_t f2s16(float x)
 129:../../../../DaisyExamples/libDaisy//src/daisy_core.h **** {
 130:../../../../DaisyExamples/libDaisy//src/daisy_core.h ****     x = x <= FBIPMIN ? FBIPMIN : x;
 131:../../../../DaisyExamples/libDaisy//src/daisy_core.h ****     x = x >= FBIPMAX ? FBIPMAX : x;
 132:../../../../DaisyExamples/libDaisy//src/daisy_core.h ****     return (int32_t)(x * F2S16_SCALE);
 133:../../../../DaisyExamples/libDaisy//src/daisy_core.h **** }
 134:../../../../DaisyExamples/libDaisy//src/daisy_core.h **** 
 135:../../../../DaisyExamples/libDaisy//src/daisy_core.h **** /**
 136:../../../../DaisyExamples/libDaisy//src/daisy_core.h ****     Converts Signed 24-bit to float
 137:../../../../DaisyExamples/libDaisy//src/daisy_core.h ****  */
 138:../../../../DaisyExamples/libDaisy//src/daisy_core.h **** FORCE_INLINE float s242f(int32_t x)
 139:../../../../DaisyExamples/libDaisy//src/daisy_core.h **** {
 140:../../../../DaisyExamples/libDaisy//src/daisy_core.h ****     x = (x ^ S24SIGN) - S24SIGN; //sign extend aka ((x<<8)>>8)
 141:../../../../DaisyExamples/libDaisy//src/daisy_core.h ****     return (float)x * S242F_SCALE;
 142:../../../../DaisyExamples/libDaisy//src/daisy_core.h **** }
 143:../../../../DaisyExamples/libDaisy//src/daisy_core.h **** /**
 144:../../../../DaisyExamples/libDaisy//src/daisy_core.h ****     Converts float to Signed 24-bit
 145:../../../../DaisyExamples/libDaisy//src/daisy_core.h ****  */
 146:../../../../DaisyExamples/libDaisy//src/daisy_core.h **** FORCE_INLINE int32_t f2s24(float x)
 147:../../../../DaisyExamples/libDaisy//src/daisy_core.h **** {
ARM GAS  C:\Users\samue\AppData\Local\Temp\ccTqPziZ.s 			page 28


 148:../../../../DaisyExamples/libDaisy//src/daisy_core.h ****     x = x <= FBIPMIN ? FBIPMIN : x;
 149:../../../../DaisyExamples/libDaisy//src/daisy_core.h ****     x = x >= FBIPMAX ? FBIPMAX : x;
 150:../../../../DaisyExamples/libDaisy//src/daisy_core.h ****     return (int32_t)(x * F2S24_SCALE);
 151:../../../../DaisyExamples/libDaisy//src/daisy_core.h **** }
 152:../../../../DaisyExamples/libDaisy//src/daisy_core.h **** 
 153:../../../../DaisyExamples/libDaisy//src/daisy_core.h **** /**
 154:../../../../DaisyExamples/libDaisy//src/daisy_core.h ****     Converts Signed 32-bit to float
 155:../../../../DaisyExamples/libDaisy//src/daisy_core.h ****  */
 156:../../../../DaisyExamples/libDaisy//src/daisy_core.h **** FORCE_INLINE float s322f(int32_t x)
 157:../../../../DaisyExamples/libDaisy//src/daisy_core.h **** {
 158:../../../../DaisyExamples/libDaisy//src/daisy_core.h ****     return (float)x * S322F_SCALE;
 159:../../../../DaisyExamples/libDaisy//src/daisy_core.h **** }
 160:../../../../DaisyExamples/libDaisy//src/daisy_core.h **** /**
 161:../../../../DaisyExamples/libDaisy//src/daisy_core.h ****     Converts float to Signed 24-bit
 162:../../../../DaisyExamples/libDaisy//src/daisy_core.h ****  */
 163:../../../../DaisyExamples/libDaisy//src/daisy_core.h **** FORCE_INLINE int32_t f2s32(float x)
 164:../../../../DaisyExamples/libDaisy//src/daisy_core.h **** {
 165:../../../../DaisyExamples/libDaisy//src/daisy_core.h ****     x = x <= FBIPMIN ? FBIPMIN : x;
 166:../../../../DaisyExamples/libDaisy//src/daisy_core.h ****     x = x >= FBIPMAX ? FBIPMAX : x;
 167:../../../../DaisyExamples/libDaisy//src/daisy_core.h ****     return (int32_t)(x * F2S32_SCALE);
 168:../../../../DaisyExamples/libDaisy//src/daisy_core.h **** }
 169:../../../../DaisyExamples/libDaisy//src/daisy_core.h **** 
 170:../../../../DaisyExamples/libDaisy//src/daisy_core.h **** 
 171:../../../../DaisyExamples/libDaisy//src/daisy_core.h **** /** Enums and a simple struct for defining a hardware pin on the MCU
 172:../../../../DaisyExamples/libDaisy//src/daisy_core.h ****  *  These correlate with the stm32 datasheet, and are used to configure
 173:../../../../DaisyExamples/libDaisy//src/daisy_core.h ****  *  the hardware.
 174:../../../../DaisyExamples/libDaisy//src/daisy_core.h ****  * 
 175:../../../../DaisyExamples/libDaisy//src/daisy_core.h ****  *  This along with the dsy_gpio_pin class should no longer be used.
 176:../../../../DaisyExamples/libDaisy//src/daisy_core.h ****  *  They are available for backwards compatability. 
 177:../../../../DaisyExamples/libDaisy//src/daisy_core.h ****  * 
 178:../../../../DaisyExamples/libDaisy//src/daisy_core.h ****  *  Please use GPIOPort enum and the Pin struct instead.
 179:../../../../DaisyExamples/libDaisy//src/daisy_core.h ****  */
 180:../../../../DaisyExamples/libDaisy//src/daisy_core.h **** typedef enum
 181:../../../../DaisyExamples/libDaisy//src/daisy_core.h **** {
 182:../../../../DaisyExamples/libDaisy//src/daisy_core.h ****     DSY_GPIOA, /**< & */
 183:../../../../DaisyExamples/libDaisy//src/daisy_core.h ****     DSY_GPIOB, /**< & */
 184:../../../../DaisyExamples/libDaisy//src/daisy_core.h ****     DSY_GPIOC, /**< & */
 185:../../../../DaisyExamples/libDaisy//src/daisy_core.h ****     DSY_GPIOD, /**< & */
 186:../../../../DaisyExamples/libDaisy//src/daisy_core.h ****     DSY_GPIOE, /**< & */
 187:../../../../DaisyExamples/libDaisy//src/daisy_core.h ****     DSY_GPIOF, /**< & */
 188:../../../../DaisyExamples/libDaisy//src/daisy_core.h ****     DSY_GPIOG, /**< & */
 189:../../../../DaisyExamples/libDaisy//src/daisy_core.h ****     DSY_GPIOH, /**< & */
 190:../../../../DaisyExamples/libDaisy//src/daisy_core.h ****     DSY_GPIOI, /**< & */
 191:../../../../DaisyExamples/libDaisy//src/daisy_core.h ****     DSY_GPIOJ, /**< & */
 192:../../../../DaisyExamples/libDaisy//src/daisy_core.h ****     DSY_GPIOK, /**< & */
 193:../../../../DaisyExamples/libDaisy//src/daisy_core.h ****     DSY_GPIOX, /** This is a non-existant port for unsupported bits of hardware. */
 194:../../../../DaisyExamples/libDaisy//src/daisy_core.h ****     DSY_GPIO_LAST, /** Final enum member */
 195:../../../../DaisyExamples/libDaisy//src/daisy_core.h **** } dsy_gpio_port;
 196:../../../../DaisyExamples/libDaisy//src/daisy_core.h **** 
 197:../../../../DaisyExamples/libDaisy//src/daisy_core.h **** /** Hardware define pins 
 198:../../../../DaisyExamples/libDaisy//src/daisy_core.h ****  *  
 199:../../../../DaisyExamples/libDaisy//src/daisy_core.h ****  *  The dsy_gpio_pin struct should no longer be used, and is only available for
 200:../../../../DaisyExamples/libDaisy//src/daisy_core.h ****  *  backwards compatability.
 201:../../../../DaisyExamples/libDaisy//src/daisy_core.h ****  * 
 202:../../../../DaisyExamples/libDaisy//src/daisy_core.h ****  *  Please use Pin struct instead.
 203:../../../../DaisyExamples/libDaisy//src/daisy_core.h ****  */
 204:../../../../DaisyExamples/libDaisy//src/daisy_core.h **** typedef struct
ARM GAS  C:\Users\samue\AppData\Local\Temp\ccTqPziZ.s 			page 29


 205:../../../../DaisyExamples/libDaisy//src/daisy_core.h **** {
 206:../../../../DaisyExamples/libDaisy//src/daisy_core.h ****     dsy_gpio_port port; /**< & */
 207:../../../../DaisyExamples/libDaisy//src/daisy_core.h ****     uint8_t       pin;  /**< number 0-15 */
 208:../../../../DaisyExamples/libDaisy//src/daisy_core.h **** } dsy_gpio_pin;
 209:../../../../DaisyExamples/libDaisy//src/daisy_core.h **** 
 210:../../../../DaisyExamples/libDaisy//src/daisy_core.h **** /** Helper for creating pins from port/pin combos easily
 211:../../../../DaisyExamples/libDaisy//src/daisy_core.h ****  * 
 212:../../../../DaisyExamples/libDaisy//src/daisy_core.h ****  *  The dsy_gpio_pin struct should no longer be used, and is only available for
 213:../../../../DaisyExamples/libDaisy//src/daisy_core.h ****  *  backwards compatability.
 214:../../../../DaisyExamples/libDaisy//src/daisy_core.h ****  * 
 215:../../../../DaisyExamples/libDaisy//src/daisy_core.h ****  *  Please use Pin struct instead.
 216:../../../../DaisyExamples/libDaisy//src/daisy_core.h **** */
 217:../../../../DaisyExamples/libDaisy//src/daisy_core.h **** FORCE_INLINE dsy_gpio_pin dsy_pin(dsy_gpio_port port, uint8_t pin)
 218:../../../../DaisyExamples/libDaisy//src/daisy_core.h **** {
 219:../../../../DaisyExamples/libDaisy//src/daisy_core.h ****     dsy_gpio_pin p;
 220:../../../../DaisyExamples/libDaisy//src/daisy_core.h ****     p.port = port;
 221:../../../../DaisyExamples/libDaisy//src/daisy_core.h ****     p.pin  = pin;
 222:../../../../DaisyExamples/libDaisy//src/daisy_core.h ****     return p;
 223:../../../../DaisyExamples/libDaisy//src/daisy_core.h **** }
 224:../../../../DaisyExamples/libDaisy//src/daisy_core.h **** 
 225:../../../../DaisyExamples/libDaisy//src/daisy_core.h **** /** Helper for testing sameness of two dsy_gpio_pins
 226:../../../../DaisyExamples/libDaisy//src/daisy_core.h ****  *  \return    1 if same, 0 if different
 227:../../../../DaisyExamples/libDaisy//src/daisy_core.h ****  * 
 228:../../../../DaisyExamples/libDaisy//src/daisy_core.h ****  *  The dsy_gpio_pin struct should no longer be used, and is only available for
 229:../../../../DaisyExamples/libDaisy//src/daisy_core.h ****  *  backwards compatability.
 230:../../../../DaisyExamples/libDaisy//src/daisy_core.h ****  * 
 231:../../../../DaisyExamples/libDaisy//src/daisy_core.h ****  *  Please use Pin struct instead.
 232:../../../../DaisyExamples/libDaisy//src/daisy_core.h ****  */
 233:../../../../DaisyExamples/libDaisy//src/daisy_core.h **** FORCE_INLINE uint8_t dsy_pin_cmp(dsy_gpio_pin *a, dsy_gpio_pin *b)
 234:../../../../DaisyExamples/libDaisy//src/daisy_core.h **** {
 235:../../../../DaisyExamples/libDaisy//src/daisy_core.h ****     return ((a->port == b->port) && (a->pin == b->pin));
 236:../../../../DaisyExamples/libDaisy//src/daisy_core.h **** }
 237:../../../../DaisyExamples/libDaisy//src/daisy_core.h **** 
 238:../../../../DaisyExamples/libDaisy//src/daisy_core.h **** #ifdef __cplusplus
 239:../../../../DaisyExamples/libDaisy//src/daisy_core.h **** 
 240:../../../../DaisyExamples/libDaisy//src/daisy_core.h **** namespace daisy
 241:../../../../DaisyExamples/libDaisy//src/daisy_core.h **** {
 242:../../../../DaisyExamples/libDaisy//src/daisy_core.h **** /** @brief GPIO Port names */
 243:../../../../DaisyExamples/libDaisy//src/daisy_core.h **** enum GPIOPort
 244:../../../../DaisyExamples/libDaisy//src/daisy_core.h **** {
 245:../../../../DaisyExamples/libDaisy//src/daisy_core.h ****     PORTA, /**< Port A */
 246:../../../../DaisyExamples/libDaisy//src/daisy_core.h ****     PORTB, /**< Port B */
 247:../../../../DaisyExamples/libDaisy//src/daisy_core.h ****     PORTC, /**< Port C */
 248:../../../../DaisyExamples/libDaisy//src/daisy_core.h ****     PORTD, /**< Port D */
 249:../../../../DaisyExamples/libDaisy//src/daisy_core.h ****     PORTE, /**< Port E */
 250:../../../../DaisyExamples/libDaisy//src/daisy_core.h ****     PORTF, /**< Port F */
 251:../../../../DaisyExamples/libDaisy//src/daisy_core.h ****     PORTG, /**< Port G */
 252:../../../../DaisyExamples/libDaisy//src/daisy_core.h ****     PORTH, /**< Port H */
 253:../../../../DaisyExamples/libDaisy//src/daisy_core.h ****     PORTI, /**< Port I */
 254:../../../../DaisyExamples/libDaisy//src/daisy_core.h ****     PORTJ, /**< Port J */
 255:../../../../DaisyExamples/libDaisy//src/daisy_core.h ****     PORTK, /**< Port K */
 256:../../../../DaisyExamples/libDaisy//src/daisy_core.h ****     PORTX, /**< Used as a dummy port to signal an invalid pin. */
 257:../../../../DaisyExamples/libDaisy//src/daisy_core.h **** };
 258:../../../../DaisyExamples/libDaisy//src/daisy_core.h **** 
 259:../../../../DaisyExamples/libDaisy//src/daisy_core.h **** /** @brief representation of hardware port/pin combination */
 260:../../../../DaisyExamples/libDaisy//src/daisy_core.h **** struct Pin
 261:../../../../DaisyExamples/libDaisy//src/daisy_core.h **** {
ARM GAS  C:\Users\samue\AppData\Local\Temp\ccTqPziZ.s 			page 30


 262:../../../../DaisyExamples/libDaisy//src/daisy_core.h ****     GPIOPort port;
 263:../../../../DaisyExamples/libDaisy//src/daisy_core.h ****     uint8_t  pin;
 264:../../../../DaisyExamples/libDaisy//src/daisy_core.h **** 
 265:../../../../DaisyExamples/libDaisy//src/daisy_core.h ****     /** @brief Constructor creates a valid pin. 
 266:../../../../DaisyExamples/libDaisy//src/daisy_core.h ****      *  @param pt GPIOPort between PA, and PK corresponding to STM32 Port.
 267:../../../../DaisyExamples/libDaisy//src/daisy_core.h ****      *  @param pn pin number in range of 0-15
 268:../../../../DaisyExamples/libDaisy//src/daisy_core.h ****     */
 269:../../../../DaisyExamples/libDaisy//src/daisy_core.h ****     constexpr Pin(const GPIOPort pt, const uint8_t pn) : port(pt), pin(pn) {}
 270:../../../../DaisyExamples/libDaisy//src/daisy_core.h **** 
 271:../../../../DaisyExamples/libDaisy//src/daisy_core.h ****     /** @brief Basic Constructor creates an invalid Pin object */
 272:../../../../DaisyExamples/libDaisy//src/daisy_core.h ****     constexpr Pin() : port(PORTX), pin(255) {}
 695              		.loc 12 272 15 view .LVU157
 696              		.loc 12 272 15 is_stmt 0 view .LVU158
 697              	.LBE534:
 698              	.LBE533:
 699              	.LBE532:
 700              	.LBE531:
 701              	.LBE530:
 702              	.LBE529:
 703              	.LBB543:
 704              	.LBI543:
 705              		.loc 11 74 5 is_stmt 1 view .LVU159
 706              	.LBB544:
 707              	.LBB545:
 708              	.LBI545:
  68:../../../../DaisyExamples/libDaisy//src/per/gpio.h ****         : pin(), mode(Mode::INPUT), pull(Pull::NOPULL), speed(Speed::LOW)
 709              		.loc 11 68 9 view .LVU160
 710              	.LBB546:
 711              	.LBB547:
 712              	.LBB548:
 713              	.LBI548:
 714              		.loc 12 272 15 view .LVU161
 715              		.loc 12 272 15 is_stmt 0 view .LVU162
 716              	.LBE548:
 717              	.LBE547:
 718              	.LBE546:
 719              	.LBE545:
 720              	.LBE544:
 721              	.LBE543:
 722              	.LBB557:
 723              	.LBI557:
 724              		.loc 11 74 5 is_stmt 1 view .LVU163
 725              	.LBB558:
 726              	.LBB559:
 727              	.LBI559:
  68:../../../../DaisyExamples/libDaisy//src/per/gpio.h ****         : pin(), mode(Mode::INPUT), pull(Pull::NOPULL), speed(Speed::LOW)
 728              		.loc 11 68 9 view .LVU164
 729              	.LBB560:
 730              	.LBB561:
 731              	.LBB562:
 732              	.LBI562:
 733              		.loc 12 272 15 view .LVU165
 734              		.loc 12 272 15 is_stmt 0 view .LVU166
 735              	.LBE562:
 736              	.LBE561:
 737              	.LBE560:
 738              	.LBE559:
ARM GAS  C:\Users\samue\AppData\Local\Temp\ccTqPziZ.s 			page 31


 739              	.LBE558:
 740              	.LBE557:
 741              	.LBB571:
 742              	.LBI571:
 743              		.loc 11 74 5 is_stmt 1 view .LVU167
 744              	.LBB572:
 745              	.LBB573:
 746              	.LBI573:
  68:../../../../DaisyExamples/libDaisy//src/per/gpio.h ****         : pin(), mode(Mode::INPUT), pull(Pull::NOPULL), speed(Speed::LOW)
 747              		.loc 11 68 9 view .LVU168
 748              	.LBB574:
 749              	.LBB575:
 750              	.LBB576:
 751              	.LBI576:
 752              		.loc 12 272 15 view .LVU169
 753              		.loc 12 272 15 is_stmt 0 view .LVU170
 754              	.LBE576:
 755              	.LBE575:
 756              	.LBE574:
 757              	.LBE573:
 758              	.LBE572:
 759              	.LBE571:
 760              	.LBB585:
 761              	.LBI585:
 762              		.loc 11 74 5 is_stmt 1 view .LVU171
 763              	.LBB586:
 764              	.LBB587:
 765              	.LBI587:
  68:../../../../DaisyExamples/libDaisy//src/per/gpio.h ****         : pin(), mode(Mode::INPUT), pull(Pull::NOPULL), speed(Speed::LOW)
 766              		.loc 11 68 9 view .LVU172
 767              	.LBB588:
 768              	.LBB589:
 769              	.LBB590:
 770              	.LBI590:
 771              		.loc 12 272 15 view .LVU173
 772              		.loc 12 272 15 is_stmt 0 view .LVU174
 773              	.LBE590:
 774              	.LBE589:
 775              	.LBE588:
 776              	.LBE587:
 777              	.LBE586:
 778              	.LBE585:
 779              	.LBB599:
 780              	.LBI599:
 781              		.loc 11 74 5 is_stmt 1 view .LVU175
 782              	.LBB600:
 783              	.LBB601:
 784              	.LBI601:
  68:../../../../DaisyExamples/libDaisy//src/per/gpio.h ****         : pin(), mode(Mode::INPUT), pull(Pull::NOPULL), speed(Speed::LOW)
 785              		.loc 11 68 9 view .LVU176
 786              	.LBB602:
 787              	.LBB603:
 788              	.LBB604:
 789              	.LBI604:
 790              		.loc 12 272 15 view .LVU177
 791              		.loc 12 272 15 is_stmt 0 view .LVU178
 792              	.LBE604:
ARM GAS  C:\Users\samue\AppData\Local\Temp\ccTqPziZ.s 			page 32


 793              	.LBE603:
 794              	.LBE602:
 795              	.LBE601:
 796              	.LBE600:
 797              	.LBE599:
 798              	.LBB613:
 799              	.LBI613:
 800              		.loc 11 74 5 is_stmt 1 view .LVU179
 801              	.LBB614:
 802              	.LBB615:
 803              	.LBI615:
  68:../../../../DaisyExamples/libDaisy//src/per/gpio.h ****         : pin(), mode(Mode::INPUT), pull(Pull::NOPULL), speed(Speed::LOW)
 804              		.loc 11 68 9 view .LVU180
 805              	.LBB616:
 806              	.LBB617:
 807              	.LBB618:
 808              	.LBI618:
 809              		.loc 12 272 15 view .LVU181
 810              		.loc 12 272 15 is_stmt 0 view .LVU182
 811              	.LBE618:
 812              	.LBE617:
 813              	.LBE616:
 814              	.LBE615:
 815              	.LBE614:
 816              	.LBE613:
 817              	.LBB627:
 818              	.LBI627:
 819              		.loc 11 74 5 is_stmt 1 view .LVU183
 820              	.LBB628:
 821              	.LBB629:
 822              	.LBI629:
  68:../../../../DaisyExamples/libDaisy//src/per/gpio.h ****         : pin(), mode(Mode::INPUT), pull(Pull::NOPULL), speed(Speed::LOW)
 823              		.loc 11 68 9 view .LVU184
 824              	.LBB630:
 825              	.LBB631:
 826              	.LBB632:
 827              	.LBI632:
 828              		.loc 12 272 15 view .LVU185
 829              		.loc 12 272 15 is_stmt 0 view .LVU186
 830              	.LBE632:
 831              	.LBE631:
 832              	.LBE630:
 833              	.LBE629:
 834              	.LBE628:
 835              	.LBE627:
 836              	.LBE528:
  24:daisy_common.h ****     ~daisyCommon() {}
 837              		.loc 1 24 19 view .LVU187
 838 0000 4A48     		ldr	r0, .L30
 839 0002 4FF60B72 		movw	r2, #65291
 840              	.LBB806:
 841 0006 0521     		movs	r1, #5
 842              	.LBE806:
 843              	.LBE527:
 844              	.LBE526:
 845              	.LBE524:
 846              	.LBE523:
ARM GAS  C:\Users\samue\AppData\Local\Temp\ccTqPziZ.s 			page 33


 847              		.loc 9 104 1 view .LVU188
 848 0008 38B5     		push	{r3, r4, r5, lr}
 849              		.cfi_def_cfa_offset 16
 850              		.cfi_offset 3, -16
 851              		.cfi_offset 4, -12
 852              		.cfi_offset 5, -8
 853              		.cfi_offset 14, -4
 854              	.LBB857:
 855              	.LBB855:
 856              	.LBB813:
 857              	.LBB810:
 858              	.LBB807:
 859              	.LBB641:
 860              	.LBB541:
 861              	.LBB539:
 862              	.LBB537:
 863              	.LBB535:
  69:../../../../DaisyExamples/libDaisy//src/per/gpio.h ****         {
 864              		.loc 11 69 73 view .LVU189
 865 000a 0024     		movs	r4, #0
 866              	.LBE535:
 867              	.LBE537:
 868              	.LBE539:
 869              	.LBE541:
 870              	.LBE641:
  24:daisy_common.h ****     ~daisyCommon() {}
 871              		.loc 1 24 19 view .LVU190
 872 000c 4FF0FF33 		mov	r3, #-1
 873              	.LBE807:
 874              	.LBE810:
 875              	.LBE813:
 876              	.LBB814:
 877              	.LBB815:
 878              	.LBB816:
 879              		.file 13 "fho.h"
   1:fho.h         **** #include "daisysp.h"
   2:fho.h         **** using namespace daisysp;
   3:fho.h         **** 
   4:fho.h         **** /*
   5:fho.h         ****     Folding Hyperbolic Oscillator (FHO)
   6:fho.h         ****     Implements  Oscillator with wavefolding and distortion
   7:fho.h         **** */
   8:fho.h         **** 
   9:fho.h         **** class fho
  10:fho.h         **** {
  11:fho.h         ****     public:
  12:fho.h         ****     fho() {}
 880              		.loc 13 12 11 view .LVU191
 881 0010 1725     		movs	r5, #23
 882              	.LBE816:
 883              	.LBE815:
 884              	.LBE814:
 885              	.LBB849:
 886              	.LBB811:
  24:daisy_common.h ****     ~daisyCommon() {}
 887              		.loc 1 24 19 view .LVU192
 888 0012 C0E90124 		strd	r2, r4, [r0, #4]
ARM GAS  C:\Users\samue\AppData\Local\Temp\ccTqPziZ.s 			page 34


 889              	.LBB808:
 890              	.LBB642:
 891              	.LBB555:
 892              	.LBB553:
 893              	.LBB551:
 894              	.LBB549:
  69:../../../../DaisyExamples/libDaisy//src/per/gpio.h ****         {
 895              		.loc 11 69 73 view .LVU193
 896 0016 C0E90624 		strd	r2, r4, [r0, #24]
 897              	.LBE549:
 898              	.LBE551:
 899              	.LBE553:
 900              	.LBE555:
 901              	.LBE642:
 902              	.LBB643:
 903              	.LBB569:
 904              	.LBB567:
 905              	.LBB565:
 906              	.LBB563:
 907 001a C0E90B24 		strd	r2, r4, [r0, #44]
 908              	.LBE563:
 909              	.LBE565:
 910              	.LBE567:
 911              	.LBE569:
 912              	.LBE643:
 913              	.LBB644:
 914              	.LBB583:
 915              	.LBB581:
 916              	.LBB579:
 917              	.LBB577:
 918 001e C0E91024 		strd	r2, r4, [r0, #64]
 919              	.LBE577:
 920              	.LBE579:
 921              	.LBE581:
 922              	.LBE583:
 923              	.LBE644:
 924              	.LBB645:
 925              	.LBB597:
 926              	.LBB595:
 927              	.LBB593:
 928              	.LBB591:
 929 0022 C0E91524 		strd	r2, r4, [r0, #84]
 930              	.LBE591:
 931              	.LBE593:
 932              	.LBE595:
 933              	.LBE597:
 934              	.LBE645:
 935              	.LBB646:
 936              	.LBB611:
 937              	.LBB609:
 938              	.LBB607:
 939              	.LBB605:
 940 0026 C0E91A24 		strd	r2, r4, [r0, #104]
 941              	.LBE605:
 942              	.LBE607:
 943              	.LBE609:
 944              	.LBE611:
ARM GAS  C:\Users\samue\AppData\Local\Temp\ccTqPziZ.s 			page 35


 945              	.LBE646:
 946              	.LBB647:
 947              	.LBB625:
 948              	.LBB623:
 949              	.LBB621:
 950              	.LBB619:
 951 002a C0E91F24 		strd	r2, r4, [r0, #124]
 952              	.LBE619:
 953              	.LBE621:
 954              	.LBE623:
 955              	.LBE625:
 956              	.LBE647:
 957              	.LBB648:
 958              	.LBB639:
 959              	.LBB637:
 960              	.LBB635:
 961              	.LBB633:
 962 002e C0E92424 		strd	r2, r4, [r0, #144]
 963              	.LBE633:
 964              	.LBE635:
 965              	.LBE637:
 966              	.LBE639:
 967              	.LBE648:
 968              	.LBB649:
 969              	.LBB542:
 970              	.LBB540:
 971              	.LBB538:
 972              	.LBB536:
 973 0032 C0E90344 		strd	r4, r4, [r0, #12]
 974              	.LBE536:
 975              	.LBE538:
 976              	.LBE540:
 977              	.LBE542:
 978              	.LBE649:
 979              	.LBB650:
 980              	.LBB556:
 981              	.LBB554:
 982              	.LBB552:
 983              	.LBB550:
 984 0036 C0E90844 		strd	r4, r4, [r0, #32]
 985              	.LBE550:
 986              	.LBE552:
 987              	.LBE554:
 988              	.LBE556:
 989              	.LBE650:
 990              	.LBB651:
 991              	.LBB570:
 992              	.LBB568:
 993              	.LBB566:
 994              	.LBB564:
 995 003a C0E90D44 		strd	r4, r4, [r0, #52]
 996              	.LBE564:
 997              	.LBE566:
 998              	.LBE568:
 999              	.LBE570:
 1000              	.LBE651:
 1001              	.LBB652:
ARM GAS  C:\Users\samue\AppData\Local\Temp\ccTqPziZ.s 			page 36


 1002              	.LBB584:
 1003              	.LBB582:
 1004              	.LBB580:
 1005              	.LBB578:
 1006 003e C0E91244 		strd	r4, r4, [r0, #72]
 1007              	.LBE578:
 1008              	.LBE580:
 1009              	.LBE582:
 1010              	.LBE584:
 1011              	.LBE652:
 1012              	.LBB653:
 1013              	.LBB598:
 1014              	.LBB596:
 1015              	.LBB594:
 1016              	.LBB592:
 1017 0042 C0E91744 		strd	r4, r4, [r0, #92]
 1018              	.LBE592:
 1019              	.LBE594:
 1020              	.LBE596:
 1021              	.LBE598:
 1022              	.LBE653:
 1023              	.LBB654:
 1024              	.LBB612:
 1025              	.LBB610:
 1026              	.LBB608:
 1027              	.LBB606:
 1028 0046 C0E91C44 		strd	r4, r4, [r0, #112]
 1029              	.LBE606:
 1030              	.LBE608:
 1031              	.LBE610:
 1032              	.LBE612:
 1033              	.LBE654:
 1034              	.LBB655:
 1035              	.LBB626:
 1036              	.LBB624:
 1037              	.LBB622:
 1038              	.LBB620:
 1039 004a C0E92144 		strd	r4, r4, [r0, #132]
 1040              	.LBE620:
 1041              	.LBE622:
 1042              	.LBE624:
 1043              	.LBE626:
 1044              	.LBE655:
 1045              	.LBB656:
 1046              	.LBB640:
 1047              	.LBB638:
 1048              	.LBB636:
 1049              	.LBB634:
 1050 004e C0E92644 		strd	r4, r4, [r0, #152]
 1051              	.LVL59:
  69:../../../../DaisyExamples/libDaisy//src/per/gpio.h ****         {
 1052              		.loc 11 69 73 view .LVU194
 1053              	.LBE634:
 1054              	.LBE636:
 1055              	.LBE638:
 1056              	.LBE640:
 1057              	.LBE656:
ARM GAS  C:\Users\samue\AppData\Local\Temp\ccTqPziZ.s 			page 37


 1058              	.LBB657:
 1059              	.LBI657:
 1060              		.loc 11 74 5 is_stmt 1 view .LVU195
 1061              	.LBB658:
 1062              	.LBB659:
 1063              	.LBI659:
  68:../../../../DaisyExamples/libDaisy//src/per/gpio.h ****         : pin(), mode(Mode::INPUT), pull(Pull::NOPULL), speed(Speed::LOW)
 1064              		.loc 11 68 9 view .LVU196
 1065              	.LBB660:
 1066              	.LBB661:
 1067              	.LBB662:
 1068              	.LBI662:
 1069              		.loc 12 272 15 view .LVU197
 1070              		.loc 12 272 15 is_stmt 0 view .LVU198
 1071              	.LBE662:
 1072              	.LBE661:
 1073              	.LBE660:
 1074              	.LBE659:
 1075              	.LBE658:
 1076              	.LBE657:
 1077              	.LBB671:
 1078              	.LBI671:
 1079              		.loc 11 74 5 is_stmt 1 view .LVU199
 1080              	.LBB672:
 1081              	.LBB673:
 1082              	.LBI673:
  68:../../../../DaisyExamples/libDaisy//src/per/gpio.h ****         : pin(), mode(Mode::INPUT), pull(Pull::NOPULL), speed(Speed::LOW)
 1083              		.loc 11 68 9 view .LVU200
 1084              	.LBB674:
 1085              	.LBB675:
 1086              	.LBB676:
 1087              	.LBI676:
 1088              		.loc 12 272 15 view .LVU201
 1089              		.loc 12 272 15 is_stmt 0 view .LVU202
 1090              	.LBE676:
 1091              	.LBE675:
 1092              	.LBE674:
 1093              	.LBE673:
 1094              	.LBE672:
 1095              	.LBE671:
 1096              	.LBB685:
 1097              	.LBI685:
 1098              		.loc 11 74 5 is_stmt 1 view .LVU203
 1099              	.LBB686:
 1100              	.LBB687:
 1101              	.LBI687:
  68:../../../../DaisyExamples/libDaisy//src/per/gpio.h ****         : pin(), mode(Mode::INPUT), pull(Pull::NOPULL), speed(Speed::LOW)
 1102              		.loc 11 68 9 view .LVU204
 1103              	.LBB688:
 1104              	.LBB689:
 1105              	.LBB690:
 1106              	.LBI690:
 1107              		.loc 12 272 15 view .LVU205
 1108              		.loc 12 272 15 is_stmt 0 view .LVU206
 1109              	.LBE690:
 1110              	.LBE689:
 1111              	.LBE688:
ARM GAS  C:\Users\samue\AppData\Local\Temp\ccTqPziZ.s 			page 38


 1112              	.LBE687:
 1113              	.LBE686:
 1114              	.LBE685:
 1115              	.LBB699:
 1116              	.LBI699:
 1117              		.loc 11 74 5 is_stmt 1 view .LVU207
 1118              	.LBB700:
 1119              	.LBB701:
 1120              	.LBI701:
  68:../../../../DaisyExamples/libDaisy//src/per/gpio.h ****         : pin(), mode(Mode::INPUT), pull(Pull::NOPULL), speed(Speed::LOW)
 1121              		.loc 11 68 9 view .LVU208
 1122              	.LBB702:
 1123              	.LBB703:
 1124              	.LBB704:
 1125              	.LBI704:
 1126              		.loc 12 272 15 view .LVU209
 1127              		.loc 12 272 15 is_stmt 0 view .LVU210
 1128              	.LBE704:
 1129              	.LBE703:
 1130              	.LBE702:
 1131              	.LBE701:
 1132              	.LBE700:
 1133              	.LBE699:
 1134              	.LBB713:
 1135              	.LBB669:
 1136              	.LBB667:
 1137              	.LBB665:
 1138              	.LBB663:
  69:../../../../DaisyExamples/libDaisy//src/per/gpio.h ****         {
 1139              		.loc 11 69 73 view .LVU211
 1140 0052 C0E92924 		strd	r2, r4, [r0, #164]
 1141              	.LBE663:
 1142              	.LBE665:
 1143              	.LBE667:
 1144              	.LBE669:
 1145              	.LBE713:
 1146              	.LBB714:
 1147              	.LBB683:
 1148              	.LBB681:
 1149              	.LBB679:
 1150              	.LBB677:
 1151 0056 C0E92E24 		strd	r2, r4, [r0, #184]
 1152              	.LBE677:
 1153              	.LBE679:
 1154              	.LBE681:
 1155              	.LBE683:
 1156              	.LBE714:
 1157              	.LBB715:
 1158              	.LBB697:
 1159              	.LBB695:
 1160              	.LBB693:
 1161              	.LBB691:
 1162 005a C0E93324 		strd	r2, r4, [r0, #204]
 1163              	.LBE691:
 1164              	.LBE693:
 1165              	.LBE695:
 1166              	.LBE697:
ARM GAS  C:\Users\samue\AppData\Local\Temp\ccTqPziZ.s 			page 39


 1167              	.LBE715:
 1168              	.LBB716:
 1169              	.LBB711:
 1170              	.LBB709:
 1171              	.LBB707:
 1172              	.LBB705:
 1173 005e C0E93824 		strd	r2, r4, [r0, #224]
 1174              	.LBE705:
 1175              	.LBE707:
 1176              	.LBE709:
 1177              	.LBE711:
 1178              	.LBE716:
 1179              	.LBB717:
 1180              	.LBB718:
 1181              	.LBB719:
 1182              	.LBB720:
 1183              	.LBB721:
 1184 0062 C0E93D24 		strd	r2, r4, [r0, #244]
 1185              	.LBE721:
 1186              	.LBE720:
 1187              	.LBE719:
 1188              	.LBE718:
 1189              	.LBE717:
 1190              	.LBB731:
 1191              	.LBB732:
 1192              	.LBB733:
 1193              	.LBB734:
 1194              	.LBB735:
 1195 0066 C0E94224 		strd	r2, r4, [r0, #264]
 1196              	.LBE735:
 1197              	.LBE734:
 1198              	.LBE733:
 1199              	.LBE732:
 1200              	.LBE731:
 1201              	.LBB745:
 1202              	.LBB746:
 1203              	.LBB747:
 1204              	.LBB748:
 1205              	.LBB749:
 1206 006a C0E94724 		strd	r2, r4, [r0, #284]
 1207              	.LBE749:
 1208              	.LBE748:
 1209              	.LBE747:
 1210              	.LBE746:
 1211              	.LBE745:
 1212              	.LBB759:
 1213              	.LBB760:
 1214              	.LBB761:
 1215              	.LBB762:
 1216              	.LBB763:
 1217 006e C0E94C24 		strd	r2, r4, [r0, #304]
 1218              	.LBE763:
 1219              	.LBE762:
 1220              	.LBE761:
 1221              	.LBE760:
 1222              	.LBE759:
 1223              	.LBB773:
ARM GAS  C:\Users\samue\AppData\Local\Temp\ccTqPziZ.s 			page 40


 1224              	.LBB670:
 1225              	.LBB668:
 1226              	.LBB666:
 1227              	.LBB664:
 1228 0072 C0E92B44 		strd	r4, r4, [r0, #172]
 1229              	.LBE664:
 1230              	.LBE666:
 1231              	.LBE668:
 1232              	.LBE670:
 1233              	.LBE773:
 1234              	.LBB774:
 1235              	.LBB684:
 1236              	.LBB682:
 1237              	.LBB680:
 1238              	.LBB678:
 1239 0076 C0E93044 		strd	r4, r4, [r0, #192]
 1240              	.LBE678:
 1241              	.LBE680:
 1242              	.LBE682:
 1243              	.LBE684:
 1244              	.LBE774:
 1245              	.LBB775:
 1246              	.LBB698:
 1247              	.LBB696:
 1248              	.LBB694:
 1249              	.LBB692:
 1250 007a C0E93544 		strd	r4, r4, [r0, #212]
 1251              	.LBE692:
 1252              	.LBE694:
 1253              	.LBE696:
 1254              	.LBE698:
 1255              	.LBE775:
 1256              	.LBB776:
 1257              	.LBB712:
 1258              	.LBB710:
 1259              	.LBB708:
 1260              	.LBB706:
 1261 007e C0E93A44 		strd	r4, r4, [r0, #232]
 1262              	.LVL60:
  69:../../../../DaisyExamples/libDaisy//src/per/gpio.h ****         {
 1263              		.loc 11 69 73 view .LVU212
 1264              	.LBE706:
 1265              	.LBE708:
 1266              	.LBE710:
 1267              	.LBE712:
 1268              	.LBE776:
 1269              	.LBB777:
 1270              	.LBI717:
 1271              		.loc 11 74 5 is_stmt 1 view .LVU213
 1272              	.LBB729:
 1273              	.LBB727:
 1274              	.LBI719:
  68:../../../../DaisyExamples/libDaisy//src/per/gpio.h ****         : pin(), mode(Mode::INPUT), pull(Pull::NOPULL), speed(Speed::LOW)
 1275              		.loc 11 68 9 view .LVU214
 1276              	.LBB725:
 1277              	.LBB723:
 1278              	.LBB722:
ARM GAS  C:\Users\samue\AppData\Local\Temp\ccTqPziZ.s 			page 41


 1279              	.LBI722:
 1280              		.loc 12 272 15 view .LVU215
 1281              		.loc 12 272 15 is_stmt 0 view .LVU216
 1282              	.LBE722:
 1283              	.LBE723:
 1284              	.LBE725:
 1285              	.LBE727:
 1286              	.LBE729:
 1287              	.LBE777:
 1288              	.LBB778:
 1289              	.LBI731:
 1290              		.loc 11 74 5 is_stmt 1 view .LVU217
 1291              	.LBB743:
 1292              	.LBB741:
 1293              	.LBI733:
  68:../../../../DaisyExamples/libDaisy//src/per/gpio.h ****         : pin(), mode(Mode::INPUT), pull(Pull::NOPULL), speed(Speed::LOW)
 1294              		.loc 11 68 9 view .LVU218
 1295              	.LBB739:
 1296              	.LBB737:
 1297              	.LBB736:
 1298              	.LBI736:
 1299              		.loc 12 272 15 view .LVU219
 1300              		.loc 12 272 15 is_stmt 0 view .LVU220
 1301              	.LBE736:
 1302              	.LBE737:
 1303              	.LBE739:
 1304              	.LBE741:
 1305              	.LBE743:
 1306              	.LBE778:
 1307              	.LBB779:
 1308              	.LBI745:
 1309              		.loc 11 74 5 is_stmt 1 view .LVU221
 1310              	.LBB757:
 1311              	.LBB755:
 1312              	.LBI747:
  68:../../../../DaisyExamples/libDaisy//src/per/gpio.h ****         : pin(), mode(Mode::INPUT), pull(Pull::NOPULL), speed(Speed::LOW)
 1313              		.loc 11 68 9 view .LVU222
 1314              	.LBB753:
 1315              	.LBB751:
 1316              	.LBB750:
 1317              	.LBI750:
 1318              		.loc 12 272 15 view .LVU223
 1319              		.loc 12 272 15 is_stmt 0 view .LVU224
 1320              	.LBE750:
 1321              	.LBE751:
 1322              	.LBE753:
 1323              	.LBE755:
 1324              	.LBE757:
 1325              	.LBE779:
 1326              	.LBB780:
 1327              	.LBI759:
 1328              		.loc 11 74 5 is_stmt 1 view .LVU225
 1329              	.LBB771:
 1330              	.LBB769:
 1331              	.LBI761:
  68:../../../../DaisyExamples/libDaisy//src/per/gpio.h ****         : pin(), mode(Mode::INPUT), pull(Pull::NOPULL), speed(Speed::LOW)
 1332              		.loc 11 68 9 view .LVU226
ARM GAS  C:\Users\samue\AppData\Local\Temp\ccTqPziZ.s 			page 42


 1333              	.LBB767:
 1334              	.LBB765:
 1335              	.LBB764:
 1336              	.LBI764:
 1337              		.loc 12 272 15 view .LVU227
 1338              		.loc 12 272 15 is_stmt 0 view .LVU228
 1339              	.LBE764:
 1340              	.LBE765:
 1341              	.LBE767:
 1342              	.LBE769:
 1343              	.LBE771:
 1344              	.LBE780:
 1345              	.LBB781:
 1346              	.LBI781:
  20:../../../../DaisyExamples/libDaisy//src/hid/switch3.h ****     ~Switch3() {}
 1347              		.loc 8 20 5 is_stmt 1 view .LVU229
  20:../../../../DaisyExamples/libDaisy//src/hid/switch3.h ****     ~Switch3() {}
 1348              		.loc 8 20 5 is_stmt 0 view .LVU230
 1349              	.LBE781:
 1350              	.LBB782:
 1351              	.LBI782:
  20:../../../../DaisyExamples/libDaisy//src/hid/switch3.h ****     ~Switch3() {}
 1352              		.loc 8 20 5 is_stmt 1 view .LVU231
  20:../../../../DaisyExamples/libDaisy//src/hid/switch3.h ****     ~Switch3() {}
 1353              		.loc 8 20 5 is_stmt 0 view .LVU232
 1354              	.LBE782:
 1355              	.LBB783:
 1356              	.LBI783:
  41:../../../../DaisyExamples/libDaisy//src/hid/switch.h ****     ~Switch() {}
 1357              		.loc 7 41 5 is_stmt 1 view .LVU233
 1358              	.LBE783:
 1359              	.LBB784:
 1360              	.LBB730:
 1361              	.LBB728:
 1362              	.LBB726:
 1363              	.LBB724:
  69:../../../../DaisyExamples/libDaisy//src/per/gpio.h ****         {
 1364              		.loc 11 69 73 is_stmt 0 view .LVU234
 1365 0082 C0E93F44 		strd	r4, r4, [r0, #252]
 1366              	.LBE724:
 1367              	.LBE726:
 1368              	.LBE728:
 1369              	.LBE730:
 1370              	.LBE784:
 1371              	.LBB785:
 1372              	.LBB744:
 1373              	.LBB742:
 1374              	.LBB740:
 1375              	.LBB738:
 1376 0086 C0E94444 		strd	r4, r4, [r0, #272]
 1377              	.LBE738:
 1378              	.LBE740:
 1379              	.LBE742:
 1380              	.LBE744:
 1381              	.LBE785:
 1382              	.LBB786:
 1383              	.LBB758:
ARM GAS  C:\Users\samue\AppData\Local\Temp\ccTqPziZ.s 			page 43


 1384              	.LBB756:
 1385              	.LBB754:
 1386              	.LBB752:
 1387 008a C0E94944 		strd	r4, r4, [r0, #292]
 1388              	.LBE752:
 1389              	.LBE754:
 1390              	.LBE756:
 1391              	.LBE758:
 1392              	.LBE786:
 1393              	.LBB787:
 1394              	.LBB772:
 1395              	.LBB770:
 1396              	.LBB768:
 1397              	.LBB766:
 1398 008e C0E94E44 		strd	r4, r4, [r0, #312]
 1399              	.LVL61:
  69:../../../../DaisyExamples/libDaisy//src/per/gpio.h ****         {
 1400              		.loc 11 69 73 view .LVU235
 1401              	.LBE766:
 1402              	.LBE768:
 1403              	.LBE770:
 1404              	.LBE772:
 1405              	.LBE787:
 1406              	.LBB788:
 1407              	.LBI788:
  21:../../../../DaisyExamples/libDaisy//src/daisy_seed.h ****     ~DaisySeed() {}
 1408              		.loc 2 21 5 is_stmt 1 view .LVU236
 1409              	.LBB789:
 1410              	.LBB790:
 1411              	.LBI790:
 1412              		.file 14 "../../../../DaisyExamples/libDaisy//src/per/qspi.h"
   1:../../../../DaisyExamples/libDaisy//src/per/qspi.h **** #ifndef DSY_QSPI
   2:../../../../DaisyExamples/libDaisy//src/per/qspi.h **** #define DSY_QSPI /**< Macro */
   3:../../../../DaisyExamples/libDaisy//src/per/qspi.h **** 
   4:../../../../DaisyExamples/libDaisy//src/per/qspi.h **** #ifndef UNIT_TEST // for unit tests, a dummy implementation
   5:../../../../DaisyExamples/libDaisy//src/per/qspi.h **** 
   6:../../../../DaisyExamples/libDaisy//src/per/qspi.h **** #include <cstdint>
   7:../../../../DaisyExamples/libDaisy//src/per/qspi.h **** #include "daisy_core.h" // Added for dsy_gpio_pin typedef
   8:../../../../DaisyExamples/libDaisy//src/per/qspi.h **** 
   9:../../../../DaisyExamples/libDaisy//src/per/qspi.h **** #define DSY_QSPI_TEXT       \
  10:../../../../DaisyExamples/libDaisy//src/per/qspi.h ****     __attribute__((section( \
  11:../../../../DaisyExamples/libDaisy//src/per/qspi.h ****         ".qspiflash_text"))) /**< used for reading memory in memory_mapped mode. */
  12:../../../../DaisyExamples/libDaisy//src/per/qspi.h **** #define DSY_QSPI_DATA       \
  13:../../../../DaisyExamples/libDaisy//src/per/qspi.h ****     __attribute__((section( \
  14:../../../../DaisyExamples/libDaisy//src/per/qspi.h ****         ".qspiflash_data"))) /**< used for reading memory in memory_mapped mode. */
  15:../../../../DaisyExamples/libDaisy//src/per/qspi.h **** #define DSY_QSPI_BSS        \
  16:../../../../DaisyExamples/libDaisy//src/per/qspi.h ****     __attribute__((section( \
  17:../../../../DaisyExamples/libDaisy//src/per/qspi.h ****         ".qspiflash_bss"))) /**< used for reading memory in memory_mapped mode. */
  18:../../../../DaisyExamples/libDaisy//src/per/qspi.h **** 
  19:../../../../DaisyExamples/libDaisy//src/per/qspi.h **** namespace daisy
  20:../../../../DaisyExamples/libDaisy//src/per/qspi.h **** {
  21:../../../../DaisyExamples/libDaisy//src/per/qspi.h **** /** @addtogroup serial
  22:../../../../DaisyExamples/libDaisy//src/per/qspi.h **** @{
  23:../../../../DaisyExamples/libDaisy//src/per/qspi.h **** */
  24:../../../../DaisyExamples/libDaisy//src/per/qspi.h **** 
  25:../../../../DaisyExamples/libDaisy//src/per/qspi.h **** /** 
  26:../../../../DaisyExamples/libDaisy//src/per/qspi.h ****  Driver for QSPI peripheral to interface with external flash memory. \n 
ARM GAS  C:\Users\samue\AppData\Local\Temp\ccTqPziZ.s 			page 44


  27:../../../../DaisyExamples/libDaisy//src/per/qspi.h ****     Currently supported QSPI Devices: \n 
  28:../../../../DaisyExamples/libDaisy//src/per/qspi.h ****     * IS25LP080D
  29:../../../../DaisyExamples/libDaisy//src/per/qspi.h **** */
  30:../../../../DaisyExamples/libDaisy//src/per/qspi.h **** class QSPIHandle
  31:../../../../DaisyExamples/libDaisy//src/per/qspi.h **** {
  32:../../../../DaisyExamples/libDaisy//src/per/qspi.h ****   public:
  33:../../../../DaisyExamples/libDaisy//src/per/qspi.h ****     enum Result
  34:../../../../DaisyExamples/libDaisy//src/per/qspi.h ****     {
  35:../../../../DaisyExamples/libDaisy//src/per/qspi.h ****         OK = 0,
  36:../../../../DaisyExamples/libDaisy//src/per/qspi.h ****         ERR
  37:../../../../DaisyExamples/libDaisy//src/per/qspi.h ****     };
  38:../../../../DaisyExamples/libDaisy//src/per/qspi.h **** 
  39:../../../../DaisyExamples/libDaisy//src/per/qspi.h ****     /** Indicates the current status of the module. 
  40:../../../../DaisyExamples/libDaisy//src/per/qspi.h ****          *  Warnings are indicated by a leading W.
  41:../../../../DaisyExamples/libDaisy//src/per/qspi.h ****          *  Errors are indicated by a leading E and cause an immediate exit.
  42:../../../../DaisyExamples/libDaisy//src/per/qspi.h ****          * 
  43:../../../../DaisyExamples/libDaisy//src/per/qspi.h ****          *  \param GOOD - No errors have been reported.
  44:../../../../DaisyExamples/libDaisy//src/per/qspi.h ****          *  \param E_HAL_ERROR - HAL code did not return HAL_OK.
  45:../../../../DaisyExamples/libDaisy//src/per/qspi.h ****          *  \param E_SWITCHING_MODES - An error was encountered while switching QSPI peripheral mod
  46:../../../../DaisyExamples/libDaisy//src/per/qspi.h ****          *  \param E_INVALID_MODE - QSPI should not be written to while the program is executing fr
  47:../../../../DaisyExamples/libDaisy//src/per/qspi.h ****          */
  48:../../../../DaisyExamples/libDaisy//src/per/qspi.h ****     enum Status
  49:../../../../DaisyExamples/libDaisy//src/per/qspi.h ****     {
  50:../../../../DaisyExamples/libDaisy//src/per/qspi.h ****         GOOD = 0,
  51:../../../../DaisyExamples/libDaisy//src/per/qspi.h ****         E_HAL_ERROR,
  52:../../../../DaisyExamples/libDaisy//src/per/qspi.h ****         E_SWITCHING_MODES,
  53:../../../../DaisyExamples/libDaisy//src/per/qspi.h ****         E_INVALID_MODE,
  54:../../../../DaisyExamples/libDaisy//src/per/qspi.h ****     };
  55:../../../../DaisyExamples/libDaisy//src/per/qspi.h **** 
  56:../../../../DaisyExamples/libDaisy//src/per/qspi.h ****     /** Configuration structure for interfacing with QSPI Driver */
  57:../../../../DaisyExamples/libDaisy//src/per/qspi.h ****     struct Config
  58:../../../../DaisyExamples/libDaisy//src/per/qspi.h ****     {
  59:../../../../DaisyExamples/libDaisy//src/per/qspi.h ****         /** Flash Devices supported. (Both of these are more-or-less the same, just different sizes
  60:../../../../DaisyExamples/libDaisy//src/per/qspi.h ****         enum Device
  61:../../../../DaisyExamples/libDaisy//src/per/qspi.h ****         {
  62:../../../../DaisyExamples/libDaisy//src/per/qspi.h ****             IS25LP080D,  /**< & */
  63:../../../../DaisyExamples/libDaisy//src/per/qspi.h ****             IS25LP064A,  /**< & */
  64:../../../../DaisyExamples/libDaisy//src/per/qspi.h ****             DEVICE_LAST, /**< & */
  65:../../../../DaisyExamples/libDaisy//src/per/qspi.h ****         };
  66:../../../../DaisyExamples/libDaisy//src/per/qspi.h **** 
  67:../../../../DaisyExamples/libDaisy//src/per/qspi.h ****         /** 
  68:../../../../DaisyExamples/libDaisy//src/per/qspi.h ****         Modes of operation.
  69:../../../../DaisyExamples/libDaisy//src/per/qspi.h ****         Memory Mapped mode: QSPI configured so that the QSPI can be
  70:../../../../DaisyExamples/libDaisy//src/per/qspi.h ****         read from starting address 0x90000000. Writing is not
  71:../../../../DaisyExamples/libDaisy//src/per/qspi.h ****         possible in this mode. \n 
  72:../../../../DaisyExamples/libDaisy//src/per/qspi.h ****         Indirect Polling mode: Device driver enabled. 
  73:../../../../DaisyExamples/libDaisy//src/per/qspi.h ****         */
  74:../../../../DaisyExamples/libDaisy//src/per/qspi.h ****         enum Mode
  75:../../../../DaisyExamples/libDaisy//src/per/qspi.h ****         {
  76:../../../../DaisyExamples/libDaisy//src/per/qspi.h ****             MEMORY_MAPPED,    /**< & */
  77:../../../../DaisyExamples/libDaisy//src/per/qspi.h ****             INDIRECT_POLLING, /**< & */
  78:../../../../DaisyExamples/libDaisy//src/per/qspi.h ****             MODE_LAST,
  79:../../../../DaisyExamples/libDaisy//src/per/qspi.h ****         };
  80:../../../../DaisyExamples/libDaisy//src/per/qspi.h **** 
  81:../../../../DaisyExamples/libDaisy//src/per/qspi.h ****         //SCK,  CE# (active low)
  82:../../../../DaisyExamples/libDaisy//src/per/qspi.h ****         struct
  83:../../../../DaisyExamples/libDaisy//src/per/qspi.h ****         {
ARM GAS  C:\Users\samue\AppData\Local\Temp\ccTqPziZ.s 			page 45


  84:../../../../DaisyExamples/libDaisy//src/per/qspi.h ****             dsy_gpio_pin io0; /**< & */
  85:../../../../DaisyExamples/libDaisy//src/per/qspi.h ****             dsy_gpio_pin io1; /**< & */
  86:../../../../DaisyExamples/libDaisy//src/per/qspi.h ****             dsy_gpio_pin io2; /**< & */
  87:../../../../DaisyExamples/libDaisy//src/per/qspi.h ****             dsy_gpio_pin io3; /**< & */
  88:../../../../DaisyExamples/libDaisy//src/per/qspi.h ****             dsy_gpio_pin clk; /**< & */
  89:../../../../DaisyExamples/libDaisy//src/per/qspi.h ****             dsy_gpio_pin ncs; /**< & */
  90:../../../../DaisyExamples/libDaisy//src/per/qspi.h ****         } pin_config;
  91:../../../../DaisyExamples/libDaisy//src/per/qspi.h **** 
  92:../../../../DaisyExamples/libDaisy//src/per/qspi.h ****         Device device;
  93:../../../../DaisyExamples/libDaisy//src/per/qspi.h ****         Mode   mode;
  94:../../../../DaisyExamples/libDaisy//src/per/qspi.h ****     };
  95:../../../../DaisyExamples/libDaisy//src/per/qspi.h **** 
  96:../../../../DaisyExamples/libDaisy//src/per/qspi.h ****     /** 
  97:../../../../DaisyExamples/libDaisy//src/per/qspi.h ****         Initializes QSPI peripheral, and Resets, and prepares memory for access.
  98:../../../../DaisyExamples/libDaisy//src/per/qspi.h ****         \param config should be populated with the mode, device and pin_config before calling this 
  99:../../../../DaisyExamples/libDaisy//src/per/qspi.h ****         \return Result::OK or Result::ERR
 100:../../../../DaisyExamples/libDaisy//src/per/qspi.h ****         */
 101:../../../../DaisyExamples/libDaisy//src/per/qspi.h ****     Result Init(const Config& config);
 102:../../../../DaisyExamples/libDaisy//src/per/qspi.h **** 
 103:../../../../DaisyExamples/libDaisy//src/per/qspi.h ****     /** Returns the current config. */
 104:../../../../DaisyExamples/libDaisy//src/per/qspi.h ****     const Config& GetConfig() const;
 105:../../../../DaisyExamples/libDaisy//src/per/qspi.h **** 
 106:../../../../DaisyExamples/libDaisy//src/per/qspi.h ****     // Couldn't this just be called before anything else in init? That
 107:../../../../DaisyExamples/libDaisy//src/per/qspi.h ****     // would make manually calling it unnecessary.
 108:../../../../DaisyExamples/libDaisy//src/per/qspi.h ****     /** 
 109:../../../../DaisyExamples/libDaisy//src/per/qspi.h ****         Deinitializes the peripheral
 110:../../../../DaisyExamples/libDaisy//src/per/qspi.h ****         This should be called before reinitializing QSPI in a different mode.
 111:../../../../DaisyExamples/libDaisy//src/per/qspi.h ****         \return Result::OK or Result::ERR
 112:../../../../DaisyExamples/libDaisy//src/per/qspi.h ****         */
 113:../../../../DaisyExamples/libDaisy//src/per/qspi.h ****     Result DeInit();
 114:../../../../DaisyExamples/libDaisy//src/per/qspi.h **** 
 115:../../../../DaisyExamples/libDaisy//src/per/qspi.h ****     /** 
 116:../../../../DaisyExamples/libDaisy//src/per/qspi.h ****         Writes a single page to to the specified address on the QSPI chip.
 117:../../../../DaisyExamples/libDaisy//src/per/qspi.h ****         For IS25LP*, page size is 256 bytes.
 118:../../../../DaisyExamples/libDaisy//src/per/qspi.h ****         \param address Address to write to
 119:../../../../DaisyExamples/libDaisy//src/per/qspi.h ****         \param size Buffer size
 120:../../../../DaisyExamples/libDaisy//src/per/qspi.h ****         \param buffer Buffer to write
 121:../../../../DaisyExamples/libDaisy//src/per/qspi.h ****         \return Result::OK or Result::ERR
 122:../../../../DaisyExamples/libDaisy//src/per/qspi.h ****         */
 123:../../../../DaisyExamples/libDaisy//src/per/qspi.h ****     Result WritePage(uint32_t address, uint32_t size, uint8_t* buffer);
 124:../../../../DaisyExamples/libDaisy//src/per/qspi.h **** 
 125:../../../../DaisyExamples/libDaisy//src/per/qspi.h ****     /** 
 126:../../../../DaisyExamples/libDaisy//src/per/qspi.h ****         Writes data in buffer to to the QSPI. Starting at address to address+size 
 127:../../../../DaisyExamples/libDaisy//src/per/qspi.h ****         \param address Address to write to
 128:../../../../DaisyExamples/libDaisy//src/per/qspi.h ****         \param size Buffer size
 129:../../../../DaisyExamples/libDaisy//src/per/qspi.h ****         \param buffer Buffer to write
 130:../../../../DaisyExamples/libDaisy//src/per/qspi.h ****         \return Result::OK or Result::ERR
 131:../../../../DaisyExamples/libDaisy//src/per/qspi.h ****         */
 132:../../../../DaisyExamples/libDaisy//src/per/qspi.h ****     Result Write(uint32_t address, uint32_t size, uint8_t* buffer);
 133:../../../../DaisyExamples/libDaisy//src/per/qspi.h **** 
 134:../../../../DaisyExamples/libDaisy//src/per/qspi.h ****     /** 
 135:../../../../DaisyExamples/libDaisy//src/per/qspi.h ****         Erases the area specified on the chip.
 136:../../../../DaisyExamples/libDaisy//src/per/qspi.h ****         Erasures will happen by 4K, 32K or 64K increments.
 137:../../../../DaisyExamples/libDaisy//src/per/qspi.h ****         Smallest erase possible is 4kB at a time. (on IS25LP*)
 138:../../../../DaisyExamples/libDaisy//src/per/qspi.h ****         \param start_addr Address to begin erasing from
 139:../../../../DaisyExamples/libDaisy//src/per/qspi.h ****         \param end_addr  Address to stop erasing at
 140:../../../../DaisyExamples/libDaisy//src/per/qspi.h ****         \return Result::OK or Result::ERR
ARM GAS  C:\Users\samue\AppData\Local\Temp\ccTqPziZ.s 			page 46


 141:../../../../DaisyExamples/libDaisy//src/per/qspi.h ****         */
 142:../../../../DaisyExamples/libDaisy//src/per/qspi.h ****     Result Erase(uint32_t start_addr, uint32_t end_addr);
 143:../../../../DaisyExamples/libDaisy//src/per/qspi.h **** 
 144:../../../../DaisyExamples/libDaisy//src/per/qspi.h ****     /**  
 145:../../../../DaisyExamples/libDaisy//src/per/qspi.h ****          Erases a single sector of the chip.  
 146:../../../../DaisyExamples/libDaisy//src/per/qspi.h ****         TODO: Document the size of this function. 
 147:../../../../DaisyExamples/libDaisy//src/per/qspi.h ****         \param address Address of sector to erase
 148:../../../../DaisyExamples/libDaisy//src/per/qspi.h ****         \return Result::OK or Result::ERR
 149:../../../../DaisyExamples/libDaisy//src/per/qspi.h ****         */
 150:../../../../DaisyExamples/libDaisy//src/per/qspi.h ****     Result EraseSector(uint32_t address);
 151:../../../../DaisyExamples/libDaisy//src/per/qspi.h **** 
 152:../../../../DaisyExamples/libDaisy//src/per/qspi.h ****     /** Returns the current class status. Useful for debugging.
 153:../../../../DaisyExamples/libDaisy//src/per/qspi.h ****      *  \returns Status
 154:../../../../DaisyExamples/libDaisy//src/per/qspi.h ****      */
 155:../../../../DaisyExamples/libDaisy//src/per/qspi.h ****     Status GetStatus();
 156:../../../../DaisyExamples/libDaisy//src/per/qspi.h **** 
 157:../../../../DaisyExamples/libDaisy//src/per/qspi.h ****     /** Returns a pointer to the actual memory used 
 158:../../../../DaisyExamples/libDaisy//src/per/qspi.h ****      *  The memory at this address is read-only
 159:../../../../DaisyExamples/libDaisy//src/per/qspi.h ****      *  to write to it use the Write function.
 160:../../../../DaisyExamples/libDaisy//src/per/qspi.h ****      * 
 161:../../../../DaisyExamples/libDaisy//src/per/qspi.h ****      *  \param offset returns the pointer starting this 
 162:../../../../DaisyExamples/libDaisy//src/per/qspi.h ****      *                many bytes into the memory
 163:../../../../DaisyExamples/libDaisy//src/per/qspi.h ****     */
 164:../../../../DaisyExamples/libDaisy//src/per/qspi.h ****     void* GetData(uint32_t offset = 0);
 165:../../../../DaisyExamples/libDaisy//src/per/qspi.h **** 
 166:../../../../DaisyExamples/libDaisy//src/per/qspi.h ****     QSPIHandle() : pimpl_(nullptr) {}
 1413              		.loc 14 166 5 view .LVU237
 1414              	.LBB791:
 1415              	.LBB792:
 1416              		.loc 14 166 34 is_stmt 0 view .LVU238
 1417 0092 C0F86841 		str	r4, [r0, #360]
 1418              	.LVL62:
 1419              		.loc 14 166 34 view .LVU239
 1420              	.LBE792:
 1421              	.LBE791:
 1422              	.LBE790:
 1423              	.LBB793:
 1424              	.LBI793:
  95:../../../../DaisyExamples/libDaisy//src/hid/audio.h ****     ~AudioHandle() {}
 1425              		.loc 6 95 5 is_stmt 1 view .LVU240
 1426              	.LBE793:
 1427              	.LBE789:
 1428              	.LBE788:
  24:daisy_common.h ****     ~daisyCommon() {}
 1429              		.loc 1 24 19 is_stmt 0 view .LVU241
 1430 0096 C0F80C12 		str	r1, [r0, #524]
 1431              	.LBB805:
 1432              	.LBB804:
 1433              	.LBB796:
 1434              	.LBB794:
 1435              	.LBB795:
  95:../../../../DaisyExamples/libDaisy//src/hid/audio.h ****     ~AudioHandle() {}
 1436              		.loc 6 95 35 view .LVU242
 1437 009a C0F87C41 		str	r4, [r0, #380]
 1438              	.LVL63:
  95:../../../../DaisyExamples/libDaisy//src/hid/audio.h ****     ~AudioHandle() {}
 1439              		.loc 6 95 35 view .LVU243
ARM GAS  C:\Users\samue\AppData\Local\Temp\ccTqPziZ.s 			page 47


 1440              	.LBE795:
 1441              	.LBE794:
 1442              	.LBE796:
 1443              	.LBB797:
 1444              	.LBI797:
 109:../../../../DaisyExamples/libDaisy//src/per/adc.h ****     ~AdcHandle() {}
 1445              		.loc 5 109 5 is_stmt 1 view .LVU244
 109:../../../../DaisyExamples/libDaisy//src/per/adc.h ****     ~AdcHandle() {}
 1446              		.loc 5 109 5 is_stmt 0 view .LVU245
 1447              	.LBE797:
 1448              	.LBB798:
 1449              	.LBI798:
 1450              		.file 15 "../../../../DaisyExamples/libDaisy//src/per/dac.h"
   1:../../../../DaisyExamples/libDaisy//src/per/dac.h **** #pragma once
   2:../../../../DaisyExamples/libDaisy//src/per/dac.h **** #ifndef DSY_DAC_H
   3:../../../../DaisyExamples/libDaisy//src/per/dac.h **** #define DSY_DAC_H
   4:../../../../DaisyExamples/libDaisy//src/per/dac.h **** 
   5:../../../../DaisyExamples/libDaisy//src/per/dac.h **** #include "daisy_core.h"
   6:../../../../DaisyExamples/libDaisy//src/per/dac.h **** 
   7:../../../../DaisyExamples/libDaisy//src/per/dac.h **** namespace daisy
   8:../../../../DaisyExamples/libDaisy//src/per/dac.h **** {
   9:../../../../DaisyExamples/libDaisy//src/per/dac.h **** /** @brief DAC handle for Built-in DAC Peripheral 
  10:../../../../DaisyExamples/libDaisy//src/per/dac.h ****  *  @ingroup per_analog
  11:../../../../DaisyExamples/libDaisy//src/per/dac.h ****  ** 
  12:../../../../DaisyExamples/libDaisy//src/per/dac.h ****  ** For now only Normal Mode is supported,
  13:../../../../DaisyExamples/libDaisy//src/per/dac.h ****  ** Sample and hold mode provides reduced power consumption, but requires a bit more setup.
  14:../../../../DaisyExamples/libDaisy//src/per/dac.h ****  **
  15:../../../../DaisyExamples/libDaisy//src/per/dac.h ****  ** For now connecting the DAC through other internal peripherals is also not supported.
  16:../../../../DaisyExamples/libDaisy//src/per/dac.h ****  **
  17:../../../../DaisyExamples/libDaisy//src/per/dac.h ****  ** Since the DAC channels have dedicated pins we don't need to pass in a pin config like with
  18:../../../../DaisyExamples/libDaisy//src/per/dac.h ****  ** other modules. However, it is still important to not try to use the DAC pins for anything else.
  19:../../../../DaisyExamples/libDaisy//src/per/dac.h ****  ** DAC Channel 1 is on PA4, and DAC Channel 2 is on PA5
  20:../../../../DaisyExamples/libDaisy//src/per/dac.h ****  ***/
  21:../../../../DaisyExamples/libDaisy//src/per/dac.h **** class DacHandle
  22:../../../../DaisyExamples/libDaisy//src/per/dac.h **** {
  23:../../../../DaisyExamples/libDaisy//src/per/dac.h ****   public:
  24:../../../../DaisyExamples/libDaisy//src/per/dac.h ****     /** Return Values for the DacHandle class */
  25:../../../../DaisyExamples/libDaisy//src/per/dac.h ****     enum class Result
  26:../../../../DaisyExamples/libDaisy//src/per/dac.h ****     {
  27:../../../../DaisyExamples/libDaisy//src/per/dac.h ****         OK,
  28:../../../../DaisyExamples/libDaisy//src/per/dac.h ****         ERR,
  29:../../../../DaisyExamples/libDaisy//src/per/dac.h ****     };
  30:../../../../DaisyExamples/libDaisy//src/per/dac.h **** 
  31:../../../../DaisyExamples/libDaisy//src/per/dac.h ****     /** Selects which channel(s) will be configured for use. */
  32:../../../../DaisyExamples/libDaisy//src/per/dac.h ****     enum class Channel
  33:../../../../DaisyExamples/libDaisy//src/per/dac.h ****     {
  34:../../../../DaisyExamples/libDaisy//src/per/dac.h ****         ONE,
  35:../../../../DaisyExamples/libDaisy//src/per/dac.h ****         TWO,
  36:../../../../DaisyExamples/libDaisy//src/per/dac.h ****         BOTH,
  37:../../../../DaisyExamples/libDaisy//src/per/dac.h ****     };
  38:../../../../DaisyExamples/libDaisy//src/per/dac.h **** 
  39:../../../../DaisyExamples/libDaisy//src/per/dac.h ****     /** Sets the Mode for the DAC channels.
  40:../../../../DaisyExamples/libDaisy//src/per/dac.h ****      **
  41:../../../../DaisyExamples/libDaisy//src/per/dac.h ****      ** Polling mode uses the blocking mode to transmit a single value at a time.
  42:../../../../DaisyExamples/libDaisy//src/per/dac.h ****      **
  43:../../../../DaisyExamples/libDaisy//src/per/dac.h ****      ** DMA mode uses a buffer, and periodically transmits it triggering a 
  44:../../../../DaisyExamples/libDaisy//src/per/dac.h ****      ** callback to fill the buffer when it is ready for more samples.
ARM GAS  C:\Users\samue\AppData\Local\Temp\ccTqPziZ.s 			page 48


  45:../../../../DaisyExamples/libDaisy//src/per/dac.h ****      ***/
  46:../../../../DaisyExamples/libDaisy//src/per/dac.h ****     enum class Mode
  47:../../../../DaisyExamples/libDaisy//src/per/dac.h ****     {
  48:../../../../DaisyExamples/libDaisy//src/per/dac.h ****         POLLING,
  49:../../../../DaisyExamples/libDaisy//src/per/dac.h ****         DMA,
  50:../../../../DaisyExamples/libDaisy//src/per/dac.h ****     };
  51:../../../../DaisyExamples/libDaisy//src/per/dac.h **** 
  52:../../../../DaisyExamples/libDaisy//src/per/dac.h ****     /** Sets the number of bits per sample transmitted out of the DAC.
  53:../../../../DaisyExamples/libDaisy//src/per/dac.h ****      ** The output range will be: 0V - VDDA
  54:../../../../DaisyExamples/libDaisy//src/per/dac.h ****      ** The resolution will be roughly: bitdepth / (VDDA - 0V) 
  55:../../../../DaisyExamples/libDaisy//src/per/dac.h ****      ***/
  56:../../../../DaisyExamples/libDaisy//src/per/dac.h ****     enum class BitDepth
  57:../../../../DaisyExamples/libDaisy//src/per/dac.h ****     {
  58:../../../../DaisyExamples/libDaisy//src/per/dac.h ****         BITS_8,
  59:../../../../DaisyExamples/libDaisy//src/per/dac.h ****         BITS_12
  60:../../../../DaisyExamples/libDaisy//src/per/dac.h ****     };
  61:../../../../DaisyExamples/libDaisy//src/per/dac.h **** 
  62:../../../../DaisyExamples/libDaisy//src/per/dac.h ****     /** Sets whether the DAC output is buffered for higher drive ability. */
  63:../../../../DaisyExamples/libDaisy//src/per/dac.h ****     enum class BufferState
  64:../../../../DaisyExamples/libDaisy//src/per/dac.h ****     {
  65:../../../../DaisyExamples/libDaisy//src/per/dac.h ****         ENABLED,
  66:../../../../DaisyExamples/libDaisy//src/per/dac.h ****         DISABLED,
  67:../../../../DaisyExamples/libDaisy//src/per/dac.h ****     };
  68:../../../../DaisyExamples/libDaisy//src/per/dac.h **** 
  69:../../../../DaisyExamples/libDaisy//src/per/dac.h ****     /** Configuration structure for initializing the DAC structure. */
  70:../../../../DaisyExamples/libDaisy//src/per/dac.h ****     struct Config
  71:../../../../DaisyExamples/libDaisy//src/per/dac.h ****     {
  72:../../../../DaisyExamples/libDaisy//src/per/dac.h ****         /** Target Samplerate in Hz used to configure the internal 
  73:../../../../DaisyExamples/libDaisy//src/per/dac.h ****          ** timebase for DMA mode. Does nothing in POLLING mode.
  74:../../../../DaisyExamples/libDaisy//src/per/dac.h ****          ** If the value is 0 at Init time this will default to 48000Hz 
  75:../../../../DaisyExamples/libDaisy//src/per/dac.h ****          ** otherwise the driver will attempt meet the target.*/
  76:../../../../DaisyExamples/libDaisy//src/per/dac.h ****         uint32_t target_samplerate;
  77:../../../../DaisyExamples/libDaisy//src/per/dac.h **** 
  78:../../../../DaisyExamples/libDaisy//src/per/dac.h ****         Channel     chn;
  79:../../../../DaisyExamples/libDaisy//src/per/dac.h ****         Mode        mode;
  80:../../../../DaisyExamples/libDaisy//src/per/dac.h ****         BitDepth    bitdepth;
  81:../../../../DaisyExamples/libDaisy//src/per/dac.h ****         BufferState buff_state;
  82:../../../../DaisyExamples/libDaisy//src/per/dac.h ****     };
  83:../../../../DaisyExamples/libDaisy//src/per/dac.h **** 
  84:../../../../DaisyExamples/libDaisy//src/per/dac.h ****     DacHandle() : pimpl_(nullptr) {}
 1451              		.loc 15 84 5 is_stmt 1 view .LVU246
 1452              	.LBB799:
 1453              	.LBB800:
 1454              		.loc 15 84 33 is_stmt 0 view .LVU247
 1455 009e C0F88841 		str	r4, [r0, #392]
 1456              	.LVL64:
 1457              		.loc 15 84 33 view .LVU248
 1458              	.LBE800:
 1459              	.LBE799:
 1460              	.LBE798:
 1461              	.LBB801:
 1462              	.LBI801:
  40:../../../../DaisyExamples/libDaisy//src/hid/usb.h **** 
 1463              		.loc 4 40 5 is_stmt 1 view .LVU249
  40:../../../../DaisyExamples/libDaisy//src/hid/usb.h **** 
 1464              		.loc 4 40 5 is_stmt 0 view .LVU250
 1465              	.LBE801:
ARM GAS  C:\Users\samue\AppData\Local\Temp\ccTqPziZ.s 			page 49


 1466              	.LBB802:
 1467              	.LBI802:
  96:../../../../DaisyExamples/libDaisy//src/sys/system.h ****     ~System() {}
 1468              		.loc 3 96 5 is_stmt 1 view .LVU251
  96:../../../../DaisyExamples/libDaisy//src/sys/system.h ****     ~System() {}
 1469              		.loc 3 96 5 is_stmt 0 view .LVU252
 1470              	.LBE802:
 1471              	.LBB803:
 1472              	.LBI803:
 1473              		.file 16 "../../../../DaisyExamples/libDaisy//src/per/sai.h"
   1:../../../../DaisyExamples/libDaisy//src/per/sai.h **** #pragma once
   2:../../../../DaisyExamples/libDaisy//src/per/sai.h **** #ifndef DSY_SAI_H
   3:../../../../DaisyExamples/libDaisy//src/per/sai.h **** #define DSY_SAI_H
   4:../../../../DaisyExamples/libDaisy//src/per/sai.h **** 
   5:../../../../DaisyExamples/libDaisy//src/per/sai.h **** #include "daisy_core.h"
   6:../../../../DaisyExamples/libDaisy//src/per/sai.h **** 
   7:../../../../DaisyExamples/libDaisy//src/per/sai.h **** namespace daisy
   8:../../../../DaisyExamples/libDaisy//src/per/sai.h **** {
   9:../../../../DaisyExamples/libDaisy//src/per/sai.h **** /** 
  10:../../../../DaisyExamples/libDaisy//src/per/sai.h ****  * Support for I2S Audio Protocol with different bit-depth, samplerate options
  11:../../../../DaisyExamples/libDaisy//src/per/sai.h ****  * Allows for master or slave, as well as freedom of selecting direction, 
  12:../../../../DaisyExamples/libDaisy//src/per/sai.h ****  * and other behavior for each peripheral, and block.
  13:../../../../DaisyExamples/libDaisy//src/per/sai.h ****  * 
  14:../../../../DaisyExamples/libDaisy//src/per/sai.h ****  * DMA Transfer commands must use buffers located within non-cached memory or use cache maintenance
  15:../../../../DaisyExamples/libDaisy//src/per/sai.h ****  * To declare an unitialized global element in the DMA memory section:
  16:../../../../DaisyExamples/libDaisy//src/per/sai.h ****  *    int32_t DSY_DMA_BUFFER_SECTOR my_buffer[96];
  17:../../../../DaisyExamples/libDaisy//src/per/sai.h ****  *
  18:../../../../DaisyExamples/libDaisy//src/per/sai.h ****  * Callback functions will be called once per half of the buffer. In the above example, 
  19:../../../../DaisyExamples/libDaisy//src/per/sai.h ****  * the callback function would be called once for every 48 samples.
  20:../../../../DaisyExamples/libDaisy//src/per/sai.h ****  * 
  21:../../../../DaisyExamples/libDaisy//src/per/sai.h ****  * Use SAI Handle like this:
  22:../../../../DaisyExamples/libDaisy//src/per/sai.h ****  * 
  23:../../../../DaisyExamples/libDaisy//src/per/sai.h ****  *  SaiHandle::Config sai_config;
  24:../../../../DaisyExamples/libDaisy//src/per/sai.h ****  *  sai_config.periph          = SaiHandle::Config::Peripheral::SAI_1;
  25:../../../../DaisyExamples/libDaisy//src/per/sai.h ****  *  sai_config.sr              = SaiHandle::Config::SampleRate::SAI_48KHZ;
  26:../../../../DaisyExamples/libDaisy//src/per/sai.h ****  *  sai_config.bit_depth       = SaiHandle::Config::BitDepth::SAI_24BIT;
  27:../../../../DaisyExamples/libDaisy//src/per/sai.h ****  *  sai_config.a_sync          = SaiHandle::Config::Sync::MASTER;
  28:../../../../DaisyExamples/libDaisy//src/per/sai.h ****  *  sai_config.b_sync          = SaiHandle::Config::Sync::SLAVE;
  29:../../../../DaisyExamples/libDaisy//src/per/sai.h ****  *  sai_config.a_dir           = SaiHandle::Config::Direction::RECEIVE;
  30:../../../../DaisyExamples/libDaisy//src/per/sai.h ****  *  sai_config.b_dir           = SaiHandle::Config::Direction::TRANSMIT;
  31:../../../../DaisyExamples/libDaisy//src/per/sai.h ****  *  sai_config.pin_config.fs   = {DSY_GPIOE, 4};
  32:../../../../DaisyExamples/libDaisy//src/per/sai.h ****  *  sai_config.pin_config.mclk = {DSY_GPIOE, 2};
  33:../../../../DaisyExamples/libDaisy//src/per/sai.h ****  *  sai_config.pin_config.sck  = {DSY_GPIOE, 5};
  34:../../../../DaisyExamples/libDaisy//src/per/sai.h ****  *  sai_config.pin_config.sa   = {DSY_GPIOE, 6};
  35:../../../../DaisyExamples/libDaisy//src/per/sai.h ****  *  sai_config.pin_config.sb   = {DSY_GPIOE, 3};
  36:../../../../DaisyExamples/libDaisy//src/per/sai.h ****  *  // Then Initialize
  37:../../../../DaisyExamples/libDaisy//src/per/sai.h ****  *  SaiHandle sai;
  38:../../../../DaisyExamples/libDaisy//src/per/sai.h ****  *  sai.Init(sai_config);
  39:../../../../DaisyExamples/libDaisy//src/per/sai.h ****  *  // Now you can use it:
  40:../../../../DaisyExamples/libDaisy//src/per/sai.h ****  *  sai.StartDma(. . .);
  41:../../../../DaisyExamples/libDaisy//src/per/sai.h ****  */
  42:../../../../DaisyExamples/libDaisy//src/per/sai.h **** class SaiHandle
  43:../../../../DaisyExamples/libDaisy//src/per/sai.h **** {
  44:../../../../DaisyExamples/libDaisy//src/per/sai.h ****   public:
  45:../../../../DaisyExamples/libDaisy//src/per/sai.h ****     /** Contains settings for initialising an SAI Interface */
  46:../../../../DaisyExamples/libDaisy//src/per/sai.h ****     struct Config
  47:../../../../DaisyExamples/libDaisy//src/per/sai.h ****     {
ARM GAS  C:\Users\samue\AppData\Local\Temp\ccTqPziZ.s 			page 50


  48:../../../../DaisyExamples/libDaisy//src/per/sai.h ****         /** Specifies the internal peripheral to use (mapped to different hardware pins) */
  49:../../../../DaisyExamples/libDaisy//src/per/sai.h ****         enum class Peripheral
  50:../../../../DaisyExamples/libDaisy//src/per/sai.h ****         {
  51:../../../../DaisyExamples/libDaisy//src/per/sai.h ****             SAI_1,
  52:../../../../DaisyExamples/libDaisy//src/per/sai.h ****             SAI_2,
  53:../../../../DaisyExamples/libDaisy//src/per/sai.h ****         };
  54:../../../../DaisyExamples/libDaisy//src/per/sai.h **** 
  55:../../../../DaisyExamples/libDaisy//src/per/sai.h ****         /** Rate at which samples will be streaming to/from the device. */
  56:../../../../DaisyExamples/libDaisy//src/per/sai.h ****         enum class SampleRate
  57:../../../../DaisyExamples/libDaisy//src/per/sai.h ****         {
  58:../../../../DaisyExamples/libDaisy//src/per/sai.h ****             SAI_8KHZ,
  59:../../../../DaisyExamples/libDaisy//src/per/sai.h ****             SAI_16KHZ,
  60:../../../../DaisyExamples/libDaisy//src/per/sai.h ****             SAI_32KHZ,
  61:../../../../DaisyExamples/libDaisy//src/per/sai.h ****             SAI_48KHZ,
  62:../../../../DaisyExamples/libDaisy//src/per/sai.h ****             SAI_96KHZ,
  63:../../../../DaisyExamples/libDaisy//src/per/sai.h ****         };
  64:../../../../DaisyExamples/libDaisy//src/per/sai.h **** 
  65:../../../../DaisyExamples/libDaisy//src/per/sai.h ****         /** Bit Depth that the hardware expects to be transferred to/from the device. */
  66:../../../../DaisyExamples/libDaisy//src/per/sai.h ****         enum class BitDepth
  67:../../../../DaisyExamples/libDaisy//src/per/sai.h ****         {
  68:../../../../DaisyExamples/libDaisy//src/per/sai.h ****             SAI_16BIT,
  69:../../../../DaisyExamples/libDaisy//src/per/sai.h ****             SAI_24BIT,
  70:../../../../DaisyExamples/libDaisy//src/per/sai.h ****             SAI_32BIT,
  71:../../../../DaisyExamples/libDaisy//src/per/sai.h ****         };
  72:../../../../DaisyExamples/libDaisy//src/per/sai.h **** 
  73:../../../../DaisyExamples/libDaisy//src/per/sai.h ****         /** Specifies whether a particular block is the master or the slave 
  74:../../../../DaisyExamples/libDaisy//src/per/sai.h ****          ** If both are set to slave, no MCLK signal will be used, and it is
  75:../../../../DaisyExamples/libDaisy//src/per/sai.h ****          ** expected that the codec will have its own xtal.
  76:../../../../DaisyExamples/libDaisy//src/per/sai.h ****          */
  77:../../../../DaisyExamples/libDaisy//src/per/sai.h ****         enum class Sync
  78:../../../../DaisyExamples/libDaisy//src/per/sai.h ****         {
  79:../../../../DaisyExamples/libDaisy//src/per/sai.h ****             MASTER,
  80:../../../../DaisyExamples/libDaisy//src/per/sai.h ****             SLAVE,
  81:../../../../DaisyExamples/libDaisy//src/per/sai.h ****         };
  82:../../../../DaisyExamples/libDaisy//src/per/sai.h **** 
  83:../../../../DaisyExamples/libDaisy//src/per/sai.h ****         /** Specifies the direction for each peripheral block. */
  84:../../../../DaisyExamples/libDaisy//src/per/sai.h ****         enum class Direction
  85:../../../../DaisyExamples/libDaisy//src/per/sai.h ****         {
  86:../../../../DaisyExamples/libDaisy//src/per/sai.h ****             TRANSMIT,
  87:../../../../DaisyExamples/libDaisy//src/per/sai.h ****             RECEIVE,
  88:../../../../DaisyExamples/libDaisy//src/per/sai.h ****         };
  89:../../../../DaisyExamples/libDaisy//src/per/sai.h **** 
  90:../../../../DaisyExamples/libDaisy//src/per/sai.h ****         Peripheral periph;
  91:../../../../DaisyExamples/libDaisy//src/per/sai.h ****         struct
  92:../../../../DaisyExamples/libDaisy//src/per/sai.h ****         {
  93:../../../../DaisyExamples/libDaisy//src/per/sai.h ****             dsy_gpio_pin mclk, fs, sck, sa, sb;
  94:../../../../DaisyExamples/libDaisy//src/per/sai.h ****         } pin_config;
  95:../../../../DaisyExamples/libDaisy//src/per/sai.h ****         SampleRate sr;
  96:../../../../DaisyExamples/libDaisy//src/per/sai.h ****         BitDepth   bit_depth;
  97:../../../../DaisyExamples/libDaisy//src/per/sai.h ****         Sync       a_sync, b_sync;
  98:../../../../DaisyExamples/libDaisy//src/per/sai.h ****         Direction  a_dir, b_dir;
  99:../../../../DaisyExamples/libDaisy//src/per/sai.h ****     };
 100:../../../../DaisyExamples/libDaisy//src/per/sai.h **** 
 101:../../../../DaisyExamples/libDaisy//src/per/sai.h ****     /** Return values for SAI functions */
 102:../../../../DaisyExamples/libDaisy//src/per/sai.h ****     enum class Result
 103:../../../../DaisyExamples/libDaisy//src/per/sai.h ****     {
 104:../../../../DaisyExamples/libDaisy//src/per/sai.h ****         OK,
ARM GAS  C:\Users\samue\AppData\Local\Temp\ccTqPziZ.s 			page 51


 105:../../../../DaisyExamples/libDaisy//src/per/sai.h ****         ERR,
 106:../../../../DaisyExamples/libDaisy//src/per/sai.h ****     };
 107:../../../../DaisyExamples/libDaisy//src/per/sai.h **** 
 108:../../../../DaisyExamples/libDaisy//src/per/sai.h ****     SaiHandle() : pimpl_(nullptr) {}
 1474              		.loc 16 108 5 is_stmt 1 view .LVU253
 1475              	.LBE803:
 1476              	.LBE804:
 1477              	.LBE805:
 1478              	.LBE808:
 1479              	.LBE811:
 1480              	.LBE849:
  11:helloTest.cpp **** daisyCommon board;
 1481              		.loc 9 11 13 is_stmt 0 view .LVU254
 1482 00a2 234A     		ldr	r2, .L30+4
 1483              	.LBB850:
 1484              	.LBB812:
 1485              	.LBB809:
  24:daisy_common.h ****     ~daisyCommon() {}
 1486              		.loc 1 24 19 view .LVU255
 1487 00a4 C0E97B41 		strd	r4, r1, [r0, #492]
 1488 00a8 C0E97D11 		strd	r1, r1, [r0, #500]
 1489 00ac C0E97F11 		strd	r1, r1, [r0, #508]
 1490 00b0 C0E98111 		strd	r1, r1, [r0, #516]
 1491 00b4 0221     		movs	r1, #2
 1492 00b6 C0E96943 		strd	r4, r3, [r0, #420]
 1493 00ba C0E97934 		strd	r3, r4, [r0, #484]
 1494 00be C0E96B33 		strd	r3, r3, [r0, #428]
 1495 00c2 C0E96D33 		strd	r3, r3, [r0, #436]
 1496 00c6 C0E96F33 		strd	r3, r3, [r0, #444]
 1497 00ca C0E97133 		strd	r3, r3, [r0, #452]
 1498 00ce C0E97333 		strd	r3, r3, [r0, #460]
 1499 00d2 C0E97533 		strd	r3, r3, [r0, #468]
 1500 00d6 C0E97733 		strd	r3, r3, [r0, #476]
 1501 00da C0E98433 		strd	r3, r3, [r0, #528]
 1502 00de C0E98633 		strd	r3, r3, [r0, #536]
 1503 00e2 C0E98833 		strd	r3, r3, [r0, #544]
 1504 00e6 C0E98A33 		strd	r3, r3, [r0, #552]
 1505 00ea C0F83012 		str	r1, [r0, #560]
 1506              	.LVL65:
  24:daisy_common.h ****     ~daisyCommon() {}
 1507              		.loc 1 24 19 view .LVU256
 1508              	.LBE809:
 1509              	.LBE812:
 1510              	.LBE850:
  11:helloTest.cpp **** daisyCommon board;
 1511              		.loc 9 11 13 view .LVU257
 1512 00ee 1149     		ldr	r1, .L30+8
 1513 00f0 FFF7FEFF 		bl	__aeabi_atexit
 1514              	.LVL66:
  14:helloTest.cpp **** fho osc[2];
 1515              		.loc 9 14 10 is_stmt 1 view .LVU258
 1516              	.LBB851:
 1517              	.LBI814:
 1518              		.loc 13 12 5 view .LVU259
 1519              	.LBB845:
 1520              	.LBB841:
 1521              	.LBB817:
ARM GAS  C:\Users\samue\AppData\Local\Temp\ccTqPziZ.s 			page 52


 1522              	.LBI817:
 1523              		.file 17 "../../../../DaisyExamples/DaisySP//Source/Effects/wavefolder.h"
   1:../../../../DaisyExamples/DaisySP//Source/Effects/wavefolder.h **** /*
   2:../../../../DaisyExamples/DaisySP//Source/Effects/wavefolder.h **** Copyright (c) 2020 Electrosmith, Corp, Nick Donaldson
   3:../../../../DaisyExamples/DaisySP//Source/Effects/wavefolder.h **** 
   4:../../../../DaisyExamples/DaisySP//Source/Effects/wavefolder.h **** Use of this source code is governed by an MIT-style
   5:../../../../DaisyExamples/DaisySP//Source/Effects/wavefolder.h **** license that can be found in the LICENSE file or at
   6:../../../../DaisyExamples/DaisySP//Source/Effects/wavefolder.h **** https://opensource.org/licenses/MIT.
   7:../../../../DaisyExamples/DaisySP//Source/Effects/wavefolder.h **** */
   8:../../../../DaisyExamples/DaisySP//Source/Effects/wavefolder.h **** 
   9:../../../../DaisyExamples/DaisySP//Source/Effects/wavefolder.h **** #pragma once
  10:../../../../DaisyExamples/DaisySP//Source/Effects/wavefolder.h **** #ifndef DSY_WAVEFOFOLDER_H
  11:../../../../DaisyExamples/DaisySP//Source/Effects/wavefolder.h **** #define DSY_WAVEFOFOLDER_H
  12:../../../../DaisyExamples/DaisySP//Source/Effects/wavefolder.h **** 
  13:../../../../DaisyExamples/DaisySP//Source/Effects/wavefolder.h **** #include <stdint.h>
  14:../../../../DaisyExamples/DaisySP//Source/Effects/wavefolder.h **** #include "Utility/dcblock.h"
  15:../../../../DaisyExamples/DaisySP//Source/Effects/wavefolder.h **** #ifdef __cplusplus
  16:../../../../DaisyExamples/DaisySP//Source/Effects/wavefolder.h **** 
  17:../../../../DaisyExamples/DaisySP//Source/Effects/wavefolder.h **** namespace daisysp
  18:../../../../DaisyExamples/DaisySP//Source/Effects/wavefolder.h **** {
  19:../../../../DaisyExamples/DaisySP//Source/Effects/wavefolder.h **** /** Basic wavefolder module.
  20:../../../../DaisyExamples/DaisySP//Source/Effects/wavefolder.h **** 
  21:../../../../DaisyExamples/DaisySP//Source/Effects/wavefolder.h **** Amplitude of input determines level of folding.
  22:../../../../DaisyExamples/DaisySP//Source/Effects/wavefolder.h **** Amplitudes of magnitude > 1.0 will start to fold.
  23:../../../../DaisyExamples/DaisySP//Source/Effects/wavefolder.h **** 
  24:../../../../DaisyExamples/DaisySP//Source/Effects/wavefolder.h **** Original author(s) : Nick Donaldson
  25:../../../../DaisyExamples/DaisySP//Source/Effects/wavefolder.h **** Year : 2022
  26:../../../../DaisyExamples/DaisySP//Source/Effects/wavefolder.h **** */
  27:../../../../DaisyExamples/DaisySP//Source/Effects/wavefolder.h **** class Wavefolder
  28:../../../../DaisyExamples/DaisySP//Source/Effects/wavefolder.h **** {
  29:../../../../DaisyExamples/DaisySP//Source/Effects/wavefolder.h ****   public:
  30:../../../../DaisyExamples/DaisySP//Source/Effects/wavefolder.h ****     Wavefolder() {}
 1524              		.loc 17 30 5 view .LVU260
 1525              		.loc 17 30 5 is_stmt 0 view .LVU261
 1526              	.LBE817:
 1527              	.LBB818:
 1528              	.LBI818:
 1529              		.file 18 "../../../../DaisyExamples/DaisySP//Source/Synthesis/oscillator.h"
   1:../../../../DaisyExamples/DaisySP//Source/Synthesis/oscillator.h **** /*
   2:../../../../DaisyExamples/DaisySP//Source/Synthesis/oscillator.h **** Copyright (c) 2020 Electrosmith, Corp
   3:../../../../DaisyExamples/DaisySP//Source/Synthesis/oscillator.h **** 
   4:../../../../DaisyExamples/DaisySP//Source/Synthesis/oscillator.h **** Use of this source code is governed by an MIT-style
   5:../../../../DaisyExamples/DaisySP//Source/Synthesis/oscillator.h **** license that can be found in the LICENSE file or at
   6:../../../../DaisyExamples/DaisySP//Source/Synthesis/oscillator.h **** https://opensource.org/licenses/MIT.
   7:../../../../DaisyExamples/DaisySP//Source/Synthesis/oscillator.h **** */
   8:../../../../DaisyExamples/DaisySP//Source/Synthesis/oscillator.h **** 
   9:../../../../DaisyExamples/DaisySP//Source/Synthesis/oscillator.h **** #pragma once
  10:../../../../DaisyExamples/DaisySP//Source/Synthesis/oscillator.h **** #ifndef DSY_OSCILLATOR_H
  11:../../../../DaisyExamples/DaisySP//Source/Synthesis/oscillator.h **** #define DSY_OSCILLATOR_H
  12:../../../../DaisyExamples/DaisySP//Source/Synthesis/oscillator.h **** #include <stdint.h>
  13:../../../../DaisyExamples/DaisySP//Source/Synthesis/oscillator.h **** #include "Utility/dsp.h"
  14:../../../../DaisyExamples/DaisySP//Source/Synthesis/oscillator.h **** #ifdef __cplusplus
  15:../../../../DaisyExamples/DaisySP//Source/Synthesis/oscillator.h **** 
  16:../../../../DaisyExamples/DaisySP//Source/Synthesis/oscillator.h **** namespace daisysp
  17:../../../../DaisyExamples/DaisySP//Source/Synthesis/oscillator.h **** {
  18:../../../../DaisyExamples/DaisySP//Source/Synthesis/oscillator.h **** /** Synthesis of several waveforms, including polyBLEP bandlimited waveforms.
  19:../../../../DaisyExamples/DaisySP//Source/Synthesis/oscillator.h **** */
ARM GAS  C:\Users\samue\AppData\Local\Temp\ccTqPziZ.s 			page 53


  20:../../../../DaisyExamples/DaisySP//Source/Synthesis/oscillator.h **** class Oscillator
  21:../../../../DaisyExamples/DaisySP//Source/Synthesis/oscillator.h **** {
  22:../../../../DaisyExamples/DaisySP//Source/Synthesis/oscillator.h ****   public:
  23:../../../../DaisyExamples/DaisySP//Source/Synthesis/oscillator.h ****     Oscillator() {}
 1530              		.loc 18 23 5 is_stmt 1 view .LVU262
 1531              		.loc 18 23 5 is_stmt 0 view .LVU263
 1532              	.LBE818:
 1533              	.LBB819:
 1534              	.LBI819:
 1535              		.file 19 "../../../../DaisyExamples/DaisySP//Source/Filters/fir.h"
   1:../../../../DaisyExamples/DaisySP//Source/Filters/fir.h **** /*
   2:../../../../DaisyExamples/DaisySP//Source/Filters/fir.h **** Copyright (c) 2020 Electrosmith, Corp, Alexander Petrov-Savchenko
   3:../../../../DaisyExamples/DaisySP//Source/Filters/fir.h **** 
   4:../../../../DaisyExamples/DaisySP//Source/Filters/fir.h **** Use of this source code is governed by an MIT-style
   5:../../../../DaisyExamples/DaisySP//Source/Filters/fir.h **** license that can be found in the LICENSE file or at
   6:../../../../DaisyExamples/DaisySP//Source/Filters/fir.h **** https://opensource.org/licenses/MIT.
   7:../../../../DaisyExamples/DaisySP//Source/Filters/fir.h **** */
   8:../../../../DaisyExamples/DaisySP//Source/Filters/fir.h **** 
   9:../../../../DaisyExamples/DaisySP//Source/Filters/fir.h **** #pragma once
  10:../../../../DaisyExamples/DaisySP//Source/Filters/fir.h **** #ifndef DSY_FIRFILTER_H
  11:../../../../DaisyExamples/DaisySP//Source/Filters/fir.h **** #define DSY_FIRFILTER_H
  12:../../../../DaisyExamples/DaisySP//Source/Filters/fir.h **** 
  13:../../../../DaisyExamples/DaisySP//Source/Filters/fir.h **** #include <cstdint>
  14:../../../../DaisyExamples/DaisySP//Source/Filters/fir.h **** #include <cstring> // for memset
  15:../../../../DaisyExamples/DaisySP//Source/Filters/fir.h **** #include <cassert>
  16:../../../../DaisyExamples/DaisySP//Source/Filters/fir.h **** #include <utility>
  17:../../../../DaisyExamples/DaisySP//Source/Filters/fir.h **** 
  18:../../../../DaisyExamples/DaisySP//Source/Filters/fir.h **** #ifdef USE_ARM_DSP
  19:../../../../DaisyExamples/DaisySP//Source/Filters/fir.h **** #include <arm_math.h> // required for platform-optimized version
  20:../../../../DaisyExamples/DaisySP//Source/Filters/fir.h **** #endif
  21:../../../../DaisyExamples/DaisySP//Source/Filters/fir.h **** 
  22:../../../../DaisyExamples/DaisySP//Source/Filters/fir.h **** /**   @brief FIR Filter implementation, generic and ARM CMSIS DSP based
  23:../../../../DaisyExamples/DaisySP//Source/Filters/fir.h ****  *    @author Alexander Petrov-Savchenko (axp@soft-amp.com)
  24:../../../../DaisyExamples/DaisySP//Source/Filters/fir.h ****  *    @date February 2021
  25:../../../../DaisyExamples/DaisySP//Source/Filters/fir.h ****  */
  26:../../../../DaisyExamples/DaisySP//Source/Filters/fir.h **** 
  27:../../../../DaisyExamples/DaisySP//Source/Filters/fir.h **** namespace daisysp
  28:../../../../DaisyExamples/DaisySP//Source/Filters/fir.h **** {
  29:../../../../DaisyExamples/DaisySP//Source/Filters/fir.h **** /* use this as a template parameter to indicate user-provided memory storage */
  30:../../../../DaisyExamples/DaisySP//Source/Filters/fir.h **** #define FIRFILTER_USER_MEMORY 0, 0
  31:../../../../DaisyExamples/DaisySP//Source/Filters/fir.h **** 
  32:../../../../DaisyExamples/DaisySP//Source/Filters/fir.h **** /** Helper class that defines the memory model - internal or user-provided 
  33:../../../../DaisyExamples/DaisySP//Source/Filters/fir.h ****  * \param max_size - maximal filter length
  34:../../../../DaisyExamples/DaisySP//Source/Filters/fir.h ****  * \param max_block - maximal length of the block processing
  35:../../../../DaisyExamples/DaisySP//Source/Filters/fir.h ****  * if both parameters are 0, does NOT allocate any memory and instead
  36:../../../../DaisyExamples/DaisySP//Source/Filters/fir.h ****  * requires user-provided memory blocks to be passed as parameters.
  37:../../../../DaisyExamples/DaisySP//Source/Filters/fir.h ****  *
  38:../../../../DaisyExamples/DaisySP//Source/Filters/fir.h ****  * Not intended to be used directly, so constructor is not exposed
  39:../../../../DaisyExamples/DaisySP//Source/Filters/fir.h ****  */
  40:../../../../DaisyExamples/DaisySP//Source/Filters/fir.h **** template <size_t max_size, size_t max_block>
  41:../../../../DaisyExamples/DaisySP//Source/Filters/fir.h **** struct FIRMemory
  42:../../../../DaisyExamples/DaisySP//Source/Filters/fir.h **** {
  43:../../../../DaisyExamples/DaisySP//Source/Filters/fir.h ****     /* Public part of the API to be passed through to the FIR users */
  44:../../../../DaisyExamples/DaisySP//Source/Filters/fir.h ****   public:
  45:../../../../DaisyExamples/DaisySP//Source/Filters/fir.h ****     /* Reset the internal filter state (but not the coefficients) */
  46:../../../../DaisyExamples/DaisySP//Source/Filters/fir.h ****     void Reset() { memset(state_, 0, state_size_ * sizeof(state_[0])); }
  47:../../../../DaisyExamples/DaisySP//Source/Filters/fir.h **** 
ARM GAS  C:\Users\samue\AppData\Local\Temp\ccTqPziZ.s 			page 54


  48:../../../../DaisyExamples/DaisySP//Source/Filters/fir.h **** 
  49:../../../../DaisyExamples/DaisySP//Source/Filters/fir.h ****   protected:
  50:../../../../DaisyExamples/DaisySP//Source/Filters/fir.h ****     FIRMemory() : state_{0}, coefs_{0}, size_(0) {}
  51:../../../../DaisyExamples/DaisySP//Source/Filters/fir.h **** 
  52:../../../../DaisyExamples/DaisySP//Source/Filters/fir.h ****     /* Expression for the maximum block size */
  53:../../../../DaisyExamples/DaisySP//Source/Filters/fir.h ****     static constexpr size_t MaxBlock() { return max_block; }
  54:../../../../DaisyExamples/DaisySP//Source/Filters/fir.h **** 
  55:../../../../DaisyExamples/DaisySP//Source/Filters/fir.h ****     /** Configure the filter coefficients
  56:../../../../DaisyExamples/DaisySP//Source/Filters/fir.h ****      * \param coefs - pointer to coefficients (tail-first order)
  57:../../../../DaisyExamples/DaisySP//Source/Filters/fir.h ****      * \param size - number of coefficients pointed by coefs (filter length)
  58:../../../../DaisyExamples/DaisySP//Source/Filters/fir.h ****      * \param reverse - flag to perform reversing of the filter
  59:../../../../DaisyExamples/DaisySP//Source/Filters/fir.h ****      * \return true if all conditions are met and the filter is configured
  60:../../../../DaisyExamples/DaisySP//Source/Filters/fir.h ****      */
  61:../../../../DaisyExamples/DaisySP//Source/Filters/fir.h ****     bool SetCoefs(const float coefs[], size_t size, bool reverse)
  62:../../../../DaisyExamples/DaisySP//Source/Filters/fir.h ****     {
  63:../../../../DaisyExamples/DaisySP//Source/Filters/fir.h ****         /* truncate silently */
  64:../../../../DaisyExamples/DaisySP//Source/Filters/fir.h ****         size_ = DSY_MIN(size, max_size);
  65:../../../../DaisyExamples/DaisySP//Source/Filters/fir.h **** 
  66:../../../../DaisyExamples/DaisySP//Source/Filters/fir.h ****         if(reverse)
  67:../../../../DaisyExamples/DaisySP//Source/Filters/fir.h ****         {
  68:../../../../DaisyExamples/DaisySP//Source/Filters/fir.h ****             /* reverse the IR */
  69:../../../../DaisyExamples/DaisySP//Source/Filters/fir.h ****             for(size_t i = 0; i < size_; i++)
  70:../../../../DaisyExamples/DaisySP//Source/Filters/fir.h ****             {
  71:../../../../DaisyExamples/DaisySP//Source/Filters/fir.h ****                 /* start from size, not size_! */
  72:../../../../DaisyExamples/DaisySP//Source/Filters/fir.h ****                 coefs_[i] = coefs[size - 1u - i];
  73:../../../../DaisyExamples/DaisySP//Source/Filters/fir.h ****             }
  74:../../../../DaisyExamples/DaisySP//Source/Filters/fir.h ****         }
  75:../../../../DaisyExamples/DaisySP//Source/Filters/fir.h ****         else
  76:../../../../DaisyExamples/DaisySP//Source/Filters/fir.h ****         {
  77:../../../../DaisyExamples/DaisySP//Source/Filters/fir.h ****             /* just copy as is */
  78:../../../../DaisyExamples/DaisySP//Source/Filters/fir.h ****             memcpy(coefs_, coefs, size_ * sizeof(coefs[0]));
  79:../../../../DaisyExamples/DaisySP//Source/Filters/fir.h ****         }
  80:../../../../DaisyExamples/DaisySP//Source/Filters/fir.h **** 
  81:../../../../DaisyExamples/DaisySP//Source/Filters/fir.h ****         return true;
  82:../../../../DaisyExamples/DaisySP//Source/Filters/fir.h ****     }
  83:../../../../DaisyExamples/DaisySP//Source/Filters/fir.h **** 
  84:../../../../DaisyExamples/DaisySP//Source/Filters/fir.h ****     static constexpr size_t state_size_ = max_size + max_block - 1u;
  85:../../../../DaisyExamples/DaisySP//Source/Filters/fir.h ****     float                   state_[state_size_]; /*< Internal state buffer */
  86:../../../../DaisyExamples/DaisySP//Source/Filters/fir.h ****     float                   coefs_[max_size];    /*< Filter coefficients */
  87:../../../../DaisyExamples/DaisySP//Source/Filters/fir.h ****     size_t                  size_; /*< Active filter length (<= max_size) */
  88:../../../../DaisyExamples/DaisySP//Source/Filters/fir.h **** };
  89:../../../../DaisyExamples/DaisySP//Source/Filters/fir.h **** 
  90:../../../../DaisyExamples/DaisySP//Source/Filters/fir.h **** /* Specialization for user-provided memory */
  91:../../../../DaisyExamples/DaisySP//Source/Filters/fir.h **** template <>
  92:../../../../DaisyExamples/DaisySP//Source/Filters/fir.h **** struct FIRMemory<FIRFILTER_USER_MEMORY>
  93:../../../../DaisyExamples/DaisySP//Source/Filters/fir.h **** {
  94:../../../../DaisyExamples/DaisySP//Source/Filters/fir.h ****     /* Public part of the API to be passed through to the FIRFilter user */
  95:../../../../DaisyExamples/DaisySP//Source/Filters/fir.h ****   public:
  96:../../../../DaisyExamples/DaisySP//Source/Filters/fir.h ****     /** Set user-provided state buffer
  97:../../../../DaisyExamples/DaisySP//Source/Filters/fir.h ****      * \param state - pointer to the allocated memory block
  98:../../../../DaisyExamples/DaisySP//Source/Filters/fir.h ****      * \param length - length of the provided memory block (in elements)
  99:../../../../DaisyExamples/DaisySP//Source/Filters/fir.h ****      * The length should be determined as follows 
 100:../../../../DaisyExamples/DaisySP//Source/Filters/fir.h ****      * length >= max_filter_size + max_processing_block - 1
 101:../../../../DaisyExamples/DaisySP//Source/Filters/fir.h ****      */
 102:../../../../DaisyExamples/DaisySP//Source/Filters/fir.h ****     void SetStateBuffer(float state[], size_t length)
 103:../../../../DaisyExamples/DaisySP//Source/Filters/fir.h ****     {
 104:../../../../DaisyExamples/DaisySP//Source/Filters/fir.h ****         state_      = state;
ARM GAS  C:\Users\samue\AppData\Local\Temp\ccTqPziZ.s 			page 55


 105:../../../../DaisyExamples/DaisySP//Source/Filters/fir.h ****         state_size_ = length;
 106:../../../../DaisyExamples/DaisySP//Source/Filters/fir.h ****     }
 107:../../../../DaisyExamples/DaisySP//Source/Filters/fir.h ****     /* Reset the internal filter state (but not the coefficients) */
 108:../../../../DaisyExamples/DaisySP//Source/Filters/fir.h ****     void Reset()
 109:../../../../DaisyExamples/DaisySP//Source/Filters/fir.h ****     {
 110:../../../../DaisyExamples/DaisySP//Source/Filters/fir.h ****         assert(nullptr != state_);
 111:../../../../DaisyExamples/DaisySP//Source/Filters/fir.h ****         assert(0 != state_size_);
 112:../../../../DaisyExamples/DaisySP//Source/Filters/fir.h ****         if(nullptr != state_)
 113:../../../../DaisyExamples/DaisySP//Source/Filters/fir.h ****         {
 114:../../../../DaisyExamples/DaisySP//Source/Filters/fir.h ****             memset(state_, 0, state_size_ * sizeof(state_[0]));
 115:../../../../DaisyExamples/DaisySP//Source/Filters/fir.h ****         }
 116:../../../../DaisyExamples/DaisySP//Source/Filters/fir.h ****     }
 117:../../../../DaisyExamples/DaisySP//Source/Filters/fir.h **** 
 118:../../../../DaisyExamples/DaisySP//Source/Filters/fir.h ****   protected:
 119:../../../../DaisyExamples/DaisySP//Source/Filters/fir.h ****     FIRMemory() : state_(nullptr), coefs_(nullptr), size_(0), state_size_(0) {}
 120:../../../../DaisyExamples/DaisySP//Source/Filters/fir.h **** 
 121:../../../../DaisyExamples/DaisySP//Source/Filters/fir.h ****     /* Expression for the maximum processing block size currently supported */
 122:../../../../DaisyExamples/DaisySP//Source/Filters/fir.h ****     size_t MaxBlock() const
 123:../../../../DaisyExamples/DaisySP//Source/Filters/fir.h ****     {
 124:../../../../DaisyExamples/DaisySP//Source/Filters/fir.h ****         return state_size_ + 1u > size_ ? state_size_ + 1u - size_ : 0;
 125:../../../../DaisyExamples/DaisySP//Source/Filters/fir.h ****     }
 126:../../../../DaisyExamples/DaisySP//Source/Filters/fir.h **** 
 127:../../../../DaisyExamples/DaisySP//Source/Filters/fir.h ****     /** Configure the filter coefficients
 128:../../../../DaisyExamples/DaisySP//Source/Filters/fir.h ****      * \param coefs - pointer to coefficients (tail-first order)
 129:../../../../DaisyExamples/DaisySP//Source/Filters/fir.h ****      * \param size - number of coefficients pointed by coefs (filter length)
 130:../../../../DaisyExamples/DaisySP//Source/Filters/fir.h ****      * \param reverse - flag to perform reversing of the filter
 131:../../../../DaisyExamples/DaisySP//Source/Filters/fir.h ****      * \return true if all conditions are met and the filter is configured
 132:../../../../DaisyExamples/DaisySP//Source/Filters/fir.h ****      */
 133:../../../../DaisyExamples/DaisySP//Source/Filters/fir.h ****     bool SetCoefs(const float coefs[], size_t size, bool reverse)
 134:../../../../DaisyExamples/DaisySP//Source/Filters/fir.h ****     {
 135:../../../../DaisyExamples/DaisySP//Source/Filters/fir.h ****         /* reversing of external IR is not supported*/
 136:../../../../DaisyExamples/DaisySP//Source/Filters/fir.h ****         assert(false == reverse);
 137:../../../../DaisyExamples/DaisySP//Source/Filters/fir.h ****         assert(nullptr != coefs || 0 == size);
 138:../../../../DaisyExamples/DaisySP//Source/Filters/fir.h **** 
 139:../../../../DaisyExamples/DaisySP//Source/Filters/fir.h ****         if(false == reverse && (nullptr != coefs || 0 == size))
 140:../../../../DaisyExamples/DaisySP//Source/Filters/fir.h ****         {
 141:../../../../DaisyExamples/DaisySP//Source/Filters/fir.h ****             coefs_ = coefs;
 142:../../../../DaisyExamples/DaisySP//Source/Filters/fir.h ****             size_  = size;
 143:../../../../DaisyExamples/DaisySP//Source/Filters/fir.h ****             return true;
 144:../../../../DaisyExamples/DaisySP//Source/Filters/fir.h ****         }
 145:../../../../DaisyExamples/DaisySP//Source/Filters/fir.h **** 
 146:../../../../DaisyExamples/DaisySP//Source/Filters/fir.h ****         return false;
 147:../../../../DaisyExamples/DaisySP//Source/Filters/fir.h ****     }
 148:../../../../DaisyExamples/DaisySP//Source/Filters/fir.h **** 
 149:../../../../DaisyExamples/DaisySP//Source/Filters/fir.h ****     /* Internal member variables */
 150:../../../../DaisyExamples/DaisySP//Source/Filters/fir.h **** 
 151:../../../../DaisyExamples/DaisySP//Source/Filters/fir.h ****     float*       state_;      /*< Internal state buffer */
 152:../../../../DaisyExamples/DaisySP//Source/Filters/fir.h ****     const float* coefs_;      /*< Filter coefficients */
 153:../../../../DaisyExamples/DaisySP//Source/Filters/fir.h ****     size_t       size_;       /*< number of filter coefficients */
 154:../../../../DaisyExamples/DaisySP//Source/Filters/fir.h ****     size_t       state_size_; /*< length of the state buffer */
 155:../../../../DaisyExamples/DaisySP//Source/Filters/fir.h **** };
 156:../../../../DaisyExamples/DaisySP//Source/Filters/fir.h **** 
 157:../../../../DaisyExamples/DaisySP//Source/Filters/fir.h **** 
 158:../../../../DaisyExamples/DaisySP//Source/Filters/fir.h **** /** Generic FIR implementation is always available
 159:../../../../DaisyExamples/DaisySP//Source/Filters/fir.h ****  * \param max_size - maximal filter length
 160:../../../../DaisyExamples/DaisySP//Source/Filters/fir.h ****  * \param max_block - maximal block size for ProcessBlock()
 161:../../../../DaisyExamples/DaisySP//Source/Filters/fir.h ****  * if both parameters are 0 (via FIRFILTER_USER_MEMORY macro)
ARM GAS  C:\Users\samue\AppData\Local\Temp\ccTqPziZ.s 			page 56


 162:../../../../DaisyExamples/DaisySP//Source/Filters/fir.h ****  * Assumes the user will provide own memory buffers
 163:../../../../DaisyExamples/DaisySP//Source/Filters/fir.h ****  * via SetIR() and SetStateBuffer() functions
 164:../../../../DaisyExamples/DaisySP//Source/Filters/fir.h ****  * Otherwise statically allocates the necessary buffers itself
 165:../../../../DaisyExamples/DaisySP//Source/Filters/fir.h ****  */
 166:../../../../DaisyExamples/DaisySP//Source/Filters/fir.h **** template <size_t max_size, size_t max_block>
 167:../../../../DaisyExamples/DaisySP//Source/Filters/fir.h **** class FIRFilterImplGeneric : public FIRMemory<max_size, max_block>
 168:../../../../DaisyExamples/DaisySP//Source/Filters/fir.h **** {
 169:../../../../DaisyExamples/DaisySP//Source/Filters/fir.h ****   private:
 170:../../../../DaisyExamples/DaisySP//Source/Filters/fir.h ****     using FIRMem = FIRMemory<max_size, max_block>; // just a shorthand
 171:../../../../DaisyExamples/DaisySP//Source/Filters/fir.h **** 
 172:../../../../DaisyExamples/DaisySP//Source/Filters/fir.h ****   public:
 173:../../../../DaisyExamples/DaisySP//Source/Filters/fir.h ****     /* Default constructor */
 174:../../../../DaisyExamples/DaisySP//Source/Filters/fir.h ****     FIRFilterImplGeneric() {}
 1536              		.loc 19 174 5 is_stmt 1 view .LVU264
 1537              	.LBB820:
 1538              	.LBI820:
 119:../../../../DaisyExamples/DaisySP//Source/Filters/fir.h **** 
 1539              		.loc 19 119 5 view .LVU265
 1540              	.LBB821:
 1541              	.LBB822:
 119:../../../../DaisyExamples/DaisySP//Source/Filters/fir.h **** 
 1542              		.loc 19 119 76 is_stmt 0 view .LVU266
 1543 00f4 104B     		ldr	r3, .L30+12
 1544              	.LBE822:
 1545              	.LBE821:
 1546              	.LBE820:
 1547              	.LBE819:
 1548              	.LBE841:
 1549              	.LBE845:
 1550              	.LBE851:
  14:helloTest.cpp **** fho osc[2];
 1551              		.loc 9 14 5 view .LVU267
 1552 00f6 2046     		mov	r0, r4
 1553 00f8 0D4A     		ldr	r2, .L30+4
 1554              	.LBB852:
 1555              	.LBB846:
 1556              	.LBB842:
 1557              		.loc 13 12 11 view .LVU268
 1558 00fa DD65     		str	r5, [r3, #92]
 1559 00fc C3F81052 		str	r5, [r3, #528]
 1560              	.LBE842:
 1561              	.LBE846:
 1562              	.LBE852:
  14:helloTest.cpp **** fho osc[2];
 1563              		.loc 9 14 5 view .LVU269
 1564 0100 0E49     		ldr	r1, .L30+16
 1565              	.LBB853:
 1566              	.LBB847:
 1567              	.LBB843:
 1568              	.LBB829:
 1569              	.LBB827:
 1570              	.LBB825:
 1571              	.LBB823:
 119:../../../../DaisyExamples/DaisySP//Source/Filters/fir.h **** 
 1572              		.loc 19 119 76 view .LVU270
 1573 0102 C3E90F44 		strd	r4, r4, [r3, #60]
 1574 0106 C3E91144 		strd	r4, r4, [r3, #68]
ARM GAS  C:\Users\samue\AppData\Local\Temp\ccTqPziZ.s 			page 57


 1575              	.LVL67:
 119:../../../../DaisyExamples/DaisySP//Source/Filters/fir.h **** 
 1576              		.loc 19 119 76 view .LVU271
 1577              	.LBE823:
 1578              	.LBE825:
 1579              	.LBE827:
 1580              	.LBE829:
 1581              	.LBB830:
 1582              	.LBI830:
 1583              		.loc 19 174 5 is_stmt 1 view .LVU272
 1584              	.LBB831:
 1585              	.LBI831:
 119:../../../../DaisyExamples/DaisySP//Source/Filters/fir.h **** 
 1586              		.loc 19 119 5 view .LVU273
 1587              	.LBB832:
 1588              	.LBB833:
 119:../../../../DaisyExamples/DaisySP//Source/Filters/fir.h **** 
 1589              		.loc 19 119 76 is_stmt 0 view .LVU274
 1590 010a C3E91344 		strd	r4, r4, [r3, #76]
 1591 010e C3E91544 		strd	r4, r4, [r3, #84]
 1592              	.LVL68:
 119:../../../../DaisyExamples/DaisySP//Source/Filters/fir.h **** 
 1593              		.loc 19 119 76 view .LVU275
 1594              	.LBE833:
 1595              	.LBE832:
 1596              	.LBE831:
 1597              	.LBE830:
 1598              	.LBE843:
 1599              	.LBE847:
 1600              	.LBE853:
  14:helloTest.cpp **** fho osc[2];
 1601              		.loc 9 14 10 is_stmt 1 view .LVU276
  14:helloTest.cpp **** fho osc[2];
 1602              		.loc 9 14 10 view .LVU277
 1603              	.LBB854:
 1604              		.loc 13 12 5 view .LVU278
 1605              	.LBB848:
 1606              	.LBB844:
 1607              	.LBB837:
 1608              		.loc 17 30 5 view .LVU279
 1609              		.loc 17 30 5 is_stmt 0 view .LVU280
 1610              	.LBE837:
 1611              	.LBB838:
 1612              		.loc 18 23 5 is_stmt 1 view .LVU281
 1613              		.loc 18 23 5 is_stmt 0 view .LVU282
 1614              	.LBE838:
 1615              	.LBB839:
 1616              		.loc 19 174 5 is_stmt 1 view .LVU283
 1617              	.LBB828:
 119:../../../../DaisyExamples/DaisySP//Source/Filters/fir.h **** 
 1618              		.loc 19 119 5 view .LVU284
 1619              	.LBB826:
 1620              	.LBB824:
 119:../../../../DaisyExamples/DaisySP//Source/Filters/fir.h **** 
 1621              		.loc 19 119 76 is_stmt 0 view .LVU285
 1622 0112 C3E97C44 		strd	r4, r4, [r3, #496]
 1623 0116 C3E97E44 		strd	r4, r4, [r3, #504]
ARM GAS  C:\Users\samue\AppData\Local\Temp\ccTqPziZ.s 			page 58


 1624              	.LVL69:
 119:../../../../DaisyExamples/DaisySP//Source/Filters/fir.h **** 
 1625              		.loc 19 119 76 view .LVU286
 1626              	.LBE824:
 1627              	.LBE826:
 1628              	.LBE828:
 1629              	.LBE839:
 1630              	.LBB840:
 1631              		.loc 19 174 5 is_stmt 1 view .LVU287
 1632              	.LBB836:
 119:../../../../DaisyExamples/DaisySP//Source/Filters/fir.h **** 
 1633              		.loc 19 119 5 view .LVU288
 1634              	.LBB835:
 1635              	.LBB834:
 119:../../../../DaisyExamples/DaisySP//Source/Filters/fir.h **** 
 1636              		.loc 19 119 76 is_stmt 0 view .LVU289
 1637 011a C3E98044 		strd	r4, r4, [r3, #512]
 1638 011e C3E98244 		strd	r4, r4, [r3, #520]
 1639              	.LVL70:
 119:../../../../DaisyExamples/DaisySP//Source/Filters/fir.h **** 
 1640              		.loc 19 119 76 view .LVU290
 1641              	.LBE834:
 1642              	.LBE835:
 1643              	.LBE836:
 1644              	.LBE840:
 1645              	.LBE844:
 1646              	.LBE848:
 1647              	.LBE854:
  14:helloTest.cpp **** fho osc[2];
 1648              		.loc 9 14 10 is_stmt 1 view .LVU291
  14:helloTest.cpp **** fho osc[2];
 1649              		.loc 9 14 10 view .LVU292
 1650              	.LBE855:
 1651              	.LBE857:
 1652              		.loc 9 104 1 is_stmt 0 view .LVU293
 1653 0122 BDE83840 		pop	{r3, r4, r5, lr}
 1654              		.cfi_restore 14
 1655              		.cfi_restore 5
 1656              		.cfi_restore 4
 1657              		.cfi_restore 3
 1658              		.cfi_def_cfa_offset 0
 1659              	.LBB858:
 1660              	.LBB856:
  14:helloTest.cpp **** fho osc[2];
 1661              		.loc 9 14 5 view .LVU294
 1662 0126 FFF7FEBF 		b	__aeabi_atexit
 1663              	.LVL71:
 1664              	.L31:
 1665 012a 00BF     		.align	2
 1666              	.L30:
 1667 012c 00000000 		.word	.LANCHOR1
 1668 0130 00000000 		.word	__dso_handle
 1669 0134 00000000 		.word	_ZN5daisy11daisyCommonD1Ev
 1670 0138 00000000 		.word	.LANCHOR0
 1671 013c 00000000 		.word	__tcf_0
 1672              	.LBE856:
 1673              	.LBE858:
ARM GAS  C:\Users\samue\AppData\Local\Temp\ccTqPziZ.s 			page 59


 1674              		.cfi_endproc
 1675              	.LFE5261:
 1677              		.section	.init_array,"aw",%init_array
 1678              		.align	2
 1679 0000 00000000 		.word	_GLOBAL__sub_I_loadMeter(target1)
 1680              		.global	osc
 1681              		.global	blocksize
 1682              		.global	board
 1683              		.global	loadMeter
 1684              		.section	.bss.board,"aw",%nobits
 1685              		.align	2
 1686              		.set	.LANCHOR1,. + 0
 1689              	board:
 1690 0000 00000000 		.space	564
 1690      00000000 
 1690      00000000 
 1690      00000000 
 1690      00000000 
 1691              		.section	.bss.loadMeter,"aw",%nobits
 1692              		.align	2
 1695              	loadMeter:
 1696 0000 00000000 		.space	28
 1696      00000000 
 1696      00000000 
 1696      00000000 
 1696      00000000 
 1697              		.section	.bss.osc,"aw",%nobits
 1698              		.align	2
 1699              		.set	.LANCHOR0,. + 0
 1702              	osc:
 1703 0000 00000000 		.space	872
 1703      00000000 
 1703      00000000 
 1703      00000000 
 1703      00000000 
 1704              		.section	.data.blocksize,"aw"
 1705              		.align	2
 1706              		.set	.LANCHOR2,. + 0
 1709              	blocksize:
 1710 0000 00010000 		.word	256
 1711              		.text
 1712              	.Letext0:
 1713              		.file 20 "c:\\program files\\daisytoolchain\\arm-none-eabi\\include\\machine\\_default_types.h"
 1714              		.file 21 "c:\\program files\\daisytoolchain\\arm-none-eabi\\include\\sys\\_stdint.h"
 1715              		.file 22 "c:\\program files\\daisytoolchain\\arm-none-eabi\\include\\stdint.h"
 1716              		.file 23 "c:\\program files\\daisytoolchain\\lib\\gcc\\arm-none-eabi\\10.2.1\\include\\stddef.h"
 1717              		.file 24 "c:\\program files\\daisytoolchain\\arm-none-eabi\\include\\c++\\10.2.1\\cmath"
 1718              		.file 25 "c:\\program files\\daisytoolchain\\arm-none-eabi\\include\\c++\\10.2.1\\bits\\std_abs.h"
 1719              		.file 26 "c:\\program files\\daisytoolchain\\arm-none-eabi\\include\\c++\\10.2.1\\cstdlib"
 1720              		.file 27 "c:\\program files\\daisytoolchain\\arm-none-eabi\\include\\c++\\10.2.1\\cstdint"
 1721              		.file 28 "c:\\program files\\daisytoolchain\\arm-none-eabi\\include\\c++\\10.2.1\\type_traits"
 1722              		.file 29 "c:\\program files\\daisytoolchain\\arm-none-eabi\\include\\c++\\10.2.1\\debug\\debug.h"
 1723              		.file 30 "c:\\program files\\daisytoolchain\\arm-none-eabi\\include\\c++\\10.2.1\\arm-none-eabi\\t
 1724              		.file 31 "c:\\program files\\daisytoolchain\\arm-none-eabi\\include\\c++\\10.2.1\\bits\\algorithmf
 1725              		.file 32 "c:\\program files\\daisytoolchain\\arm-none-eabi\\include\\c++\\10.2.1\\bits\\stl_pair.h
 1726              		.file 33 "c:\\program files\\daisytoolchain\\arm-none-eabi\\include\\c++\\10.2.1\\bits\\exception_
 1727              		.file 34 "c:\\program files\\daisytoolchain\\arm-none-eabi\\include\\c++\\10.2.1\\cstdarg"
ARM GAS  C:\Users\samue\AppData\Local\Temp\ccTqPziZ.s 			page 60


 1728              		.file 35 "c:\\program files\\daisytoolchain\\arm-none-eabi\\include\\c++\\10.2.1\\cstdio"
 1729              		.file 36 "c:\\program files\\daisytoolchain\\arm-none-eabi\\include\\c++\\10.2.1\\cstring"
 1730              		.file 37 "c:\\program files\\daisytoolchain\\arm-none-eabi\\include\\c++\\10.2.1\\cwchar"
 1731              		.file 38 "c:\\program files\\daisytoolchain\\arm-none-eabi\\include\\c++\\10.2.1\\clocale"
 1732              		.file 39 "c:\\program files\\daisytoolchain\\arm-none-eabi\\include\\c++\\10.2.1\\bits\\basic_stri
 1733              		.file 40 "c:\\program files\\daisytoolchain\\arm-none-eabi\\include\\c++\\10.2.1\\bits\\stl_tempbu
 1734              		.file 41 "c:\\program files\\daisytoolchain\\arm-none-eabi\\include\\c++\\10.2.1\\bits\\predefined
 1735              		.file 42 "c:\\program files\\daisytoolchain\\arm-none-eabi\\include\\sys\\_types.h"
 1736              		.file 43 "c:\\program files\\daisytoolchain\\arm-none-eabi\\include\\sys\\reent.h"
 1737              		.file 44 "c:\\program files\\daisytoolchain\\arm-none-eabi\\include\\sys\\lock.h"
 1738              		.file 45 "c:\\program files\\daisytoolchain\\arm-none-eabi\\include\\math.h"
 1739              		.file 46 "c:\\program files\\daisytoolchain\\arm-none-eabi\\include\\stdlib.h"
 1740              		.file 47 "c:\\program files\\daisytoolchain\\arm-none-eabi\\include\\c++\\10.2.1\\math.h"
 1741              		.file 48 "c:\\program files\\daisytoolchain\\arm-none-eabi\\include\\c++\\10.2.1\\stdlib.h"
 1742              		.file 49 "../../../../DaisyExamples/libDaisy//src/per/tim.h"
 1743              		.file 50 "../../../../DaisyExamples/libDaisy//src/util/wav_format.h"
 1744              		.file 51 "../../../../DaisyExamples/libDaisy//src/dev/max11300.h"
 1745              		.file 52 "../../../../DaisyExamples/libDaisy//src/dev/sdram.h"
 1746              		.file 53 "c:\\program files\\daisytoolchain\\lib\\gcc\\arm-none-eabi\\10.2.1\\include\\stdarg.h"
 1747              		.file 54 "c:\\program files\\daisytoolchain\\arm-none-eabi\\include\\stdio.h"
 1748              		.file 55 "c:\\program files\\daisytoolchain\\arm-none-eabi\\include\\string.h"
 1749              		.file 56 "../../../../DaisyExamples/DaisySP//Source/Control/adenv.h"
 1750              		.file 57 "../../../../DaisyExamples/DaisySP//Source/Utility/dsp.h"
 1751              		.file 58 "c:\\program files\\daisytoolchain\\arm-none-eabi\\include\\wchar.h"
 1752              		.file 59 "c:\\program files\\daisytoolchain\\arm-none-eabi\\include\\locale.h"
 1753              		.file 60 "<built-in>"
 1754              		.file 61 "../../../../DaisyExamples/libDaisy//src/dev/sr_595.h"
ARM GAS  C:\Users\samue\AppData\Local\Temp\ccTqPziZ.s 			page 61

