ARM GAS  C:\Users\samue\AppData\Local\Temp\cc1aPeGd.s 			page 1


   1              		.cpu cortex-m7
   2              		.eabi_attribute 28, 1
   3              		.eabi_attribute 20, 1
   4              		.eabi_attribute 21, 1
   5              		.eabi_attribute 23, 3
   6              		.eabi_attribute 24, 1
   7              		.eabi_attribute 25, 1
   8              		.eabi_attribute 26, 1
   9              		.eabi_attribute 30, 2
  10              		.eabi_attribute 34, 1
  11              		.eabi_attribute 18, 4
  12              		.file	"201_hihat.cpp"
  13              		.text
  14              	.Ltext0:
  15              		.cfi_sections	.debug_frame
  16              		.section	.text._ZN5daisy11daisyCommonD2Ev,"axG",%progbits,_ZN5daisy11daisyCommonD5Ev,comdat
  17              		.align	1
  18              		.p2align 2,,3
  19              		.weak	_ZN5daisy11daisyCommonD2Ev
  20              		.arch armv7e-m
  21              		.syntax unified
  22              		.thumb
  23              		.thumb_func
  24              		.fpu fpv5-d16
  26              	_ZN5daisy11daisyCommonD2Ev:
  27              	.LVL0:
  28              	.LFB4847:
  29              		.file 1 "daisy_common.h"
   1:daisy_common.h **** /*
   2:daisy_common.h **** * This implements drivers for the Daisy Common Hardware Platform
   3:daisy_common.h **** *
   4:daisy_common.h **** */
   5:daisy_common.h **** 
   6:daisy_common.h **** #include "daisy_seed.h"
   7:daisy_common.h **** #include "daisysp.h"
   8:daisy_common.h **** 
   9:daisy_common.h **** using namespace daisy::seed;
  10:daisy_common.h **** using namespace daisy;
  11:daisy_common.h **** 
  12:daisy_common.h **** 
  13:daisy_common.h **** namespace daisy
  14:daisy_common.h **** {
  15:daisy_common.h **** 
  16:daisy_common.h **** class daisyCommon
  17:daisy_common.h **** {
  18:daisy_common.h ****     public:
  19:daisy_common.h ****     daisyCommon() {}
  20:daisy_common.h ****     ~daisyCommon() {}
  30              		.loc 1 20 5 view -0
  31              		.cfi_startproc
  32              		@ args = 0, pretend = 0, frame = 0
  33              		@ frame_needed = 0, uses_anonymous_args = 0
  34              		@ link register save eliminated.
  35              	.LBB311:
  36              	.LBI311:
  37              		.file 2 "../../../../DaisyExamples/libDaisy//src/daisy_seed.h"
   1:../../../../DaisyExamples/libDaisy//src/daisy_seed.h **** #pragma once
ARM GAS  C:\Users\samue\AppData\Local\Temp\cc1aPeGd.s 			page 2


   2:../../../../DaisyExamples/libDaisy//src/daisy_seed.h **** #ifndef DSY_SEED_H
   3:../../../../DaisyExamples/libDaisy//src/daisy_seed.h **** #define DSY_SEED_H
   4:../../../../DaisyExamples/libDaisy//src/daisy_seed.h **** 
   5:../../../../DaisyExamples/libDaisy//src/daisy_seed.h **** #include "daisy.h"
   6:../../../../DaisyExamples/libDaisy//src/daisy_seed.h **** 
   7:../../../../DaisyExamples/libDaisy//src/daisy_seed.h **** //Uncomment this out if you're still using the rev2 hardware
   8:../../../../DaisyExamples/libDaisy//src/daisy_seed.h **** //#define SEED_REV2
   9:../../../../DaisyExamples/libDaisy//src/daisy_seed.h **** 
  10:../../../../DaisyExamples/libDaisy//src/daisy_seed.h **** namespace daisy
  11:../../../../DaisyExamples/libDaisy//src/daisy_seed.h **** {
  12:../../../../DaisyExamples/libDaisy//src/daisy_seed.h **** /**
  13:../../../../DaisyExamples/libDaisy//src/daisy_seed.h ****    @brief This is the higher-level interface for the Daisy board. \n 
  14:../../../../DaisyExamples/libDaisy//src/daisy_seed.h ****     All basic peripheral configuration/initialization is setup here. \n
  15:../../../../DaisyExamples/libDaisy//src/daisy_seed.h **** 
  16:../../../../DaisyExamples/libDaisy//src/daisy_seed.h ****    @ingroup boards
  17:../../../../DaisyExamples/libDaisy//src/daisy_seed.h **** */
  18:../../../../DaisyExamples/libDaisy//src/daisy_seed.h **** class DaisySeed
  19:../../../../DaisyExamples/libDaisy//src/daisy_seed.h **** {
  20:../../../../DaisyExamples/libDaisy//src/daisy_seed.h ****   public:
  21:../../../../DaisyExamples/libDaisy//src/daisy_seed.h ****     DaisySeed() {}
  22:../../../../DaisyExamples/libDaisy//src/daisy_seed.h ****     ~DaisySeed() {}
  38              		.loc 2 22 5 view .LVU1
  39              	.LBB312:
  40              	.LBI312:
  41              		.file 3 "../../../../DaisyExamples/libDaisy//src/sys/system.h"
   1:../../../../DaisyExamples/libDaisy//src/sys/system.h **** #ifndef DSY_SYSTEM_H
   2:../../../../DaisyExamples/libDaisy//src/sys/system.h **** #define DSY_SYSTEM_H
   3:../../../../DaisyExamples/libDaisy//src/sys/system.h **** 
   4:../../../../DaisyExamples/libDaisy//src/sys/system.h **** #ifndef UNIT_TEST // for unit tests, a dummy implementation is provided below
   5:../../../../DaisyExamples/libDaisy//src/sys/system.h **** 
   6:../../../../DaisyExamples/libDaisy//src/sys/system.h **** #include <cstdint>
   7:../../../../DaisyExamples/libDaisy//src/sys/system.h **** #include "per/tim.h"
   8:../../../../DaisyExamples/libDaisy//src/sys/system.h **** 
   9:../../../../DaisyExamples/libDaisy//src/sys/system.h **** namespace daisy
  10:../../../../DaisyExamples/libDaisy//src/sys/system.h **** {
  11:../../../../DaisyExamples/libDaisy//src/sys/system.h **** /** A handle for interacting with the Core System.
  12:../../../../DaisyExamples/libDaisy//src/sys/system.h ****  ** This includes the Clock tree, MPU, global DMA initialization,
  13:../../../../DaisyExamples/libDaisy//src/sys/system.h ****  ** cache handling, and any other necessary global initiailzation
  14:../../../../DaisyExamples/libDaisy//src/sys/system.h ****  **
  15:../../../../DaisyExamples/libDaisy//src/sys/system.h ****  ** @author shensley
  16:../../../../DaisyExamples/libDaisy//src/sys/system.h ****  ** @ingroup system
  17:../../../../DaisyExamples/libDaisy//src/sys/system.h ****  */
  18:../../../../DaisyExamples/libDaisy//src/sys/system.h **** class System
  19:../../../../DaisyExamples/libDaisy//src/sys/system.h **** {
  20:../../../../DaisyExamples/libDaisy//src/sys/system.h ****   public:
  21:../../../../DaisyExamples/libDaisy//src/sys/system.h ****     /** Contains settings for initializing the System */
  22:../../../../DaisyExamples/libDaisy//src/sys/system.h ****     struct Config
  23:../../../../DaisyExamples/libDaisy//src/sys/system.h ****     {
  24:../../../../DaisyExamples/libDaisy//src/sys/system.h ****         /** Specifies the system clock frequency that feeds APB/AHB clocks, etc. */
  25:../../../../DaisyExamples/libDaisy//src/sys/system.h ****         enum class SysClkFreq
  26:../../../../DaisyExamples/libDaisy//src/sys/system.h ****         {
  27:../../../../DaisyExamples/libDaisy//src/sys/system.h ****             FREQ_400MHZ,
  28:../../../../DaisyExamples/libDaisy//src/sys/system.h ****             FREQ_480MHZ,
  29:../../../../DaisyExamples/libDaisy//src/sys/system.h ****         };
  30:../../../../DaisyExamples/libDaisy//src/sys/system.h **** 
  31:../../../../DaisyExamples/libDaisy//src/sys/system.h ****         /** Method to call on the struct to set to defaults
  32:../../../../DaisyExamples/libDaisy//src/sys/system.h ****          ** CPU Freq set to 400MHz
ARM GAS  C:\Users\samue\AppData\Local\Temp\cc1aPeGd.s 			page 3


  33:../../../../DaisyExamples/libDaisy//src/sys/system.h ****          ** Cache Enabled
  34:../../../../DaisyExamples/libDaisy//src/sys/system.h ****          ** */
  35:../../../../DaisyExamples/libDaisy//src/sys/system.h ****         void Defaults()
  36:../../../../DaisyExamples/libDaisy//src/sys/system.h ****         {
  37:../../../../DaisyExamples/libDaisy//src/sys/system.h ****             cpu_freq    = SysClkFreq::FREQ_400MHZ;
  38:../../../../DaisyExamples/libDaisy//src/sys/system.h ****             use_dcache  = true;
  39:../../../../DaisyExamples/libDaisy//src/sys/system.h ****             use_icache  = true;
  40:../../../../DaisyExamples/libDaisy//src/sys/system.h ****             skip_clocks = false;
  41:../../../../DaisyExamples/libDaisy//src/sys/system.h ****         }
  42:../../../../DaisyExamples/libDaisy//src/sys/system.h **** 
  43:../../../../DaisyExamples/libDaisy//src/sys/system.h ****         /** Method to call on the struct to set to boost mode:
  44:../../../../DaisyExamples/libDaisy//src/sys/system.h ****          ** CPU Freq set to 480MHz
  45:../../../../DaisyExamples/libDaisy//src/sys/system.h ****          ** Cache Enabled
  46:../../../../DaisyExamples/libDaisy//src/sys/system.h ****          ** */
  47:../../../../DaisyExamples/libDaisy//src/sys/system.h ****         void Boost()
  48:../../../../DaisyExamples/libDaisy//src/sys/system.h ****         {
  49:../../../../DaisyExamples/libDaisy//src/sys/system.h ****             cpu_freq    = SysClkFreq::FREQ_480MHZ;
  50:../../../../DaisyExamples/libDaisy//src/sys/system.h ****             use_dcache  = true;
  51:../../../../DaisyExamples/libDaisy//src/sys/system.h ****             use_icache  = true;
  52:../../../../DaisyExamples/libDaisy//src/sys/system.h ****             skip_clocks = false;
  53:../../../../DaisyExamples/libDaisy//src/sys/system.h ****         }
  54:../../../../DaisyExamples/libDaisy//src/sys/system.h **** 
  55:../../../../DaisyExamples/libDaisy//src/sys/system.h ****         SysClkFreq cpu_freq;
  56:../../../../DaisyExamples/libDaisy//src/sys/system.h ****         bool       use_dcache;
  57:../../../../DaisyExamples/libDaisy//src/sys/system.h ****         bool       use_icache;
  58:../../../../DaisyExamples/libDaisy//src/sys/system.h ****         bool       skip_clocks;
  59:../../../../DaisyExamples/libDaisy//src/sys/system.h ****     };
  60:../../../../DaisyExamples/libDaisy//src/sys/system.h **** 
  61:../../../../DaisyExamples/libDaisy//src/sys/system.h ****     /** Describes the different regions of memory available to the Daisy */
  62:../../../../DaisyExamples/libDaisy//src/sys/system.h ****     enum MemoryRegion
  63:../../../../DaisyExamples/libDaisy//src/sys/system.h ****     {
  64:../../../../DaisyExamples/libDaisy//src/sys/system.h ****         INTERNAL_FLASH = 0,
  65:../../../../DaisyExamples/libDaisy//src/sys/system.h ****         ITCMRAM,
  66:../../../../DaisyExamples/libDaisy//src/sys/system.h ****         DTCMRAM,
  67:../../../../DaisyExamples/libDaisy//src/sys/system.h ****         SRAM_D1,
  68:../../../../DaisyExamples/libDaisy//src/sys/system.h ****         SRAM_D2,
  69:../../../../DaisyExamples/libDaisy//src/sys/system.h ****         SRAM_D3,
  70:../../../../DaisyExamples/libDaisy//src/sys/system.h ****         SDRAM,
  71:../../../../DaisyExamples/libDaisy//src/sys/system.h ****         QSPI,
  72:../../../../DaisyExamples/libDaisy//src/sys/system.h ****         INVALID_ADDRESS,
  73:../../../../DaisyExamples/libDaisy//src/sys/system.h ****     };
  74:../../../../DaisyExamples/libDaisy//src/sys/system.h **** 
  75:../../../../DaisyExamples/libDaisy//src/sys/system.h ****     /** Bootloader struct for controlling bootloading parameters */
  76:../../../../DaisyExamples/libDaisy//src/sys/system.h ****     struct BootInfo
  77:../../../../DaisyExamples/libDaisy//src/sys/system.h ****     {
  78:../../../../DaisyExamples/libDaisy//src/sys/system.h ****         enum class Type : uint32_t
  79:../../../../DaisyExamples/libDaisy//src/sys/system.h ****         {
  80:../../../../DaisyExamples/libDaisy//src/sys/system.h ****             INVALID      = 0x00000000,
  81:../../../../DaisyExamples/libDaisy//src/sys/system.h ****             JUMP         = 0xDEADBEEF,
  82:../../../../DaisyExamples/libDaisy//src/sys/system.h ****             SKIP_TIMEOUT = 0x5AFEB007,
  83:../../../../DaisyExamples/libDaisy//src/sys/system.h ****             INF_TIMEOUT  = 0xB0074EFA,
  84:../../../../DaisyExamples/libDaisy//src/sys/system.h ****         } status;
  85:../../../../DaisyExamples/libDaisy//src/sys/system.h ****         uint32_t data;
  86:../../../../DaisyExamples/libDaisy//src/sys/system.h ****         enum class Version : uint32_t
  87:../../../../DaisyExamples/libDaisy//src/sys/system.h ****         {
  88:../../../../DaisyExamples/libDaisy//src/sys/system.h ****             LT_v6_0 = 0, // Less than v6.0
  89:../../../../DaisyExamples/libDaisy//src/sys/system.h ****             NONE,        // No bootloader present
ARM GAS  C:\Users\samue\AppData\Local\Temp\cc1aPeGd.s 			page 4


  90:../../../../DaisyExamples/libDaisy//src/sys/system.h ****             v6_0,        // v6.0
  91:../../../../DaisyExamples/libDaisy//src/sys/system.h ****             v6_1,        // v6.1 or greater
  92:../../../../DaisyExamples/libDaisy//src/sys/system.h ****             LAST
  93:../../../../DaisyExamples/libDaisy//src/sys/system.h ****         } version;
  94:../../../../DaisyExamples/libDaisy//src/sys/system.h ****     };
  95:../../../../DaisyExamples/libDaisy//src/sys/system.h **** 
  96:../../../../DaisyExamples/libDaisy//src/sys/system.h ****     System() {}
  97:../../../../DaisyExamples/libDaisy//src/sys/system.h ****     ~System() {}
  42              		.loc 3 97 5 view .LVU2
  43              		.loc 3 97 5 is_stmt 0 view .LVU3
  44              	.LBE312:
  45              	.LBB313:
  46              	.LBI313:
  47              		.file 4 "../../../../DaisyExamples/libDaisy//src/hid/usb.h"
   1:../../../../DaisyExamples/libDaisy//src/hid/usb.h **** #pragma once
   2:../../../../DaisyExamples/libDaisy//src/hid/usb.h **** #ifndef DSY_HID_USB_H
   3:../../../../DaisyExamples/libDaisy//src/hid/usb.h **** #define DSY_HID_USB_H
   4:../../../../DaisyExamples/libDaisy//src/hid/usb.h **** #include <stdint.h>
   5:../../../../DaisyExamples/libDaisy//src/hid/usb.h **** #include <stdlib.h>
   6:../../../../DaisyExamples/libDaisy//src/hid/usb.h **** 
   7:../../../../DaisyExamples/libDaisy//src/hid/usb.h **** namespace daisy
   8:../../../../DaisyExamples/libDaisy//src/hid/usb.h **** /** @addtogroup human_interface
   9:../../../../DaisyExamples/libDaisy//src/hid/usb.h ****     @{
  10:../../../../DaisyExamples/libDaisy//src/hid/usb.h **** */
  11:../../../../DaisyExamples/libDaisy//src/hid/usb.h **** 
  12:../../../../DaisyExamples/libDaisy//src/hid/usb.h **** {
  13:../../../../DaisyExamples/libDaisy//src/hid/usb.h **** /** 
  14:../../../../DaisyExamples/libDaisy//src/hid/usb.h ****     @brief Interface for initializing and using the USB Peripherals on the daisy
  15:../../../../DaisyExamples/libDaisy//src/hid/usb.h ****     @author Stephen Hensley
  16:../../../../DaisyExamples/libDaisy//src/hid/usb.h ****     @date December 2019
  17:../../../../DaisyExamples/libDaisy//src/hid/usb.h **** */
  18:../../../../DaisyExamples/libDaisy//src/hid/usb.h **** class UsbHandle
  19:../../../../DaisyExamples/libDaisy//src/hid/usb.h **** {
  20:../../../../DaisyExamples/libDaisy//src/hid/usb.h ****   public:
  21:../../../../DaisyExamples/libDaisy//src/hid/usb.h ****     /** Return values for USBHandle Functions */
  22:../../../../DaisyExamples/libDaisy//src/hid/usb.h ****     enum class Result
  23:../../../../DaisyExamples/libDaisy//src/hid/usb.h ****     {
  24:../../../../DaisyExamples/libDaisy//src/hid/usb.h ****         OK,
  25:../../../../DaisyExamples/libDaisy//src/hid/usb.h ****         ERR,
  26:../../../../DaisyExamples/libDaisy//src/hid/usb.h ****     };
  27:../../../../DaisyExamples/libDaisy//src/hid/usb.h **** 
  28:../../../../DaisyExamples/libDaisy//src/hid/usb.h ****     /** Specified which of the two USB Peripherals to initialize. */
  29:../../../../DaisyExamples/libDaisy//src/hid/usb.h ****     enum UsbPeriph
  30:../../../../DaisyExamples/libDaisy//src/hid/usb.h ****     {
  31:../../../../DaisyExamples/libDaisy//src/hid/usb.h ****         FS_INTERNAL, /**< Internal pin */
  32:../../../../DaisyExamples/libDaisy//src/hid/usb.h ****         FS_EXTERNAL, /**< FS External D+ pin is Pin 38 (GPIO32). FS External D- pin is Pin 37 (GPIO
  33:../../../../DaisyExamples/libDaisy//src/hid/usb.h ****         FS_BOTH,     /**< Both */
  34:../../../../DaisyExamples/libDaisy//src/hid/usb.h ****     };
  35:../../../../DaisyExamples/libDaisy//src/hid/usb.h **** 
  36:../../../../DaisyExamples/libDaisy//src/hid/usb.h **** 
  37:../../../../DaisyExamples/libDaisy//src/hid/usb.h ****     /** Function called upon reception of a buffer */
  38:../../../../DaisyExamples/libDaisy//src/hid/usb.h ****     typedef void (*ReceiveCallback)(uint8_t* buff, uint32_t* len);
  39:../../../../DaisyExamples/libDaisy//src/hid/usb.h **** 
  40:../../../../DaisyExamples/libDaisy//src/hid/usb.h ****     UsbHandle() {}
  41:../../../../DaisyExamples/libDaisy//src/hid/usb.h **** 
  42:../../../../DaisyExamples/libDaisy//src/hid/usb.h ****     ~UsbHandle() {}
  48              		.loc 4 42 5 is_stmt 1 view .LVU4
ARM GAS  C:\Users\samue\AppData\Local\Temp\cc1aPeGd.s 			page 5


  49              		.loc 4 42 5 is_stmt 0 view .LVU5
  50              	.LBE313:
  51              	.LBB314:
  52              	.LBI314:
  53              		.file 5 "../../../../DaisyExamples/libDaisy//src/per/adc.h"
   1:../../../../DaisyExamples/libDaisy//src/per/adc.h **** #pragma once
   2:../../../../DaisyExamples/libDaisy//src/per/adc.h **** #ifndef DSY_ADC_H
   3:../../../../DaisyExamples/libDaisy//src/per/adc.h **** #define DSY_ADC_H /**< Macro */
   4:../../../../DaisyExamples/libDaisy//src/per/adc.h **** #include <stdint.h>
   5:../../../../DaisyExamples/libDaisy//src/per/adc.h **** #include <stdlib.h>
   6:../../../../DaisyExamples/libDaisy//src/per/adc.h **** #include "daisy_core.h"
   7:../../../../DaisyExamples/libDaisy//src/per/adc.h **** #include "per/gpio.h"
   8:../../../../DaisyExamples/libDaisy//src/per/adc.h **** 
   9:../../../../DaisyExamples/libDaisy//src/per/adc.h **** #define DSY_ADC_MAX_CHANNELS 16 /**< Maximum number of ADC channels */
  10:../../../../DaisyExamples/libDaisy//src/per/adc.h **** 
  11:../../../../DaisyExamples/libDaisy//src/per/adc.h **** namespace daisy
  12:../../../../DaisyExamples/libDaisy//src/per/adc.h **** {
  13:../../../../DaisyExamples/libDaisy//src/per/adc.h **** /** @addtogroup per_analog
  14:../../../../DaisyExamples/libDaisy//src/per/adc.h ****     @{
  15:../../../../DaisyExamples/libDaisy//src/per/adc.h **** */
  16:../../../../DaisyExamples/libDaisy//src/per/adc.h **** 
  17:../../../../DaisyExamples/libDaisy//src/per/adc.h **** /* While there may not be many configuration options here,
  18:../../../../DaisyExamples/libDaisy//src/per/adc.h **** using a struct like this allows us to add more configuration
  19:../../../../DaisyExamples/libDaisy//src/per/adc.h **** later without breaking existing functionality.
  20:../../../../DaisyExamples/libDaisy//src/per/adc.h **** */
  21:../../../../DaisyExamples/libDaisy//src/per/adc.h **** 
  22:../../../../DaisyExamples/libDaisy//src/per/adc.h **** /** @brief   Configuration Structure for an ADC Channel 
  23:../../../../DaisyExamples/libDaisy//src/per/adc.h ****  *  @details This can be used to configure a a single input, 
  24:../../../../DaisyExamples/libDaisy//src/per/adc.h ****  *           or a multiplexed input, allowing up to 8 inputs on 
  25:../../../../DaisyExamples/libDaisy//src/per/adc.h ****  *           one channel.
  26:../../../../DaisyExamples/libDaisy//src/per/adc.h ****  *  @note    Sharing data lines to multiple muxes _is_ possible, but
  27:../../../../DaisyExamples/libDaisy//src/per/adc.h ****  *           each channel sharing data lines must be set to the maximum
  28:../../../../DaisyExamples/libDaisy//src/per/adc.h ****  *           number of channels, even if some multiplexers have fewer
  29:../../../../DaisyExamples/libDaisy//src/per/adc.h ****  *           inputs connected.
  30:../../../../DaisyExamples/libDaisy//src/per/adc.h **** */
  31:../../../../DaisyExamples/libDaisy//src/per/adc.h **** struct AdcChannelConfig
  32:../../../../DaisyExamples/libDaisy//src/per/adc.h **** {
  33:../../../../DaisyExamples/libDaisy//src/per/adc.h ****     /** Which pin to use for multiplexing */
  34:../../../../DaisyExamples/libDaisy//src/per/adc.h ****     enum MuxPin
  35:../../../../DaisyExamples/libDaisy//src/per/adc.h ****     {
  36:../../../../DaisyExamples/libDaisy//src/per/adc.h ****         MUX_SEL_0,    /**< & */
  37:../../../../DaisyExamples/libDaisy//src/per/adc.h ****         MUX_SEL_1,    /**< & */
  38:../../../../DaisyExamples/libDaisy//src/per/adc.h ****         MUX_SEL_2,    /**< & */
  39:../../../../DaisyExamples/libDaisy//src/per/adc.h ****         MUX_SEL_LAST, /**< & */
  40:../../../../DaisyExamples/libDaisy//src/per/adc.h ****     };
  41:../../../../DaisyExamples/libDaisy//src/per/adc.h **** 
  42:../../../../DaisyExamples/libDaisy//src/per/adc.h ****     /** \brief per channel conversion speed added to fixed time based on bitdepth, etc. */
  43:../../../../DaisyExamples/libDaisy//src/per/adc.h ****     enum ConversionSpeed
  44:../../../../DaisyExamples/libDaisy//src/per/adc.h ****     {
  45:../../../../DaisyExamples/libDaisy//src/per/adc.h ****         SPEED_1CYCLES_5,
  46:../../../../DaisyExamples/libDaisy//src/per/adc.h ****         SPEED_2CYCLES_5,
  47:../../../../DaisyExamples/libDaisy//src/per/adc.h ****         SPEED_8CYCLES_5,
  48:../../../../DaisyExamples/libDaisy//src/per/adc.h ****         SPEED_16CYCLES_5,
  49:../../../../DaisyExamples/libDaisy//src/per/adc.h ****         SPEED_32CYCLES_5,
  50:../../../../DaisyExamples/libDaisy//src/per/adc.h ****         SPEED_64CYCLES_5,
  51:../../../../DaisyExamples/libDaisy//src/per/adc.h ****         SPEED_387CYCLES_5,
  52:../../../../DaisyExamples/libDaisy//src/per/adc.h ****         SPEED_810CYCLES_5,
ARM GAS  C:\Users\samue\AppData\Local\Temp\cc1aPeGd.s 			page 6


  53:../../../../DaisyExamples/libDaisy//src/per/adc.h ****     };
  54:../../../../DaisyExamples/libDaisy//src/per/adc.h **** 
  55:../../../../DaisyExamples/libDaisy//src/per/adc.h ****     /** Initializes a single ADC pin as an ADC. 
  56:../../../../DaisyExamples/libDaisy//src/per/adc.h ****     \param pin Pin to init.
  57:../../../../DaisyExamples/libDaisy//src/per/adc.h ****     \param speed conversion speed for this pin defaults to 8.5 cycles
  58:../../../../DaisyExamples/libDaisy//src/per/adc.h ****      */
  59:../../../../DaisyExamples/libDaisy//src/per/adc.h ****     void InitSingle(dsy_gpio_pin pin, ConversionSpeed speed = SPEED_8CYCLES_5);
  60:../../../../DaisyExamples/libDaisy//src/per/adc.h **** 
  61:../../../../DaisyExamples/libDaisy//src/per/adc.h ****     /** 
  62:../../../../DaisyExamples/libDaisy//src/per/adc.h ****     Initializes a single ADC pin as a Multiplexed ADC.
  63:../../../../DaisyExamples/libDaisy//src/per/adc.h ****     Requires a CD405X Multiplexer connected to the pin.
  64:../../../../DaisyExamples/libDaisy//src/per/adc.h ****     You only need to supply the mux pins that are required,
  65:../../../../DaisyExamples/libDaisy//src/per/adc.h ****     e.g. a 4052 mux would only require mux_0 and mux_1.
  66:../../../../DaisyExamples/libDaisy//src/per/adc.h ****     Internal Callbacks handle the pin addressing.
  67:../../../../DaisyExamples/libDaisy//src/per/adc.h ****     \param adc_pin &
  68:../../../../DaisyExamples/libDaisy//src/per/adc.h ****     \param mux_channels must be 1-8
  69:../../../../DaisyExamples/libDaisy//src/per/adc.h ****     \param mux_0 First mux pin
  70:../../../../DaisyExamples/libDaisy//src/per/adc.h ****     \param mux_1 Second mux pin
  71:../../../../DaisyExamples/libDaisy//src/per/adc.h ****     \param mux_2 Third mux pin
  72:../../../../DaisyExamples/libDaisy//src/per/adc.h ****     \param speed conversion speed for this pin defaults to 8.5 cycles
  73:../../../../DaisyExamples/libDaisy//src/per/adc.h ****     */
  74:../../../../DaisyExamples/libDaisy//src/per/adc.h ****     void InitMux(dsy_gpio_pin    adc_pin,
  75:../../../../DaisyExamples/libDaisy//src/per/adc.h ****                  size_t          mux_channels,
  76:../../../../DaisyExamples/libDaisy//src/per/adc.h ****                  dsy_gpio_pin    mux_0,
  77:../../../../DaisyExamples/libDaisy//src/per/adc.h ****                  dsy_gpio_pin    mux_1 = {DSY_GPIOX, 0},
  78:../../../../DaisyExamples/libDaisy//src/per/adc.h ****                  dsy_gpio_pin    mux_2 = {DSY_GPIOX, 0},
  79:../../../../DaisyExamples/libDaisy//src/per/adc.h ****                  ConversionSpeed speed = SPEED_8CYCLES_5);
  80:../../../../DaisyExamples/libDaisy//src/per/adc.h **** 
  81:../../../../DaisyExamples/libDaisy//src/per/adc.h ****     dsy_gpio        pin_;                   /**< & */
  82:../../../../DaisyExamples/libDaisy//src/per/adc.h ****     dsy_gpio        mux_pin_[MUX_SEL_LAST]; /**< & */
  83:../../../../DaisyExamples/libDaisy//src/per/adc.h ****     uint8_t         mux_channels_;          /**< & */
  84:../../../../DaisyExamples/libDaisy//src/per/adc.h ****     ConversionSpeed speed_;
  85:../../../../DaisyExamples/libDaisy//src/per/adc.h **** };
  86:../../../../DaisyExamples/libDaisy//src/per/adc.h **** 
  87:../../../../DaisyExamples/libDaisy//src/per/adc.h **** /**
  88:../../../../DaisyExamples/libDaisy//src/per/adc.h ****    @brief Handler for analog to digital conversion
  89:../../../../DaisyExamples/libDaisy//src/per/adc.h **** */
  90:../../../../DaisyExamples/libDaisy//src/per/adc.h **** class AdcHandle
  91:../../../../DaisyExamples/libDaisy//src/per/adc.h **** {
  92:../../../../DaisyExamples/libDaisy//src/per/adc.h ****   public:
  93:../../../../DaisyExamples/libDaisy//src/per/adc.h ****     /** Supported oversampling amounts */
  94:../../../../DaisyExamples/libDaisy//src/per/adc.h ****     enum OverSampling
  95:../../../../DaisyExamples/libDaisy//src/per/adc.h ****     {
  96:../../../../DaisyExamples/libDaisy//src/per/adc.h ****         OVS_NONE, /**< & */
  97:../../../../DaisyExamples/libDaisy//src/per/adc.h ****         OVS_4,    /**< & */
  98:../../../../DaisyExamples/libDaisy//src/per/adc.h ****         OVS_8,    /**< & */
  99:../../../../DaisyExamples/libDaisy//src/per/adc.h ****         OVS_16,   /**< & */
 100:../../../../DaisyExamples/libDaisy//src/per/adc.h ****         OVS_32,   /**< & */
 101:../../../../DaisyExamples/libDaisy//src/per/adc.h ****         OVS_64,   /**< & */
 102:../../../../DaisyExamples/libDaisy//src/per/adc.h ****         OVS_128,  /**< & */
 103:../../../../DaisyExamples/libDaisy//src/per/adc.h ****         OVS_256,  /**< & */
 104:../../../../DaisyExamples/libDaisy//src/per/adc.h ****         OVS_512,  /**< & */
 105:../../../../DaisyExamples/libDaisy//src/per/adc.h ****         OVS_1024, /**< & */
 106:../../../../DaisyExamples/libDaisy//src/per/adc.h ****         OVS_LAST, /**< & */
 107:../../../../DaisyExamples/libDaisy//src/per/adc.h ****     };
 108:../../../../DaisyExamples/libDaisy//src/per/adc.h **** 
 109:../../../../DaisyExamples/libDaisy//src/per/adc.h ****     AdcHandle() {}
ARM GAS  C:\Users\samue\AppData\Local\Temp\cc1aPeGd.s 			page 7


 110:../../../../DaisyExamples/libDaisy//src/per/adc.h ****     ~AdcHandle() {}
  54              		.loc 5 110 5 is_stmt 1 view .LVU6
  55              		.loc 5 110 5 is_stmt 0 view .LVU7
  56              	.LBE314:
  57              	.LBB315:
  58              	.LBI315:
  59              		.file 6 "../../../../DaisyExamples/libDaisy//src/hid/audio.h"
   1:../../../../DaisyExamples/libDaisy//src/hid/audio.h **** #ifndef DSY_AUDIO_H
   2:../../../../DaisyExamples/libDaisy//src/hid/audio.h **** #define DSY_AUDIO_H /**< & */
   3:../../../../DaisyExamples/libDaisy//src/hid/audio.h **** 
   4:../../../../DaisyExamples/libDaisy//src/hid/audio.h **** #include "per/sai.h"
   5:../../../../DaisyExamples/libDaisy//src/hid/audio.h **** 
   6:../../../../DaisyExamples/libDaisy//src/hid/audio.h **** namespace daisy
   7:../../../../DaisyExamples/libDaisy//src/hid/audio.h **** {
   8:../../../../DaisyExamples/libDaisy//src/hid/audio.h **** /** @brief Audio Engine Handle
   9:../../../../DaisyExamples/libDaisy//src/hid/audio.h ****  *  @ingroup audio 
  10:../../../../DaisyExamples/libDaisy//src/hid/audio.h ****  *  @details This class allows for higher level access to an audio engine.
  11:../../../../DaisyExamples/libDaisy//src/hid/audio.h ****  *           If you're using a SOM like the DaisySeed or DaisyPatchSM (or any 
  12:../../../../DaisyExamples/libDaisy//src/hid/audio.h ****  *            board that includes one of those objects) then the intialization
  13:../../../../DaisyExamples/libDaisy//src/hid/audio.h ****  *            is already taken  care of.
  14:../../../../DaisyExamples/libDaisy//src/hid/audio.h ****  *           If you're setting up your own custom hardware, or need to make changes
  15:../../../../DaisyExamples/libDaisy//src/hid/audio.h ****  *           you will have to take the following steps:
  16:../../../../DaisyExamples/libDaisy//src/hid/audio.h ****  *             1. Create and Initialize an SaiHandle or two depending on your requirements
  17:../../../../DaisyExamples/libDaisy//src/hid/audio.h ****  *             2. Initialize the Audio Handle with the desired settings and the Initialized SaiHand
  18:../../../../DaisyExamples/libDaisy//src/hid/audio.h ****  *             3. If the connected codec requires special configuration or initialization, do so
  19:../../../../DaisyExamples/libDaisy//src/hid/audio.h ****  *             4. Write a callback method using either the AudioCallback or the InterleavingAudioCa
  20:../../../../DaisyExamples/libDaisy//src/hid/audio.h ****  *             5. Start the Audio using one of the StartAudio function
  21:../../../../DaisyExamples/libDaisy//src/hid/audio.h ****  */
  22:../../../../DaisyExamples/libDaisy//src/hid/audio.h **** class AudioHandle
  23:../../../../DaisyExamples/libDaisy//src/hid/audio.h **** {
  24:../../../../DaisyExamples/libDaisy//src/hid/audio.h ****   public:
  25:../../../../DaisyExamples/libDaisy//src/hid/audio.h ****     /** Manually configurable details about the Audio Engine */
  26:../../../../DaisyExamples/libDaisy//src/hid/audio.h ****     /** TODO: Figure out how to get samplerate in here. */
  27:../../../../DaisyExamples/libDaisy//src/hid/audio.h ****     struct Config
  28:../../../../DaisyExamples/libDaisy//src/hid/audio.h ****     {
  29:../../../../DaisyExamples/libDaisy//src/hid/audio.h ****         /** number of samples to process per callback */
  30:../../../../DaisyExamples/libDaisy//src/hid/audio.h ****         size_t blocksize;
  31:../../../../DaisyExamples/libDaisy//src/hid/audio.h **** 
  32:../../../../DaisyExamples/libDaisy//src/hid/audio.h ****         /**< Sample rate of audio */
  33:../../../../DaisyExamples/libDaisy//src/hid/audio.h ****         SaiHandle::Config::SampleRate samplerate;
  34:../../../../DaisyExamples/libDaisy//src/hid/audio.h **** 
  35:../../../../DaisyExamples/libDaisy//src/hid/audio.h ****         /** factor for adjustment before and after callback for hardware that may have extra headro
  36:../../../../DaisyExamples/libDaisy//src/hid/audio.h ****         float postgain;
  37:../../../../DaisyExamples/libDaisy//src/hid/audio.h **** 
  38:../../../../DaisyExamples/libDaisy//src/hid/audio.h ****         /** factor for additional one-sided compensation to audio path for hardware that may
  39:../../../../DaisyExamples/libDaisy//src/hid/audio.h ****          *  have unequal input/output ranges
  40:../../../../DaisyExamples/libDaisy//src/hid/audio.h ****          */
  41:../../../../DaisyExamples/libDaisy//src/hid/audio.h ****         float output_compensation;
  42:../../../../DaisyExamples/libDaisy//src/hid/audio.h **** 
  43:../../../../DaisyExamples/libDaisy//src/hid/audio.h ****         /** Sets default values for config struct */
  44:../../../../DaisyExamples/libDaisy//src/hid/audio.h ****         Config()
  45:../../../../DaisyExamples/libDaisy//src/hid/audio.h ****         : blocksize(48),
  46:../../../../DaisyExamples/libDaisy//src/hid/audio.h ****           samplerate(SaiHandle::Config::SampleRate::SAI_48KHZ),
  47:../../../../DaisyExamples/libDaisy//src/hid/audio.h ****           postgain(1.f),
  48:../../../../DaisyExamples/libDaisy//src/hid/audio.h ****           output_compensation(1.f)
  49:../../../../DaisyExamples/libDaisy//src/hid/audio.h ****         {
  50:../../../../DaisyExamples/libDaisy//src/hid/audio.h ****         }
ARM GAS  C:\Users\samue\AppData\Local\Temp\cc1aPeGd.s 			page 8


  51:../../../../DaisyExamples/libDaisy//src/hid/audio.h ****     };
  52:../../../../DaisyExamples/libDaisy//src/hid/audio.h **** 
  53:../../../../DaisyExamples/libDaisy//src/hid/audio.h ****     enum class Result
  54:../../../../DaisyExamples/libDaisy//src/hid/audio.h ****     {
  55:../../../../DaisyExamples/libDaisy//src/hid/audio.h ****         OK,
  56:../../../../DaisyExamples/libDaisy//src/hid/audio.h ****         ERR,
  57:../../../../DaisyExamples/libDaisy//src/hid/audio.h ****     };
  58:../../../../DaisyExamples/libDaisy//src/hid/audio.h **** 
  59:../../../../DaisyExamples/libDaisy//src/hid/audio.h ****     /** Non-Interleaving input buffer
  60:../../../../DaisyExamples/libDaisy//src/hid/audio.h ****      * Buffer arranged by float[chn][sample] 
  61:../../../../DaisyExamples/libDaisy//src/hid/audio.h ****      * const so that the user can't modify the input
  62:../../../../DaisyExamples/libDaisy//src/hid/audio.h ****      */
  63:../../../../DaisyExamples/libDaisy//src/hid/audio.h ****     typedef const float* const* InputBuffer;
  64:../../../../DaisyExamples/libDaisy//src/hid/audio.h **** 
  65:../../../../DaisyExamples/libDaisy//src/hid/audio.h ****     /** Non-Interleaving output buffer
  66:../../../../DaisyExamples/libDaisy//src/hid/audio.h ****      * Arranged by float[chn][sample] 
  67:../../../../DaisyExamples/libDaisy//src/hid/audio.h ****      */
  68:../../../../DaisyExamples/libDaisy//src/hid/audio.h ****     typedef float** OutputBuffer;
  69:../../../../DaisyExamples/libDaisy//src/hid/audio.h **** 
  70:../../../../DaisyExamples/libDaisy//src/hid/audio.h ****     /** Type for a Non-Interleaving audio callback 
  71:../../../../DaisyExamples/libDaisy//src/hid/audio.h ****      * Non-Interleaving audio callbacks in daisy will be of this type
  72:../../../../DaisyExamples/libDaisy//src/hid/audio.h ****      */
  73:../../../../DaisyExamples/libDaisy//src/hid/audio.h ****     typedef void (*AudioCallback)(InputBuffer  in,
  74:../../../../DaisyExamples/libDaisy//src/hid/audio.h ****                                   OutputBuffer out,
  75:../../../../DaisyExamples/libDaisy//src/hid/audio.h ****                                   size_t       size);
  76:../../../../DaisyExamples/libDaisy//src/hid/audio.h **** 
  77:../../../../DaisyExamples/libDaisy//src/hid/audio.h ****     /** Interleaving Input buffer
  78:../../../../DaisyExamples/libDaisy//src/hid/audio.h ****      ** audio is prepared as { L0, R0, L1, R1, . . . LN, RN }]
  79:../../../../DaisyExamples/libDaisy//src/hid/audio.h ****      ** this is const, as the user shouldn't modify it
  80:../../../../DaisyExamples/libDaisy//src/hid/audio.h ****     */
  81:../../../../DaisyExamples/libDaisy//src/hid/audio.h ****     typedef const float* InterleavingInputBuffer;
  82:../../../../DaisyExamples/libDaisy//src/hid/audio.h **** 
  83:../../../../DaisyExamples/libDaisy//src/hid/audio.h ****     /** Interleaving Output buffer 
  84:../../../../DaisyExamples/libDaisy//src/hid/audio.h ****      ** audio is prepared as { L0, R0, L1, R1, . . . LN, RN }
  85:../../../../DaisyExamples/libDaisy//src/hid/audio.h ****     */
  86:../../../../DaisyExamples/libDaisy//src/hid/audio.h ****     typedef float* InterleavingOutputBuffer;
  87:../../../../DaisyExamples/libDaisy//src/hid/audio.h **** 
  88:../../../../DaisyExamples/libDaisy//src/hid/audio.h ****     /** Interleaving Audio Callback 
  89:../../../../DaisyExamples/libDaisy//src/hid/audio.h ****      * Interleaving audio callbacks in daisy must be of this type
  90:../../../../DaisyExamples/libDaisy//src/hid/audio.h ****      */
  91:../../../../DaisyExamples/libDaisy//src/hid/audio.h ****     typedef void (*InterleavingAudioCallback)(InterleavingInputBuffer  in,
  92:../../../../DaisyExamples/libDaisy//src/hid/audio.h ****                                               InterleavingOutputBuffer out,
  93:../../../../DaisyExamples/libDaisy//src/hid/audio.h ****                                               size_t                   size);
  94:../../../../DaisyExamples/libDaisy//src/hid/audio.h **** 
  95:../../../../DaisyExamples/libDaisy//src/hid/audio.h ****     AudioHandle() : pimpl_(nullptr) {}
  96:../../../../DaisyExamples/libDaisy//src/hid/audio.h ****     ~AudioHandle() {}
  60              		.loc 6 96 5 is_stmt 1 view .LVU8
  61              		.loc 6 96 5 is_stmt 0 view .LVU9
  62              	.LBE315:
  63              	.LBE311:
  64              	.LBB316:
  65              	.LBI316:
  66              		.file 7 "../../../../DaisyExamples/libDaisy//src/hid/switch.h"
   1:../../../../DaisyExamples/libDaisy//src/hid/switch.h **** #pragma once
   2:../../../../DaisyExamples/libDaisy//src/hid/switch.h **** #ifndef DSY_SWITCH_H
   3:../../../../DaisyExamples/libDaisy//src/hid/switch.h **** #define DSY_SWITCH_H
   4:../../../../DaisyExamples/libDaisy//src/hid/switch.h **** #include "daisy_core.h"
ARM GAS  C:\Users\samue\AppData\Local\Temp\cc1aPeGd.s 			page 9


   5:../../../../DaisyExamples/libDaisy//src/hid/switch.h **** #include "per/gpio.h"
   6:../../../../DaisyExamples/libDaisy//src/hid/switch.h **** #include "sys/system.h"
   7:../../../../DaisyExamples/libDaisy//src/hid/switch.h **** 
   8:../../../../DaisyExamples/libDaisy//src/hid/switch.h **** namespace daisy
   9:../../../../DaisyExamples/libDaisy//src/hid/switch.h **** {
  10:../../../../DaisyExamples/libDaisy//src/hid/switch.h **** /** 
  11:../../../../DaisyExamples/libDaisy//src/hid/switch.h ****     Generic Class for handling momentary/latching switches \n 
  12:../../../../DaisyExamples/libDaisy//src/hid/switch.h ****     Inspired/influenced by Mutable Instruments (pichenettes) Switch classes
  13:../../../../DaisyExamples/libDaisy//src/hid/switch.h ****     @author Stephen Hensley
  14:../../../../DaisyExamples/libDaisy//src/hid/switch.h ****     @date December 2019
  15:../../../../DaisyExamples/libDaisy//src/hid/switch.h ****     @ingroup controls
  16:../../../../DaisyExamples/libDaisy//src/hid/switch.h **** */
  17:../../../../DaisyExamples/libDaisy//src/hid/switch.h **** class Switch
  18:../../../../DaisyExamples/libDaisy//src/hid/switch.h **** {
  19:../../../../DaisyExamples/libDaisy//src/hid/switch.h ****   public:
  20:../../../../DaisyExamples/libDaisy//src/hid/switch.h ****     /** Specifies the expected behavior of the switch */
  21:../../../../DaisyExamples/libDaisy//src/hid/switch.h ****     enum Type
  22:../../../../DaisyExamples/libDaisy//src/hid/switch.h ****     {
  23:../../../../DaisyExamples/libDaisy//src/hid/switch.h ****         TYPE_TOGGLE,    /**< & */
  24:../../../../DaisyExamples/libDaisy//src/hid/switch.h ****         TYPE_MOMENTARY, /**< & */
  25:../../../../DaisyExamples/libDaisy//src/hid/switch.h ****     };
  26:../../../../DaisyExamples/libDaisy//src/hid/switch.h ****     /** Specifies whether the pressed is HIGH or LOW. */
  27:../../../../DaisyExamples/libDaisy//src/hid/switch.h ****     enum Polarity
  28:../../../../DaisyExamples/libDaisy//src/hid/switch.h ****     {
  29:../../../../DaisyExamples/libDaisy//src/hid/switch.h ****         POLARITY_NORMAL,   /**< & */
  30:../../../../DaisyExamples/libDaisy//src/hid/switch.h ****         POLARITY_INVERTED, /**< & */
  31:../../../../DaisyExamples/libDaisy//src/hid/switch.h ****     };
  32:../../../../DaisyExamples/libDaisy//src/hid/switch.h **** 
  33:../../../../DaisyExamples/libDaisy//src/hid/switch.h ****     /** Specifies whether to use built-in Pull Up/Down resistors to hold button at a given state wh
  34:../../../../DaisyExamples/libDaisy//src/hid/switch.h ****     enum Pull
  35:../../../../DaisyExamples/libDaisy//src/hid/switch.h ****     {
  36:../../../../DaisyExamples/libDaisy//src/hid/switch.h ****         PULL_UP,   /**< & */
  37:../../../../DaisyExamples/libDaisy//src/hid/switch.h ****         PULL_DOWN, /**< & */
  38:../../../../DaisyExamples/libDaisy//src/hid/switch.h ****         PULL_NONE, /**< & */
  39:../../../../DaisyExamples/libDaisy//src/hid/switch.h ****     };
  40:../../../../DaisyExamples/libDaisy//src/hid/switch.h **** 
  41:../../../../DaisyExamples/libDaisy//src/hid/switch.h ****     Switch() {}
  42:../../../../DaisyExamples/libDaisy//src/hid/switch.h ****     ~Switch() {}
  67              		.loc 7 42 5 is_stmt 1 view .LVU10
  68              		.loc 7 42 5 is_stmt 0 view .LVU11
  69              	.LBE316:
  70              	.LBB317:
  71              	.LBI317:
  72              		.file 8 "../../../../DaisyExamples/libDaisy//src/hid/switch3.h"
   1:../../../../DaisyExamples/libDaisy//src/hid/switch3.h **** #pragma once
   2:../../../../DaisyExamples/libDaisy//src/hid/switch3.h **** #include "daisy_core.h"
   3:../../../../DaisyExamples/libDaisy//src/hid/switch3.h **** #include "per/gpio.h"
   4:../../../../DaisyExamples/libDaisy//src/hid/switch3.h **** 
   5:../../../../DaisyExamples/libDaisy//src/hid/switch3.h **** namespace daisy
   6:../../../../DaisyExamples/libDaisy//src/hid/switch3.h **** {
   7:../../../../DaisyExamples/libDaisy//src/hid/switch3.h **** class Switch3
   8:../../../../DaisyExamples/libDaisy//src/hid/switch3.h **** {
   9:../../../../DaisyExamples/libDaisy//src/hid/switch3.h ****   public:
  10:../../../../DaisyExamples/libDaisy//src/hid/switch3.h ****     enum
  11:../../../../DaisyExamples/libDaisy//src/hid/switch3.h ****     {
  12:../../../../DaisyExamples/libDaisy//src/hid/switch3.h ****         POS_CENTER = 0,
  13:../../../../DaisyExamples/libDaisy//src/hid/switch3.h ****         POS_LEFT   = 1,
ARM GAS  C:\Users\samue\AppData\Local\Temp\cc1aPeGd.s 			page 10


  14:../../../../DaisyExamples/libDaisy//src/hid/switch3.h ****         POS_UP     = 1,
  15:../../../../DaisyExamples/libDaisy//src/hid/switch3.h ****         POS_RIGHT  = 2,
  16:../../../../DaisyExamples/libDaisy//src/hid/switch3.h ****         POS_DOWN   = 2,
  17:../../../../DaisyExamples/libDaisy//src/hid/switch3.h ****     };
  18:../../../../DaisyExamples/libDaisy//src/hid/switch3.h **** 
  19:../../../../DaisyExamples/libDaisy//src/hid/switch3.h **** 
  20:../../../../DaisyExamples/libDaisy//src/hid/switch3.h ****     Switch3() {}
  21:../../../../DaisyExamples/libDaisy//src/hid/switch3.h ****     ~Switch3() {}
  73              		.loc 8 21 5 is_stmt 1 view .LVU12
  74              		.loc 8 21 5 is_stmt 0 view .LVU13
  75              	.LBE317:
  76              	.LBB318:
  77              	.LBI318:
  78              		.loc 8 21 5 is_stmt 1 view .LVU14
  79              		.loc 8 21 5 is_stmt 0 view .LVU15
  80              	.LBE318:
  81              		.loc 1 20 21 view .LVU16
  82 0000 7047     		bx	lr
  83              		.cfi_endproc
  84              	.LFE4847:
  86              		.weak	_ZN5daisy11daisyCommonD1Ev
  87              		.thumb_set _ZN5daisy11daisyCommonD1Ev,_ZN5daisy11daisyCommonD2Ev
  88 0002 00BF     		.section	.text._ZN5voiceD2Ev,"axG",%progbits,_ZN5voiceD5Ev,comdat
  89              		.align	1
  90              		.p2align 2,,3
  91              		.weak	_ZN5voiceD2Ev
  92              		.syntax unified
  93              		.thumb
  94              		.thumb_func
  95              		.fpu fpv5-d16
  97              	_ZN5voiceD2Ev:
  98              	.LVL1:
  99              	.LFB4853:
 100              		.file 9 "voice.h"
   1:voice.h       **** #include "daisysp.h"
   2:voice.h       **** using namespace daisysp;
   3:voice.h       **** 
   4:voice.h       **** class voice
   5:voice.h       **** {
   6:voice.h       ****     public:
   7:voice.h       ****     voice() {}
   8:voice.h       ****     ~voice() {}
 101              		.loc 9 8 5 is_stmt 1 view -0
 102              		.cfi_startproc
 103              		@ args = 0, pretend = 0, frame = 0
 104              		@ frame_needed = 0, uses_anonymous_args = 0
 105              		@ link register save eliminated.
 106              	.LBB319:
 107              	.LBI319:
 108              		.file 10 "../../../../DaisyExamples/DaisySP//Source/Noise/whitenoise.h"
   1:../../../../DaisyExamples/DaisySP//Source/Noise/whitenoise.h **** /*
   2:../../../../DaisyExamples/DaisySP//Source/Noise/whitenoise.h **** Copyright (c) 2020 Electrosmith, Corp
   3:../../../../DaisyExamples/DaisySP//Source/Noise/whitenoise.h **** 
   4:../../../../DaisyExamples/DaisySP//Source/Noise/whitenoise.h **** Use of this source code is governed by an MIT-style
   5:../../../../DaisyExamples/DaisySP//Source/Noise/whitenoise.h **** license that can be found in the LICENSE file or at
   6:../../../../DaisyExamples/DaisySP//Source/Noise/whitenoise.h **** https://opensource.org/licenses/MIT.
   7:../../../../DaisyExamples/DaisySP//Source/Noise/whitenoise.h **** */
ARM GAS  C:\Users\samue\AppData\Local\Temp\cc1aPeGd.s 			page 11


   8:../../../../DaisyExamples/DaisySP//Source/Noise/whitenoise.h **** 
   9:../../../../DaisyExamples/DaisySP//Source/Noise/whitenoise.h **** #pragma once
  10:../../../../DaisyExamples/DaisySP//Source/Noise/whitenoise.h **** #ifndef DSY_WHITENOISE_H
  11:../../../../DaisyExamples/DaisySP//Source/Noise/whitenoise.h **** #define DSY_WHITENOISE_H
  12:../../../../DaisyExamples/DaisySP//Source/Noise/whitenoise.h **** #include <stdint.h>
  13:../../../../DaisyExamples/DaisySP//Source/Noise/whitenoise.h **** #ifdef __cplusplus
  14:../../../../DaisyExamples/DaisySP//Source/Noise/whitenoise.h **** namespace daisysp
  15:../../../../DaisyExamples/DaisySP//Source/Noise/whitenoise.h **** {
  16:../../../../DaisyExamples/DaisySP//Source/Noise/whitenoise.h **** /** fast white noise generator
  17:../../../../DaisyExamples/DaisySP//Source/Noise/whitenoise.h **** 
  18:../../../../DaisyExamples/DaisySP//Source/Noise/whitenoise.h ****     I think this came from musicdsp.org at some point
  19:../../../../DaisyExamples/DaisySP//Source/Noise/whitenoise.h **** */
  20:../../../../DaisyExamples/DaisySP//Source/Noise/whitenoise.h **** class WhiteNoise
  21:../../../../DaisyExamples/DaisySP//Source/Noise/whitenoise.h **** {
  22:../../../../DaisyExamples/DaisySP//Source/Noise/whitenoise.h ****   public:
  23:../../../../DaisyExamples/DaisySP//Source/Noise/whitenoise.h ****     WhiteNoise() {}
  24:../../../../DaisyExamples/DaisySP//Source/Noise/whitenoise.h ****     ~WhiteNoise() {}
 109              		.loc 10 24 5 view .LVU18
 110              		.loc 10 24 5 is_stmt 0 view .LVU19
 111              	.LBE319:
 112              	.LBB320:
 113              	.LBI320:
 114              		.file 11 "../../../../DaisyExamples/DaisySP//Source/Effects/overdrive.h"
   1:../../../../DaisyExamples/DaisySP//Source/Effects/overdrive.h **** /*
   2:../../../../DaisyExamples/DaisySP//Source/Effects/overdrive.h **** Copyright (c) 2020 Electrosmith, Corp, Emilie Gillet
   3:../../../../DaisyExamples/DaisySP//Source/Effects/overdrive.h **** 
   4:../../../../DaisyExamples/DaisySP//Source/Effects/overdrive.h **** Use of this source code is governed by an MIT-style
   5:../../../../DaisyExamples/DaisySP//Source/Effects/overdrive.h **** license that can be found in the LICENSE file or at
   6:../../../../DaisyExamples/DaisySP//Source/Effects/overdrive.h **** https://opensource.org/licenses/MIT.
   7:../../../../DaisyExamples/DaisySP//Source/Effects/overdrive.h **** */
   8:../../../../DaisyExamples/DaisySP//Source/Effects/overdrive.h **** 
   9:../../../../DaisyExamples/DaisySP//Source/Effects/overdrive.h **** #pragma once
  10:../../../../DaisyExamples/DaisySP//Source/Effects/overdrive.h **** #ifndef DSY_OVERDRIVE_H
  11:../../../../DaisyExamples/DaisySP//Source/Effects/overdrive.h **** #define DSY_OVERDRIVE_H
  12:../../../../DaisyExamples/DaisySP//Source/Effects/overdrive.h **** 
  13:../../../../DaisyExamples/DaisySP//Source/Effects/overdrive.h **** #include <stdint.h>
  14:../../../../DaisyExamples/DaisySP//Source/Effects/overdrive.h **** #ifdef __cplusplus
  15:../../../../DaisyExamples/DaisySP//Source/Effects/overdrive.h **** 
  16:../../../../DaisyExamples/DaisySP//Source/Effects/overdrive.h **** /** @file overdrive.h */
  17:../../../../DaisyExamples/DaisySP//Source/Effects/overdrive.h **** 
  18:../../../../DaisyExamples/DaisySP//Source/Effects/overdrive.h **** namespace daisysp
  19:../../../../DaisyExamples/DaisySP//Source/Effects/overdrive.h **** {
  20:../../../../DaisyExamples/DaisySP//Source/Effects/overdrive.h **** /**  
  21:../../../../DaisyExamples/DaisySP//Source/Effects/overdrive.h ****        @brief Distortion / Overdrive Module
  22:../../../../DaisyExamples/DaisySP//Source/Effects/overdrive.h ****        @author Ported by Ben Sergentanis 
  23:../../../../DaisyExamples/DaisySP//Source/Effects/overdrive.h ****        @date Jan 2021 
  24:../../../../DaisyExamples/DaisySP//Source/Effects/overdrive.h ****        Ported from pichenettes/eurorack/plaits/dsp/fx/overdrive.h \n
  25:../../../../DaisyExamples/DaisySP//Source/Effects/overdrive.h ****        to an independent module. \n
  26:../../../../DaisyExamples/DaisySP//Source/Effects/overdrive.h ****        Original code written by Emilie Gillet in 2014. \n
  27:../../../../DaisyExamples/DaisySP//Source/Effects/overdrive.h **** */
  28:../../../../DaisyExamples/DaisySP//Source/Effects/overdrive.h **** class Overdrive
  29:../../../../DaisyExamples/DaisySP//Source/Effects/overdrive.h **** {
  30:../../../../DaisyExamples/DaisySP//Source/Effects/overdrive.h ****   public:
  31:../../../../DaisyExamples/DaisySP//Source/Effects/overdrive.h ****     Overdrive() {}
  32:../../../../DaisyExamples/DaisySP//Source/Effects/overdrive.h ****     ~Overdrive() {}
 115              		.loc 11 32 5 is_stmt 1 view .LVU20
 116              		.loc 11 32 5 is_stmt 0 view .LVU21
ARM GAS  C:\Users\samue\AppData\Local\Temp\cc1aPeGd.s 			page 12


 117              	.LBE320:
 118              	.LBB321:
 119              	.LBI321:
 120              		.file 12 "../../../../DaisyExamples/DaisySP//Source/Synthesis/oscillator.h"
   1:../../../../DaisyExamples/DaisySP//Source/Synthesis/oscillator.h **** /*
   2:../../../../DaisyExamples/DaisySP//Source/Synthesis/oscillator.h **** Copyright (c) 2020 Electrosmith, Corp
   3:../../../../DaisyExamples/DaisySP//Source/Synthesis/oscillator.h **** 
   4:../../../../DaisyExamples/DaisySP//Source/Synthesis/oscillator.h **** Use of this source code is governed by an MIT-style
   5:../../../../DaisyExamples/DaisySP//Source/Synthesis/oscillator.h **** license that can be found in the LICENSE file or at
   6:../../../../DaisyExamples/DaisySP//Source/Synthesis/oscillator.h **** https://opensource.org/licenses/MIT.
   7:../../../../DaisyExamples/DaisySP//Source/Synthesis/oscillator.h **** */
   8:../../../../DaisyExamples/DaisySP//Source/Synthesis/oscillator.h **** 
   9:../../../../DaisyExamples/DaisySP//Source/Synthesis/oscillator.h **** #pragma once
  10:../../../../DaisyExamples/DaisySP//Source/Synthesis/oscillator.h **** #ifndef DSY_OSCILLATOR_H
  11:../../../../DaisyExamples/DaisySP//Source/Synthesis/oscillator.h **** #define DSY_OSCILLATOR_H
  12:../../../../DaisyExamples/DaisySP//Source/Synthesis/oscillator.h **** #include <stdint.h>
  13:../../../../DaisyExamples/DaisySP//Source/Synthesis/oscillator.h **** #include "Utility/dsp.h"
  14:../../../../DaisyExamples/DaisySP//Source/Synthesis/oscillator.h **** #ifdef __cplusplus
  15:../../../../DaisyExamples/DaisySP//Source/Synthesis/oscillator.h **** 
  16:../../../../DaisyExamples/DaisySP//Source/Synthesis/oscillator.h **** namespace daisysp
  17:../../../../DaisyExamples/DaisySP//Source/Synthesis/oscillator.h **** {
  18:../../../../DaisyExamples/DaisySP//Source/Synthesis/oscillator.h **** /** Synthesis of several waveforms, including polyBLEP bandlimited waveforms.
  19:../../../../DaisyExamples/DaisySP//Source/Synthesis/oscillator.h **** */
  20:../../../../DaisyExamples/DaisySP//Source/Synthesis/oscillator.h **** class Oscillator
  21:../../../../DaisyExamples/DaisySP//Source/Synthesis/oscillator.h **** {
  22:../../../../DaisyExamples/DaisySP//Source/Synthesis/oscillator.h ****   public:
  23:../../../../DaisyExamples/DaisySP//Source/Synthesis/oscillator.h ****     Oscillator() {}
  24:../../../../DaisyExamples/DaisySP//Source/Synthesis/oscillator.h ****     ~Oscillator() {}
 121              		.loc 12 24 5 is_stmt 1 view .LVU22
 122              		.loc 12 24 5 is_stmt 0 view .LVU23
 123              	.LBE321:
 124              	.LBB322:
 125              	.LBI322:
 126              		.loc 12 24 5 is_stmt 1 view .LVU24
 127              		.loc 12 24 5 is_stmt 0 view .LVU25
 128              	.LBE322:
 129              	.LBB323:
 130              	.LBI323:
 131              		.loc 12 24 5 is_stmt 1 view .LVU26
 132              		.loc 12 24 5 is_stmt 0 view .LVU27
 133              	.LBE323:
 134              	.LBB324:
 135              	.LBI324:
 136              		.loc 12 24 5 is_stmt 1 view .LVU28
 137              		.loc 12 24 5 is_stmt 0 view .LVU29
 138              	.LBE324:
 139              	.LBB325:
 140              	.LBI325:
 141              		.loc 12 24 5 is_stmt 1 view .LVU30
 142              		.loc 12 24 5 is_stmt 0 view .LVU31
 143              	.LBE325:
 144              	.LBB326:
 145              	.LBI326:
 146              		.loc 12 24 5 is_stmt 1 view .LVU32
 147              		.loc 12 24 5 is_stmt 0 view .LVU33
 148              	.LBE326:
 149              	.LBB327:
ARM GAS  C:\Users\samue\AppData\Local\Temp\cc1aPeGd.s 			page 13


 150              	.LBI327:
 151              		.file 13 "../../../../DaisyExamples/DaisySP//Source/Filters/svf.h"
   1:../../../../DaisyExamples/DaisySP//Source/Filters/svf.h **** /*
   2:../../../../DaisyExamples/DaisySP//Source/Filters/svf.h **** Copyright (c) 2020 Electrosmith, Corp
   3:../../../../DaisyExamples/DaisySP//Source/Filters/svf.h **** 
   4:../../../../DaisyExamples/DaisySP//Source/Filters/svf.h **** Use of this source code is governed by an MIT-style
   5:../../../../DaisyExamples/DaisySP//Source/Filters/svf.h **** license that can be found in the LICENSE file or at
   6:../../../../DaisyExamples/DaisySP//Source/Filters/svf.h **** https://opensource.org/licenses/MIT.
   7:../../../../DaisyExamples/DaisySP//Source/Filters/svf.h **** */
   8:../../../../DaisyExamples/DaisySP//Source/Filters/svf.h **** 
   9:../../../../DaisyExamples/DaisySP//Source/Filters/svf.h **** #pragma once
  10:../../../../DaisyExamples/DaisySP//Source/Filters/svf.h **** #ifndef DSY_SVF_H
  11:../../../../DaisyExamples/DaisySP//Source/Filters/svf.h **** #define DSY_SVF_H
  12:../../../../DaisyExamples/DaisySP//Source/Filters/svf.h **** 
  13:../../../../DaisyExamples/DaisySP//Source/Filters/svf.h **** namespace daisysp
  14:../../../../DaisyExamples/DaisySP//Source/Filters/svf.h **** {
  15:../../../../DaisyExamples/DaisySP//Source/Filters/svf.h **** /**      Double Sampled, Stable State Variable Filter
  16:../../../../DaisyExamples/DaisySP//Source/Filters/svf.h **** 
  17:../../../../DaisyExamples/DaisySP//Source/Filters/svf.h **** Credit to Andrew Simper from musicdsp.org
  18:../../../../DaisyExamples/DaisySP//Source/Filters/svf.h **** 
  19:../../../../DaisyExamples/DaisySP//Source/Filters/svf.h **** This is his "State Variable Filter (Double Sampled, Stable)"
  20:../../../../DaisyExamples/DaisySP//Source/Filters/svf.h **** 
  21:../../../../DaisyExamples/DaisySP//Source/Filters/svf.h **** Additional thanks to Laurent de Soras for stability limit, and 
  22:../../../../DaisyExamples/DaisySP//Source/Filters/svf.h **** Stefan Diedrichsen for the correct notch output
  23:../../../../DaisyExamples/DaisySP//Source/Filters/svf.h **** 
  24:../../../../DaisyExamples/DaisySP//Source/Filters/svf.h **** Ported by: Stephen Hensley
  25:../../../../DaisyExamples/DaisySP//Source/Filters/svf.h **** */
  26:../../../../DaisyExamples/DaisySP//Source/Filters/svf.h **** class Svf
  27:../../../../DaisyExamples/DaisySP//Source/Filters/svf.h **** {
  28:../../../../DaisyExamples/DaisySP//Source/Filters/svf.h ****   public:
  29:../../../../DaisyExamples/DaisySP//Source/Filters/svf.h ****     Svf() {}
  30:../../../../DaisyExamples/DaisySP//Source/Filters/svf.h ****     ~Svf() {}
 152              		.loc 13 30 5 is_stmt 1 view .LVU34
 153              		.loc 13 30 5 is_stmt 0 view .LVU35
 154              	.LBE327:
 155              	.LBB328:
 156              	.LBI328:
 157              		.loc 13 30 5 is_stmt 1 view .LVU36
 158              		.loc 13 30 5 is_stmt 0 view .LVU37
 159              	.LBE328:
 160              	.LBB329:
 161              	.LBI329:
 162              		.loc 13 30 5 is_stmt 1 view .LVU38
 163              		.loc 13 30 5 is_stmt 0 view .LVU39
 164              	.LBE329:
 165              	.LBB330:
 166              	.LBI330:
 167              		.loc 13 30 5 is_stmt 1 view .LVU40
 168              		.loc 13 30 5 is_stmt 0 view .LVU41
 169              	.LBE330:
 170              	.LBB331:
 171              	.LBI331:
 172              		.file 14 "../../../../DaisyExamples/DaisySP//Source/Control/adenv.h"
   1:../../../../DaisyExamples/DaisySP//Source/Control/adenv.h **** /*
   2:../../../../DaisyExamples/DaisySP//Source/Control/adenv.h **** Copyright (c) 2020 Electrosmith, Corp
   3:../../../../DaisyExamples/DaisySP//Source/Control/adenv.h **** 
   4:../../../../DaisyExamples/DaisySP//Source/Control/adenv.h **** Use of this source code is governed by an MIT-style
ARM GAS  C:\Users\samue\AppData\Local\Temp\cc1aPeGd.s 			page 14


   5:../../../../DaisyExamples/DaisySP//Source/Control/adenv.h **** license that can be found in the LICENSE file or at
   6:../../../../DaisyExamples/DaisySP//Source/Control/adenv.h **** https://opensource.org/licenses/MIT.
   7:../../../../DaisyExamples/DaisySP//Source/Control/adenv.h **** */
   8:../../../../DaisyExamples/DaisySP//Source/Control/adenv.h **** 
   9:../../../../DaisyExamples/DaisySP//Source/Control/adenv.h **** #pragma once
  10:../../../../DaisyExamples/DaisySP//Source/Control/adenv.h **** #ifndef ADENV_H
  11:../../../../DaisyExamples/DaisySP//Source/Control/adenv.h **** #define ADENV_H
  12:../../../../DaisyExamples/DaisySP//Source/Control/adenv.h **** #include <stdint.h>
  13:../../../../DaisyExamples/DaisySP//Source/Control/adenv.h **** #ifdef __cplusplus
  14:../../../../DaisyExamples/DaisySP//Source/Control/adenv.h **** 
  15:../../../../DaisyExamples/DaisySP//Source/Control/adenv.h **** namespace daisysp
  16:../../../../DaisyExamples/DaisySP//Source/Control/adenv.h **** {
  17:../../../../DaisyExamples/DaisySP//Source/Control/adenv.h **** /** Distinct stages that the phase of the envelope can be located in.
  18:../../../../DaisyExamples/DaisySP//Source/Control/adenv.h ****     @see AdEnv
  19:../../../../DaisyExamples/DaisySP//Source/Control/adenv.h **** */
  20:../../../../DaisyExamples/DaisySP//Source/Control/adenv.h **** enum AdEnvSegment
  21:../../../../DaisyExamples/DaisySP//Source/Control/adenv.h **** {
  22:../../../../DaisyExamples/DaisySP//Source/Control/adenv.h ****     /** located at phase location 0, and not currently running */
  23:../../../../DaisyExamples/DaisySP//Source/Control/adenv.h ****     ADENV_SEG_IDLE,
  24:../../../../DaisyExamples/DaisySP//Source/Control/adenv.h ****     /** First segment of envelope where phase moves from MIN value to MAX value */
  25:../../../../DaisyExamples/DaisySP//Source/Control/adenv.h ****     ADENV_SEG_ATTACK,
  26:../../../../DaisyExamples/DaisySP//Source/Control/adenv.h ****     /** Second segment of envelope where phase moves from MAX to MIN value */
  27:../../../../DaisyExamples/DaisySP//Source/Control/adenv.h ****     ADENV_SEG_DECAY,
  28:../../../../DaisyExamples/DaisySP//Source/Control/adenv.h ****     /** The final segment of the envelope (currently decay) */
  29:../../../../DaisyExamples/DaisySP//Source/Control/adenv.h ****     ADENV_SEG_LAST,
  30:../../../../DaisyExamples/DaisySP//Source/Control/adenv.h **** };
  31:../../../../DaisyExamples/DaisySP//Source/Control/adenv.h **** 
  32:../../../../DaisyExamples/DaisySP//Source/Control/adenv.h **** /** Trigger-able envelope with adjustable min/max, and independent per-segment time control.
  33:../../../../DaisyExamples/DaisySP//Source/Control/adenv.h **** 
  34:../../../../DaisyExamples/DaisySP//Source/Control/adenv.h ****     \author shensley
  35:../../../../DaisyExamples/DaisySP//Source/Control/adenv.h ****     \todo - Add Cycling
  36:../../../../DaisyExamples/DaisySP//Source/Control/adenv.h ****     \todo - Implement Curve (its only linear for now).
  37:../../../../DaisyExamples/DaisySP//Source/Control/adenv.h ****     \todo - Maybe make this an ADsr_ that has AD/AR/Asr_ modes.
  38:../../../../DaisyExamples/DaisySP//Source/Control/adenv.h ****  */
  39:../../../../DaisyExamples/DaisySP//Source/Control/adenv.h **** class AdEnv
  40:../../../../DaisyExamples/DaisySP//Source/Control/adenv.h **** {
  41:../../../../DaisyExamples/DaisySP//Source/Control/adenv.h ****   public:
  42:../../../../DaisyExamples/DaisySP//Source/Control/adenv.h ****     AdEnv() {}
  43:../../../../DaisyExamples/DaisySP//Source/Control/adenv.h ****     ~AdEnv() {}
 173              		.loc 14 43 5 is_stmt 1 view .LVU42
 174              		.loc 14 43 5 is_stmt 0 view .LVU43
 175              	.LBE331:
 176              		.loc 9 8 15 view .LVU44
 177 0000 7047     		bx	lr
 178              		.cfi_endproc
 179              	.LFE4853:
 181              		.weak	_ZN5voiceD1Ev
 182              		.thumb_set _ZN5voiceD1Ev,_ZN5voiceD2Ev
 183 0002 00BF     		.section	.text._Z13AudioCallbackPKPKfPPfj,"ax",%progbits
 184              		.align	1
 185              		.p2align 2,,3
 186              		.global	_Z13AudioCallbackPKPKfPPfj
 187              		.syntax unified
 188              		.thumb
 189              		.thumb_func
 190              		.fpu fpv5-d16
 192              	_Z13AudioCallbackPKPKfPPfj:
ARM GAS  C:\Users\samue\AppData\Local\Temp\cc1aPeGd.s 			page 15


 193              	.LVL2:
 194              	.LFB4855:
 195              		.file 15 "201_hihat.cpp"
   1:201_hihat.cpp **** #include "daisy_seed.h"
   2:201_hihat.cpp **** #include "daisysp.h"
   3:201_hihat.cpp **** #include "daisy_common.h"
   4:201_hihat.cpp **** #include "voice.h"
   5:201_hihat.cpp **** 
   6:201_hihat.cpp **** using namespace daisy;
   7:201_hihat.cpp **** using namespace daisysp;
   8:201_hihat.cpp **** 
   9:201_hihat.cpp **** daisyCommon board;
  10:201_hihat.cpp **** int blocksize = 32;
  11:201_hihat.cpp **** float fs = 96000;
  12:201_hihat.cpp **** bool trigger = false;
  13:201_hihat.cpp **** bool last_gate_in = false;
  14:201_hihat.cpp **** bool gate_in = false;
  15:201_hihat.cpp **** 
  16:201_hihat.cpp **** voice hihat;
  17:201_hihat.cpp **** 
  18:201_hihat.cpp **** enum
  19:201_hihat.cpp **** {
  20:201_hihat.cpp **** 	bandpass_freq, bandpass_q, highpass_freq, decay, accent, gate, oscillator_tune
  21:201_hihat.cpp **** };
  22:201_hihat.cpp **** 
  23:201_hihat.cpp **** void AudioCallback(AudioHandle::InputBuffer in, AudioHandle::OutputBuffer out, size_t size)
  24:201_hihat.cpp **** {
 196              		.loc 15 24 1 is_stmt 1 view -0
 197              		.cfi_startproc
 198              		@ args = 0, pretend = 0, frame = 0
 199              		@ frame_needed = 0, uses_anonymous_args = 0
  25:201_hihat.cpp **** 	for (size_t i = 0; i < size; i++)
 200              		.loc 15 25 2 view .LVU46
 201              	.LBB332:
 202              		.loc 15 25 23 view .LVU47
 203 0000 BAB1     		cbz	r2, .L12
 204              	.LBE332:
  24:201_hihat.cpp **** 	for (size_t i = 0; i < size; i++)
 205              		.loc 15 24 1 is_stmt 0 view .LVU48
 206 0002 2DE9F041 		push	{r4, r5, r6, r7, r8, lr}
 207              		.cfi_def_cfa_offset 24
 208              		.cfi_offset 4, -24
 209              		.cfi_offset 5, -20
 210              		.cfi_offset 6, -16
 211              		.cfi_offset 7, -12
 212              		.cfi_offset 8, -8
 213              		.cfi_offset 14, -4
 214 0006 0E46     		mov	r6, r1
 215 0008 1746     		mov	r7, r2
 216              	.LBB333:
 217              		.loc 15 25 14 view .LVU49
 218 000a 0024     		movs	r4, #0
 219              	.LVL3:
 220              	.L6:
  26:201_hihat.cpp **** 	{
  27:201_hihat.cpp **** 		out[0][i] = hihat.Process();
 221              		.loc 15 27 3 is_stmt 1 discriminator 2 view .LVU50
ARM GAS  C:\Users\samue\AppData\Local\Temp\cc1aPeGd.s 			page 16


 222              		.loc 15 27 11 is_stmt 0 discriminator 2 view .LVU51
 223 000c 3568     		ldr	r5, [r6]
 224 000e 4FEA8408 		lsl	r8, r4, #2
 225              		.loc 15 27 28 discriminator 2 view .LVU52
 226 0012 0848     		ldr	r0, .L15
 227 0014 FFF7FEFF 		bl	_ZN5voice7ProcessEv
 228              	.LVL4:
  28:201_hihat.cpp **** 		out[1][i] = 0.0f;
 229              		.loc 15 28 13 discriminator 2 view .LVU53
 230 0018 7368     		ldr	r3, [r6, #4]
  27:201_hihat.cpp **** 		out[1][i] = 0.0f;
 231              		.loc 15 27 11 discriminator 2 view .LVU54
 232 001a 05EB8405 		add	r5, r5, r4, lsl #2
  25:201_hihat.cpp **** 	{
 233              		.loc 15 25 2 discriminator 2 view .LVU55
 234 001e 0134     		adds	r4, r4, #1
 235              	.LVL5:
 236              		.loc 15 28 13 discriminator 2 view .LVU56
 237 0020 0021     		movs	r1, #0
 238 0022 4344     		add	r3, r3, r8
  25:201_hihat.cpp **** 	{
 239              		.loc 15 25 23 discriminator 2 view .LVU57
 240 0024 A742     		cmp	r7, r4
  27:201_hihat.cpp **** 		out[1][i] = 0.0f;
 241              		.loc 15 27 13 discriminator 2 view .LVU58
 242 0026 85ED000A 		vstr.32	s0, [r5]
 243              		.loc 15 28 3 is_stmt 1 discriminator 2 view .LVU59
 244              		.loc 15 28 13 is_stmt 0 discriminator 2 view .LVU60
 245 002a 1960     		str	r1, [r3]	@ float
  25:201_hihat.cpp **** 	{
 246              		.loc 15 25 2 is_stmt 1 discriminator 2 view .LVU61
 247              	.LVL6:
  25:201_hihat.cpp **** 	{
 248              		.loc 15 25 23 discriminator 2 view .LVU62
 249 002c EED1     		bne	.L6
 250              	.LBE333:
  29:201_hihat.cpp **** 	}
  30:201_hihat.cpp **** }
 251              		.loc 15 30 1 is_stmt 0 view .LVU63
 252 002e BDE8F081 		pop	{r4, r5, r6, r7, r8, pc}
 253              	.LVL7:
 254              	.L12:
 255              		.cfi_def_cfa_offset 0
 256              		.cfi_restore 4
 257              		.cfi_restore 5
 258              		.cfi_restore 6
 259              		.cfi_restore 7
 260              		.cfi_restore 8
 261              		.cfi_restore 14
 262              		.loc 15 30 1 view .LVU64
 263 0032 7047     		bx	lr
 264              	.L16:
 265              		.align	2
 266              	.L15:
 267 0034 00000000 		.word	.LANCHOR0
 268              		.cfi_endproc
 269              	.LFE4855:
ARM GAS  C:\Users\samue\AppData\Local\Temp\cc1aPeGd.s 			page 17


 271              		.section	.text.startup.main,"ax",%progbits
 272              		.align	1
 273              		.p2align 2,,3
 274              		.global	main
 275              		.syntax unified
 276              		.thumb
 277              		.thumb_func
 278              		.fpu fpv5-d16
 280              	main:
 281              	.LFB4856:
  31:201_hihat.cpp **** 
  32:201_hihat.cpp **** int main(void)
  33:201_hihat.cpp **** {
 282              		.loc 15 33 1 is_stmt 1 view -0
 283              		.cfi_startproc
 284              		@ args = 0, pretend = 0, frame = 0
 285              		@ frame_needed = 0, uses_anonymous_args = 0
  34:201_hihat.cpp **** 	board.add_gate_in(gate, board.in_1);
 286              		.loc 15 34 2 view .LVU66
 287              		.loc 15 34 19 is_stmt 0 view .LVU67
 288 0000 5A48     		ldr	r0, .L34
 289 0002 0022     		movs	r2, #0
 290 0004 0521     		movs	r1, #5
  33:201_hihat.cpp **** 	board.add_gate_in(gate, board.in_1);
 291              		.loc 15 33 1 view .LVU68
 292 0006 F8B5     		push	{r3, r4, r5, r6, r7, lr}
 293              		.cfi_def_cfa_offset 24
 294              		.cfi_offset 3, -24
 295              		.cfi_offset 4, -20
 296              		.cfi_offset 5, -16
 297              		.cfi_offset 6, -12
 298              		.cfi_offset 7, -8
 299              		.cfi_offset 14, -4
 300 0008 0746     		mov	r7, r0
 301              		.loc 15 34 19 view .LVU69
 302 000a FFF7FEFF 		bl	_ZN5daisy11daisyCommon11add_gate_inEii
 303              	.LVL8:
  35:201_hihat.cpp **** 
  36:201_hihat.cpp **** 	board.add_dual_control(bandpass_freq, board.in_2, board.knob_1);
 304              		.loc 15 36 2 is_stmt 1 view .LVU70
 305              		.loc 15 36 24 is_stmt 0 view .LVU71
 306 000e 0023     		movs	r3, #0
 307 0010 0122     		movs	r2, #1
 308 0012 3846     		mov	r0, r7
 309 0014 564E     		ldr	r6, .L34+4
 310 0016 1946     		mov	r1, r3
 311 0018 564D     		ldr	r5, .L34+8
 312 001a FFF7FEFF 		bl	_ZN5daisy11daisyCommon16add_dual_controlEiii
 313              	.LVL9:
  37:201_hihat.cpp **** 	board.add_dual_control(bandpass_q, board.in_3, board.knob_2);
 314              		.loc 15 37 2 is_stmt 1 view .LVU72
 315              		.loc 15 37 24 is_stmt 0 view .LVU73
 316 001e 0123     		movs	r3, #1
 317 0020 3846     		mov	r0, r7
 318 0022 0222     		movs	r2, #2
 319 0024 1946     		mov	r1, r3
 320 0026 544C     		ldr	r4, .L34+12
ARM GAS  C:\Users\samue\AppData\Local\Temp\cc1aPeGd.s 			page 18


 321 0028 FFF7FEFF 		bl	_ZN5daisy11daisyCommon16add_dual_controlEiii
 322              	.LVL10:
  38:201_hihat.cpp **** 	board.add_dual_control(highpass_freq, board.in_5, board.knob_3);
 323              		.loc 15 38 2 is_stmt 1 view .LVU74
 324              		.loc 15 38 24 is_stmt 0 view .LVU75
 325 002c 0223     		movs	r3, #2
 326 002e 3846     		mov	r0, r7
 327 0030 0422     		movs	r2, #4
 328 0032 1946     		mov	r1, r3
 329 0034 FFF7FEFF 		bl	_ZN5daisy11daisyCommon16add_dual_controlEiii
 330              	.LVL11:
  39:201_hihat.cpp **** 	board.add_dual_control(decay, board.in_6, board.knob_4);
 331              		.loc 15 39 2 is_stmt 1 view .LVU76
 332              		.loc 15 39 24 is_stmt 0 view .LVU77
 333 0038 0323     		movs	r3, #3
 334 003a 3846     		mov	r0, r7
 335 003c 0522     		movs	r2, #5
 336 003e 1946     		mov	r1, r3
 337 0040 FFF7FEFF 		bl	_ZN5daisy11daisyCommon16add_dual_controlEiii
 338              	.LVL12:
  40:201_hihat.cpp **** 	board.add_dual_control(accent, board.in_7, board.knob_5);
 339              		.loc 15 40 2 is_stmt 1 view .LVU78
 340              		.loc 15 40 24 is_stmt 0 view .LVU79
 341 0044 0423     		movs	r3, #4
 342 0046 3846     		mov	r0, r7
 343 0048 0622     		movs	r2, #6
 344 004a 1946     		mov	r1, r3
 345 004c FFF7FEFF 		bl	_ZN5daisy11daisyCommon16add_dual_controlEiii
 346              	.LVL13:
  41:201_hihat.cpp **** 	board.add_dual_control(oscillator_tune, board.gate_2_in_8, board.knob_6);
 347              		.loc 15 41 2 is_stmt 1 view .LVU80
 348              		.loc 15 41 24 is_stmt 0 view .LVU81
 349 0050 0722     		movs	r2, #7
 350 0052 0523     		movs	r3, #5
 351 0054 3846     		mov	r0, r7
 352 0056 0621     		movs	r1, #6
 353 0058 FFF7FEFF 		bl	_ZN5daisy11daisyCommon16add_dual_controlEiii
 354              	.LVL14:
  42:201_hihat.cpp **** 	
  43:201_hihat.cpp **** 	board.Init();
 355              		.loc 15 43 2 is_stmt 1 view .LVU82
 356              		.loc 15 43 12 is_stmt 0 view .LVU83
 357 005c 3846     		mov	r0, r7
 358 005e 0021     		movs	r1, #0
 359 0060 FFF7FEFF 		bl	_ZN5daisy11daisyCommon4InitEb
 360              	.LVL15:
  44:201_hihat.cpp **** 	board.seed.SetAudioBlockSize(blocksize); // number of samples handled per callback
 361              		.loc 15 44 2 is_stmt 1 view .LVU84
 362              		.loc 15 44 30 is_stmt 0 view .LVU85
 363 0064 454B     		ldr	r3, .L34+16
 364 0066 07F59070 		add	r0, r7, #288
 365 006a 1968     		ldr	r1, [r3]
 366 006c FFF7FEFF 		bl	_ZN5daisy9DaisySeed17SetAudioBlockSizeEj
 367              	.LVL16:
  45:201_hihat.cpp **** 	board.seed.SetAudioSampleRate(SaiHandle::Config::SampleRate::SAI_96KHZ);
 368              		.loc 15 45 2 is_stmt 1 view .LVU86
 369              		.loc 15 45 31 is_stmt 0 view .LVU87
ARM GAS  C:\Users\samue\AppData\Local\Temp\cc1aPeGd.s 			page 19


 370 0070 07F59070 		add	r0, r7, #288
 371 0074 0421     		movs	r1, #4
 372 0076 FFF7FEFF 		bl	_ZN5daisy9DaisySeed18SetAudioSampleRateENS_9SaiHandle6Config10SampleRateE
 373              	.LVL17:
  46:201_hihat.cpp **** 	board.seed.StartAudio(AudioCallback);
 374              		.loc 15 46 2 is_stmt 1 view .LVU88
 375              		.loc 15 46 23 is_stmt 0 view .LVU89
 376 007a 07F59070 		add	r0, r7, #288
 377 007e 4049     		ldr	r1, .L34+20
 378 0080 FFF7FEFF 		bl	_ZN5daisy9DaisySeed10StartAudioEPFvPKPKfPPfjE
 379              	.LVL18:
  47:201_hihat.cpp **** 
  48:201_hihat.cpp **** 	hihat.Init(fs);
 380              		.loc 15 48 2 is_stmt 1 view .LVU90
 381              		.loc 15 48 12 is_stmt 0 view .LVU91
 382 0084 3F4B     		ldr	r3, .L34+24
 383 0086 4048     		ldr	r0, .L34+28
 384 0088 93ED000A 		vldr.32	s0, [r3]
 385 008c FFF7FEFF 		bl	_ZN5voice4InitEf
 386              	.LVL19:
 387 0090 15E0     		b	.L25
 388              	.LVL20:
 389              	.L33:
 390              	.LBB345:
 391              	.LBB346:
 392              	.LBI346:
  43:../../../../DaisyExamples/libDaisy//src/hid/switch.h **** 
  44:../../../../DaisyExamples/libDaisy//src/hid/switch.h ****     /** 
  45:../../../../DaisyExamples/libDaisy//src/hid/switch.h ****     Initializes the switch object with a given port/pin combo.
  46:../../../../DaisyExamples/libDaisy//src/hid/switch.h ****     \param pin port/pin object to tell the switch which hardware pin to use.
  47:../../../../DaisyExamples/libDaisy//src/hid/switch.h ****     \param update_rate Does nothing. Backwards compatibility until next breaking update.
  48:../../../../DaisyExamples/libDaisy//src/hid/switch.h ****     \param t switch type -- Default: TYPE_MOMENTARY
  49:../../../../DaisyExamples/libDaisy//src/hid/switch.h ****     \param pol switch polarity -- Default: POLARITY_INVERTED
  50:../../../../DaisyExamples/libDaisy//src/hid/switch.h ****     \param pu switch pull up/down -- Default: PULL_UP
  51:../../../../DaisyExamples/libDaisy//src/hid/switch.h ****     */
  52:../../../../DaisyExamples/libDaisy//src/hid/switch.h ****     void
  53:../../../../DaisyExamples/libDaisy//src/hid/switch.h ****     Init(dsy_gpio_pin pin, float update_rate, Type t, Polarity pol, Pull pu);
  54:../../../../DaisyExamples/libDaisy//src/hid/switch.h **** 
  55:../../../../DaisyExamples/libDaisy//src/hid/switch.h ****     /**
  56:../../../../DaisyExamples/libDaisy//src/hid/switch.h ****        Simplified Init.
  57:../../../../DaisyExamples/libDaisy//src/hid/switch.h ****        \param pin port/pin object to tell the switch which hardware pin to use.
  58:../../../../DaisyExamples/libDaisy//src/hid/switch.h ****        \param update_rate Left for backwards compatibility until next breaking change.
  59:../../../../DaisyExamples/libDaisy//src/hid/switch.h ****     */
  60:../../../../DaisyExamples/libDaisy//src/hid/switch.h ****     void Init(dsy_gpio_pin pin, float update_rate = 0.f);
  61:../../../../DaisyExamples/libDaisy//src/hid/switch.h **** 
  62:../../../../DaisyExamples/libDaisy//src/hid/switch.h ****     /** 
  63:../../../../DaisyExamples/libDaisy//src/hid/switch.h ****     Called at update_rate to debounce and handle timing for the switch.
  64:../../../../DaisyExamples/libDaisy//src/hid/switch.h ****     In order for events not to be missed, its important that the Edge/Pressed checks
  65:../../../../DaisyExamples/libDaisy//src/hid/switch.h ****     be made at the same rate as the debounce function is being called.
  66:../../../../DaisyExamples/libDaisy//src/hid/switch.h ****     */
  67:../../../../DaisyExamples/libDaisy//src/hid/switch.h ****     void Debounce();
  68:../../../../DaisyExamples/libDaisy//src/hid/switch.h **** 
  69:../../../../DaisyExamples/libDaisy//src/hid/switch.h ****     /** \return true if a button was just pressed. */
  70:../../../../DaisyExamples/libDaisy//src/hid/switch.h ****     inline bool RisingEdge() const { return updated_ ? state_ == 0x7f : false; }
 393              		.loc 7 70 17 is_stmt 1 view .LVU92
 394              	.LBB347:
 395              		.loc 7 70 38 view .LVU93
ARM GAS  C:\Users\samue\AppData\Local\Temp\cc1aPeGd.s 			page 20


 396              		.loc 7 70 45 is_stmt 0 view .LVU94
 397 0092 97F80811 		ldrb	r1, [r7, #264]	@ zero_extendqisi2
 398              		.loc 7 70 54 view .LVU95
 399 0096 0029     		cmp	r1, #0
 400 0098 60D0     		beq	.L21
 401              	.LVL21:
 402              		.loc 7 70 54 view .LVU96
 403              	.LBE347:
 404              	.LBE346:
  49:201_hihat.cpp **** 
  50:201_hihat.cpp **** 	while(1) 
  51:201_hihat.cpp **** 	{
  52:201_hihat.cpp **** 		bool slow_blink = (System::GetNow() & 1023) < 511;
  53:201_hihat.cpp **** 		board.seed.SetLed(slow_blink);
  54:201_hihat.cpp **** 
  55:201_hihat.cpp **** 		hihat.set_bandpass_freq(board.get_dual_control(bandpass_freq));
  56:201_hihat.cpp **** 		hihat.set_bandpass_res(board.get_dual_control(bandpass_q));
  57:201_hihat.cpp **** 		hihat.set_highpass_freq(board.get_dual_control(highpass_freq));
  58:201_hihat.cpp **** 		hihat.set_decay(board.get_dual_control(decay));
  59:201_hihat.cpp **** 		hihat.set_global_tune(board.get_dual_control(oscillator_tune));
  60:201_hihat.cpp **** 
  61:201_hihat.cpp **** 
  62:201_hihat.cpp **** 		switch(board.toggle_left.Read())
  63:201_hihat.cpp **** 		{
  64:201_hihat.cpp **** 			case Switch3::POS_UP: 
  65:201_hihat.cpp **** 				//case 1
  66:201_hihat.cpp **** 				break;
  67:201_hihat.cpp **** 			case Switch3::POS_CENTER:
  68:201_hihat.cpp **** 				//case 2
  69:201_hihat.cpp **** 				break;
  70:201_hihat.cpp **** 			case Switch3::POS_DOWN:
  71:201_hihat.cpp **** 				//case 3
  72:201_hihat.cpp **** 				break;
  73:201_hihat.cpp **** 		}
  74:201_hihat.cpp **** 
  75:201_hihat.cpp **** 		switch(board.toggle_right.Read())
  76:201_hihat.cpp **** 		{
  77:201_hihat.cpp **** 			case Switch3::POS_UP: 
  78:201_hihat.cpp **** 				//case 1
  79:201_hihat.cpp **** 				break;
  80:201_hihat.cpp **** 			case Switch3::POS_CENTER:
  81:201_hihat.cpp **** 				//case 2
  82:201_hihat.cpp **** 				break;
  83:201_hihat.cpp **** 			case Switch3::POS_DOWN:
  84:201_hihat.cpp **** 				//case 3
  85:201_hihat.cpp **** 				break;
  86:201_hihat.cpp **** 		}
  87:201_hihat.cpp **** 
  88:201_hihat.cpp **** 		board.button.Debounce();
  89:201_hihat.cpp **** 		gate_in = board.get_gate_in(gate);
  90:201_hihat.cpp **** 		trigger = gate_in & !last_gate_in;
  91:201_hihat.cpp **** 		trigger = trigger || board.button.RisingEdge();
 405              		.loc 15 91 21 view .LVU97
 406 009a 97F80E21 		ldrb	r2, [r7, #270]	@ zero_extendqisi2
 407 009e 7F2A     		cmp	r2, #127
 408 00a0 5FD1     		bne	.L22
 409              		.loc 15 91 11 view .LVU98
ARM GAS  C:\Users\samue\AppData\Local\Temp\cc1aPeGd.s 			page 21


 410 00a2 0123     		movs	r3, #1
  92:201_hihat.cpp **** 		last_gate_in = gate_in;
 411              		.loc 15 92 16 view .LVU99
 412 00a4 2870     		strb	r0, [r5]
  91:201_hihat.cpp **** 		last_gate_in = gate_in;
 413              		.loc 15 91 11 view .LVU100
 414 00a6 2370     		strb	r3, [r4]
 415              		.loc 15 92 3 is_stmt 1 view .LVU101
  93:201_hihat.cpp **** 
  94:201_hihat.cpp **** 		if(trigger)
 416              		.loc 15 94 3 view .LVU102
 417              	.L23:
  95:201_hihat.cpp **** 		{
  96:201_hihat.cpp **** 			hihat.env_trigger();
 418              		.loc 15 96 4 view .LVU103
 419              		.loc 15 96 21 is_stmt 0 view .LVU104
 420 00a8 3748     		ldr	r0, .L34+28
 421 00aa FFF7FEFF 		bl	_ZN5voice11env_triggerEv
 422              	.LVL22:
  97:201_hihat.cpp **** 		}
  98:201_hihat.cpp **** 
  99:201_hihat.cpp **** 		board.LED_LEFT.Write(trigger);
 423              		.loc 15 99 23 view .LVU105
 424 00ae 2178     		ldrb	r1, [r4]	@ zero_extendqisi2
 425              	.L24:
 426              		.loc 15 99 3 is_stmt 1 view .LVU106
 427              		.loc 15 99 23 is_stmt 0 view .LVU107
 428 00b0 3648     		ldr	r0, .L34+32
 429 00b2 FFF7FEFF 		bl	_ZN5daisy4GPIO5WriteEb
 430              	.LVL23:
 100:201_hihat.cpp **** 		board.LED_RIGHT.Write(trigger);
 431              		.loc 15 100 3 is_stmt 1 view .LVU108
 432              		.loc 15 100 24 is_stmt 0 view .LVU109
 433 00b6 2178     		ldrb	r1, [r4]	@ zero_extendqisi2
 434 00b8 3548     		ldr	r0, .L34+36
 435 00ba FFF7FEFF 		bl	_ZN5daisy4GPIO5WriteEb
 436              	.LVL24:
 437              	.LBE345:
  50:201_hihat.cpp **** 	{
 438              		.loc 15 50 2 is_stmt 1 view .LVU110
 439              	.L25:
  50:201_hihat.cpp **** 	{
 440              		.loc 15 50 2 view .LVU111
 441              	.LBB356:
  52:201_hihat.cpp **** 		board.seed.SetLed(slow_blink);
 442              		.loc 15 52 3 view .LVU112
  52:201_hihat.cpp **** 		board.seed.SetLed(slow_blink);
 443              		.loc 15 52 36 is_stmt 0 view .LVU113
 444 00be FFF7FEFF 		bl	_ZN5daisy6System6GetNowEv
 445              	.LVL25:
 446 00c2 0146     		mov	r1, r0
 447              	.LVL26:
  53:201_hihat.cpp **** 
 448              		.loc 15 53 3 is_stmt 1 view .LVU114
  53:201_hihat.cpp **** 
 449              		.loc 15 53 20 is_stmt 0 view .LVU115
 450 00c4 3348     		ldr	r0, .L34+40
ARM GAS  C:\Users\samue\AppData\Local\Temp\cc1aPeGd.s 			page 22


 451              	.LVL27:
  52:201_hihat.cpp **** 		board.seed.SetLed(slow_blink);
 452              		.loc 15 52 39 view .LVU116
 453 00c6 C1F30901 		ubfx	r1, r1, #0, #10
 454              	.LVL28:
  53:201_hihat.cpp **** 
 455              		.loc 15 53 20 view .LVU117
 456 00ca B1F5FF7F 		cmp	r1, #510
 457 00ce 8CBF     		ite	hi
 458 00d0 0021     		movhi	r1, #0
 459 00d2 0121     		movls	r1, #1
 460 00d4 FFF7FEFF 		bl	_ZN5daisy9DaisySeed6SetLedEb
 461              	.LVL29:
  55:201_hihat.cpp **** 		hihat.set_bandpass_res(board.get_dual_control(bandpass_q));
 462              		.loc 15 55 3 is_stmt 1 view .LVU118
  55:201_hihat.cpp **** 		hihat.set_bandpass_res(board.get_dual_control(bandpass_q));
 463              		.loc 15 55 26 is_stmt 0 view .LVU119
 464 00d8 0021     		movs	r1, #0
 465 00da 2448     		ldr	r0, .L34
 466 00dc FFF7FEFF 		bl	_ZN5daisy11daisyCommon16get_dual_controlEi
 467              	.LVL30:
 468 00e0 2948     		ldr	r0, .L34+28
 469 00e2 FFF7FEFF 		bl	_ZN5voice17set_bandpass_freqEf
 470              	.LVL31:
  56:201_hihat.cpp **** 		hihat.set_highpass_freq(board.get_dual_control(highpass_freq));
 471              		.loc 15 56 3 is_stmt 1 view .LVU120
  56:201_hihat.cpp **** 		hihat.set_highpass_freq(board.get_dual_control(highpass_freq));
 472              		.loc 15 56 25 is_stmt 0 view .LVU121
 473 00e6 0121     		movs	r1, #1
 474 00e8 2048     		ldr	r0, .L34
 475 00ea FFF7FEFF 		bl	_ZN5daisy11daisyCommon16get_dual_controlEi
 476              	.LVL32:
 477 00ee 2648     		ldr	r0, .L34+28
 478 00f0 FFF7FEFF 		bl	_ZN5voice16set_bandpass_resEf
 479              	.LVL33:
  57:201_hihat.cpp **** 		hihat.set_decay(board.get_dual_control(decay));
 480              		.loc 15 57 3 is_stmt 1 view .LVU122
  57:201_hihat.cpp **** 		hihat.set_decay(board.get_dual_control(decay));
 481              		.loc 15 57 26 is_stmt 0 view .LVU123
 482 00f4 0221     		movs	r1, #2
 483 00f6 1D48     		ldr	r0, .L34
 484 00f8 FFF7FEFF 		bl	_ZN5daisy11daisyCommon16get_dual_controlEi
 485              	.LVL34:
 486 00fc 2248     		ldr	r0, .L34+28
 487 00fe FFF7FEFF 		bl	_ZN5voice17set_highpass_freqEf
 488              	.LVL35:
  58:201_hihat.cpp **** 		hihat.set_global_tune(board.get_dual_control(oscillator_tune));
 489              		.loc 15 58 3 is_stmt 1 view .LVU124
  58:201_hihat.cpp **** 		hihat.set_global_tune(board.get_dual_control(oscillator_tune));
 490              		.loc 15 58 18 is_stmt 0 view .LVU125
 491 0102 0321     		movs	r1, #3
 492 0104 1948     		ldr	r0, .L34
 493 0106 FFF7FEFF 		bl	_ZN5daisy11daisyCommon16get_dual_controlEi
 494              	.LVL36:
 495 010a 1F48     		ldr	r0, .L34+28
 496 010c FFF7FEFF 		bl	_ZN5voice9set_decayEf
 497              	.LVL37:
ARM GAS  C:\Users\samue\AppData\Local\Temp\cc1aPeGd.s 			page 23


  59:201_hihat.cpp **** 
 498              		.loc 15 59 3 is_stmt 1 view .LVU126
  59:201_hihat.cpp **** 
 499              		.loc 15 59 24 is_stmt 0 view .LVU127
 500 0110 0621     		movs	r1, #6
 501 0112 1648     		ldr	r0, .L34
 502 0114 FFF7FEFF 		bl	_ZN5daisy11daisyCommon16get_dual_controlEi
 503              	.LVL38:
 504 0118 1B48     		ldr	r0, .L34+28
 505 011a FFF7FEFF 		bl	_ZN5voice15set_global_tuneEf
 506              	.LVL39:
  62:201_hihat.cpp **** 		{
 507              		.loc 15 62 3 is_stmt 1 view .LVU128
 508              	.LBB348:
 509              	.LBI348:
  22:../../../../DaisyExamples/libDaisy//src/hid/switch3.h **** 
  23:../../../../DaisyExamples/libDaisy//src/hid/switch3.h ****     void Init(dsy_gpio_pin pina, dsy_gpio_pin pinb)
  24:../../../../DaisyExamples/libDaisy//src/hid/switch3.h ****     {
  25:../../../../DaisyExamples/libDaisy//src/hid/switch3.h ****         pina_gpio_.pin  = pina;
  26:../../../../DaisyExamples/libDaisy//src/hid/switch3.h ****         pina_gpio_.mode = DSY_GPIO_MODE_INPUT;
  27:../../../../DaisyExamples/libDaisy//src/hid/switch3.h ****         pina_gpio_.pull = DSY_GPIO_PULLUP;
  28:../../../../DaisyExamples/libDaisy//src/hid/switch3.h ****         dsy_gpio_init(&pina_gpio_);
  29:../../../../DaisyExamples/libDaisy//src/hid/switch3.h **** 
  30:../../../../DaisyExamples/libDaisy//src/hid/switch3.h ****         pinb_gpio_.pin  = pinb;
  31:../../../../DaisyExamples/libDaisy//src/hid/switch3.h ****         pinb_gpio_.mode = DSY_GPIO_MODE_INPUT;
  32:../../../../DaisyExamples/libDaisy//src/hid/switch3.h ****         pinb_gpio_.pull = DSY_GPIO_PULLUP;
  33:../../../../DaisyExamples/libDaisy//src/hid/switch3.h ****         dsy_gpio_init(&pinb_gpio_);
  34:../../../../DaisyExamples/libDaisy//src/hid/switch3.h ****     }
  35:../../../../DaisyExamples/libDaisy//src/hid/switch3.h **** 
  36:../../../../DaisyExamples/libDaisy//src/hid/switch3.h ****     int Read()
 510              		.loc 8 36 9 view .LVU129
 511              	.LBB349:
  37:../../../../DaisyExamples/libDaisy//src/hid/switch3.h ****     {
  38:../../../../DaisyExamples/libDaisy//src/hid/switch3.h ****         if(!dsy_gpio_read(&pina_gpio_))
 512              		.loc 8 38 9 view .LVU130
 513              		.loc 8 38 26 is_stmt 0 view .LVU131
 514 011e 1E48     		ldr	r0, .L34+44
 515 0120 FFF7FEFF 		bl	dsy_gpio_read
 516              	.LVL40:
 517              		.loc 8 38 9 view .LVU132
 518 0124 10B1     		cbz	r0, .L18
 519              	.LVL41:
 520              	.LBB350:
 521              	.LBI350:
  36:../../../../DaisyExamples/libDaisy//src/hid/switch3.h ****     {
 522              		.loc 8 36 9 is_stmt 1 view .LVU133
 523              	.LBB351:
  39:../../../../DaisyExamples/libDaisy//src/hid/switch3.h ****             return POS_UP;
  40:../../../../DaisyExamples/libDaisy//src/hid/switch3.h ****         if(!dsy_gpio_read(&pinb_gpio_))
 524              		.loc 8 40 9 view .LVU134
 525              		.loc 8 40 26 is_stmt 0 view .LVU135
 526 0126 1D48     		ldr	r0, .L34+48
 527 0128 FFF7FEFF 		bl	dsy_gpio_read
 528              	.LVL42:
 529              	.L18:
 530              		.loc 8 40 26 view .LVU136
 531              	.LBE351:
ARM GAS  C:\Users\samue\AppData\Local\Temp\cc1aPeGd.s 			page 24


 532              	.LBE350:
 533              	.LBE349:
 534              	.LBE348:
  75:201_hihat.cpp **** 		{
 535              		.loc 15 75 3 is_stmt 1 view .LVU137
 536              	.LBB352:
 537              	.LBI352:
  36:../../../../DaisyExamples/libDaisy//src/hid/switch3.h ****     {
 538              		.loc 8 36 9 view .LVU138
 539              	.LBB353:
  38:../../../../DaisyExamples/libDaisy//src/hid/switch3.h ****             return POS_UP;
 540              		.loc 8 38 9 view .LVU139
  38:../../../../DaisyExamples/libDaisy//src/hid/switch3.h ****             return POS_UP;
 541              		.loc 8 38 26 is_stmt 0 view .LVU140
 542 012c 1C48     		ldr	r0, .L34+52
 543 012e FFF7FEFF 		bl	dsy_gpio_read
 544              	.LVL43:
  38:../../../../DaisyExamples/libDaisy//src/hid/switch3.h ****             return POS_UP;
 545              		.loc 8 38 9 view .LVU141
 546 0132 10B1     		cbz	r0, .L19
 547              	.LVL44:
 548              	.LBB354:
 549              	.LBI354:
  36:../../../../DaisyExamples/libDaisy//src/hid/switch3.h ****     {
 550              		.loc 8 36 9 is_stmt 1 view .LVU142
 551              	.LBB355:
 552              		.loc 8 40 9 view .LVU143
 553              		.loc 8 40 26 is_stmt 0 view .LVU144
 554 0134 1B48     		ldr	r0, .L34+56
 555 0136 FFF7FEFF 		bl	dsy_gpio_read
 556              	.LVL45:
 557              	.L19:
 558              		.loc 8 40 26 view .LVU145
 559              	.LBE355:
 560              	.LBE354:
 561              	.LBE353:
 562              	.LBE352:
  88:201_hihat.cpp **** 		gate_in = board.get_gate_in(gate);
 563              		.loc 15 88 3 is_stmt 1 view .LVU146
  88:201_hihat.cpp **** 		gate_in = board.get_gate_in(gate);
 564              		.loc 15 88 24 is_stmt 0 view .LVU147
 565 013a 1B48     		ldr	r0, .L34+60
 566 013c FFF7FEFF 		bl	_ZN5daisy6Switch8DebounceEv
 567              	.LVL46:
  89:201_hihat.cpp **** 		trigger = gate_in & !last_gate_in;
 568              		.loc 15 89 3 is_stmt 1 view .LVU148
  89:201_hihat.cpp **** 		trigger = gate_in & !last_gate_in;
 569              		.loc 15 89 30 is_stmt 0 view .LVU149
 570 0140 0521     		movs	r1, #5
 571 0142 0A48     		ldr	r0, .L34
 572 0144 FFF7FEFF 		bl	_ZN5daisy11daisyCommon11get_gate_inEi
 573              	.LVL47:
  90:201_hihat.cpp **** 		trigger = trigger || board.button.RisingEdge();
 574              		.loc 15 90 23 view .LVU150
 575 0148 2B78     		ldrb	r3, [r5]	@ zero_extendqisi2
  89:201_hihat.cpp **** 		trigger = gate_in & !last_gate_in;
 576              		.loc 15 89 11 view .LVU151
ARM GAS  C:\Users\samue\AppData\Local\Temp\cc1aPeGd.s 			page 25


 577 014a 3070     		strb	r0, [r6]
  90:201_hihat.cpp **** 		trigger = trigger || board.button.RisingEdge();
 578              		.loc 15 90 3 is_stmt 1 view .LVU152
  91:201_hihat.cpp **** 		last_gate_in = gate_in;
 579              		.loc 15 91 3 view .LVU153
  90:201_hihat.cpp **** 		trigger = trigger || board.button.RisingEdge();
 580              		.loc 15 90 23 is_stmt 0 view .LVU154
 581 014c 83F00103 		eor	r3, r3, #1
  91:201_hihat.cpp **** 		last_gate_in = gate_in;
 582              		.loc 15 91 21 view .LVU155
 583 0150 0340     		ands	r3, r0, r3
 584 0152 9ED0     		beq	.L33
  91:201_hihat.cpp **** 		last_gate_in = gate_in;
 585              		.loc 15 91 11 view .LVU156
 586 0154 0123     		movs	r3, #1
 587 0156 2370     		strb	r3, [r4]
  92:201_hihat.cpp **** 
 588              		.loc 15 92 3 is_stmt 1 view .LVU157
  92:201_hihat.cpp **** 
 589              		.loc 15 92 16 is_stmt 0 view .LVU158
 590 0158 2B70     		strb	r3, [r5]
  94:201_hihat.cpp **** 		{
 591              		.loc 15 94 3 is_stmt 1 view .LVU159
 592 015a A5E7     		b	.L23
 593              	.LVL48:
 594              	.L21:
  91:201_hihat.cpp **** 		last_gate_in = gate_in;
 595              		.loc 15 91 11 is_stmt 0 view .LVU160
 596 015c 2170     		strb	r1, [r4]
  92:201_hihat.cpp **** 
 597              		.loc 15 92 3 is_stmt 1 view .LVU161
  92:201_hihat.cpp **** 
 598              		.loc 15 92 16 is_stmt 0 view .LVU162
 599 015e 2870     		strb	r0, [r5]
  94:201_hihat.cpp **** 		{
 600              		.loc 15 94 3 is_stmt 1 view .LVU163
 601 0160 A6E7     		b	.L24
 602              	.L22:
  92:201_hihat.cpp **** 
 603              		.loc 15 92 16 is_stmt 0 view .LVU164
 604 0162 1946     		mov	r1, r3
  91:201_hihat.cpp **** 		last_gate_in = gate_in;
 605              		.loc 15 91 11 view .LVU165
 606 0164 2370     		strb	r3, [r4]
  92:201_hihat.cpp **** 
 607              		.loc 15 92 3 is_stmt 1 view .LVU166
  92:201_hihat.cpp **** 
 608              		.loc 15 92 16 is_stmt 0 view .LVU167
 609 0166 2870     		strb	r0, [r5]
  94:201_hihat.cpp **** 		{
 610              		.loc 15 94 3 is_stmt 1 view .LVU168
 611 0168 A2E7     		b	.L24
 612              	.L35:
 613 016a 00BF     		.align	2
 614              	.L34:
 615 016c 00000000 		.word	.LANCHOR1
 616 0170 00000000 		.word	.LANCHOR4
ARM GAS  C:\Users\samue\AppData\Local\Temp\cc1aPeGd.s 			page 26


 617 0174 00000000 		.word	.LANCHOR5
 618 0178 00000000 		.word	.LANCHOR6
 619 017c 00000000 		.word	.LANCHOR2
 620 0180 00000000 		.word	_Z13AudioCallbackPKPKfPPfj
 621 0184 00000000 		.word	.LANCHOR3
 622 0188 00000000 		.word	.LANCHOR0
 623 018c A4000000 		.word	.LANCHOR1+164
 624 0190 B8000000 		.word	.LANCHOR1+184
 625 0194 20010000 		.word	.LANCHOR1+288
 626 0198 F4000000 		.word	.LANCHOR1+244
 627 019c F8000000 		.word	.LANCHOR1+248
 628 01a0 FC000000 		.word	.LANCHOR1+252
 629 01a4 00010000 		.word	.LANCHOR1+256
 630 01a8 04010000 		.word	.LANCHOR1+260
 631              	.LBE356:
 632              		.cfi_endproc
 633              	.LFE4856:
 635              		.section	.text.startup._GLOBAL__sub_I_board,"ax",%progbits
 636              		.align	1
 637              		.p2align 2,,3
 638              		.syntax unified
 639              		.thumb
 640              		.thumb_func
 641              		.fpu fpv5-d16
 643              	_GLOBAL__sub_I_board:
 644              	.LFB5419:
 101:201_hihat.cpp **** 	}
 102:201_hihat.cpp **** }
 645              		.loc 15 102 1 view -0
 646              		.cfi_startproc
 647              		@ args = 0, pretend = 0, frame = 0
 648              		@ frame_needed = 0, uses_anonymous_args = 0
 649              	.LBB512:
 650              	.LBI512:
 651              		.loc 15 102 1 view .LVU170
 652              	.LVL49:
 653              	.LBB513:
 654              	.LBB514:
 655              	.LBI514:
  19:daisy_common.h ****     ~daisyCommon() {}
 656              		.loc 1 19 5 view .LVU171
 657              	.LBB515:
 658              	.LBB516:
 659              	.LBB517:
 660              	.LBI517:
 661              		.file 16 "../../../../DaisyExamples/libDaisy//src/per/gpio.h"
   1:../../../../DaisyExamples/libDaisy//src/per/gpio.h **** #pragma once
   2:../../../../DaisyExamples/libDaisy//src/per/gpio.h **** #ifndef DSY_GPIO_H
   3:../../../../DaisyExamples/libDaisy//src/per/gpio.h **** #define DSY_GPIO_H
   4:../../../../DaisyExamples/libDaisy//src/per/gpio.h **** #include "daisy_core.h"
   5:../../../../DaisyExamples/libDaisy//src/per/gpio.h **** 
   6:../../../../DaisyExamples/libDaisy//src/per/gpio.h **** #ifdef __cplusplus
   7:../../../../DaisyExamples/libDaisy//src/per/gpio.h **** 
   8:../../../../DaisyExamples/libDaisy//src/per/gpio.h **** namespace daisy
   9:../../../../DaisyExamples/libDaisy//src/per/gpio.h **** {
  10:../../../../DaisyExamples/libDaisy//src/per/gpio.h **** /** @brief General Purpose I/O control 
  11:../../../../DaisyExamples/libDaisy//src/per/gpio.h ****  *  @details peripheral control over a single GPIO
ARM GAS  C:\Users\samue\AppData\Local\Temp\cc1aPeGd.s 			page 27


  12:../../../../DaisyExamples/libDaisy//src/per/gpio.h ****  *  @ingroup peripheral
  13:../../../../DaisyExamples/libDaisy//src/per/gpio.h ****  *   
  14:../../../../DaisyExamples/libDaisy//src/per/gpio.h ****  *  Button Input (with internal Pullup resistor)
  15:../../../../DaisyExamples/libDaisy//src/per/gpio.h ****  *  @include GPIO_Input.cpp 
  16:../../../../DaisyExamples/libDaisy//src/per/gpio.h ****  * 
  17:../../../../DaisyExamples/libDaisy//src/per/gpio.h ****  *  Output Example (perfect for blinking an LED)
  18:../../../../DaisyExamples/libDaisy//src/per/gpio.h ****  *  @include GPIO_Output.cpp
  19:../../../../DaisyExamples/libDaisy//src/per/gpio.h ****  * 
  20:../../../../DaisyExamples/libDaisy//src/per/gpio.h **** */
  21:../../../../DaisyExamples/libDaisy//src/per/gpio.h **** class GPIO
  22:../../../../DaisyExamples/libDaisy//src/per/gpio.h **** {
  23:../../../../DaisyExamples/libDaisy//src/per/gpio.h ****   public:
  24:../../../../DaisyExamples/libDaisy//src/per/gpio.h ****     /** @brief Mode of operation for the specified GPIO */
  25:../../../../DaisyExamples/libDaisy//src/per/gpio.h ****     enum class Mode
  26:../../../../DaisyExamples/libDaisy//src/per/gpio.h ****     {
  27:../../../../DaisyExamples/libDaisy//src/per/gpio.h ****         INPUT,     /**< Input for reading state of pin */
  28:../../../../DaisyExamples/libDaisy//src/per/gpio.h ****         OUTPUT,    /**< Output w/ push-pull configuration */
  29:../../../../DaisyExamples/libDaisy//src/per/gpio.h ****         OUTPUT_OD, /**< Output w/ open-drain configuration */
  30:../../../../DaisyExamples/libDaisy//src/per/gpio.h ****         ANALOG,    /**< Analog for connection to ADC or DAC peripheral */
  31:../../../../DaisyExamples/libDaisy//src/per/gpio.h ****     };
  32:../../../../DaisyExamples/libDaisy//src/per/gpio.h **** 
  33:../../../../DaisyExamples/libDaisy//src/per/gpio.h ****     /** @brief Configures whether an internal Pull up or Pull down resistor is used. 
  34:../../../../DaisyExamples/libDaisy//src/per/gpio.h ****      *  
  35:../../../../DaisyExamples/libDaisy//src/per/gpio.h ****      * Internal Pull up/down resistors are typically 40k ohms, and will be between
  36:../../../../DaisyExamples/libDaisy//src/per/gpio.h ****      * 30k and 50k
  37:../../../../DaisyExamples/libDaisy//src/per/gpio.h ****      * 
  38:../../../../DaisyExamples/libDaisy//src/per/gpio.h ****      * When the Pin is configured in Analog mode, the pull up/down resistors are
  39:../../../../DaisyExamples/libDaisy//src/per/gpio.h ****      * disabled by hardware. 
  40:../../../../DaisyExamples/libDaisy//src/per/gpio.h ****      */
  41:../../../../DaisyExamples/libDaisy//src/per/gpio.h ****     enum class Pull
  42:../../../../DaisyExamples/libDaisy//src/per/gpio.h ****     {
  43:../../../../DaisyExamples/libDaisy//src/per/gpio.h ****         NOPULL,   /**< No pull up resistor */
  44:../../../../DaisyExamples/libDaisy//src/per/gpio.h ****         PULLUP,   /**< Internal pull up enabled */
  45:../../../../DaisyExamples/libDaisy//src/per/gpio.h ****         PULLDOWN, /**< Internal pull down enabled*/
  46:../../../../DaisyExamples/libDaisy//src/per/gpio.h ****     };
  47:../../../../DaisyExamples/libDaisy//src/per/gpio.h **** 
  48:../../../../DaisyExamples/libDaisy//src/per/gpio.h ****     /** @brief Output speed controls the drive strength, and slew rate of the pin */
  49:../../../../DaisyExamples/libDaisy//src/per/gpio.h ****     enum class Speed
  50:../../../../DaisyExamples/libDaisy//src/per/gpio.h ****     {
  51:../../../../DaisyExamples/libDaisy//src/per/gpio.h ****         LOW,
  52:../../../../DaisyExamples/libDaisy//src/per/gpio.h ****         MEDIUM,
  53:../../../../DaisyExamples/libDaisy//src/per/gpio.h ****         HIGH,
  54:../../../../DaisyExamples/libDaisy//src/per/gpio.h ****         VERY_HIGH,
  55:../../../../DaisyExamples/libDaisy//src/per/gpio.h ****     };
  56:../../../../DaisyExamples/libDaisy//src/per/gpio.h **** 
  57:../../../../DaisyExamples/libDaisy//src/per/gpio.h ****     /** @brief Configuration for a given GPIO */
  58:../../../../DaisyExamples/libDaisy//src/per/gpio.h ****     struct Config
  59:../../../../DaisyExamples/libDaisy//src/per/gpio.h ****     {
  60:../../../../DaisyExamples/libDaisy//src/per/gpio.h ****         Pin   pin;
  61:../../../../DaisyExamples/libDaisy//src/per/gpio.h ****         Mode  mode;
  62:../../../../DaisyExamples/libDaisy//src/per/gpio.h ****         Pull  pull;
  63:../../../../DaisyExamples/libDaisy//src/per/gpio.h ****         Speed speed;
  64:../../../../DaisyExamples/libDaisy//src/per/gpio.h **** 
  65:../../../../DaisyExamples/libDaisy//src/per/gpio.h ****         /** Constructor with no arguments will prepare an invalid GPIO set as
  66:../../../../DaisyExamples/libDaisy//src/per/gpio.h ****          *  an input, with no pullup. 
  67:../../../../DaisyExamples/libDaisy//src/per/gpio.h ****          */
  68:../../../../DaisyExamples/libDaisy//src/per/gpio.h ****         Config()
ARM GAS  C:\Users\samue\AppData\Local\Temp\cc1aPeGd.s 			page 28


  69:../../../../DaisyExamples/libDaisy//src/per/gpio.h ****         : pin(), mode(Mode::INPUT), pull(Pull::NOPULL), speed(Speed::LOW)
  70:../../../../DaisyExamples/libDaisy//src/per/gpio.h ****         {
  71:../../../../DaisyExamples/libDaisy//src/per/gpio.h ****         }
  72:../../../../DaisyExamples/libDaisy//src/per/gpio.h ****     };
  73:../../../../DaisyExamples/libDaisy//src/per/gpio.h **** 
  74:../../../../DaisyExamples/libDaisy//src/per/gpio.h ****     GPIO() {}
 662              		.loc 16 74 5 view .LVU172
 663              	.LBB518:
 664              	.LBB519:
 665              	.LBI519:
  68:../../../../DaisyExamples/libDaisy//src/per/gpio.h ****         : pin(), mode(Mode::INPUT), pull(Pull::NOPULL), speed(Speed::LOW)
 666              		.loc 16 68 9 view .LVU173
 667              	.LBB520:
 668              	.LBB521:
 669              	.LBB522:
 670              	.LBI522:
 671              		.file 17 "../../../../DaisyExamples/libDaisy//src/daisy_core.h"
   1:../../../../DaisyExamples/libDaisy//src/daisy_core.h **** #pragma once
   2:../../../../DaisyExamples/libDaisy//src/daisy_core.h **** #ifndef DSY_CORE_HW_H
   3:../../../../DaisyExamples/libDaisy//src/daisy_core.h **** #define DSY_CORE_HW_H /**< & */
   4:../../../../DaisyExamples/libDaisy//src/daisy_core.h **** #include <stdint.h>
   5:../../../../DaisyExamples/libDaisy//src/daisy_core.h **** #include <stdlib.h>
   6:../../../../DaisyExamples/libDaisy//src/daisy_core.h **** 
   7:../../../../DaisyExamples/libDaisy//src/daisy_core.h **** #if defined(_MSC_VER)
   8:../../../../DaisyExamples/libDaisy//src/daisy_core.h **** #define FORCE_INLINE __forceinline /**< & */
   9:../../../../DaisyExamples/libDaisy//src/daisy_core.h **** #elif defined(__clang__)
  10:../../../../DaisyExamples/libDaisy//src/daisy_core.h **** #define FORCE_INLINE inline __attribute__((always_inline)) /**< & */
  11:../../../../DaisyExamples/libDaisy//src/daisy_core.h **** #pragma clang diagnostic ignored "-Wduplicate-decl-specifier"
  12:../../../../DaisyExamples/libDaisy//src/daisy_core.h **** #elif defined(__GNUC__)
  13:../../../../DaisyExamples/libDaisy//src/daisy_core.h **** #define FORCE_INLINE inline __attribute__((always_inline)) /**< & */
  14:../../../../DaisyExamples/libDaisy//src/daisy_core.h **** #else
  15:../../../../DaisyExamples/libDaisy//src/daisy_core.h **** #error unknown compiler
  16:../../../../DaisyExamples/libDaisy//src/daisy_core.h **** #endif
  17:../../../../DaisyExamples/libDaisy//src/daisy_core.h **** 
  18:../../../../DaisyExamples/libDaisy//src/daisy_core.h **** /** @addtogroup utility
  19:../../../../DaisyExamples/libDaisy//src/daisy_core.h ****     @{
  20:../../../../DaisyExamples/libDaisy//src/daisy_core.h **** */
  21:../../../../DaisyExamples/libDaisy//src/daisy_core.h **** 
  22:../../../../DaisyExamples/libDaisy//src/daisy_core.h **** /** Macro for area of memory that is configured as cacheless
  23:../../../../DaisyExamples/libDaisy//src/daisy_core.h **** This should be used primarily for DMA buffers, and the like.
  24:../../../../DaisyExamples/libDaisy//src/daisy_core.h **** */
  25:../../../../DaisyExamples/libDaisy//src/daisy_core.h **** #define DMA_BUFFER_MEM_SECTION __attribute__((section(".sram1_bss")))
  26:../../../../DaisyExamples/libDaisy//src/daisy_core.h **** /** 
  27:../../../../DaisyExamples/libDaisy//src/daisy_core.h **** THE DTCM RAM section is also non-cached. However, is not suitable 
  28:../../../../DaisyExamples/libDaisy//src/daisy_core.h **** for DMA transfers. Performance is on par with internal SRAM w/ 
  29:../../../../DaisyExamples/libDaisy//src/daisy_core.h **** cache enabled.
  30:../../../../DaisyExamples/libDaisy//src/daisy_core.h **** */
  31:../../../../DaisyExamples/libDaisy//src/daisy_core.h **** #define DTCM_MEM_SECTION __attribute__((section(".dtcmram_bss")))
  32:../../../../DaisyExamples/libDaisy//src/daisy_core.h **** 
  33:../../../../DaisyExamples/libDaisy//src/daisy_core.h **** #define FBIPMAX 0.999985f             /**< close to 1.0f-LSB at 16 bit */
  34:../../../../DaisyExamples/libDaisy//src/daisy_core.h **** #define FBIPMIN (-FBIPMAX)            /**< - (1 - LSB) */
  35:../../../../DaisyExamples/libDaisy//src/daisy_core.h **** #define U82F_SCALE 0.0078740f         /**< 1 / 127 */
  36:../../../../DaisyExamples/libDaisy//src/daisy_core.h **** #define F2U8_SCALE 127.0f             /**< 128 - 1 */
  37:../../../../DaisyExamples/libDaisy//src/daisy_core.h **** #define S82F_SCALE 0.0078125f         /**< 1 / (2**7) */
  38:../../../../DaisyExamples/libDaisy//src/daisy_core.h **** #define F2S8_SCALE 127.0f             /**< (2 ** 7) - 1 */
  39:../../../../DaisyExamples/libDaisy//src/daisy_core.h **** #define S162F_SCALE 3.0517578125e-05f /**< 1 / (2** 15) */
  40:../../../../DaisyExamples/libDaisy//src/daisy_core.h **** #define F2S16_SCALE 32767.0f          /**< (2 ** 15) - 1 */
ARM GAS  C:\Users\samue\AppData\Local\Temp\cc1aPeGd.s 			page 29


  41:../../../../DaisyExamples/libDaisy//src/daisy_core.h **** #define F2S24_SCALE 8388608.0f        /**< 2 ** 23 */
  42:../../../../DaisyExamples/libDaisy//src/daisy_core.h **** #define S242F_SCALE 1.192092896e-07f  /**< 1 / (2 ** 23) */
  43:../../../../DaisyExamples/libDaisy//src/daisy_core.h **** #define S24SIGN 0x800000              /**< 2 ** 23 */
  44:../../../../DaisyExamples/libDaisy//src/daisy_core.h **** #define S322F_SCALE 4.6566129e-10f    /**< 1 / (2** 31) */
  45:../../../../DaisyExamples/libDaisy//src/daisy_core.h **** #define F2S32_SCALE 2147483647.f      /**< (2 ** 31) - 1 */
  46:../../../../DaisyExamples/libDaisy//src/daisy_core.h **** 
  47:../../../../DaisyExamples/libDaisy//src/daisy_core.h **** 
  48:../../../../DaisyExamples/libDaisy//src/daisy_core.h **** /** shorthand macro for simplifying the reading of the left 
  49:../../../../DaisyExamples/libDaisy//src/daisy_core.h ****  *  channel of a non-interleaved output buffer named out */
  50:../../../../DaisyExamples/libDaisy//src/daisy_core.h **** #define OUT_L out[0]
  51:../../../../DaisyExamples/libDaisy//src/daisy_core.h **** 
  52:../../../../DaisyExamples/libDaisy//src/daisy_core.h **** /** shorthand macro for simplifying the reading of the right 
  53:../../../../DaisyExamples/libDaisy//src/daisy_core.h ****  *  channel of a non-interleaved output buffer named out */
  54:../../../../DaisyExamples/libDaisy//src/daisy_core.h **** #define OUT_R out[1]
  55:../../../../DaisyExamples/libDaisy//src/daisy_core.h **** 
  56:../../../../DaisyExamples/libDaisy//src/daisy_core.h **** /** shorthand macro for simplifying the reading of the left 
  57:../../../../DaisyExamples/libDaisy//src/daisy_core.h ****  *  channel of a non-interleaved input buffer named in */
  58:../../../../DaisyExamples/libDaisy//src/daisy_core.h **** #define IN_L in[0]
  59:../../../../DaisyExamples/libDaisy//src/daisy_core.h **** 
  60:../../../../DaisyExamples/libDaisy//src/daisy_core.h **** /** shorthand macro for simplifying the reading of the right 
  61:../../../../DaisyExamples/libDaisy//src/daisy_core.h ****  *  channel of a non-interleaved input buffer named in */
  62:../../../../DaisyExamples/libDaisy//src/daisy_core.h **** #define IN_R in[1]
  63:../../../../DaisyExamples/libDaisy//src/daisy_core.h **** 
  64:../../../../DaisyExamples/libDaisy//src/daisy_core.h **** /** 
  65:../../../../DaisyExamples/libDaisy//src/daisy_core.h ****     Computes cube.
  66:../../../../DaisyExamples/libDaisy//src/daisy_core.h ****     \param x Number to be cubed
  67:../../../../DaisyExamples/libDaisy//src/daisy_core.h ****     \return x ^ 3
  68:../../../../DaisyExamples/libDaisy//src/daisy_core.h **** */
  69:../../../../DaisyExamples/libDaisy//src/daisy_core.h **** FORCE_INLINE float cube(float x)
  70:../../../../DaisyExamples/libDaisy//src/daisy_core.h **** {
  71:../../../../DaisyExamples/libDaisy//src/daisy_core.h ****     return (x * x) * x;
  72:../../../../DaisyExamples/libDaisy//src/daisy_core.h **** }
  73:../../../../DaisyExamples/libDaisy//src/daisy_core.h **** 
  74:../../../../DaisyExamples/libDaisy//src/daisy_core.h **** /** 
  75:../../../../DaisyExamples/libDaisy//src/daisy_core.h ****     Converts unsigned 8-bit to float
  76:../../../../DaisyExamples/libDaisy//src/daisy_core.h ****     \param x Number to be scaled.
  77:../../../../DaisyExamples/libDaisy//src/daisy_core.h ****     \return Scaled number.
  78:../../../../DaisyExamples/libDaisy//src/daisy_core.h **** */
  79:../../../../DaisyExamples/libDaisy//src/daisy_core.h **** FORCE_INLINE float u82f(uint8_t x)
  80:../../../../DaisyExamples/libDaisy//src/daisy_core.h **** {
  81:../../../../DaisyExamples/libDaisy//src/daisy_core.h ****     return ((float)x - 127.f) * U82F_SCALE;
  82:../../../../DaisyExamples/libDaisy//src/daisy_core.h **** }
  83:../../../../DaisyExamples/libDaisy//src/daisy_core.h **** 
  84:../../../../DaisyExamples/libDaisy//src/daisy_core.h **** /**
  85:../../../../DaisyExamples/libDaisy//src/daisy_core.h ****     Converts float to unsigned 8-bit
  86:../../../../DaisyExamples/libDaisy//src/daisy_core.h **** */
  87:../../../../DaisyExamples/libDaisy//src/daisy_core.h **** FORCE_INLINE uint8_t f2u8(float x)
  88:../../../../DaisyExamples/libDaisy//src/daisy_core.h **** {
  89:../../../../DaisyExamples/libDaisy//src/daisy_core.h ****     x = x <= FBIPMIN ? FBIPMIN : x;
  90:../../../../DaisyExamples/libDaisy//src/daisy_core.h ****     x = x >= FBIPMAX ? FBIPMAX : x;
  91:../../../../DaisyExamples/libDaisy//src/daisy_core.h ****     return (uint8_t)((x * F2U8_SCALE) + F2U8_SCALE);
  92:../../../../DaisyExamples/libDaisy//src/daisy_core.h **** }
  93:../../../../DaisyExamples/libDaisy//src/daisy_core.h **** 
  94:../../../../DaisyExamples/libDaisy//src/daisy_core.h **** 
  95:../../../../DaisyExamples/libDaisy//src/daisy_core.h **** /** 
  96:../../../../DaisyExamples/libDaisy//src/daisy_core.h ****     Converts Signed 8-bit to float
  97:../../../../DaisyExamples/libDaisy//src/daisy_core.h ****     \param x Number to be scaled.
ARM GAS  C:\Users\samue\AppData\Local\Temp\cc1aPeGd.s 			page 30


  98:../../../../DaisyExamples/libDaisy//src/daisy_core.h ****     \return Scaled number.
  99:../../../../DaisyExamples/libDaisy//src/daisy_core.h **** */
 100:../../../../DaisyExamples/libDaisy//src/daisy_core.h **** FORCE_INLINE float s82f(int8_t x)
 101:../../../../DaisyExamples/libDaisy//src/daisy_core.h **** {
 102:../../../../DaisyExamples/libDaisy//src/daisy_core.h ****     return (float)x * S82F_SCALE;
 103:../../../../DaisyExamples/libDaisy//src/daisy_core.h **** }
 104:../../../../DaisyExamples/libDaisy//src/daisy_core.h **** 
 105:../../../../DaisyExamples/libDaisy//src/daisy_core.h **** /**
 106:../../../../DaisyExamples/libDaisy//src/daisy_core.h ****     Converts float to Signed 8-bit
 107:../../../../DaisyExamples/libDaisy//src/daisy_core.h **** */
 108:../../../../DaisyExamples/libDaisy//src/daisy_core.h **** FORCE_INLINE int8_t f2s8(float x)
 109:../../../../DaisyExamples/libDaisy//src/daisy_core.h **** {
 110:../../../../DaisyExamples/libDaisy//src/daisy_core.h ****     x = x <= FBIPMIN ? FBIPMIN : x;
 111:../../../../DaisyExamples/libDaisy//src/daisy_core.h ****     x = x >= FBIPMAX ? FBIPMAX : x;
 112:../../../../DaisyExamples/libDaisy//src/daisy_core.h ****     return (int32_t)(x * F2S8_SCALE);
 113:../../../../DaisyExamples/libDaisy//src/daisy_core.h **** }
 114:../../../../DaisyExamples/libDaisy//src/daisy_core.h **** 
 115:../../../../DaisyExamples/libDaisy//src/daisy_core.h **** /** 
 116:../../../../DaisyExamples/libDaisy//src/daisy_core.h ****     Converts Signed 16-bit to float
 117:../../../../DaisyExamples/libDaisy//src/daisy_core.h ****     \param x Number to be scaled.
 118:../../../../DaisyExamples/libDaisy//src/daisy_core.h ****     \return Scaled number.
 119:../../../../DaisyExamples/libDaisy//src/daisy_core.h **** */
 120:../../../../DaisyExamples/libDaisy//src/daisy_core.h **** FORCE_INLINE float s162f(int16_t x)
 121:../../../../DaisyExamples/libDaisy//src/daisy_core.h **** {
 122:../../../../DaisyExamples/libDaisy//src/daisy_core.h ****     return (float)x * S162F_SCALE;
 123:../../../../DaisyExamples/libDaisy//src/daisy_core.h **** }
 124:../../../../DaisyExamples/libDaisy//src/daisy_core.h **** 
 125:../../../../DaisyExamples/libDaisy//src/daisy_core.h **** /**
 126:../../../../DaisyExamples/libDaisy//src/daisy_core.h ****     Converts float to Signed 16-bit
 127:../../../../DaisyExamples/libDaisy//src/daisy_core.h **** */
 128:../../../../DaisyExamples/libDaisy//src/daisy_core.h **** FORCE_INLINE int16_t f2s16(float x)
 129:../../../../DaisyExamples/libDaisy//src/daisy_core.h **** {
 130:../../../../DaisyExamples/libDaisy//src/daisy_core.h ****     x = x <= FBIPMIN ? FBIPMIN : x;
 131:../../../../DaisyExamples/libDaisy//src/daisy_core.h ****     x = x >= FBIPMAX ? FBIPMAX : x;
 132:../../../../DaisyExamples/libDaisy//src/daisy_core.h ****     return (int32_t)(x * F2S16_SCALE);
 133:../../../../DaisyExamples/libDaisy//src/daisy_core.h **** }
 134:../../../../DaisyExamples/libDaisy//src/daisy_core.h **** 
 135:../../../../DaisyExamples/libDaisy//src/daisy_core.h **** /**
 136:../../../../DaisyExamples/libDaisy//src/daisy_core.h ****     Converts Signed 24-bit to float
 137:../../../../DaisyExamples/libDaisy//src/daisy_core.h ****  */
 138:../../../../DaisyExamples/libDaisy//src/daisy_core.h **** FORCE_INLINE float s242f(int32_t x)
 139:../../../../DaisyExamples/libDaisy//src/daisy_core.h **** {
 140:../../../../DaisyExamples/libDaisy//src/daisy_core.h ****     x = (x ^ S24SIGN) - S24SIGN; //sign extend aka ((x<<8)>>8)
 141:../../../../DaisyExamples/libDaisy//src/daisy_core.h ****     return (float)x * S242F_SCALE;
 142:../../../../DaisyExamples/libDaisy//src/daisy_core.h **** }
 143:../../../../DaisyExamples/libDaisy//src/daisy_core.h **** /**
 144:../../../../DaisyExamples/libDaisy//src/daisy_core.h ****     Converts float to Signed 24-bit
 145:../../../../DaisyExamples/libDaisy//src/daisy_core.h ****  */
 146:../../../../DaisyExamples/libDaisy//src/daisy_core.h **** FORCE_INLINE int32_t f2s24(float x)
 147:../../../../DaisyExamples/libDaisy//src/daisy_core.h **** {
 148:../../../../DaisyExamples/libDaisy//src/daisy_core.h ****     x = x <= FBIPMIN ? FBIPMIN : x;
 149:../../../../DaisyExamples/libDaisy//src/daisy_core.h ****     x = x >= FBIPMAX ? FBIPMAX : x;
 150:../../../../DaisyExamples/libDaisy//src/daisy_core.h ****     return (int32_t)(x * F2S24_SCALE);
 151:../../../../DaisyExamples/libDaisy//src/daisy_core.h **** }
 152:../../../../DaisyExamples/libDaisy//src/daisy_core.h **** 
 153:../../../../DaisyExamples/libDaisy//src/daisy_core.h **** /**
 154:../../../../DaisyExamples/libDaisy//src/daisy_core.h ****     Converts Signed 32-bit to float
ARM GAS  C:\Users\samue\AppData\Local\Temp\cc1aPeGd.s 			page 31


 155:../../../../DaisyExamples/libDaisy//src/daisy_core.h ****  */
 156:../../../../DaisyExamples/libDaisy//src/daisy_core.h **** FORCE_INLINE float s322f(int32_t x)
 157:../../../../DaisyExamples/libDaisy//src/daisy_core.h **** {
 158:../../../../DaisyExamples/libDaisy//src/daisy_core.h ****     return (float)x * S322F_SCALE;
 159:../../../../DaisyExamples/libDaisy//src/daisy_core.h **** }
 160:../../../../DaisyExamples/libDaisy//src/daisy_core.h **** /**
 161:../../../../DaisyExamples/libDaisy//src/daisy_core.h ****     Converts float to Signed 24-bit
 162:../../../../DaisyExamples/libDaisy//src/daisy_core.h ****  */
 163:../../../../DaisyExamples/libDaisy//src/daisy_core.h **** FORCE_INLINE int32_t f2s32(float x)
 164:../../../../DaisyExamples/libDaisy//src/daisy_core.h **** {
 165:../../../../DaisyExamples/libDaisy//src/daisy_core.h ****     x = x <= FBIPMIN ? FBIPMIN : x;
 166:../../../../DaisyExamples/libDaisy//src/daisy_core.h ****     x = x >= FBIPMAX ? FBIPMAX : x;
 167:../../../../DaisyExamples/libDaisy//src/daisy_core.h ****     return (int32_t)(x * F2S32_SCALE);
 168:../../../../DaisyExamples/libDaisy//src/daisy_core.h **** }
 169:../../../../DaisyExamples/libDaisy//src/daisy_core.h **** 
 170:../../../../DaisyExamples/libDaisy//src/daisy_core.h **** 
 171:../../../../DaisyExamples/libDaisy//src/daisy_core.h **** /** Enums and a simple struct for defining a hardware pin on the MCU
 172:../../../../DaisyExamples/libDaisy//src/daisy_core.h ****  *  These correlate with the stm32 datasheet, and are used to configure
 173:../../../../DaisyExamples/libDaisy//src/daisy_core.h ****  *  the hardware.
 174:../../../../DaisyExamples/libDaisy//src/daisy_core.h ****  * 
 175:../../../../DaisyExamples/libDaisy//src/daisy_core.h ****  *  This along with the dsy_gpio_pin class should no longer be used.
 176:../../../../DaisyExamples/libDaisy//src/daisy_core.h ****  *  They are available for backwards compatability. 
 177:../../../../DaisyExamples/libDaisy//src/daisy_core.h ****  * 
 178:../../../../DaisyExamples/libDaisy//src/daisy_core.h ****  *  Please use GPIOPort enum and the Pin struct instead.
 179:../../../../DaisyExamples/libDaisy//src/daisy_core.h ****  */
 180:../../../../DaisyExamples/libDaisy//src/daisy_core.h **** typedef enum
 181:../../../../DaisyExamples/libDaisy//src/daisy_core.h **** {
 182:../../../../DaisyExamples/libDaisy//src/daisy_core.h ****     DSY_GPIOA, /**< & */
 183:../../../../DaisyExamples/libDaisy//src/daisy_core.h ****     DSY_GPIOB, /**< & */
 184:../../../../DaisyExamples/libDaisy//src/daisy_core.h ****     DSY_GPIOC, /**< & */
 185:../../../../DaisyExamples/libDaisy//src/daisy_core.h ****     DSY_GPIOD, /**< & */
 186:../../../../DaisyExamples/libDaisy//src/daisy_core.h ****     DSY_GPIOE, /**< & */
 187:../../../../DaisyExamples/libDaisy//src/daisy_core.h ****     DSY_GPIOF, /**< & */
 188:../../../../DaisyExamples/libDaisy//src/daisy_core.h ****     DSY_GPIOG, /**< & */
 189:../../../../DaisyExamples/libDaisy//src/daisy_core.h ****     DSY_GPIOH, /**< & */
 190:../../../../DaisyExamples/libDaisy//src/daisy_core.h ****     DSY_GPIOI, /**< & */
 191:../../../../DaisyExamples/libDaisy//src/daisy_core.h ****     DSY_GPIOJ, /**< & */
 192:../../../../DaisyExamples/libDaisy//src/daisy_core.h ****     DSY_GPIOK, /**< & */
 193:../../../../DaisyExamples/libDaisy//src/daisy_core.h ****     DSY_GPIOX, /** This is a non-existant port for unsupported bits of hardware. */
 194:../../../../DaisyExamples/libDaisy//src/daisy_core.h ****     DSY_GPIO_LAST, /** Final enum member */
 195:../../../../DaisyExamples/libDaisy//src/daisy_core.h **** } dsy_gpio_port;
 196:../../../../DaisyExamples/libDaisy//src/daisy_core.h **** 
 197:../../../../DaisyExamples/libDaisy//src/daisy_core.h **** /** Hardware define pins 
 198:../../../../DaisyExamples/libDaisy//src/daisy_core.h ****  *  
 199:../../../../DaisyExamples/libDaisy//src/daisy_core.h ****  *  The dsy_gpio_pin struct should no longer be used, and is only available for
 200:../../../../DaisyExamples/libDaisy//src/daisy_core.h ****  *  backwards compatability.
 201:../../../../DaisyExamples/libDaisy//src/daisy_core.h ****  * 
 202:../../../../DaisyExamples/libDaisy//src/daisy_core.h ****  *  Please use Pin struct instead.
 203:../../../../DaisyExamples/libDaisy//src/daisy_core.h ****  */
 204:../../../../DaisyExamples/libDaisy//src/daisy_core.h **** typedef struct
 205:../../../../DaisyExamples/libDaisy//src/daisy_core.h **** {
 206:../../../../DaisyExamples/libDaisy//src/daisy_core.h ****     dsy_gpio_port port; /**< & */
 207:../../../../DaisyExamples/libDaisy//src/daisy_core.h ****     uint8_t       pin;  /**< number 0-15 */
 208:../../../../DaisyExamples/libDaisy//src/daisy_core.h **** } dsy_gpio_pin;
 209:../../../../DaisyExamples/libDaisy//src/daisy_core.h **** 
 210:../../../../DaisyExamples/libDaisy//src/daisy_core.h **** /** Helper for creating pins from port/pin combos easily
 211:../../../../DaisyExamples/libDaisy//src/daisy_core.h ****  * 
ARM GAS  C:\Users\samue\AppData\Local\Temp\cc1aPeGd.s 			page 32


 212:../../../../DaisyExamples/libDaisy//src/daisy_core.h ****  *  The dsy_gpio_pin struct should no longer be used, and is only available for
 213:../../../../DaisyExamples/libDaisy//src/daisy_core.h ****  *  backwards compatability.
 214:../../../../DaisyExamples/libDaisy//src/daisy_core.h ****  * 
 215:../../../../DaisyExamples/libDaisy//src/daisy_core.h ****  *  Please use Pin struct instead.
 216:../../../../DaisyExamples/libDaisy//src/daisy_core.h **** */
 217:../../../../DaisyExamples/libDaisy//src/daisy_core.h **** FORCE_INLINE dsy_gpio_pin dsy_pin(dsy_gpio_port port, uint8_t pin)
 218:../../../../DaisyExamples/libDaisy//src/daisy_core.h **** {
 219:../../../../DaisyExamples/libDaisy//src/daisy_core.h ****     dsy_gpio_pin p;
 220:../../../../DaisyExamples/libDaisy//src/daisy_core.h ****     p.port = port;
 221:../../../../DaisyExamples/libDaisy//src/daisy_core.h ****     p.pin  = pin;
 222:../../../../DaisyExamples/libDaisy//src/daisy_core.h ****     return p;
 223:../../../../DaisyExamples/libDaisy//src/daisy_core.h **** }
 224:../../../../DaisyExamples/libDaisy//src/daisy_core.h **** 
 225:../../../../DaisyExamples/libDaisy//src/daisy_core.h **** /** Helper for testing sameness of two dsy_gpio_pins
 226:../../../../DaisyExamples/libDaisy//src/daisy_core.h ****  *  \return    1 if same, 0 if different
 227:../../../../DaisyExamples/libDaisy//src/daisy_core.h ****  * 
 228:../../../../DaisyExamples/libDaisy//src/daisy_core.h ****  *  The dsy_gpio_pin struct should no longer be used, and is only available for
 229:../../../../DaisyExamples/libDaisy//src/daisy_core.h ****  *  backwards compatability.
 230:../../../../DaisyExamples/libDaisy//src/daisy_core.h ****  * 
 231:../../../../DaisyExamples/libDaisy//src/daisy_core.h ****  *  Please use Pin struct instead.
 232:../../../../DaisyExamples/libDaisy//src/daisy_core.h ****  */
 233:../../../../DaisyExamples/libDaisy//src/daisy_core.h **** FORCE_INLINE uint8_t dsy_pin_cmp(dsy_gpio_pin *a, dsy_gpio_pin *b)
 234:../../../../DaisyExamples/libDaisy//src/daisy_core.h **** {
 235:../../../../DaisyExamples/libDaisy//src/daisy_core.h ****     return ((a->port == b->port) && (a->pin == b->pin));
 236:../../../../DaisyExamples/libDaisy//src/daisy_core.h **** }
 237:../../../../DaisyExamples/libDaisy//src/daisy_core.h **** 
 238:../../../../DaisyExamples/libDaisy//src/daisy_core.h **** #ifdef __cplusplus
 239:../../../../DaisyExamples/libDaisy//src/daisy_core.h **** 
 240:../../../../DaisyExamples/libDaisy//src/daisy_core.h **** namespace daisy
 241:../../../../DaisyExamples/libDaisy//src/daisy_core.h **** {
 242:../../../../DaisyExamples/libDaisy//src/daisy_core.h **** /** @brief GPIO Port names */
 243:../../../../DaisyExamples/libDaisy//src/daisy_core.h **** enum GPIOPort
 244:../../../../DaisyExamples/libDaisy//src/daisy_core.h **** {
 245:../../../../DaisyExamples/libDaisy//src/daisy_core.h ****     PORTA, /**< Port A */
 246:../../../../DaisyExamples/libDaisy//src/daisy_core.h ****     PORTB, /**< Port B */
 247:../../../../DaisyExamples/libDaisy//src/daisy_core.h ****     PORTC, /**< Port C */
 248:../../../../DaisyExamples/libDaisy//src/daisy_core.h ****     PORTD, /**< Port D */
 249:../../../../DaisyExamples/libDaisy//src/daisy_core.h ****     PORTE, /**< Port E */
 250:../../../../DaisyExamples/libDaisy//src/daisy_core.h ****     PORTF, /**< Port F */
 251:../../../../DaisyExamples/libDaisy//src/daisy_core.h ****     PORTG, /**< Port G */
 252:../../../../DaisyExamples/libDaisy//src/daisy_core.h ****     PORTH, /**< Port H */
 253:../../../../DaisyExamples/libDaisy//src/daisy_core.h ****     PORTI, /**< Port I */
 254:../../../../DaisyExamples/libDaisy//src/daisy_core.h ****     PORTJ, /**< Port J */
 255:../../../../DaisyExamples/libDaisy//src/daisy_core.h ****     PORTK, /**< Port K */
 256:../../../../DaisyExamples/libDaisy//src/daisy_core.h ****     PORTX, /**< Used as a dummy port to signal an invalid pin. */
 257:../../../../DaisyExamples/libDaisy//src/daisy_core.h **** };
 258:../../../../DaisyExamples/libDaisy//src/daisy_core.h **** 
 259:../../../../DaisyExamples/libDaisy//src/daisy_core.h **** /** @brief representation of hardware port/pin combination */
 260:../../../../DaisyExamples/libDaisy//src/daisy_core.h **** struct Pin
 261:../../../../DaisyExamples/libDaisy//src/daisy_core.h **** {
 262:../../../../DaisyExamples/libDaisy//src/daisy_core.h ****     GPIOPort port;
 263:../../../../DaisyExamples/libDaisy//src/daisy_core.h ****     uint8_t  pin;
 264:../../../../DaisyExamples/libDaisy//src/daisy_core.h **** 
 265:../../../../DaisyExamples/libDaisy//src/daisy_core.h ****     /** @brief Constructor creates a valid pin. 
 266:../../../../DaisyExamples/libDaisy//src/daisy_core.h ****      *  @param pt GPIOPort between PA, and PK corresponding to STM32 Port.
 267:../../../../DaisyExamples/libDaisy//src/daisy_core.h ****      *  @param pn pin number in range of 0-15
 268:../../../../DaisyExamples/libDaisy//src/daisy_core.h ****     */
ARM GAS  C:\Users\samue\AppData\Local\Temp\cc1aPeGd.s 			page 33


 269:../../../../DaisyExamples/libDaisy//src/daisy_core.h ****     constexpr Pin(const GPIOPort pt, const uint8_t pn) : port(pt), pin(pn) {}
 270:../../../../DaisyExamples/libDaisy//src/daisy_core.h **** 
 271:../../../../DaisyExamples/libDaisy//src/daisy_core.h ****     /** @brief Basic Constructor creates an invalid Pin object */
 272:../../../../DaisyExamples/libDaisy//src/daisy_core.h ****     constexpr Pin() : port(PORTX), pin(255) {}
 672              		.loc 17 272 15 view .LVU174
 673              		.loc 17 272 15 is_stmt 0 view .LVU175
 674              	.LBE522:
 675              	.LBE521:
 676              	.LBE520:
 677              	.LBE519:
 678              	.LBE518:
 679              	.LBE517:
 680              	.LBB531:
 681              	.LBI531:
 682              		.loc 16 74 5 is_stmt 1 view .LVU176
 683              	.LBB532:
 684              	.LBB533:
 685              	.LBI533:
  68:../../../../DaisyExamples/libDaisy//src/per/gpio.h ****         : pin(), mode(Mode::INPUT), pull(Pull::NOPULL), speed(Speed::LOW)
 686              		.loc 16 68 9 view .LVU177
 687              	.LBB534:
 688              	.LBB535:
 689              	.LBB536:
 690              	.LBI536:
 691              		.loc 17 272 15 view .LVU178
 692              		.loc 17 272 15 is_stmt 0 view .LVU179
 693              	.LBE536:
 694              	.LBE535:
 695              	.LBE534:
 696              	.LBE533:
 697              	.LBE532:
 698              	.LBE531:
 699              	.LBB545:
 700              	.LBI545:
 701              		.loc 16 74 5 is_stmt 1 view .LVU180
 702              	.LBB546:
 703              	.LBB547:
 704              	.LBI547:
  68:../../../../DaisyExamples/libDaisy//src/per/gpio.h ****         : pin(), mode(Mode::INPUT), pull(Pull::NOPULL), speed(Speed::LOW)
 705              		.loc 16 68 9 view .LVU181
 706              	.LBB548:
 707              	.LBB549:
 708              	.LBB550:
 709              	.LBI550:
 710              		.loc 17 272 15 view .LVU182
 711              		.loc 17 272 15 is_stmt 0 view .LVU183
 712              	.LBE550:
 713              	.LBE549:
 714              	.LBE548:
 715              	.LBE547:
 716              	.LBE546:
 717              	.LBE545:
 718              	.LBB559:
 719              	.LBI559:
 720              		.loc 16 74 5 is_stmt 1 view .LVU184
 721              	.LBB560:
 722              	.LBB561:
ARM GAS  C:\Users\samue\AppData\Local\Temp\cc1aPeGd.s 			page 34


 723              	.LBI561:
  68:../../../../DaisyExamples/libDaisy//src/per/gpio.h ****         : pin(), mode(Mode::INPUT), pull(Pull::NOPULL), speed(Speed::LOW)
 724              		.loc 16 68 9 view .LVU185
 725              	.LBB562:
 726              	.LBB563:
 727              	.LBB564:
 728              	.LBI564:
 729              		.loc 17 272 15 view .LVU186
 730              		.loc 17 272 15 is_stmt 0 view .LVU187
 731              	.LBE564:
 732              	.LBE563:
 733              	.LBE562:
 734              	.LBE561:
 735              	.LBE560:
 736              	.LBE559:
 737              	.LBB573:
 738              	.LBI573:
 739              		.loc 16 74 5 is_stmt 1 view .LVU188
 740              	.LBB574:
 741              	.LBB575:
 742              	.LBI575:
  68:../../../../DaisyExamples/libDaisy//src/per/gpio.h ****         : pin(), mode(Mode::INPUT), pull(Pull::NOPULL), speed(Speed::LOW)
 743              		.loc 16 68 9 view .LVU189
 744              	.LBB576:
 745              	.LBB577:
 746              	.LBB578:
 747              	.LBI578:
 748              		.loc 17 272 15 view .LVU190
 749              		.loc 17 272 15 is_stmt 0 view .LVU191
 750              	.LBE578:
 751              	.LBE577:
 752              	.LBE576:
 753              	.LBE575:
 754              	.LBE574:
 755              	.LBE573:
 756              	.LBB587:
 757              	.LBI587:
 758              		.loc 16 74 5 is_stmt 1 view .LVU192
 759              	.LBB588:
 760              	.LBB589:
 761              	.LBI589:
  68:../../../../DaisyExamples/libDaisy//src/per/gpio.h ****         : pin(), mode(Mode::INPUT), pull(Pull::NOPULL), speed(Speed::LOW)
 762              		.loc 16 68 9 view .LVU193
 763              	.LBB590:
 764              	.LBB591:
 765              	.LBB592:
 766              	.LBI592:
 767              		.loc 17 272 15 view .LVU194
 768              		.loc 17 272 15 is_stmt 0 view .LVU195
 769              	.LBE592:
 770              	.LBE591:
 771              	.LBE590:
 772              	.LBE589:
 773              	.LBE588:
 774              	.LBE587:
 775              	.LBB601:
 776              	.LBI601:
ARM GAS  C:\Users\samue\AppData\Local\Temp\cc1aPeGd.s 			page 35


 777              		.loc 16 74 5 is_stmt 1 view .LVU196
 778              	.LBB602:
 779              	.LBB603:
 780              	.LBI603:
  68:../../../../DaisyExamples/libDaisy//src/per/gpio.h ****         : pin(), mode(Mode::INPUT), pull(Pull::NOPULL), speed(Speed::LOW)
 781              		.loc 16 68 9 view .LVU197
 782              	.LBB604:
 783              	.LBB605:
 784              	.LBB606:
 785              	.LBI606:
 786              		.loc 17 272 15 view .LVU198
 787              		.loc 17 272 15 is_stmt 0 view .LVU199
 788              	.LBE606:
 789              	.LBE605:
 790              	.LBE604:
 791              	.LBE603:
 792              	.LBE602:
 793              	.LBE601:
 794              	.LBB615:
 795              	.LBI615:
 796              		.loc 16 74 5 is_stmt 1 view .LVU200
 797              	.LBB616:
 798              	.LBB617:
 799              	.LBI617:
  68:../../../../DaisyExamples/libDaisy//src/per/gpio.h ****         : pin(), mode(Mode::INPUT), pull(Pull::NOPULL), speed(Speed::LOW)
 800              		.loc 16 68 9 view .LVU201
 801              	.LBB618:
 802              	.LBB619:
 803              	.LBB620:
 804              	.LBI620:
 805              		.loc 17 272 15 view .LVU202
 806              		.loc 17 272 15 is_stmt 0 view .LVU203
 807              	.LBE620:
 808              	.LBE619:
 809              	.LBE618:
 810              	.LBE617:
 811              	.LBE616:
 812              	.LBE615:
 813              	.LBE516:
  19:daisy_common.h ****     ~daisyCommon() {}
 814              		.loc 1 19 19 view .LVU204
 815 0000 4448     		ldr	r0, .L38
 816              	.LBB731:
 817              	.LBB629:
 818              	.LBB529:
 819              	.LBB527:
 820              	.LBB525:
 821              	.LBB523:
  69:../../../../DaisyExamples/libDaisy//src/per/gpio.h ****         {
 822              		.loc 16 69 73 view .LVU205
 823 0002 0023     		movs	r3, #0
 824              	.LBE523:
 825              	.LBE525:
 826              	.LBE527:
 827              	.LBE529:
 828              	.LBE629:
 829              	.LBE731:
ARM GAS  C:\Users\samue\AppData\Local\Temp\cc1aPeGd.s 			page 36


  19:daisy_common.h ****     ~daisyCommon() {}
 830              		.loc 1 19 19 view .LVU206
 831 0004 4FF60B72 		movw	r2, #65291
 832              	.LBB732:
 833 0008 4FF0FF31 		mov	r1, #-1
 834              	.LBE732:
 835              	.LBE515:
 836              	.LBE514:
 837              	.LBE513:
 838              	.LBE512:
 839              		.loc 15 102 1 view .LVU207
 840 000c 10B5     		push	{r4, lr}
 841              		.cfi_def_cfa_offset 8
 842              		.cfi_offset 4, -8
 843              		.cfi_offset 14, -4
 844              	.LBB761:
 845              	.LBB759:
 846              	.LBB738:
 847              	.LBB736:
 848              	.LBB733:
  19:daisy_common.h ****     ~daisyCommon() {}
 849              		.loc 1 19 19 view .LVU208
 850 000e 0124     		movs	r4, #1
 851              	.LBE733:
 852 0010 C0E90123 		strd	r2, r3, [r0, #4]
 853              	.LBB734:
 854              	.LBB630:
 855              	.LBB543:
 856              	.LBB541:
 857              	.LBB539:
 858              	.LBB537:
  69:../../../../DaisyExamples/libDaisy//src/per/gpio.h ****         {
 859              		.loc 16 69 73 view .LVU209
 860 0014 C0E90623 		strd	r2, r3, [r0, #24]
 861              	.LBE537:
 862              	.LBE539:
 863              	.LBE541:
 864              	.LBE543:
 865              	.LBE630:
 866              	.LBB631:
 867              	.LBB557:
 868              	.LBB555:
 869              	.LBB553:
 870              	.LBB551:
 871 0018 C0E90B23 		strd	r2, r3, [r0, #44]
 872              	.LBE551:
 873              	.LBE553:
 874              	.LBE555:
 875              	.LBE557:
 876              	.LBE631:
 877              	.LBB632:
 878              	.LBB571:
 879              	.LBB569:
 880              	.LBB567:
 881              	.LBB565:
 882 001c C0E91023 		strd	r2, r3, [r0, #64]
 883              	.LBE565:
ARM GAS  C:\Users\samue\AppData\Local\Temp\cc1aPeGd.s 			page 37


 884              	.LBE567:
 885              	.LBE569:
 886              	.LBE571:
 887              	.LBE632:
 888              	.LBB633:
 889              	.LBB585:
 890              	.LBB583:
 891              	.LBB581:
 892              	.LBB579:
 893 0020 C0E91523 		strd	r2, r3, [r0, #84]
 894              	.LBE579:
 895              	.LBE581:
 896              	.LBE583:
 897              	.LBE585:
 898              	.LBE633:
 899              	.LBB634:
 900              	.LBB599:
 901              	.LBB597:
 902              	.LBB595:
 903              	.LBB593:
 904 0024 C0E91A23 		strd	r2, r3, [r0, #104]
 905              	.LBE593:
 906              	.LBE595:
 907              	.LBE597:
 908              	.LBE599:
 909              	.LBE634:
 910              	.LBB635:
 911              	.LBB613:
 912              	.LBB611:
 913              	.LBB609:
 914              	.LBB607:
 915 0028 C0E91F23 		strd	r2, r3, [r0, #124]
 916              	.LBE607:
 917              	.LBE609:
 918              	.LBE611:
 919              	.LBE613:
 920              	.LBE635:
 921              	.LBB636:
 922              	.LBB627:
 923              	.LBB625:
 924              	.LBB623:
 925              	.LBB621:
 926 002c C0E92423 		strd	r2, r3, [r0, #144]
 927              	.LBE621:
 928              	.LBE623:
 929              	.LBE625:
 930              	.LBE627:
 931              	.LBE636:
 932              	.LBB637:
 933              	.LBB530:
 934              	.LBB528:
 935              	.LBB526:
 936              	.LBB524:
 937 0030 C0E90333 		strd	r3, r3, [r0, #12]
 938              	.LBE524:
 939              	.LBE526:
 940              	.LBE528:
ARM GAS  C:\Users\samue\AppData\Local\Temp\cc1aPeGd.s 			page 38


 941              	.LBE530:
 942              	.LBE637:
 943              	.LBB638:
 944              	.LBB544:
 945              	.LBB542:
 946              	.LBB540:
 947              	.LBB538:
 948 0034 C0E90833 		strd	r3, r3, [r0, #32]
 949              	.LBE538:
 950              	.LBE540:
 951              	.LBE542:
 952              	.LBE544:
 953              	.LBE638:
 954              	.LBB639:
 955              	.LBB558:
 956              	.LBB556:
 957              	.LBB554:
 958              	.LBB552:
 959 0038 C0E90D33 		strd	r3, r3, [r0, #52]
 960              	.LBE552:
 961              	.LBE554:
 962              	.LBE556:
 963              	.LBE558:
 964              	.LBE639:
 965              	.LBB640:
 966              	.LBB572:
 967              	.LBB570:
 968              	.LBB568:
 969              	.LBB566:
 970 003c C0E91233 		strd	r3, r3, [r0, #72]
 971              	.LBE566:
 972              	.LBE568:
 973              	.LBE570:
 974              	.LBE572:
 975              	.LBE640:
 976              	.LBB641:
 977              	.LBB586:
 978              	.LBB584:
 979              	.LBB582:
 980              	.LBB580:
 981 0040 C0E91733 		strd	r3, r3, [r0, #92]
 982              	.LBE580:
 983              	.LBE582:
 984              	.LBE584:
 985              	.LBE586:
 986              	.LBE641:
 987              	.LBB642:
 988              	.LBB600:
 989              	.LBB598:
 990              	.LBB596:
 991              	.LBB594:
 992 0044 C0E91C33 		strd	r3, r3, [r0, #112]
 993              	.LBE594:
 994              	.LBE596:
 995              	.LBE598:
 996              	.LBE600:
 997              	.LBE642:
ARM GAS  C:\Users\samue\AppData\Local\Temp\cc1aPeGd.s 			page 39


 998              	.LBB643:
 999              	.LBB614:
 1000              	.LBB612:
 1001              	.LBB610:
 1002              	.LBB608:
 1003 0048 C0E92133 		strd	r3, r3, [r0, #132]
 1004              	.LBE608:
 1005              	.LBE610:
 1006              	.LBE612:
 1007              	.LBE614:
 1008              	.LBE643:
 1009              	.LBB644:
 1010              	.LBB628:
 1011              	.LBB626:
 1012              	.LBB624:
 1013              	.LBB622:
 1014 004c C0E92633 		strd	r3, r3, [r0, #152]
 1015              	.LVL50:
  69:../../../../DaisyExamples/libDaisy//src/per/gpio.h ****         {
 1016              		.loc 16 69 73 view .LVU210
 1017              	.LBE622:
 1018              	.LBE624:
 1019              	.LBE626:
 1020              	.LBE628:
 1021              	.LBE644:
 1022              	.LBB645:
 1023              	.LBI645:
 1024              		.loc 16 74 5 is_stmt 1 view .LVU211
 1025              	.LBB646:
 1026              	.LBB647:
 1027              	.LBI647:
  68:../../../../DaisyExamples/libDaisy//src/per/gpio.h ****         : pin(), mode(Mode::INPUT), pull(Pull::NOPULL), speed(Speed::LOW)
 1028              		.loc 16 68 9 view .LVU212
 1029              	.LBB648:
 1030              	.LBB649:
 1031              	.LBB650:
 1032              	.LBI650:
 1033              		.loc 17 272 15 view .LVU213
 1034              		.loc 17 272 15 is_stmt 0 view .LVU214
 1035              	.LBE650:
 1036              	.LBE649:
 1037              	.LBE648:
 1038              	.LBE647:
 1039              	.LBE646:
 1040              	.LBE645:
 1041              	.LBB659:
 1042              	.LBI659:
 1043              		.loc 16 74 5 is_stmt 1 view .LVU215
 1044              	.LBB660:
 1045              	.LBB661:
 1046              	.LBI661:
  68:../../../../DaisyExamples/libDaisy//src/per/gpio.h ****         : pin(), mode(Mode::INPUT), pull(Pull::NOPULL), speed(Speed::LOW)
 1047              		.loc 16 68 9 view .LVU216
 1048              	.LBB662:
 1049              	.LBB663:
 1050              	.LBB664:
 1051              	.LBI664:
ARM GAS  C:\Users\samue\AppData\Local\Temp\cc1aPeGd.s 			page 40


 1052              		.loc 17 272 15 view .LVU217
 1053              		.loc 17 272 15 is_stmt 0 view .LVU218
 1054              	.LBE664:
 1055              	.LBE663:
 1056              	.LBE662:
 1057              	.LBE661:
 1058              	.LBE660:
 1059              	.LBE659:
 1060              	.LBB673:
 1061              	.LBI673:
 1062              		.loc 16 74 5 is_stmt 1 view .LVU219
 1063              	.LBB674:
 1064              	.LBB675:
 1065              	.LBI675:
  68:../../../../DaisyExamples/libDaisy//src/per/gpio.h ****         : pin(), mode(Mode::INPUT), pull(Pull::NOPULL), speed(Speed::LOW)
 1066              		.loc 16 68 9 view .LVU220
 1067              	.LBB676:
 1068              	.LBB677:
 1069              	.LBB678:
 1070              	.LBI678:
 1071              		.loc 17 272 15 view .LVU221
 1072              		.loc 17 272 15 is_stmt 0 view .LVU222
 1073              	.LBE678:
 1074              	.LBE677:
 1075              	.LBE676:
 1076              	.LBE675:
 1077              	.LBE674:
 1078              	.LBE673:
 1079              	.LBB687:
 1080              	.LBI687:
 1081              		.loc 16 74 5 is_stmt 1 view .LVU223
 1082              	.LBB688:
 1083              	.LBB689:
 1084              	.LBI689:
  68:../../../../DaisyExamples/libDaisy//src/per/gpio.h ****         : pin(), mode(Mode::INPUT), pull(Pull::NOPULL), speed(Speed::LOW)
 1085              		.loc 16 68 9 view .LVU224
 1086              	.LBB690:
 1087              	.LBB691:
 1088              	.LBB692:
 1089              	.LBI692:
 1090              		.loc 17 272 15 view .LVU225
 1091              		.loc 17 272 15 is_stmt 0 view .LVU226
 1092              	.LBE692:
 1093              	.LBE691:
 1094              	.LBE690:
 1095              	.LBE689:
 1096              	.LBE688:
 1097              	.LBE687:
 1098              	.LBB701:
 1099              	.LBB657:
 1100              	.LBB655:
 1101              	.LBB653:
 1102              	.LBB651:
  69:../../../../DaisyExamples/libDaisy//src/per/gpio.h ****         {
 1103              		.loc 16 69 73 view .LVU227
 1104 0050 C0E92923 		strd	r2, r3, [r0, #164]
 1105              	.LBE651:
ARM GAS  C:\Users\samue\AppData\Local\Temp\cc1aPeGd.s 			page 41


 1106              	.LBE653:
 1107              	.LBE655:
 1108              	.LBE657:
 1109              	.LBE701:
 1110              	.LBB702:
 1111              	.LBB671:
 1112              	.LBB669:
 1113              	.LBB667:
 1114              	.LBB665:
 1115 0054 C0E92E23 		strd	r2, r3, [r0, #184]
 1116              	.LBE665:
 1117              	.LBE667:
 1118              	.LBE669:
 1119              	.LBE671:
 1120              	.LBE702:
 1121              	.LBB703:
 1122              	.LBB685:
 1123              	.LBB683:
 1124              	.LBB681:
 1125              	.LBB679:
 1126 0058 C0E93323 		strd	r2, r3, [r0, #204]
 1127              	.LBE679:
 1128              	.LBE681:
 1129              	.LBE683:
 1130              	.LBE685:
 1131              	.LBE703:
 1132              	.LBB704:
 1133              	.LBB699:
 1134              	.LBB697:
 1135              	.LBB695:
 1136              	.LBB693:
 1137 005c C0E93823 		strd	r2, r3, [r0, #224]
 1138              	.LBE693:
 1139              	.LBE695:
 1140              	.LBE697:
 1141              	.LBE699:
 1142              	.LBE704:
  19:daisy_common.h ****     ~daisyCommon() {}
 1143              		.loc 1 19 19 view .LVU228
 1144 0060 C0F81841 		str	r4, [r0, #280]
 1145 0064 0622     		movs	r2, #6
 1146 0066 0224     		movs	r4, #2
 1147              	.LBB705:
 1148              	.LBB706:
 1149              	.LBB707:
 1150              	.LBB708:
 1151              	.LBB709:
  95:../../../../DaisyExamples/libDaisy//src/hid/audio.h ****     ~AudioHandle() {}
 1152              		.loc 6 95 35 view .LVU229
 1153 0068 C0F83431 		str	r3, [r0, #308]
 1154              	.LBE709:
 1155              	.LBE708:
 1156              	.LBE707:
 1157              	.LBB710:
 1158              	.LBB711:
 1159              	.LBB712:
 1160              		.file 18 "../../../../DaisyExamples/libDaisy//src/per/dac.h"
ARM GAS  C:\Users\samue\AppData\Local\Temp\cc1aPeGd.s 			page 42


   1:../../../../DaisyExamples/libDaisy//src/per/dac.h **** #pragma once
   2:../../../../DaisyExamples/libDaisy//src/per/dac.h **** #ifndef DSY_DAC_H
   3:../../../../DaisyExamples/libDaisy//src/per/dac.h **** #define DSY_DAC_H
   4:../../../../DaisyExamples/libDaisy//src/per/dac.h **** 
   5:../../../../DaisyExamples/libDaisy//src/per/dac.h **** #include "daisy_core.h"
   6:../../../../DaisyExamples/libDaisy//src/per/dac.h **** 
   7:../../../../DaisyExamples/libDaisy//src/per/dac.h **** namespace daisy
   8:../../../../DaisyExamples/libDaisy//src/per/dac.h **** {
   9:../../../../DaisyExamples/libDaisy//src/per/dac.h **** /** @brief DAC handle for Built-in DAC Peripheral 
  10:../../../../DaisyExamples/libDaisy//src/per/dac.h ****  *  @ingroup per_analog
  11:../../../../DaisyExamples/libDaisy//src/per/dac.h ****  ** 
  12:../../../../DaisyExamples/libDaisy//src/per/dac.h ****  ** For now only Normal Mode is supported,
  13:../../../../DaisyExamples/libDaisy//src/per/dac.h ****  ** Sample and hold mode provides reduced power consumption, but requires a bit more setup.
  14:../../../../DaisyExamples/libDaisy//src/per/dac.h ****  **
  15:../../../../DaisyExamples/libDaisy//src/per/dac.h ****  ** For now connecting the DAC through other internal peripherals is also not supported.
  16:../../../../DaisyExamples/libDaisy//src/per/dac.h ****  **
  17:../../../../DaisyExamples/libDaisy//src/per/dac.h ****  ** Since the DAC channels have dedicated pins we don't need to pass in a pin config like with
  18:../../../../DaisyExamples/libDaisy//src/per/dac.h ****  ** other modules. However, it is still important to not try to use the DAC pins for anything else.
  19:../../../../DaisyExamples/libDaisy//src/per/dac.h ****  ** DAC Channel 1 is on PA4, and DAC Channel 2 is on PA5
  20:../../../../DaisyExamples/libDaisy//src/per/dac.h ****  ***/
  21:../../../../DaisyExamples/libDaisy//src/per/dac.h **** class DacHandle
  22:../../../../DaisyExamples/libDaisy//src/per/dac.h **** {
  23:../../../../DaisyExamples/libDaisy//src/per/dac.h ****   public:
  24:../../../../DaisyExamples/libDaisy//src/per/dac.h ****     /** Return Values for the DacHandle class */
  25:../../../../DaisyExamples/libDaisy//src/per/dac.h ****     enum class Result
  26:../../../../DaisyExamples/libDaisy//src/per/dac.h ****     {
  27:../../../../DaisyExamples/libDaisy//src/per/dac.h ****         OK,
  28:../../../../DaisyExamples/libDaisy//src/per/dac.h ****         ERR,
  29:../../../../DaisyExamples/libDaisy//src/per/dac.h ****     };
  30:../../../../DaisyExamples/libDaisy//src/per/dac.h **** 
  31:../../../../DaisyExamples/libDaisy//src/per/dac.h ****     /** Selects which channel(s) will be configured for use. */
  32:../../../../DaisyExamples/libDaisy//src/per/dac.h ****     enum class Channel
  33:../../../../DaisyExamples/libDaisy//src/per/dac.h ****     {
  34:../../../../DaisyExamples/libDaisy//src/per/dac.h ****         ONE,
  35:../../../../DaisyExamples/libDaisy//src/per/dac.h ****         TWO,
  36:../../../../DaisyExamples/libDaisy//src/per/dac.h ****         BOTH,
  37:../../../../DaisyExamples/libDaisy//src/per/dac.h ****     };
  38:../../../../DaisyExamples/libDaisy//src/per/dac.h **** 
  39:../../../../DaisyExamples/libDaisy//src/per/dac.h ****     /** Sets the Mode for the DAC channels.
  40:../../../../DaisyExamples/libDaisy//src/per/dac.h ****      **
  41:../../../../DaisyExamples/libDaisy//src/per/dac.h ****      ** Polling mode uses the blocking mode to transmit a single value at a time.
  42:../../../../DaisyExamples/libDaisy//src/per/dac.h ****      **
  43:../../../../DaisyExamples/libDaisy//src/per/dac.h ****      ** DMA mode uses a buffer, and periodically transmits it triggering a 
  44:../../../../DaisyExamples/libDaisy//src/per/dac.h ****      ** callback to fill the buffer when it is ready for more samples.
  45:../../../../DaisyExamples/libDaisy//src/per/dac.h ****      ***/
  46:../../../../DaisyExamples/libDaisy//src/per/dac.h ****     enum class Mode
  47:../../../../DaisyExamples/libDaisy//src/per/dac.h ****     {
  48:../../../../DaisyExamples/libDaisy//src/per/dac.h ****         POLLING,
  49:../../../../DaisyExamples/libDaisy//src/per/dac.h ****         DMA,
  50:../../../../DaisyExamples/libDaisy//src/per/dac.h ****     };
  51:../../../../DaisyExamples/libDaisy//src/per/dac.h **** 
  52:../../../../DaisyExamples/libDaisy//src/per/dac.h ****     /** Sets the number of bits per sample transmitted out of the DAC.
  53:../../../../DaisyExamples/libDaisy//src/per/dac.h ****      ** The output range will be: 0V - VDDA
  54:../../../../DaisyExamples/libDaisy//src/per/dac.h ****      ** The resolution will be roughly: bitdepth / (VDDA - 0V) 
  55:../../../../DaisyExamples/libDaisy//src/per/dac.h ****      ***/
  56:../../../../DaisyExamples/libDaisy//src/per/dac.h ****     enum class BitDepth
  57:../../../../DaisyExamples/libDaisy//src/per/dac.h ****     {
ARM GAS  C:\Users\samue\AppData\Local\Temp\cc1aPeGd.s 			page 43


  58:../../../../DaisyExamples/libDaisy//src/per/dac.h ****         BITS_8,
  59:../../../../DaisyExamples/libDaisy//src/per/dac.h ****         BITS_12
  60:../../../../DaisyExamples/libDaisy//src/per/dac.h ****     };
  61:../../../../DaisyExamples/libDaisy//src/per/dac.h **** 
  62:../../../../DaisyExamples/libDaisy//src/per/dac.h ****     /** Sets whether the DAC output is buffered for higher drive ability. */
  63:../../../../DaisyExamples/libDaisy//src/per/dac.h ****     enum class BufferState
  64:../../../../DaisyExamples/libDaisy//src/per/dac.h ****     {
  65:../../../../DaisyExamples/libDaisy//src/per/dac.h ****         ENABLED,
  66:../../../../DaisyExamples/libDaisy//src/per/dac.h ****         DISABLED,
  67:../../../../DaisyExamples/libDaisy//src/per/dac.h ****     };
  68:../../../../DaisyExamples/libDaisy//src/per/dac.h **** 
  69:../../../../DaisyExamples/libDaisy//src/per/dac.h ****     /** Configuration structure for initializing the DAC structure. */
  70:../../../../DaisyExamples/libDaisy//src/per/dac.h ****     struct Config
  71:../../../../DaisyExamples/libDaisy//src/per/dac.h ****     {
  72:../../../../DaisyExamples/libDaisy//src/per/dac.h ****         /** Target Samplerate in Hz used to configure the internal 
  73:../../../../DaisyExamples/libDaisy//src/per/dac.h ****          ** timebase for DMA mode. Does nothing in POLLING mode.
  74:../../../../DaisyExamples/libDaisy//src/per/dac.h ****          ** If the value is 0 at Init time this will default to 48000Hz 
  75:../../../../DaisyExamples/libDaisy//src/per/dac.h ****          ** otherwise the driver will attempt meet the target.*/
  76:../../../../DaisyExamples/libDaisy//src/per/dac.h ****         uint32_t target_samplerate;
  77:../../../../DaisyExamples/libDaisy//src/per/dac.h **** 
  78:../../../../DaisyExamples/libDaisy//src/per/dac.h ****         Channel     chn;
  79:../../../../DaisyExamples/libDaisy//src/per/dac.h ****         Mode        mode;
  80:../../../../DaisyExamples/libDaisy//src/per/dac.h ****         BitDepth    bitdepth;
  81:../../../../DaisyExamples/libDaisy//src/per/dac.h ****         BufferState buff_state;
  82:../../../../DaisyExamples/libDaisy//src/per/dac.h ****     };
  83:../../../../DaisyExamples/libDaisy//src/per/dac.h **** 
  84:../../../../DaisyExamples/libDaisy//src/per/dac.h ****     DacHandle() : pimpl_(nullptr) {}
 1161              		.loc 18 84 33 view .LVU230
 1162 006c C0F84031 		str	r3, [r0, #320]
 1163              	.LBE712:
 1164              	.LBE711:
 1165              	.LBE710:
 1166              	.LBE706:
 1167              	.LBE705:
  19:daisy_common.h ****     ~daisyCommon() {}
 1168              		.loc 1 19 19 view .LVU231
 1169 0070 C0E95731 		strd	r3, r1, [r0, #348]
 1170              	.LBB723:
 1171              	.LBB658:
 1172              	.LBB656:
 1173              	.LBB654:
 1174              	.LBB652:
  69:../../../../DaisyExamples/libDaisy//src/per/gpio.h ****         {
 1175              		.loc 16 69 73 view .LVU232
 1176 0074 C0E92B33 		strd	r3, r3, [r0, #172]
 1177              	.LBE652:
 1178              	.LBE654:
 1179              	.LBE656:
 1180              	.LBE658:
 1181              	.LBE723:
 1182              	.LBB724:
 1183              	.LBB672:
 1184              	.LBB670:
 1185              	.LBB668:
 1186              	.LBB666:
 1187 0078 C0E93033 		strd	r3, r3, [r0, #192]
 1188              	.LBE666:
ARM GAS  C:\Users\samue\AppData\Local\Temp\cc1aPeGd.s 			page 44


 1189              	.LBE668:
 1190              	.LBE670:
 1191              	.LBE672:
 1192              	.LBE724:
 1193              	.LBB725:
 1194              	.LBB686:
 1195              	.LBB684:
 1196              	.LBB682:
 1197              	.LBB680:
 1198 007c C0E93533 		strd	r3, r3, [r0, #212]
 1199              	.LBE680:
 1200              	.LBE682:
 1201              	.LBE684:
 1202              	.LBE686:
 1203              	.LBE725:
 1204              	.LBB726:
 1205              	.LBB700:
 1206              	.LBB698:
 1207              	.LBB696:
 1208              	.LBB694:
 1209 0080 C0E93A33 		strd	r3, r3, [r0, #232]
 1210              	.LVL51:
  69:../../../../DaisyExamples/libDaisy//src/per/gpio.h ****         {
 1211              		.loc 16 69 73 view .LVU233
 1212              	.LBE694:
 1213              	.LBE696:
 1214              	.LBE698:
 1215              	.LBE700:
 1216              	.LBE726:
 1217              	.LBB727:
 1218              	.LBI727:
  20:../../../../DaisyExamples/libDaisy//src/hid/switch3.h ****     ~Switch3() {}
 1219              		.loc 8 20 5 is_stmt 1 view .LVU234
  20:../../../../DaisyExamples/libDaisy//src/hid/switch3.h ****     ~Switch3() {}
 1220              		.loc 8 20 5 is_stmt 0 view .LVU235
 1221              	.LBE727:
 1222              	.LBB728:
 1223              	.LBI728:
  20:../../../../DaisyExamples/libDaisy//src/hid/switch3.h ****     ~Switch3() {}
 1224              		.loc 8 20 5 is_stmt 1 view .LVU236
  20:../../../../DaisyExamples/libDaisy//src/hid/switch3.h ****     ~Switch3() {}
 1225              		.loc 8 20 5 is_stmt 0 view .LVU237
 1226              	.LBE728:
 1227              	.LBB729:
 1228              	.LBI729:
  41:../../../../DaisyExamples/libDaisy//src/hid/switch.h ****     ~Switch() {}
 1229              		.loc 7 41 5 is_stmt 1 view .LVU238
  41:../../../../DaisyExamples/libDaisy//src/hid/switch.h ****     ~Switch() {}
 1230              		.loc 7 41 5 is_stmt 0 view .LVU239
 1231              	.LBE729:
 1232              	.LBB730:
 1233              	.LBB722:
 1234              	.LBB713:
 1235              	.LBB714:
 1236              	.LBB715:
 1237              		.file 19 "../../../../DaisyExamples/libDaisy//src/per/qspi.h"
   1:../../../../DaisyExamples/libDaisy//src/per/qspi.h **** #ifndef DSY_QSPI
ARM GAS  C:\Users\samue\AppData\Local\Temp\cc1aPeGd.s 			page 45


   2:../../../../DaisyExamples/libDaisy//src/per/qspi.h **** #define DSY_QSPI /**< Macro */
   3:../../../../DaisyExamples/libDaisy//src/per/qspi.h **** 
   4:../../../../DaisyExamples/libDaisy//src/per/qspi.h **** #ifndef UNIT_TEST // for unit tests, a dummy implementation
   5:../../../../DaisyExamples/libDaisy//src/per/qspi.h **** 
   6:../../../../DaisyExamples/libDaisy//src/per/qspi.h **** #include <cstdint>
   7:../../../../DaisyExamples/libDaisy//src/per/qspi.h **** #include "daisy_core.h" // Added for dsy_gpio_pin typedef
   8:../../../../DaisyExamples/libDaisy//src/per/qspi.h **** 
   9:../../../../DaisyExamples/libDaisy//src/per/qspi.h **** #define DSY_QSPI_TEXT       \
  10:../../../../DaisyExamples/libDaisy//src/per/qspi.h ****     __attribute__((section( \
  11:../../../../DaisyExamples/libDaisy//src/per/qspi.h ****         ".qspiflash_text"))) /**< used for reading memory in memory_mapped mode. */
  12:../../../../DaisyExamples/libDaisy//src/per/qspi.h **** #define DSY_QSPI_DATA       \
  13:../../../../DaisyExamples/libDaisy//src/per/qspi.h ****     __attribute__((section( \
  14:../../../../DaisyExamples/libDaisy//src/per/qspi.h ****         ".qspiflash_data"))) /**< used for reading memory in memory_mapped mode. */
  15:../../../../DaisyExamples/libDaisy//src/per/qspi.h **** #define DSY_QSPI_BSS        \
  16:../../../../DaisyExamples/libDaisy//src/per/qspi.h ****     __attribute__((section( \
  17:../../../../DaisyExamples/libDaisy//src/per/qspi.h ****         ".qspiflash_bss"))) /**< used for reading memory in memory_mapped mode. */
  18:../../../../DaisyExamples/libDaisy//src/per/qspi.h **** 
  19:../../../../DaisyExamples/libDaisy//src/per/qspi.h **** namespace daisy
  20:../../../../DaisyExamples/libDaisy//src/per/qspi.h **** {
  21:../../../../DaisyExamples/libDaisy//src/per/qspi.h **** /** @addtogroup serial
  22:../../../../DaisyExamples/libDaisy//src/per/qspi.h **** @{
  23:../../../../DaisyExamples/libDaisy//src/per/qspi.h **** */
  24:../../../../DaisyExamples/libDaisy//src/per/qspi.h **** 
  25:../../../../DaisyExamples/libDaisy//src/per/qspi.h **** /** 
  26:../../../../DaisyExamples/libDaisy//src/per/qspi.h ****  Driver for QSPI peripheral to interface with external flash memory. \n 
  27:../../../../DaisyExamples/libDaisy//src/per/qspi.h ****     Currently supported QSPI Devices: \n 
  28:../../../../DaisyExamples/libDaisy//src/per/qspi.h ****     * IS25LP080D
  29:../../../../DaisyExamples/libDaisy//src/per/qspi.h **** */
  30:../../../../DaisyExamples/libDaisy//src/per/qspi.h **** class QSPIHandle
  31:../../../../DaisyExamples/libDaisy//src/per/qspi.h **** {
  32:../../../../DaisyExamples/libDaisy//src/per/qspi.h ****   public:
  33:../../../../DaisyExamples/libDaisy//src/per/qspi.h ****     enum Result
  34:../../../../DaisyExamples/libDaisy//src/per/qspi.h ****     {
  35:../../../../DaisyExamples/libDaisy//src/per/qspi.h ****         OK = 0,
  36:../../../../DaisyExamples/libDaisy//src/per/qspi.h ****         ERR
  37:../../../../DaisyExamples/libDaisy//src/per/qspi.h ****     };
  38:../../../../DaisyExamples/libDaisy//src/per/qspi.h **** 
  39:../../../../DaisyExamples/libDaisy//src/per/qspi.h ****     /** Indicates the current status of the module. 
  40:../../../../DaisyExamples/libDaisy//src/per/qspi.h ****          *  Warnings are indicated by a leading W.
  41:../../../../DaisyExamples/libDaisy//src/per/qspi.h ****          *  Errors are indicated by a leading E and cause an immediate exit.
  42:../../../../DaisyExamples/libDaisy//src/per/qspi.h ****          * 
  43:../../../../DaisyExamples/libDaisy//src/per/qspi.h ****          *  \param GOOD - No errors have been reported.
  44:../../../../DaisyExamples/libDaisy//src/per/qspi.h ****          *  \param E_HAL_ERROR - HAL code did not return HAL_OK.
  45:../../../../DaisyExamples/libDaisy//src/per/qspi.h ****          *  \param E_SWITCHING_MODES - An error was encountered while switching QSPI peripheral mod
  46:../../../../DaisyExamples/libDaisy//src/per/qspi.h ****          *  \param E_INVALID_MODE - QSPI should not be written to while the program is executing fr
  47:../../../../DaisyExamples/libDaisy//src/per/qspi.h ****          */
  48:../../../../DaisyExamples/libDaisy//src/per/qspi.h ****     enum Status
  49:../../../../DaisyExamples/libDaisy//src/per/qspi.h ****     {
  50:../../../../DaisyExamples/libDaisy//src/per/qspi.h ****         GOOD = 0,
  51:../../../../DaisyExamples/libDaisy//src/per/qspi.h ****         E_HAL_ERROR,
  52:../../../../DaisyExamples/libDaisy//src/per/qspi.h ****         E_SWITCHING_MODES,
  53:../../../../DaisyExamples/libDaisy//src/per/qspi.h ****         E_INVALID_MODE,
  54:../../../../DaisyExamples/libDaisy//src/per/qspi.h ****     };
  55:../../../../DaisyExamples/libDaisy//src/per/qspi.h **** 
  56:../../../../DaisyExamples/libDaisy//src/per/qspi.h ****     /** Configuration structure for interfacing with QSPI Driver */
  57:../../../../DaisyExamples/libDaisy//src/per/qspi.h ****     struct Config
  58:../../../../DaisyExamples/libDaisy//src/per/qspi.h ****     {
ARM GAS  C:\Users\samue\AppData\Local\Temp\cc1aPeGd.s 			page 46


  59:../../../../DaisyExamples/libDaisy//src/per/qspi.h ****         /** Flash Devices supported. (Both of these are more-or-less the same, just different sizes
  60:../../../../DaisyExamples/libDaisy//src/per/qspi.h ****         enum Device
  61:../../../../DaisyExamples/libDaisy//src/per/qspi.h ****         {
  62:../../../../DaisyExamples/libDaisy//src/per/qspi.h ****             IS25LP080D,  /**< & */
  63:../../../../DaisyExamples/libDaisy//src/per/qspi.h ****             IS25LP064A,  /**< & */
  64:../../../../DaisyExamples/libDaisy//src/per/qspi.h ****             DEVICE_LAST, /**< & */
  65:../../../../DaisyExamples/libDaisy//src/per/qspi.h ****         };
  66:../../../../DaisyExamples/libDaisy//src/per/qspi.h **** 
  67:../../../../DaisyExamples/libDaisy//src/per/qspi.h ****         /** 
  68:../../../../DaisyExamples/libDaisy//src/per/qspi.h ****         Modes of operation.
  69:../../../../DaisyExamples/libDaisy//src/per/qspi.h ****         Memory Mapped mode: QSPI configured so that the QSPI can be
  70:../../../../DaisyExamples/libDaisy//src/per/qspi.h ****         read from starting address 0x90000000. Writing is not
  71:../../../../DaisyExamples/libDaisy//src/per/qspi.h ****         possible in this mode. \n 
  72:../../../../DaisyExamples/libDaisy//src/per/qspi.h ****         Indirect Polling mode: Device driver enabled. 
  73:../../../../DaisyExamples/libDaisy//src/per/qspi.h ****         */
  74:../../../../DaisyExamples/libDaisy//src/per/qspi.h ****         enum Mode
  75:../../../../DaisyExamples/libDaisy//src/per/qspi.h ****         {
  76:../../../../DaisyExamples/libDaisy//src/per/qspi.h ****             MEMORY_MAPPED,    /**< & */
  77:../../../../DaisyExamples/libDaisy//src/per/qspi.h ****             INDIRECT_POLLING, /**< & */
  78:../../../../DaisyExamples/libDaisy//src/per/qspi.h ****             MODE_LAST,
  79:../../../../DaisyExamples/libDaisy//src/per/qspi.h ****         };
  80:../../../../DaisyExamples/libDaisy//src/per/qspi.h **** 
  81:../../../../DaisyExamples/libDaisy//src/per/qspi.h ****         //SCK,  CE# (active low)
  82:../../../../DaisyExamples/libDaisy//src/per/qspi.h ****         struct
  83:../../../../DaisyExamples/libDaisy//src/per/qspi.h ****         {
  84:../../../../DaisyExamples/libDaisy//src/per/qspi.h ****             dsy_gpio_pin io0; /**< & */
  85:../../../../DaisyExamples/libDaisy//src/per/qspi.h ****             dsy_gpio_pin io1; /**< & */
  86:../../../../DaisyExamples/libDaisy//src/per/qspi.h ****             dsy_gpio_pin io2; /**< & */
  87:../../../../DaisyExamples/libDaisy//src/per/qspi.h ****             dsy_gpio_pin io3; /**< & */
  88:../../../../DaisyExamples/libDaisy//src/per/qspi.h ****             dsy_gpio_pin clk; /**< & */
  89:../../../../DaisyExamples/libDaisy//src/per/qspi.h ****             dsy_gpio_pin ncs; /**< & */
  90:../../../../DaisyExamples/libDaisy//src/per/qspi.h ****         } pin_config;
  91:../../../../DaisyExamples/libDaisy//src/per/qspi.h **** 
  92:../../../../DaisyExamples/libDaisy//src/per/qspi.h ****         Device device;
  93:../../../../DaisyExamples/libDaisy//src/per/qspi.h ****         Mode   mode;
  94:../../../../DaisyExamples/libDaisy//src/per/qspi.h ****     };
  95:../../../../DaisyExamples/libDaisy//src/per/qspi.h **** 
  96:../../../../DaisyExamples/libDaisy//src/per/qspi.h ****     /** 
  97:../../../../DaisyExamples/libDaisy//src/per/qspi.h ****         Initializes QSPI peripheral, and Resets, and prepares memory for access.
  98:../../../../DaisyExamples/libDaisy//src/per/qspi.h ****         \param config should be populated with the mode, device and pin_config before calling this 
  99:../../../../DaisyExamples/libDaisy//src/per/qspi.h ****         \return Result::OK or Result::ERR
 100:../../../../DaisyExamples/libDaisy//src/per/qspi.h ****         */
 101:../../../../DaisyExamples/libDaisy//src/per/qspi.h ****     Result Init(const Config& config);
 102:../../../../DaisyExamples/libDaisy//src/per/qspi.h **** 
 103:../../../../DaisyExamples/libDaisy//src/per/qspi.h ****     /** Returns the current config. */
 104:../../../../DaisyExamples/libDaisy//src/per/qspi.h ****     const Config& GetConfig() const;
 105:../../../../DaisyExamples/libDaisy//src/per/qspi.h **** 
 106:../../../../DaisyExamples/libDaisy//src/per/qspi.h ****     // Couldn't this just be called before anything else in init? That
 107:../../../../DaisyExamples/libDaisy//src/per/qspi.h ****     // would make manually calling it unnecessary.
 108:../../../../DaisyExamples/libDaisy//src/per/qspi.h ****     /** 
 109:../../../../DaisyExamples/libDaisy//src/per/qspi.h ****         Deinitializes the peripheral
 110:../../../../DaisyExamples/libDaisy//src/per/qspi.h ****         This should be called before reinitializing QSPI in a different mode.
 111:../../../../DaisyExamples/libDaisy//src/per/qspi.h ****         \return Result::OK or Result::ERR
 112:../../../../DaisyExamples/libDaisy//src/per/qspi.h ****         */
 113:../../../../DaisyExamples/libDaisy//src/per/qspi.h ****     Result DeInit();
 114:../../../../DaisyExamples/libDaisy//src/per/qspi.h **** 
 115:../../../../DaisyExamples/libDaisy//src/per/qspi.h ****     /** 
ARM GAS  C:\Users\samue\AppData\Local\Temp\cc1aPeGd.s 			page 47


 116:../../../../DaisyExamples/libDaisy//src/per/qspi.h ****         Writes a single page to to the specified address on the QSPI chip.
 117:../../../../DaisyExamples/libDaisy//src/per/qspi.h ****         For IS25LP*, page size is 256 bytes.
 118:../../../../DaisyExamples/libDaisy//src/per/qspi.h ****         \param address Address to write to
 119:../../../../DaisyExamples/libDaisy//src/per/qspi.h ****         \param size Buffer size
 120:../../../../DaisyExamples/libDaisy//src/per/qspi.h ****         \param buffer Buffer to write
 121:../../../../DaisyExamples/libDaisy//src/per/qspi.h ****         \return Result::OK or Result::ERR
 122:../../../../DaisyExamples/libDaisy//src/per/qspi.h ****         */
 123:../../../../DaisyExamples/libDaisy//src/per/qspi.h ****     Result WritePage(uint32_t address, uint32_t size, uint8_t* buffer);
 124:../../../../DaisyExamples/libDaisy//src/per/qspi.h **** 
 125:../../../../DaisyExamples/libDaisy//src/per/qspi.h ****     /** 
 126:../../../../DaisyExamples/libDaisy//src/per/qspi.h ****         Writes data in buffer to to the QSPI. Starting at address to address+size 
 127:../../../../DaisyExamples/libDaisy//src/per/qspi.h ****         \param address Address to write to
 128:../../../../DaisyExamples/libDaisy//src/per/qspi.h ****         \param size Buffer size
 129:../../../../DaisyExamples/libDaisy//src/per/qspi.h ****         \param buffer Buffer to write
 130:../../../../DaisyExamples/libDaisy//src/per/qspi.h ****         \return Result::OK or Result::ERR
 131:../../../../DaisyExamples/libDaisy//src/per/qspi.h ****         */
 132:../../../../DaisyExamples/libDaisy//src/per/qspi.h ****     Result Write(uint32_t address, uint32_t size, uint8_t* buffer);
 133:../../../../DaisyExamples/libDaisy//src/per/qspi.h **** 
 134:../../../../DaisyExamples/libDaisy//src/per/qspi.h ****     /** 
 135:../../../../DaisyExamples/libDaisy//src/per/qspi.h ****         Erases the area specified on the chip.
 136:../../../../DaisyExamples/libDaisy//src/per/qspi.h ****         Erasures will happen by 4K, 32K or 64K increments.
 137:../../../../DaisyExamples/libDaisy//src/per/qspi.h ****         Smallest erase possible is 4kB at a time. (on IS25LP*)
 138:../../../../DaisyExamples/libDaisy//src/per/qspi.h ****         \param start_addr Address to begin erasing from
 139:../../../../DaisyExamples/libDaisy//src/per/qspi.h ****         \param end_addr  Address to stop erasing at
 140:../../../../DaisyExamples/libDaisy//src/per/qspi.h ****         \return Result::OK or Result::ERR
 141:../../../../DaisyExamples/libDaisy//src/per/qspi.h ****         */
 142:../../../../DaisyExamples/libDaisy//src/per/qspi.h ****     Result Erase(uint32_t start_addr, uint32_t end_addr);
 143:../../../../DaisyExamples/libDaisy//src/per/qspi.h **** 
 144:../../../../DaisyExamples/libDaisy//src/per/qspi.h ****     /**  
 145:../../../../DaisyExamples/libDaisy//src/per/qspi.h ****          Erases a single sector of the chip.  
 146:../../../../DaisyExamples/libDaisy//src/per/qspi.h ****         TODO: Document the size of this function. 
 147:../../../../DaisyExamples/libDaisy//src/per/qspi.h ****         \param address Address of sector to erase
 148:../../../../DaisyExamples/libDaisy//src/per/qspi.h ****         \return Result::OK or Result::ERR
 149:../../../../DaisyExamples/libDaisy//src/per/qspi.h ****         */
 150:../../../../DaisyExamples/libDaisy//src/per/qspi.h ****     Result EraseSector(uint32_t address);
 151:../../../../DaisyExamples/libDaisy//src/per/qspi.h **** 
 152:../../../../DaisyExamples/libDaisy//src/per/qspi.h ****     /** Returns the current class status. Useful for debugging.
 153:../../../../DaisyExamples/libDaisy//src/per/qspi.h ****      *  \returns Status
 154:../../../../DaisyExamples/libDaisy//src/per/qspi.h ****      */
 155:../../../../DaisyExamples/libDaisy//src/per/qspi.h ****     Status GetStatus();
 156:../../../../DaisyExamples/libDaisy//src/per/qspi.h **** 
 157:../../../../DaisyExamples/libDaisy//src/per/qspi.h ****     /** Returns a pointer to the actual memory used 
 158:../../../../DaisyExamples/libDaisy//src/per/qspi.h ****      *  The memory at this address is read-only
 159:../../../../DaisyExamples/libDaisy//src/per/qspi.h ****      *  to write to it use the Write function.
 160:../../../../DaisyExamples/libDaisy//src/per/qspi.h ****      * 
 161:../../../../DaisyExamples/libDaisy//src/per/qspi.h ****      *  \param offset returns the pointer starting this 
 162:../../../../DaisyExamples/libDaisy//src/per/qspi.h ****      *                many bytes into the memory
 163:../../../../DaisyExamples/libDaisy//src/per/qspi.h ****     */
 164:../../../../DaisyExamples/libDaisy//src/per/qspi.h ****     void* GetData(uint32_t offset = 0);
 165:../../../../DaisyExamples/libDaisy//src/per/qspi.h **** 
 166:../../../../DaisyExamples/libDaisy//src/per/qspi.h ****     QSPIHandle() : pimpl_(nullptr) {}
 1238              		.loc 19 166 34 view .LVU240
 1239 0084 C0E94733 		strd	r3, r3, [r0, #284]
 1240              	.LVL52:
 1241              		.loc 19 166 34 view .LVU241
 1242              	.LBE715:
 1243              	.LBE714:
ARM GAS  C:\Users\samue\AppData\Local\Temp\cc1aPeGd.s 			page 48


 1244              	.LBE713:
 1245              	.LBB716:
 1246              	.LBI707:
  95:../../../../DaisyExamples/libDaisy//src/hid/audio.h ****     ~AudioHandle() {}
 1247              		.loc 6 95 5 is_stmt 1 view .LVU242
  95:../../../../DaisyExamples/libDaisy//src/hid/audio.h ****     ~AudioHandle() {}
 1248              		.loc 6 95 5 is_stmt 0 view .LVU243
 1249              	.LBE716:
 1250              	.LBB717:
 1251              	.LBI717:
 109:../../../../DaisyExamples/libDaisy//src/per/adc.h ****     ~AdcHandle() {}
 1252              		.loc 5 109 5 is_stmt 1 view .LVU244
 109:../../../../DaisyExamples/libDaisy//src/per/adc.h ****     ~AdcHandle() {}
 1253              		.loc 5 109 5 is_stmt 0 view .LVU245
 1254              	.LBE717:
 1255              	.LBB718:
 1256              	.LBI710:
 1257              		.loc 18 84 5 is_stmt 1 view .LVU246
 1258              		.loc 18 84 5 is_stmt 0 view .LVU247
 1259              	.LBE718:
 1260              	.LBB719:
 1261              	.LBI719:
  40:../../../../DaisyExamples/libDaisy//src/hid/usb.h **** 
 1262              		.loc 4 40 5 is_stmt 1 view .LVU248
  40:../../../../DaisyExamples/libDaisy//src/hid/usb.h **** 
 1263              		.loc 4 40 5 is_stmt 0 view .LVU249
 1264              	.LBE719:
 1265              	.LBB720:
 1266              	.LBI720:
  96:../../../../DaisyExamples/libDaisy//src/sys/system.h ****     ~System() {}
 1267              		.loc 3 96 5 is_stmt 1 view .LVU250
  96:../../../../DaisyExamples/libDaisy//src/sys/system.h ****     ~System() {}
 1268              		.loc 3 96 5 is_stmt 0 view .LVU251
 1269              	.LBE720:
 1270              	.LBB721:
 1271              	.LBI721:
 1272              		.file 20 "../../../../DaisyExamples/libDaisy//src/per/sai.h"
   1:../../../../DaisyExamples/libDaisy//src/per/sai.h **** #pragma once
   2:../../../../DaisyExamples/libDaisy//src/per/sai.h **** #ifndef DSY_SAI_H
   3:../../../../DaisyExamples/libDaisy//src/per/sai.h **** #define DSY_SAI_H
   4:../../../../DaisyExamples/libDaisy//src/per/sai.h **** 
   5:../../../../DaisyExamples/libDaisy//src/per/sai.h **** #include "daisy_core.h"
   6:../../../../DaisyExamples/libDaisy//src/per/sai.h **** 
   7:../../../../DaisyExamples/libDaisy//src/per/sai.h **** namespace daisy
   8:../../../../DaisyExamples/libDaisy//src/per/sai.h **** {
   9:../../../../DaisyExamples/libDaisy//src/per/sai.h **** /** 
  10:../../../../DaisyExamples/libDaisy//src/per/sai.h ****  * Support for I2S Audio Protocol with different bit-depth, samplerate options
  11:../../../../DaisyExamples/libDaisy//src/per/sai.h ****  * Allows for master or slave, as well as freedom of selecting direction, 
  12:../../../../DaisyExamples/libDaisy//src/per/sai.h ****  * and other behavior for each peripheral, and block.
  13:../../../../DaisyExamples/libDaisy//src/per/sai.h ****  * 
  14:../../../../DaisyExamples/libDaisy//src/per/sai.h ****  * DMA Transfer commands must use buffers located within non-cached memory or use cache maintenance
  15:../../../../DaisyExamples/libDaisy//src/per/sai.h ****  * To declare an unitialized global element in the DMA memory section:
  16:../../../../DaisyExamples/libDaisy//src/per/sai.h ****  *    int32_t DSY_DMA_BUFFER_SECTOR my_buffer[96];
  17:../../../../DaisyExamples/libDaisy//src/per/sai.h ****  *
  18:../../../../DaisyExamples/libDaisy//src/per/sai.h ****  * Callback functions will be called once per half of the buffer. In the above example, 
  19:../../../../DaisyExamples/libDaisy//src/per/sai.h ****  * the callback function would be called once for every 48 samples.
  20:../../../../DaisyExamples/libDaisy//src/per/sai.h ****  * 
ARM GAS  C:\Users\samue\AppData\Local\Temp\cc1aPeGd.s 			page 49


  21:../../../../DaisyExamples/libDaisy//src/per/sai.h ****  * Use SAI Handle like this:
  22:../../../../DaisyExamples/libDaisy//src/per/sai.h ****  * 
  23:../../../../DaisyExamples/libDaisy//src/per/sai.h ****  *  SaiHandle::Config sai_config;
  24:../../../../DaisyExamples/libDaisy//src/per/sai.h ****  *  sai_config.periph          = SaiHandle::Config::Peripheral::SAI_1;
  25:../../../../DaisyExamples/libDaisy//src/per/sai.h ****  *  sai_config.sr              = SaiHandle::Config::SampleRate::SAI_48KHZ;
  26:../../../../DaisyExamples/libDaisy//src/per/sai.h ****  *  sai_config.bit_depth       = SaiHandle::Config::BitDepth::SAI_24BIT;
  27:../../../../DaisyExamples/libDaisy//src/per/sai.h ****  *  sai_config.a_sync          = SaiHandle::Config::Sync::MASTER;
  28:../../../../DaisyExamples/libDaisy//src/per/sai.h ****  *  sai_config.b_sync          = SaiHandle::Config::Sync::SLAVE;
  29:../../../../DaisyExamples/libDaisy//src/per/sai.h ****  *  sai_config.a_dir           = SaiHandle::Config::Direction::RECEIVE;
  30:../../../../DaisyExamples/libDaisy//src/per/sai.h ****  *  sai_config.b_dir           = SaiHandle::Config::Direction::TRANSMIT;
  31:../../../../DaisyExamples/libDaisy//src/per/sai.h ****  *  sai_config.pin_config.fs   = {DSY_GPIOE, 4};
  32:../../../../DaisyExamples/libDaisy//src/per/sai.h ****  *  sai_config.pin_config.mclk = {DSY_GPIOE, 2};
  33:../../../../DaisyExamples/libDaisy//src/per/sai.h ****  *  sai_config.pin_config.sck  = {DSY_GPIOE, 5};
  34:../../../../DaisyExamples/libDaisy//src/per/sai.h ****  *  sai_config.pin_config.sa   = {DSY_GPIOE, 6};
  35:../../../../DaisyExamples/libDaisy//src/per/sai.h ****  *  sai_config.pin_config.sb   = {DSY_GPIOE, 3};
  36:../../../../DaisyExamples/libDaisy//src/per/sai.h ****  *  // Then Initialize
  37:../../../../DaisyExamples/libDaisy//src/per/sai.h ****  *  SaiHandle sai;
  38:../../../../DaisyExamples/libDaisy//src/per/sai.h ****  *  sai.Init(sai_config);
  39:../../../../DaisyExamples/libDaisy//src/per/sai.h ****  *  // Now you can use it:
  40:../../../../DaisyExamples/libDaisy//src/per/sai.h ****  *  sai.StartDma(. . .);
  41:../../../../DaisyExamples/libDaisy//src/per/sai.h ****  */
  42:../../../../DaisyExamples/libDaisy//src/per/sai.h **** class SaiHandle
  43:../../../../DaisyExamples/libDaisy//src/per/sai.h **** {
  44:../../../../DaisyExamples/libDaisy//src/per/sai.h ****   public:
  45:../../../../DaisyExamples/libDaisy//src/per/sai.h ****     /** Contains settings for initialising an SAI Interface */
  46:../../../../DaisyExamples/libDaisy//src/per/sai.h ****     struct Config
  47:../../../../DaisyExamples/libDaisy//src/per/sai.h ****     {
  48:../../../../DaisyExamples/libDaisy//src/per/sai.h ****         /** Specifies the internal peripheral to use (mapped to different hardware pins) */
  49:../../../../DaisyExamples/libDaisy//src/per/sai.h ****         enum class Peripheral
  50:../../../../DaisyExamples/libDaisy//src/per/sai.h ****         {
  51:../../../../DaisyExamples/libDaisy//src/per/sai.h ****             SAI_1,
  52:../../../../DaisyExamples/libDaisy//src/per/sai.h ****             SAI_2,
  53:../../../../DaisyExamples/libDaisy//src/per/sai.h ****         };
  54:../../../../DaisyExamples/libDaisy//src/per/sai.h **** 
  55:../../../../DaisyExamples/libDaisy//src/per/sai.h ****         /** Rate at which samples will be streaming to/from the device. */
  56:../../../../DaisyExamples/libDaisy//src/per/sai.h ****         enum class SampleRate
  57:../../../../DaisyExamples/libDaisy//src/per/sai.h ****         {
  58:../../../../DaisyExamples/libDaisy//src/per/sai.h ****             SAI_8KHZ,
  59:../../../../DaisyExamples/libDaisy//src/per/sai.h ****             SAI_16KHZ,
  60:../../../../DaisyExamples/libDaisy//src/per/sai.h ****             SAI_32KHZ,
  61:../../../../DaisyExamples/libDaisy//src/per/sai.h ****             SAI_48KHZ,
  62:../../../../DaisyExamples/libDaisy//src/per/sai.h ****             SAI_96KHZ,
  63:../../../../DaisyExamples/libDaisy//src/per/sai.h ****         };
  64:../../../../DaisyExamples/libDaisy//src/per/sai.h **** 
  65:../../../../DaisyExamples/libDaisy//src/per/sai.h ****         /** Bit Depth that the hardware expects to be transferred to/from the device. */
  66:../../../../DaisyExamples/libDaisy//src/per/sai.h ****         enum class BitDepth
  67:../../../../DaisyExamples/libDaisy//src/per/sai.h ****         {
  68:../../../../DaisyExamples/libDaisy//src/per/sai.h ****             SAI_16BIT,
  69:../../../../DaisyExamples/libDaisy//src/per/sai.h ****             SAI_24BIT,
  70:../../../../DaisyExamples/libDaisy//src/per/sai.h ****             SAI_32BIT,
  71:../../../../DaisyExamples/libDaisy//src/per/sai.h ****         };
  72:../../../../DaisyExamples/libDaisy//src/per/sai.h **** 
  73:../../../../DaisyExamples/libDaisy//src/per/sai.h ****         /** Specifies whether a particular block is the master or the slave 
  74:../../../../DaisyExamples/libDaisy//src/per/sai.h ****          ** If both are set to slave, no MCLK signal will be used, and it is
  75:../../../../DaisyExamples/libDaisy//src/per/sai.h ****          ** expected that the codec will have its own xtal.
  76:../../../../DaisyExamples/libDaisy//src/per/sai.h ****          */
  77:../../../../DaisyExamples/libDaisy//src/per/sai.h ****         enum class Sync
ARM GAS  C:\Users\samue\AppData\Local\Temp\cc1aPeGd.s 			page 50


  78:../../../../DaisyExamples/libDaisy//src/per/sai.h ****         {
  79:../../../../DaisyExamples/libDaisy//src/per/sai.h ****             MASTER,
  80:../../../../DaisyExamples/libDaisy//src/per/sai.h ****             SLAVE,
  81:../../../../DaisyExamples/libDaisy//src/per/sai.h ****         };
  82:../../../../DaisyExamples/libDaisy//src/per/sai.h **** 
  83:../../../../DaisyExamples/libDaisy//src/per/sai.h ****         /** Specifies the direction for each peripheral block. */
  84:../../../../DaisyExamples/libDaisy//src/per/sai.h ****         enum class Direction
  85:../../../../DaisyExamples/libDaisy//src/per/sai.h ****         {
  86:../../../../DaisyExamples/libDaisy//src/per/sai.h ****             TRANSMIT,
  87:../../../../DaisyExamples/libDaisy//src/per/sai.h ****             RECEIVE,
  88:../../../../DaisyExamples/libDaisy//src/per/sai.h ****         };
  89:../../../../DaisyExamples/libDaisy//src/per/sai.h **** 
  90:../../../../DaisyExamples/libDaisy//src/per/sai.h ****         Peripheral periph;
  91:../../../../DaisyExamples/libDaisy//src/per/sai.h ****         struct
  92:../../../../DaisyExamples/libDaisy//src/per/sai.h ****         {
  93:../../../../DaisyExamples/libDaisy//src/per/sai.h ****             dsy_gpio_pin mclk, fs, sck, sa, sb;
  94:../../../../DaisyExamples/libDaisy//src/per/sai.h ****         } pin_config;
  95:../../../../DaisyExamples/libDaisy//src/per/sai.h ****         SampleRate sr;
  96:../../../../DaisyExamples/libDaisy//src/per/sai.h ****         BitDepth   bit_depth;
  97:../../../../DaisyExamples/libDaisy//src/per/sai.h ****         Sync       a_sync, b_sync;
  98:../../../../DaisyExamples/libDaisy//src/per/sai.h ****         Direction  a_dir, b_dir;
  99:../../../../DaisyExamples/libDaisy//src/per/sai.h ****     };
 100:../../../../DaisyExamples/libDaisy//src/per/sai.h **** 
 101:../../../../DaisyExamples/libDaisy//src/per/sai.h ****     /** Return values for SAI functions */
 102:../../../../DaisyExamples/libDaisy//src/per/sai.h ****     enum class Result
 103:../../../../DaisyExamples/libDaisy//src/per/sai.h ****     {
 104:../../../../DaisyExamples/libDaisy//src/per/sai.h ****         OK,
 105:../../../../DaisyExamples/libDaisy//src/per/sai.h ****         ERR,
 106:../../../../DaisyExamples/libDaisy//src/per/sai.h ****     };
 107:../../../../DaisyExamples/libDaisy//src/per/sai.h **** 
 108:../../../../DaisyExamples/libDaisy//src/per/sai.h ****     SaiHandle() : pimpl_(nullptr) {}
 1273              		.loc 20 108 5 is_stmt 1 view .LVU252
 1274              	.LBE721:
 1275              	.LBE722:
 1276              	.LBE730:
  19:daisy_common.h ****     ~daisyCommon() {}
 1277              		.loc 1 19 19 is_stmt 0 view .LVU253
 1278 0088 C0E95911 		strd	r1, r1, [r0, #356]
 1279 008c C0E95B11 		strd	r1, r1, [r0, #364]
 1280 0090 C0E95D11 		strd	r1, r1, [r0, #372]
 1281 0094 C0E95F11 		strd	r1, r1, [r0, #380]
 1282 0098 C0E96111 		strd	r1, r1, [r0, #388]
 1283 009c C0E96913 		strd	r1, r3, [r0, #420]
 1284 00a0 C0E96B32 		strd	r3, r2, [r0, #428]
 1285 00a4 C0E96311 		strd	r1, r1, [r0, #396]
 1286 00a8 C0E96511 		strd	r1, r1, [r0, #404]
 1287 00ac C0E96711 		strd	r1, r1, [r0, #412]
 1288 00b0 C0E96D22 		strd	r2, r2, [r0, #436]
 1289 00b4 C0E96F22 		strd	r2, r2, [r0, #444]
 1290 00b8 C0E97122 		strd	r2, r2, [r0, #452]
 1291 00bc C0F8CC21 		str	r2, [r0, #460]
 1292 00c0 C0F8F041 		str	r4, [r0, #496]
 1293              	.LVL53:
  19:daisy_common.h ****     ~daisyCommon() {}
 1294              		.loc 1 19 19 view .LVU254
 1295              	.LBE734:
 1296              	.LBE736:
ARM GAS  C:\Users\samue\AppData\Local\Temp\cc1aPeGd.s 			page 51


 1297              	.LBE738:
   9:201_hihat.cpp **** int blocksize = 32;
 1298              		.loc 15 9 13 view .LVU255
 1299 00c4 144A     		ldr	r2, .L38+4
 1300              	.LBB739:
 1301              	.LBB737:
 1302              	.LBB735:
  19:daisy_common.h ****     ~daisyCommon() {}
 1303              		.loc 1 19 19 view .LVU256
 1304 00c6 C0E97411 		strd	r1, r1, [r0, #464]
 1305 00ca C0E97611 		strd	r1, r1, [r0, #472]
 1306 00ce C0E97811 		strd	r1, r1, [r0, #480]
 1307 00d2 C0E97A11 		strd	r1, r1, [r0, #488]
 1308              	.LBE735:
 1309              	.LBE737:
 1310              	.LBE739:
   9:201_hihat.cpp **** int blocksize = 32;
 1311              		.loc 15 9 13 view .LVU257
 1312 00d6 1149     		ldr	r1, .L38+8
 1313 00d8 FFF7FEFF 		bl	__aeabi_atexit
 1314              	.LVL54:
 1315              	.LBB740:
 1316              	.LBI740:
   7:voice.h       ****     ~voice() {}
 1317              		.loc 9 7 5 is_stmt 1 view .LVU258
 1318              	.LBB741:
 1319              	.LBB742:
 1320              	.LBB743:
 1321              	.LBI743:
  42:../../../../DaisyExamples/DaisySP//Source/Control/adenv.h ****     ~AdEnv() {}
 1322              		.loc 14 42 5 view .LVU259
  42:../../../../DaisyExamples/DaisySP//Source/Control/adenv.h ****     ~AdEnv() {}
 1323              		.loc 14 42 5 is_stmt 0 view .LVU260
 1324              	.LBE743:
 1325              	.LBB744:
 1326              	.LBI744:
  29:../../../../DaisyExamples/DaisySP//Source/Filters/svf.h ****     ~Svf() {}
 1327              		.loc 13 29 5 is_stmt 1 view .LVU261
  29:../../../../DaisyExamples/DaisySP//Source/Filters/svf.h ****     ~Svf() {}
 1328              		.loc 13 29 5 is_stmt 0 view .LVU262
 1329              	.LBE744:
 1330              	.LBB745:
 1331              	.LBI745:
  29:../../../../DaisyExamples/DaisySP//Source/Filters/svf.h ****     ~Svf() {}
 1332              		.loc 13 29 5 is_stmt 1 view .LVU263
  29:../../../../DaisyExamples/DaisySP//Source/Filters/svf.h ****     ~Svf() {}
 1333              		.loc 13 29 5 is_stmt 0 view .LVU264
 1334              	.LBE745:
 1335              	.LBB746:
 1336              	.LBI746:
  29:../../../../DaisyExamples/DaisySP//Source/Filters/svf.h ****     ~Svf() {}
 1337              		.loc 13 29 5 is_stmt 1 view .LVU265
  29:../../../../DaisyExamples/DaisySP//Source/Filters/svf.h ****     ~Svf() {}
 1338              		.loc 13 29 5 is_stmt 0 view .LVU266
 1339              	.LBE746:
 1340              	.LBB747:
 1341              	.LBI747:
ARM GAS  C:\Users\samue\AppData\Local\Temp\cc1aPeGd.s 			page 52


  29:../../../../DaisyExamples/DaisySP//Source/Filters/svf.h ****     ~Svf() {}
 1342              		.loc 13 29 5 is_stmt 1 view .LVU267
  29:../../../../DaisyExamples/DaisySP//Source/Filters/svf.h ****     ~Svf() {}
 1343              		.loc 13 29 5 is_stmt 0 view .LVU268
 1344              	.LBE747:
 1345              	.LBB748:
 1346              	.LBI748:
  23:../../../../DaisyExamples/DaisySP//Source/Synthesis/oscillator.h ****     ~Oscillator() {}
 1347              		.loc 12 23 5 is_stmt 1 view .LVU269
  23:../../../../DaisyExamples/DaisySP//Source/Synthesis/oscillator.h ****     ~Oscillator() {}
 1348              		.loc 12 23 5 is_stmt 0 view .LVU270
 1349              	.LBE748:
 1350              	.LBB749:
 1351              	.LBI749:
  23:../../../../DaisyExamples/DaisySP//Source/Synthesis/oscillator.h ****     ~Oscillator() {}
 1352              		.loc 12 23 5 is_stmt 1 view .LVU271
  23:../../../../DaisyExamples/DaisySP//Source/Synthesis/oscillator.h ****     ~Oscillator() {}
 1353              		.loc 12 23 5 is_stmt 0 view .LVU272
 1354              	.LBE749:
 1355              	.LBB750:
 1356              	.LBI750:
  23:../../../../DaisyExamples/DaisySP//Source/Synthesis/oscillator.h ****     ~Oscillator() {}
 1357              		.loc 12 23 5 is_stmt 1 view .LVU273
  23:../../../../DaisyExamples/DaisySP//Source/Synthesis/oscillator.h ****     ~Oscillator() {}
 1358              		.loc 12 23 5 is_stmt 0 view .LVU274
 1359              	.LBE750:
 1360              	.LBB751:
 1361              	.LBI751:
  23:../../../../DaisyExamples/DaisySP//Source/Synthesis/oscillator.h ****     ~Oscillator() {}
 1362              		.loc 12 23 5 is_stmt 1 view .LVU275
  23:../../../../DaisyExamples/DaisySP//Source/Synthesis/oscillator.h ****     ~Oscillator() {}
 1363              		.loc 12 23 5 is_stmt 0 view .LVU276
 1364              	.LBE751:
 1365              	.LBB752:
 1366              	.LBI752:
  23:../../../../DaisyExamples/DaisySP//Source/Synthesis/oscillator.h ****     ~Oscillator() {}
 1367              		.loc 12 23 5 is_stmt 1 view .LVU277
  23:../../../../DaisyExamples/DaisySP//Source/Synthesis/oscillator.h ****     ~Oscillator() {}
 1368              		.loc 12 23 5 is_stmt 0 view .LVU278
 1369              	.LBE752:
 1370              	.LBB753:
 1371              	.LBI753:
  23:../../../../DaisyExamples/DaisySP//Source/Synthesis/oscillator.h ****     ~Oscillator() {}
 1372              		.loc 12 23 5 is_stmt 1 view .LVU279
  23:../../../../DaisyExamples/DaisySP//Source/Synthesis/oscillator.h ****     ~Oscillator() {}
 1373              		.loc 12 23 5 is_stmt 0 view .LVU280
 1374              	.LBE753:
 1375              	.LBB754:
 1376              	.LBI754:
  31:../../../../DaisyExamples/DaisySP//Source/Effects/overdrive.h ****     ~Overdrive() {}
 1377              		.loc 11 31 5 is_stmt 1 view .LVU281
  31:../../../../DaisyExamples/DaisySP//Source/Effects/overdrive.h ****     ~Overdrive() {}
 1378              		.loc 11 31 5 is_stmt 0 view .LVU282
 1379              	.LBE754:
 1380              	.LBB755:
 1381              	.LBI755:
  23:../../../../DaisyExamples/DaisySP//Source/Noise/whitenoise.h ****     ~WhiteNoise() {}
ARM GAS  C:\Users\samue\AppData\Local\Temp\cc1aPeGd.s 			page 53


 1382              		.loc 10 23 5 is_stmt 1 view .LVU283
  23:../../../../DaisyExamples/DaisySP//Source/Noise/whitenoise.h ****     ~WhiteNoise() {}
 1383              		.loc 10 23 5 is_stmt 0 view .LVU284
 1384              	.LBE755:
   7:voice.h       ****     ~voice() {}
 1385              		.loc 9 7 13 view .LVU285
 1386 00dc 1048     		ldr	r0, .L38+12
 1387 00de 114B     		ldr	r3, .L38+16
 1388 00e0 DFF854C0 		ldr	ip, .L38+36
 1389 00e4 C0F88C32 		str	r3, [r0, #652]	@ float
 1390 00e8 0F4B     		ldr	r3, .L38+20
 1391 00ea 1049     		ldr	r1, .L38+24
 1392 00ec C0F888C2 		str	ip, [r0, #648]	@ float
 1393 00f0 C0F89432 		str	r3, [r0, #660]	@ float
 1394 00f4 DFF844C0 		ldr	ip, .L38+40
 1395 00f8 0D4B     		ldr	r3, .L38+28
 1396 00fa C0F89012 		str	r1, [r0, #656]	@ float
 1397              	.LBE742:
 1398              	.LBE741:
 1399              	.LBE740:
  16:201_hihat.cpp **** 
 1400              		.loc 15 16 7 view .LVU286
 1401 00fe 064A     		ldr	r2, .L38+4
 1402 0100 0C49     		ldr	r1, .L38+32
 1403              	.LBB758:
 1404              	.LBB757:
 1405              	.LBB756:
   7:voice.h       ****     ~voice() {}
 1406              		.loc 9 7 13 view .LVU287
 1407 0102 C0F898C2 		str	ip, [r0, #664]	@ float
 1408 0106 C0F89C32 		str	r3, [r0, #668]	@ float
 1409              	.LVL55:
   7:voice.h       ****     ~voice() {}
 1410              		.loc 9 7 13 view .LVU288
 1411              	.LBE756:
 1412              	.LBE757:
 1413              	.LBE758:
 1414              	.LBE759:
 1415              	.LBE761:
 1416              		.loc 15 102 1 view .LVU289
 1417 010a BDE81040 		pop	{r4, lr}
 1418              		.cfi_restore 14
 1419              		.cfi_restore 4
 1420              		.cfi_def_cfa_offset 0
 1421              	.LBB762:
 1422              	.LBB760:
  16:201_hihat.cpp **** 
 1423              		.loc 15 16 7 view .LVU290
 1424 010e FFF7FEBF 		b	__aeabi_atexit
 1425              	.LVL56:
 1426              	.L39:
 1427 0112 00BF     		.align	2
 1428              	.L38:
 1429 0114 00000000 		.word	.LANCHOR1
 1430 0118 00000000 		.word	__dso_handle
 1431 011c 00000000 		.word	_ZN5daisy11daisyCommonD1Ev
 1432 0120 00000000 		.word	.LANCHOR0
ARM GAS  C:\Users\samue\AppData\Local\Temp\cc1aPeGd.s 			page 54


 1433 0124 00009F43 		.word	1134493696
 1434 0128 0080E343 		.word	1138982912
 1435 012c 0080BB43 		.word	1136361472
 1436 0130 00402944 		.word	1143554048
 1437 0134 00000000 		.word	_ZN5voiceD1Ev
 1438 0138 00008443 		.word	1132724224
 1439 013c 00400B44 		.word	1141587968
 1440              	.LBE760:
 1441              	.LBE762:
 1442              		.cfi_endproc
 1443              	.LFE5419:
 1445              		.section	.init_array,"aw",%init_array
 1446              		.align	2
 1447 0000 00000000 		.word	_GLOBAL__sub_I_board(target1)
 1448              		.global	hihat
 1449              		.global	gate_in
 1450              		.global	last_gate_in
 1451              		.global	trigger
 1452              		.global	fs
 1453              		.global	blocksize
 1454              		.global	board
 1455              		.section	.bss.board,"aw",%nobits
 1456              		.align	2
 1457              		.set	.LANCHOR1,. + 0
 1460              	board:
 1461 0000 00000000 		.space	500
 1461      00000000 
 1461      00000000 
 1461      00000000 
 1461      00000000 
 1462              		.section	.bss.gate_in,"aw",%nobits
 1463              		.set	.LANCHOR4,. + 0
 1466              	gate_in:
 1467 0000 00       		.space	1
 1468              		.section	.bss.hihat,"aw",%nobits
 1469              		.align	2
 1470              		.set	.LANCHOR0,. + 0
 1473              	hihat:
 1474 0000 00000000 		.space	672
 1474      00000000 
 1474      00000000 
 1474      00000000 
 1474      00000000 
 1475              		.section	.bss.last_gate_in,"aw",%nobits
 1476              		.set	.LANCHOR5,. + 0
 1479              	last_gate_in:
 1480 0000 00       		.space	1
 1481              		.section	.bss.trigger,"aw",%nobits
 1482              		.set	.LANCHOR6,. + 0
 1485              	trigger:
 1486 0000 00       		.space	1
 1487              		.section	.data.blocksize,"aw"
 1488              		.align	2
 1489              		.set	.LANCHOR2,. + 0
 1492              	blocksize:
 1493 0000 20000000 		.word	32
 1494              		.section	.data.fs,"aw"
ARM GAS  C:\Users\samue\AppData\Local\Temp\cc1aPeGd.s 			page 55


 1495              		.align	2
 1496              		.set	.LANCHOR3,. + 0
 1499              	fs:
 1500 0000 0080BB47 		.word	1203470336
 1501              		.text
 1502              	.Letext0:
 1503              		.file 21 "c:\\program files\\daisytoolchain\\arm-none-eabi\\include\\machine\\_default_types.h"
 1504              		.file 22 "c:\\program files\\daisytoolchain\\arm-none-eabi\\include\\sys\\_stdint.h"
 1505              		.file 23 "c:\\program files\\daisytoolchain\\arm-none-eabi\\include\\stdint.h"
 1506              		.file 24 "c:\\program files\\daisytoolchain\\lib\\gcc\\arm-none-eabi\\10.2.1\\include\\stddef.h"
 1507              		.file 25 "c:\\program files\\daisytoolchain\\arm-none-eabi\\include\\c++\\10.2.1\\cmath"
 1508              		.file 26 "c:\\program files\\daisytoolchain\\arm-none-eabi\\include\\c++\\10.2.1\\bits\\std_abs.h"
 1509              		.file 27 "c:\\program files\\daisytoolchain\\arm-none-eabi\\include\\c++\\10.2.1\\cstdlib"
 1510              		.file 28 "c:\\program files\\daisytoolchain\\arm-none-eabi\\include\\c++\\10.2.1\\cstdint"
 1511              		.file 29 "c:\\program files\\daisytoolchain\\arm-none-eabi\\include\\c++\\10.2.1\\type_traits"
 1512              		.file 30 "c:\\program files\\daisytoolchain\\arm-none-eabi\\include\\c++\\10.2.1\\debug\\debug.h"
 1513              		.file 31 "c:\\program files\\daisytoolchain\\arm-none-eabi\\include\\c++\\10.2.1\\arm-none-eabi\\t
 1514              		.file 32 "c:\\program files\\daisytoolchain\\arm-none-eabi\\include\\c++\\10.2.1\\bits\\algorithmf
 1515              		.file 33 "c:\\program files\\daisytoolchain\\arm-none-eabi\\include\\c++\\10.2.1\\bits\\stl_pair.h
 1516              		.file 34 "c:\\program files\\daisytoolchain\\arm-none-eabi\\include\\c++\\10.2.1\\bits\\exception_
 1517              		.file 35 "c:\\program files\\daisytoolchain\\arm-none-eabi\\include\\c++\\10.2.1\\cstdarg"
 1518              		.file 36 "c:\\program files\\daisytoolchain\\arm-none-eabi\\include\\c++\\10.2.1\\cstdio"
 1519              		.file 37 "c:\\program files\\daisytoolchain\\arm-none-eabi\\include\\c++\\10.2.1\\cstring"
 1520              		.file 38 "c:\\program files\\daisytoolchain\\arm-none-eabi\\include\\c++\\10.2.1\\cwchar"
 1521              		.file 39 "c:\\program files\\daisytoolchain\\arm-none-eabi\\include\\c++\\10.2.1\\clocale"
 1522              		.file 40 "c:\\program files\\daisytoolchain\\arm-none-eabi\\include\\c++\\10.2.1\\bits\\basic_stri
 1523              		.file 41 "c:\\program files\\daisytoolchain\\arm-none-eabi\\include\\c++\\10.2.1\\bits\\stl_tempbu
 1524              		.file 42 "c:\\program files\\daisytoolchain\\arm-none-eabi\\include\\c++\\10.2.1\\bits\\predefined
 1525              		.file 43 "c:\\program files\\daisytoolchain\\arm-none-eabi\\include\\sys\\_types.h"
 1526              		.file 44 "c:\\program files\\daisytoolchain\\arm-none-eabi\\include\\sys\\reent.h"
 1527              		.file 45 "c:\\program files\\daisytoolchain\\arm-none-eabi\\include\\sys\\lock.h"
 1528              		.file 46 "c:\\program files\\daisytoolchain\\arm-none-eabi\\include\\math.h"
 1529              		.file 47 "c:\\program files\\daisytoolchain\\arm-none-eabi\\include\\stdlib.h"
 1530              		.file 48 "c:\\program files\\daisytoolchain\\arm-none-eabi\\include\\c++\\10.2.1\\math.h"
 1531              		.file 49 "c:\\program files\\daisytoolchain\\arm-none-eabi\\include\\c++\\10.2.1\\stdlib.h"
 1532              		.file 50 "../../../../DaisyExamples/libDaisy//src/per/tim.h"
 1533              		.file 51 "../../../../DaisyExamples/libDaisy//src/util/wav_format.h"
 1534              		.file 52 "../../../../DaisyExamples/libDaisy//src/dev/max11300.h"
 1535              		.file 53 "../../../../DaisyExamples/libDaisy//src/dev/sdram.h"
 1536              		.file 54 "c:\\program files\\daisytoolchain\\lib\\gcc\\arm-none-eabi\\10.2.1\\include\\stdarg.h"
 1537              		.file 55 "c:\\program files\\daisytoolchain\\arm-none-eabi\\include\\stdio.h"
 1538              		.file 56 "c:\\program files\\daisytoolchain\\arm-none-eabi\\include\\string.h"
 1539              		.file 57 "../../../../DaisyExamples/DaisySP//Source/Utility/dsp.h"
 1540              		.file 58 "c:\\program files\\daisytoolchain\\arm-none-eabi\\include\\wchar.h"
 1541              		.file 59 "c:\\program files\\daisytoolchain\\arm-none-eabi\\include\\locale.h"
 1542              		.file 60 "<built-in>"
 1543              		.file 61 "../../../../DaisyExamples/libDaisy//src/dev/sr_595.h"
ARM GAS  C:\Users\samue\AppData\Local\Temp\cc1aPeGd.s 			page 56

