ARM GAS  C:\Users\samue\AppData\Local\Temp\ccfB2Gwd.s 			page 1


   1              		.cpu cortex-m7
   2              		.eabi_attribute 28, 1
   3              		.eabi_attribute 20, 1
   4              		.eabi_attribute 21, 1
   5              		.eabi_attribute 23, 3
   6              		.eabi_attribute 24, 1
   7              		.eabi_attribute 25, 1
   8              		.eabi_attribute 26, 1
   9              		.eabi_attribute 30, 2
  10              		.eabi_attribute 34, 1
  11              		.eabi_attribute 18, 4
  12              		.file	"Fractal_eval.cpp"
  13              		.text
  14              	.Ltext0:
  15              		.cfi_sections	.debug_frame
  16              		.section	.text._ZN5daisy11daisyCommonD2Ev,"axG",%progbits,_ZN5daisy11daisyCommonD5Ev,comdat
  17              		.align	1
  18              		.p2align 2,,3
  19              		.weak	_ZN5daisy11daisyCommonD2Ev
  20              		.arch armv7e-m
  21              		.syntax unified
  22              		.thumb
  23              		.thumb_func
  24              		.fpu fpv5-d16
  26              	_ZN5daisy11daisyCommonD2Ev:
  27              	.LVL0:
  28              	.LFB4685:
  29              		.file 1 "daisy_common.h"
   1:daisy_common.h **** /*
   2:daisy_common.h **** * This implements drivers for the Daisy Common Hardware Platform
   3:daisy_common.h **** *
   4:daisy_common.h **** */
   5:daisy_common.h **** 
   6:daisy_common.h **** #include "daisy_seed.h"
   7:daisy_common.h **** #include "daisysp.h"
   8:daisy_common.h **** 
   9:daisy_common.h **** using namespace daisy::seed;
  10:daisy_common.h **** using namespace daisy;
  11:daisy_common.h **** 
  12:daisy_common.h **** 
  13:daisy_common.h **** namespace daisy
  14:daisy_common.h **** {
  15:daisy_common.h **** 
  16:daisy_common.h **** class daisyCommon
  17:daisy_common.h **** {
  18:daisy_common.h ****     public:
  19:daisy_common.h ****     daisyCommon() {}
  20:daisy_common.h ****     ~daisyCommon() {}
  30              		.loc 1 20 5 view -0
  31              		.cfi_startproc
  32              		@ args = 0, pretend = 0, frame = 0
  33              		@ frame_needed = 0, uses_anonymous_args = 0
  34              		@ link register save eliminated.
  35              	.LBB316:
  36              	.LBI316:
  37              		.file 2 "../../../../DaisyExamples/libDaisy//src/daisy_seed.h"
   1:../../../../DaisyExamples/libDaisy//src/daisy_seed.h **** #pragma once
ARM GAS  C:\Users\samue\AppData\Local\Temp\ccfB2Gwd.s 			page 2


   2:../../../../DaisyExamples/libDaisy//src/daisy_seed.h **** #ifndef DSY_SEED_H
   3:../../../../DaisyExamples/libDaisy//src/daisy_seed.h **** #define DSY_SEED_H
   4:../../../../DaisyExamples/libDaisy//src/daisy_seed.h **** 
   5:../../../../DaisyExamples/libDaisy//src/daisy_seed.h **** #include "daisy.h"
   6:../../../../DaisyExamples/libDaisy//src/daisy_seed.h **** 
   7:../../../../DaisyExamples/libDaisy//src/daisy_seed.h **** //Uncomment this out if you're still using the rev2 hardware
   8:../../../../DaisyExamples/libDaisy//src/daisy_seed.h **** //#define SEED_REV2
   9:../../../../DaisyExamples/libDaisy//src/daisy_seed.h **** 
  10:../../../../DaisyExamples/libDaisy//src/daisy_seed.h **** namespace daisy
  11:../../../../DaisyExamples/libDaisy//src/daisy_seed.h **** {
  12:../../../../DaisyExamples/libDaisy//src/daisy_seed.h **** /**
  13:../../../../DaisyExamples/libDaisy//src/daisy_seed.h ****    @brief This is the higher-level interface for the Daisy board. \n 
  14:../../../../DaisyExamples/libDaisy//src/daisy_seed.h ****     All basic peripheral configuration/initialization is setup here. \n
  15:../../../../DaisyExamples/libDaisy//src/daisy_seed.h **** 
  16:../../../../DaisyExamples/libDaisy//src/daisy_seed.h ****    @ingroup boards
  17:../../../../DaisyExamples/libDaisy//src/daisy_seed.h **** */
  18:../../../../DaisyExamples/libDaisy//src/daisy_seed.h **** class DaisySeed
  19:../../../../DaisyExamples/libDaisy//src/daisy_seed.h **** {
  20:../../../../DaisyExamples/libDaisy//src/daisy_seed.h ****   public:
  21:../../../../DaisyExamples/libDaisy//src/daisy_seed.h ****     DaisySeed() {}
  22:../../../../DaisyExamples/libDaisy//src/daisy_seed.h ****     ~DaisySeed() {}
  38              		.loc 2 22 5 view .LVU1
  39              	.LBB317:
  40              	.LBI317:
  41              		.file 3 "../../../../DaisyExamples/libDaisy//src/sys/system.h"
   1:../../../../DaisyExamples/libDaisy//src/sys/system.h **** #ifndef DSY_SYSTEM_H
   2:../../../../DaisyExamples/libDaisy//src/sys/system.h **** #define DSY_SYSTEM_H
   3:../../../../DaisyExamples/libDaisy//src/sys/system.h **** 
   4:../../../../DaisyExamples/libDaisy//src/sys/system.h **** #ifndef UNIT_TEST // for unit tests, a dummy implementation is provided below
   5:../../../../DaisyExamples/libDaisy//src/sys/system.h **** 
   6:../../../../DaisyExamples/libDaisy//src/sys/system.h **** #include <cstdint>
   7:../../../../DaisyExamples/libDaisy//src/sys/system.h **** #include "per/tim.h"
   8:../../../../DaisyExamples/libDaisy//src/sys/system.h **** 
   9:../../../../DaisyExamples/libDaisy//src/sys/system.h **** namespace daisy
  10:../../../../DaisyExamples/libDaisy//src/sys/system.h **** {
  11:../../../../DaisyExamples/libDaisy//src/sys/system.h **** /** A handle for interacting with the Core System.
  12:../../../../DaisyExamples/libDaisy//src/sys/system.h ****  ** This includes the Clock tree, MPU, global DMA initialization,
  13:../../../../DaisyExamples/libDaisy//src/sys/system.h ****  ** cache handling, and any other necessary global initiailzation
  14:../../../../DaisyExamples/libDaisy//src/sys/system.h ****  **
  15:../../../../DaisyExamples/libDaisy//src/sys/system.h ****  ** @author shensley
  16:../../../../DaisyExamples/libDaisy//src/sys/system.h ****  ** @ingroup system
  17:../../../../DaisyExamples/libDaisy//src/sys/system.h ****  */
  18:../../../../DaisyExamples/libDaisy//src/sys/system.h **** class System
  19:../../../../DaisyExamples/libDaisy//src/sys/system.h **** {
  20:../../../../DaisyExamples/libDaisy//src/sys/system.h ****   public:
  21:../../../../DaisyExamples/libDaisy//src/sys/system.h ****     /** Contains settings for initializing the System */
  22:../../../../DaisyExamples/libDaisy//src/sys/system.h ****     struct Config
  23:../../../../DaisyExamples/libDaisy//src/sys/system.h ****     {
  24:../../../../DaisyExamples/libDaisy//src/sys/system.h ****         /** Specifies the system clock frequency that feeds APB/AHB clocks, etc. */
  25:../../../../DaisyExamples/libDaisy//src/sys/system.h ****         enum class SysClkFreq
  26:../../../../DaisyExamples/libDaisy//src/sys/system.h ****         {
  27:../../../../DaisyExamples/libDaisy//src/sys/system.h ****             FREQ_400MHZ,
  28:../../../../DaisyExamples/libDaisy//src/sys/system.h ****             FREQ_480MHZ,
  29:../../../../DaisyExamples/libDaisy//src/sys/system.h ****         };
  30:../../../../DaisyExamples/libDaisy//src/sys/system.h **** 
  31:../../../../DaisyExamples/libDaisy//src/sys/system.h ****         /** Method to call on the struct to set to defaults
  32:../../../../DaisyExamples/libDaisy//src/sys/system.h ****          ** CPU Freq set to 400MHz
ARM GAS  C:\Users\samue\AppData\Local\Temp\ccfB2Gwd.s 			page 3


  33:../../../../DaisyExamples/libDaisy//src/sys/system.h ****          ** Cache Enabled
  34:../../../../DaisyExamples/libDaisy//src/sys/system.h ****          ** */
  35:../../../../DaisyExamples/libDaisy//src/sys/system.h ****         void Defaults()
  36:../../../../DaisyExamples/libDaisy//src/sys/system.h ****         {
  37:../../../../DaisyExamples/libDaisy//src/sys/system.h ****             cpu_freq    = SysClkFreq::FREQ_400MHZ;
  38:../../../../DaisyExamples/libDaisy//src/sys/system.h ****             use_dcache  = true;
  39:../../../../DaisyExamples/libDaisy//src/sys/system.h ****             use_icache  = true;
  40:../../../../DaisyExamples/libDaisy//src/sys/system.h ****             skip_clocks = false;
  41:../../../../DaisyExamples/libDaisy//src/sys/system.h ****         }
  42:../../../../DaisyExamples/libDaisy//src/sys/system.h **** 
  43:../../../../DaisyExamples/libDaisy//src/sys/system.h ****         /** Method to call on the struct to set to boost mode:
  44:../../../../DaisyExamples/libDaisy//src/sys/system.h ****          ** CPU Freq set to 480MHz
  45:../../../../DaisyExamples/libDaisy//src/sys/system.h ****          ** Cache Enabled
  46:../../../../DaisyExamples/libDaisy//src/sys/system.h ****          ** */
  47:../../../../DaisyExamples/libDaisy//src/sys/system.h ****         void Boost()
  48:../../../../DaisyExamples/libDaisy//src/sys/system.h ****         {
  49:../../../../DaisyExamples/libDaisy//src/sys/system.h ****             cpu_freq    = SysClkFreq::FREQ_480MHZ;
  50:../../../../DaisyExamples/libDaisy//src/sys/system.h ****             use_dcache  = true;
  51:../../../../DaisyExamples/libDaisy//src/sys/system.h ****             use_icache  = true;
  52:../../../../DaisyExamples/libDaisy//src/sys/system.h ****             skip_clocks = false;
  53:../../../../DaisyExamples/libDaisy//src/sys/system.h ****         }
  54:../../../../DaisyExamples/libDaisy//src/sys/system.h **** 
  55:../../../../DaisyExamples/libDaisy//src/sys/system.h ****         SysClkFreq cpu_freq;
  56:../../../../DaisyExamples/libDaisy//src/sys/system.h ****         bool       use_dcache;
  57:../../../../DaisyExamples/libDaisy//src/sys/system.h ****         bool       use_icache;
  58:../../../../DaisyExamples/libDaisy//src/sys/system.h ****         bool       skip_clocks;
  59:../../../../DaisyExamples/libDaisy//src/sys/system.h ****     };
  60:../../../../DaisyExamples/libDaisy//src/sys/system.h **** 
  61:../../../../DaisyExamples/libDaisy//src/sys/system.h ****     /** Describes the different regions of memory available to the Daisy */
  62:../../../../DaisyExamples/libDaisy//src/sys/system.h ****     enum MemoryRegion
  63:../../../../DaisyExamples/libDaisy//src/sys/system.h ****     {
  64:../../../../DaisyExamples/libDaisy//src/sys/system.h ****         INTERNAL_FLASH = 0,
  65:../../../../DaisyExamples/libDaisy//src/sys/system.h ****         ITCMRAM,
  66:../../../../DaisyExamples/libDaisy//src/sys/system.h ****         DTCMRAM,
  67:../../../../DaisyExamples/libDaisy//src/sys/system.h ****         SRAM_D1,
  68:../../../../DaisyExamples/libDaisy//src/sys/system.h ****         SRAM_D2,
  69:../../../../DaisyExamples/libDaisy//src/sys/system.h ****         SRAM_D3,
  70:../../../../DaisyExamples/libDaisy//src/sys/system.h ****         SDRAM,
  71:../../../../DaisyExamples/libDaisy//src/sys/system.h ****         QSPI,
  72:../../../../DaisyExamples/libDaisy//src/sys/system.h ****         INVALID_ADDRESS,
  73:../../../../DaisyExamples/libDaisy//src/sys/system.h ****     };
  74:../../../../DaisyExamples/libDaisy//src/sys/system.h **** 
  75:../../../../DaisyExamples/libDaisy//src/sys/system.h ****     /** Bootloader struct for controlling bootloading parameters */
  76:../../../../DaisyExamples/libDaisy//src/sys/system.h ****     struct BootInfo
  77:../../../../DaisyExamples/libDaisy//src/sys/system.h ****     {
  78:../../../../DaisyExamples/libDaisy//src/sys/system.h ****         enum class Type : uint32_t
  79:../../../../DaisyExamples/libDaisy//src/sys/system.h ****         {
  80:../../../../DaisyExamples/libDaisy//src/sys/system.h ****             INVALID      = 0x00000000,
  81:../../../../DaisyExamples/libDaisy//src/sys/system.h ****             JUMP         = 0xDEADBEEF,
  82:../../../../DaisyExamples/libDaisy//src/sys/system.h ****             SKIP_TIMEOUT = 0x5AFEB007,
  83:../../../../DaisyExamples/libDaisy//src/sys/system.h ****             INF_TIMEOUT  = 0xB0074EFA,
  84:../../../../DaisyExamples/libDaisy//src/sys/system.h ****         } status;
  85:../../../../DaisyExamples/libDaisy//src/sys/system.h ****         uint32_t data;
  86:../../../../DaisyExamples/libDaisy//src/sys/system.h ****         enum class Version : uint32_t
  87:../../../../DaisyExamples/libDaisy//src/sys/system.h ****         {
  88:../../../../DaisyExamples/libDaisy//src/sys/system.h ****             LT_v6_0 = 0, // Less than v6.0
  89:../../../../DaisyExamples/libDaisy//src/sys/system.h ****             NONE,        // No bootloader present
ARM GAS  C:\Users\samue\AppData\Local\Temp\ccfB2Gwd.s 			page 4


  90:../../../../DaisyExamples/libDaisy//src/sys/system.h ****             v6_0,        // v6.0
  91:../../../../DaisyExamples/libDaisy//src/sys/system.h ****             v6_1,        // v6.1 or greater
  92:../../../../DaisyExamples/libDaisy//src/sys/system.h ****             LAST
  93:../../../../DaisyExamples/libDaisy//src/sys/system.h ****         } version;
  94:../../../../DaisyExamples/libDaisy//src/sys/system.h ****     };
  95:../../../../DaisyExamples/libDaisy//src/sys/system.h **** 
  96:../../../../DaisyExamples/libDaisy//src/sys/system.h ****     System() {}
  97:../../../../DaisyExamples/libDaisy//src/sys/system.h ****     ~System() {}
  42              		.loc 3 97 5 view .LVU2
  43              		.loc 3 97 5 is_stmt 0 view .LVU3
  44              	.LBE317:
  45              	.LBB318:
  46              	.LBI318:
  47              		.file 4 "../../../../DaisyExamples/libDaisy//src/hid/usb.h"
   1:../../../../DaisyExamples/libDaisy//src/hid/usb.h **** #pragma once
   2:../../../../DaisyExamples/libDaisy//src/hid/usb.h **** #ifndef DSY_HID_USB_H
   3:../../../../DaisyExamples/libDaisy//src/hid/usb.h **** #define DSY_HID_USB_H
   4:../../../../DaisyExamples/libDaisy//src/hid/usb.h **** #include <stdint.h>
   5:../../../../DaisyExamples/libDaisy//src/hid/usb.h **** #include <stdlib.h>
   6:../../../../DaisyExamples/libDaisy//src/hid/usb.h **** 
   7:../../../../DaisyExamples/libDaisy//src/hid/usb.h **** namespace daisy
   8:../../../../DaisyExamples/libDaisy//src/hid/usb.h **** /** @addtogroup human_interface
   9:../../../../DaisyExamples/libDaisy//src/hid/usb.h ****     @{
  10:../../../../DaisyExamples/libDaisy//src/hid/usb.h **** */
  11:../../../../DaisyExamples/libDaisy//src/hid/usb.h **** 
  12:../../../../DaisyExamples/libDaisy//src/hid/usb.h **** {
  13:../../../../DaisyExamples/libDaisy//src/hid/usb.h **** /** 
  14:../../../../DaisyExamples/libDaisy//src/hid/usb.h ****     @brief Interface for initializing and using the USB Peripherals on the daisy
  15:../../../../DaisyExamples/libDaisy//src/hid/usb.h ****     @author Stephen Hensley
  16:../../../../DaisyExamples/libDaisy//src/hid/usb.h ****     @date December 2019
  17:../../../../DaisyExamples/libDaisy//src/hid/usb.h **** */
  18:../../../../DaisyExamples/libDaisy//src/hid/usb.h **** class UsbHandle
  19:../../../../DaisyExamples/libDaisy//src/hid/usb.h **** {
  20:../../../../DaisyExamples/libDaisy//src/hid/usb.h ****   public:
  21:../../../../DaisyExamples/libDaisy//src/hid/usb.h ****     /** Return values for USBHandle Functions */
  22:../../../../DaisyExamples/libDaisy//src/hid/usb.h ****     enum class Result
  23:../../../../DaisyExamples/libDaisy//src/hid/usb.h ****     {
  24:../../../../DaisyExamples/libDaisy//src/hid/usb.h ****         OK,
  25:../../../../DaisyExamples/libDaisy//src/hid/usb.h ****         ERR,
  26:../../../../DaisyExamples/libDaisy//src/hid/usb.h ****     };
  27:../../../../DaisyExamples/libDaisy//src/hid/usb.h **** 
  28:../../../../DaisyExamples/libDaisy//src/hid/usb.h ****     /** Specified which of the two USB Peripherals to initialize. */
  29:../../../../DaisyExamples/libDaisy//src/hid/usb.h ****     enum UsbPeriph
  30:../../../../DaisyExamples/libDaisy//src/hid/usb.h ****     {
  31:../../../../DaisyExamples/libDaisy//src/hid/usb.h ****         FS_INTERNAL, /**< Internal pin */
  32:../../../../DaisyExamples/libDaisy//src/hid/usb.h ****         FS_EXTERNAL, /**< FS External D+ pin is Pin 38 (GPIO32). FS External D- pin is Pin 37 (GPIO
  33:../../../../DaisyExamples/libDaisy//src/hid/usb.h ****         FS_BOTH,     /**< Both */
  34:../../../../DaisyExamples/libDaisy//src/hid/usb.h ****     };
  35:../../../../DaisyExamples/libDaisy//src/hid/usb.h **** 
  36:../../../../DaisyExamples/libDaisy//src/hid/usb.h **** 
  37:../../../../DaisyExamples/libDaisy//src/hid/usb.h ****     /** Function called upon reception of a buffer */
  38:../../../../DaisyExamples/libDaisy//src/hid/usb.h ****     typedef void (*ReceiveCallback)(uint8_t* buff, uint32_t* len);
  39:../../../../DaisyExamples/libDaisy//src/hid/usb.h **** 
  40:../../../../DaisyExamples/libDaisy//src/hid/usb.h ****     UsbHandle() {}
  41:../../../../DaisyExamples/libDaisy//src/hid/usb.h **** 
  42:../../../../DaisyExamples/libDaisy//src/hid/usb.h ****     ~UsbHandle() {}
  48              		.loc 4 42 5 is_stmt 1 view .LVU4
ARM GAS  C:\Users\samue\AppData\Local\Temp\ccfB2Gwd.s 			page 5


  49              		.loc 4 42 5 is_stmt 0 view .LVU5
  50              	.LBE318:
  51              	.LBB319:
  52              	.LBI319:
  53              		.file 5 "../../../../DaisyExamples/libDaisy//src/per/adc.h"
   1:../../../../DaisyExamples/libDaisy//src/per/adc.h **** #pragma once
   2:../../../../DaisyExamples/libDaisy//src/per/adc.h **** #ifndef DSY_ADC_H
   3:../../../../DaisyExamples/libDaisy//src/per/adc.h **** #define DSY_ADC_H /**< Macro */
   4:../../../../DaisyExamples/libDaisy//src/per/adc.h **** #include <stdint.h>
   5:../../../../DaisyExamples/libDaisy//src/per/adc.h **** #include <stdlib.h>
   6:../../../../DaisyExamples/libDaisy//src/per/adc.h **** #include "daisy_core.h"
   7:../../../../DaisyExamples/libDaisy//src/per/adc.h **** #include "per/gpio.h"
   8:../../../../DaisyExamples/libDaisy//src/per/adc.h **** 
   9:../../../../DaisyExamples/libDaisy//src/per/adc.h **** #define DSY_ADC_MAX_CHANNELS 16 /**< Maximum number of ADC channels */
  10:../../../../DaisyExamples/libDaisy//src/per/adc.h **** 
  11:../../../../DaisyExamples/libDaisy//src/per/adc.h **** namespace daisy
  12:../../../../DaisyExamples/libDaisy//src/per/adc.h **** {
  13:../../../../DaisyExamples/libDaisy//src/per/adc.h **** /** @addtogroup per_analog
  14:../../../../DaisyExamples/libDaisy//src/per/adc.h ****     @{
  15:../../../../DaisyExamples/libDaisy//src/per/adc.h **** */
  16:../../../../DaisyExamples/libDaisy//src/per/adc.h **** 
  17:../../../../DaisyExamples/libDaisy//src/per/adc.h **** /* While there may not be many configuration options here,
  18:../../../../DaisyExamples/libDaisy//src/per/adc.h **** using a struct like this allows us to add more configuration
  19:../../../../DaisyExamples/libDaisy//src/per/adc.h **** later without breaking existing functionality.
  20:../../../../DaisyExamples/libDaisy//src/per/adc.h **** */
  21:../../../../DaisyExamples/libDaisy//src/per/adc.h **** 
  22:../../../../DaisyExamples/libDaisy//src/per/adc.h **** /** @brief   Configuration Structure for an ADC Channel 
  23:../../../../DaisyExamples/libDaisy//src/per/adc.h ****  *  @details This can be used to configure a a single input, 
  24:../../../../DaisyExamples/libDaisy//src/per/adc.h ****  *           or a multiplexed input, allowing up to 8 inputs on 
  25:../../../../DaisyExamples/libDaisy//src/per/adc.h ****  *           one channel.
  26:../../../../DaisyExamples/libDaisy//src/per/adc.h ****  *  @note    Sharing data lines to multiple muxes _is_ possible, but
  27:../../../../DaisyExamples/libDaisy//src/per/adc.h ****  *           each channel sharing data lines must be set to the maximum
  28:../../../../DaisyExamples/libDaisy//src/per/adc.h ****  *           number of channels, even if some multiplexers have fewer
  29:../../../../DaisyExamples/libDaisy//src/per/adc.h ****  *           inputs connected.
  30:../../../../DaisyExamples/libDaisy//src/per/adc.h **** */
  31:../../../../DaisyExamples/libDaisy//src/per/adc.h **** struct AdcChannelConfig
  32:../../../../DaisyExamples/libDaisy//src/per/adc.h **** {
  33:../../../../DaisyExamples/libDaisy//src/per/adc.h ****     /** Which pin to use for multiplexing */
  34:../../../../DaisyExamples/libDaisy//src/per/adc.h ****     enum MuxPin
  35:../../../../DaisyExamples/libDaisy//src/per/adc.h ****     {
  36:../../../../DaisyExamples/libDaisy//src/per/adc.h ****         MUX_SEL_0,    /**< & */
  37:../../../../DaisyExamples/libDaisy//src/per/adc.h ****         MUX_SEL_1,    /**< & */
  38:../../../../DaisyExamples/libDaisy//src/per/adc.h ****         MUX_SEL_2,    /**< & */
  39:../../../../DaisyExamples/libDaisy//src/per/adc.h ****         MUX_SEL_LAST, /**< & */
  40:../../../../DaisyExamples/libDaisy//src/per/adc.h ****     };
  41:../../../../DaisyExamples/libDaisy//src/per/adc.h **** 
  42:../../../../DaisyExamples/libDaisy//src/per/adc.h ****     /** \brief per channel conversion speed added to fixed time based on bitdepth, etc. */
  43:../../../../DaisyExamples/libDaisy//src/per/adc.h ****     enum ConversionSpeed
  44:../../../../DaisyExamples/libDaisy//src/per/adc.h ****     {
  45:../../../../DaisyExamples/libDaisy//src/per/adc.h ****         SPEED_1CYCLES_5,
  46:../../../../DaisyExamples/libDaisy//src/per/adc.h ****         SPEED_2CYCLES_5,
  47:../../../../DaisyExamples/libDaisy//src/per/adc.h ****         SPEED_8CYCLES_5,
  48:../../../../DaisyExamples/libDaisy//src/per/adc.h ****         SPEED_16CYCLES_5,
  49:../../../../DaisyExamples/libDaisy//src/per/adc.h ****         SPEED_32CYCLES_5,
  50:../../../../DaisyExamples/libDaisy//src/per/adc.h ****         SPEED_64CYCLES_5,
  51:../../../../DaisyExamples/libDaisy//src/per/adc.h ****         SPEED_387CYCLES_5,
  52:../../../../DaisyExamples/libDaisy//src/per/adc.h ****         SPEED_810CYCLES_5,
ARM GAS  C:\Users\samue\AppData\Local\Temp\ccfB2Gwd.s 			page 6


  53:../../../../DaisyExamples/libDaisy//src/per/adc.h ****     };
  54:../../../../DaisyExamples/libDaisy//src/per/adc.h **** 
  55:../../../../DaisyExamples/libDaisy//src/per/adc.h ****     /** Initializes a single ADC pin as an ADC. 
  56:../../../../DaisyExamples/libDaisy//src/per/adc.h ****     \param pin Pin to init.
  57:../../../../DaisyExamples/libDaisy//src/per/adc.h ****     \param speed conversion speed for this pin defaults to 8.5 cycles
  58:../../../../DaisyExamples/libDaisy//src/per/adc.h ****      */
  59:../../../../DaisyExamples/libDaisy//src/per/adc.h ****     void InitSingle(dsy_gpio_pin pin, ConversionSpeed speed = SPEED_8CYCLES_5);
  60:../../../../DaisyExamples/libDaisy//src/per/adc.h **** 
  61:../../../../DaisyExamples/libDaisy//src/per/adc.h ****     /** 
  62:../../../../DaisyExamples/libDaisy//src/per/adc.h ****     Initializes a single ADC pin as a Multiplexed ADC.
  63:../../../../DaisyExamples/libDaisy//src/per/adc.h ****     Requires a CD405X Multiplexer connected to the pin.
  64:../../../../DaisyExamples/libDaisy//src/per/adc.h ****     You only need to supply the mux pins that are required,
  65:../../../../DaisyExamples/libDaisy//src/per/adc.h ****     e.g. a 4052 mux would only require mux_0 and mux_1.
  66:../../../../DaisyExamples/libDaisy//src/per/adc.h ****     Internal Callbacks handle the pin addressing.
  67:../../../../DaisyExamples/libDaisy//src/per/adc.h ****     \param adc_pin &
  68:../../../../DaisyExamples/libDaisy//src/per/adc.h ****     \param mux_channels must be 1-8
  69:../../../../DaisyExamples/libDaisy//src/per/adc.h ****     \param mux_0 First mux pin
  70:../../../../DaisyExamples/libDaisy//src/per/adc.h ****     \param mux_1 Second mux pin
  71:../../../../DaisyExamples/libDaisy//src/per/adc.h ****     \param mux_2 Third mux pin
  72:../../../../DaisyExamples/libDaisy//src/per/adc.h ****     \param speed conversion speed for this pin defaults to 8.5 cycles
  73:../../../../DaisyExamples/libDaisy//src/per/adc.h ****     */
  74:../../../../DaisyExamples/libDaisy//src/per/adc.h ****     void InitMux(dsy_gpio_pin    adc_pin,
  75:../../../../DaisyExamples/libDaisy//src/per/adc.h ****                  size_t          mux_channels,
  76:../../../../DaisyExamples/libDaisy//src/per/adc.h ****                  dsy_gpio_pin    mux_0,
  77:../../../../DaisyExamples/libDaisy//src/per/adc.h ****                  dsy_gpio_pin    mux_1 = {DSY_GPIOX, 0},
  78:../../../../DaisyExamples/libDaisy//src/per/adc.h ****                  dsy_gpio_pin    mux_2 = {DSY_GPIOX, 0},
  79:../../../../DaisyExamples/libDaisy//src/per/adc.h ****                  ConversionSpeed speed = SPEED_8CYCLES_5);
  80:../../../../DaisyExamples/libDaisy//src/per/adc.h **** 
  81:../../../../DaisyExamples/libDaisy//src/per/adc.h ****     dsy_gpio        pin_;                   /**< & */
  82:../../../../DaisyExamples/libDaisy//src/per/adc.h ****     dsy_gpio        mux_pin_[MUX_SEL_LAST]; /**< & */
  83:../../../../DaisyExamples/libDaisy//src/per/adc.h ****     uint8_t         mux_channels_;          /**< & */
  84:../../../../DaisyExamples/libDaisy//src/per/adc.h ****     ConversionSpeed speed_;
  85:../../../../DaisyExamples/libDaisy//src/per/adc.h **** };
  86:../../../../DaisyExamples/libDaisy//src/per/adc.h **** 
  87:../../../../DaisyExamples/libDaisy//src/per/adc.h **** /**
  88:../../../../DaisyExamples/libDaisy//src/per/adc.h ****    @brief Handler for analog to digital conversion
  89:../../../../DaisyExamples/libDaisy//src/per/adc.h **** */
  90:../../../../DaisyExamples/libDaisy//src/per/adc.h **** class AdcHandle
  91:../../../../DaisyExamples/libDaisy//src/per/adc.h **** {
  92:../../../../DaisyExamples/libDaisy//src/per/adc.h ****   public:
  93:../../../../DaisyExamples/libDaisy//src/per/adc.h ****     /** Supported oversampling amounts */
  94:../../../../DaisyExamples/libDaisy//src/per/adc.h ****     enum OverSampling
  95:../../../../DaisyExamples/libDaisy//src/per/adc.h ****     {
  96:../../../../DaisyExamples/libDaisy//src/per/adc.h ****         OVS_NONE, /**< & */
  97:../../../../DaisyExamples/libDaisy//src/per/adc.h ****         OVS_4,    /**< & */
  98:../../../../DaisyExamples/libDaisy//src/per/adc.h ****         OVS_8,    /**< & */
  99:../../../../DaisyExamples/libDaisy//src/per/adc.h ****         OVS_16,   /**< & */
 100:../../../../DaisyExamples/libDaisy//src/per/adc.h ****         OVS_32,   /**< & */
 101:../../../../DaisyExamples/libDaisy//src/per/adc.h ****         OVS_64,   /**< & */
 102:../../../../DaisyExamples/libDaisy//src/per/adc.h ****         OVS_128,  /**< & */
 103:../../../../DaisyExamples/libDaisy//src/per/adc.h ****         OVS_256,  /**< & */
 104:../../../../DaisyExamples/libDaisy//src/per/adc.h ****         OVS_512,  /**< & */
 105:../../../../DaisyExamples/libDaisy//src/per/adc.h ****         OVS_1024, /**< & */
 106:../../../../DaisyExamples/libDaisy//src/per/adc.h ****         OVS_LAST, /**< & */
 107:../../../../DaisyExamples/libDaisy//src/per/adc.h ****     };
 108:../../../../DaisyExamples/libDaisy//src/per/adc.h **** 
 109:../../../../DaisyExamples/libDaisy//src/per/adc.h ****     AdcHandle() {}
ARM GAS  C:\Users\samue\AppData\Local\Temp\ccfB2Gwd.s 			page 7


 110:../../../../DaisyExamples/libDaisy//src/per/adc.h ****     ~AdcHandle() {}
  54              		.loc 5 110 5 is_stmt 1 view .LVU6
  55              		.loc 5 110 5 is_stmt 0 view .LVU7
  56              	.LBE319:
  57              	.LBB320:
  58              	.LBI320:
  59              		.file 6 "../../../../DaisyExamples/libDaisy//src/hid/audio.h"
   1:../../../../DaisyExamples/libDaisy//src/hid/audio.h **** #ifndef DSY_AUDIO_H
   2:../../../../DaisyExamples/libDaisy//src/hid/audio.h **** #define DSY_AUDIO_H /**< & */
   3:../../../../DaisyExamples/libDaisy//src/hid/audio.h **** 
   4:../../../../DaisyExamples/libDaisy//src/hid/audio.h **** #include "per/sai.h"
   5:../../../../DaisyExamples/libDaisy//src/hid/audio.h **** 
   6:../../../../DaisyExamples/libDaisy//src/hid/audio.h **** namespace daisy
   7:../../../../DaisyExamples/libDaisy//src/hid/audio.h **** {
   8:../../../../DaisyExamples/libDaisy//src/hid/audio.h **** /** @brief Audio Engine Handle
   9:../../../../DaisyExamples/libDaisy//src/hid/audio.h ****  *  @ingroup audio 
  10:../../../../DaisyExamples/libDaisy//src/hid/audio.h ****  *  @details This class allows for higher level access to an audio engine.
  11:../../../../DaisyExamples/libDaisy//src/hid/audio.h ****  *           If you're using a SOM like the DaisySeed or DaisyPatchSM (or any 
  12:../../../../DaisyExamples/libDaisy//src/hid/audio.h ****  *            board that includes one of those objects) then the intialization
  13:../../../../DaisyExamples/libDaisy//src/hid/audio.h ****  *            is already taken  care of.
  14:../../../../DaisyExamples/libDaisy//src/hid/audio.h ****  *           If you're setting up your own custom hardware, or need to make changes
  15:../../../../DaisyExamples/libDaisy//src/hid/audio.h ****  *           you will have to take the following steps:
  16:../../../../DaisyExamples/libDaisy//src/hid/audio.h ****  *             1. Create and Initialize an SaiHandle or two depending on your requirements
  17:../../../../DaisyExamples/libDaisy//src/hid/audio.h ****  *             2. Initialize the Audio Handle with the desired settings and the Initialized SaiHand
  18:../../../../DaisyExamples/libDaisy//src/hid/audio.h ****  *             3. If the connected codec requires special configuration or initialization, do so
  19:../../../../DaisyExamples/libDaisy//src/hid/audio.h ****  *             4. Write a callback method using either the AudioCallback or the InterleavingAudioCa
  20:../../../../DaisyExamples/libDaisy//src/hid/audio.h ****  *             5. Start the Audio using one of the StartAudio function
  21:../../../../DaisyExamples/libDaisy//src/hid/audio.h ****  */
  22:../../../../DaisyExamples/libDaisy//src/hid/audio.h **** class AudioHandle
  23:../../../../DaisyExamples/libDaisy//src/hid/audio.h **** {
  24:../../../../DaisyExamples/libDaisy//src/hid/audio.h ****   public:
  25:../../../../DaisyExamples/libDaisy//src/hid/audio.h ****     /** Manually configurable details about the Audio Engine */
  26:../../../../DaisyExamples/libDaisy//src/hid/audio.h ****     /** TODO: Figure out how to get samplerate in here. */
  27:../../../../DaisyExamples/libDaisy//src/hid/audio.h ****     struct Config
  28:../../../../DaisyExamples/libDaisy//src/hid/audio.h ****     {
  29:../../../../DaisyExamples/libDaisy//src/hid/audio.h ****         /** number of samples to process per callback */
  30:../../../../DaisyExamples/libDaisy//src/hid/audio.h ****         size_t blocksize;
  31:../../../../DaisyExamples/libDaisy//src/hid/audio.h **** 
  32:../../../../DaisyExamples/libDaisy//src/hid/audio.h ****         /**< Sample rate of audio */
  33:../../../../DaisyExamples/libDaisy//src/hid/audio.h ****         SaiHandle::Config::SampleRate samplerate;
  34:../../../../DaisyExamples/libDaisy//src/hid/audio.h **** 
  35:../../../../DaisyExamples/libDaisy//src/hid/audio.h ****         /** factor for adjustment before and after callback for hardware that may have extra headro
  36:../../../../DaisyExamples/libDaisy//src/hid/audio.h ****         float postgain;
  37:../../../../DaisyExamples/libDaisy//src/hid/audio.h **** 
  38:../../../../DaisyExamples/libDaisy//src/hid/audio.h ****         /** factor for additional one-sided compensation to audio path for hardware that may
  39:../../../../DaisyExamples/libDaisy//src/hid/audio.h ****          *  have unequal input/output ranges
  40:../../../../DaisyExamples/libDaisy//src/hid/audio.h ****          */
  41:../../../../DaisyExamples/libDaisy//src/hid/audio.h ****         float output_compensation;
  42:../../../../DaisyExamples/libDaisy//src/hid/audio.h **** 
  43:../../../../DaisyExamples/libDaisy//src/hid/audio.h ****         /** Sets default values for config struct */
  44:../../../../DaisyExamples/libDaisy//src/hid/audio.h ****         Config()
  45:../../../../DaisyExamples/libDaisy//src/hid/audio.h ****         : blocksize(48),
  46:../../../../DaisyExamples/libDaisy//src/hid/audio.h ****           samplerate(SaiHandle::Config::SampleRate::SAI_48KHZ),
  47:../../../../DaisyExamples/libDaisy//src/hid/audio.h ****           postgain(1.f),
  48:../../../../DaisyExamples/libDaisy//src/hid/audio.h ****           output_compensation(1.f)
  49:../../../../DaisyExamples/libDaisy//src/hid/audio.h ****         {
  50:../../../../DaisyExamples/libDaisy//src/hid/audio.h ****         }
ARM GAS  C:\Users\samue\AppData\Local\Temp\ccfB2Gwd.s 			page 8


  51:../../../../DaisyExamples/libDaisy//src/hid/audio.h ****     };
  52:../../../../DaisyExamples/libDaisy//src/hid/audio.h **** 
  53:../../../../DaisyExamples/libDaisy//src/hid/audio.h ****     enum class Result
  54:../../../../DaisyExamples/libDaisy//src/hid/audio.h ****     {
  55:../../../../DaisyExamples/libDaisy//src/hid/audio.h ****         OK,
  56:../../../../DaisyExamples/libDaisy//src/hid/audio.h ****         ERR,
  57:../../../../DaisyExamples/libDaisy//src/hid/audio.h ****     };
  58:../../../../DaisyExamples/libDaisy//src/hid/audio.h **** 
  59:../../../../DaisyExamples/libDaisy//src/hid/audio.h ****     /** Non-Interleaving input buffer
  60:../../../../DaisyExamples/libDaisy//src/hid/audio.h ****      * Buffer arranged by float[chn][sample] 
  61:../../../../DaisyExamples/libDaisy//src/hid/audio.h ****      * const so that the user can't modify the input
  62:../../../../DaisyExamples/libDaisy//src/hid/audio.h ****      */
  63:../../../../DaisyExamples/libDaisy//src/hid/audio.h ****     typedef const float* const* InputBuffer;
  64:../../../../DaisyExamples/libDaisy//src/hid/audio.h **** 
  65:../../../../DaisyExamples/libDaisy//src/hid/audio.h ****     /** Non-Interleaving output buffer
  66:../../../../DaisyExamples/libDaisy//src/hid/audio.h ****      * Arranged by float[chn][sample] 
  67:../../../../DaisyExamples/libDaisy//src/hid/audio.h ****      */
  68:../../../../DaisyExamples/libDaisy//src/hid/audio.h ****     typedef float** OutputBuffer;
  69:../../../../DaisyExamples/libDaisy//src/hid/audio.h **** 
  70:../../../../DaisyExamples/libDaisy//src/hid/audio.h ****     /** Type for a Non-Interleaving audio callback 
  71:../../../../DaisyExamples/libDaisy//src/hid/audio.h ****      * Non-Interleaving audio callbacks in daisy will be of this type
  72:../../../../DaisyExamples/libDaisy//src/hid/audio.h ****      */
  73:../../../../DaisyExamples/libDaisy//src/hid/audio.h ****     typedef void (*AudioCallback)(InputBuffer  in,
  74:../../../../DaisyExamples/libDaisy//src/hid/audio.h ****                                   OutputBuffer out,
  75:../../../../DaisyExamples/libDaisy//src/hid/audio.h ****                                   size_t       size);
  76:../../../../DaisyExamples/libDaisy//src/hid/audio.h **** 
  77:../../../../DaisyExamples/libDaisy//src/hid/audio.h ****     /** Interleaving Input buffer
  78:../../../../DaisyExamples/libDaisy//src/hid/audio.h ****      ** audio is prepared as { L0, R0, L1, R1, . . . LN, RN }]
  79:../../../../DaisyExamples/libDaisy//src/hid/audio.h ****      ** this is const, as the user shouldn't modify it
  80:../../../../DaisyExamples/libDaisy//src/hid/audio.h ****     */
  81:../../../../DaisyExamples/libDaisy//src/hid/audio.h ****     typedef const float* InterleavingInputBuffer;
  82:../../../../DaisyExamples/libDaisy//src/hid/audio.h **** 
  83:../../../../DaisyExamples/libDaisy//src/hid/audio.h ****     /** Interleaving Output buffer 
  84:../../../../DaisyExamples/libDaisy//src/hid/audio.h ****      ** audio is prepared as { L0, R0, L1, R1, . . . LN, RN }
  85:../../../../DaisyExamples/libDaisy//src/hid/audio.h ****     */
  86:../../../../DaisyExamples/libDaisy//src/hid/audio.h ****     typedef float* InterleavingOutputBuffer;
  87:../../../../DaisyExamples/libDaisy//src/hid/audio.h **** 
  88:../../../../DaisyExamples/libDaisy//src/hid/audio.h ****     /** Interleaving Audio Callback 
  89:../../../../DaisyExamples/libDaisy//src/hid/audio.h ****      * Interleaving audio callbacks in daisy must be of this type
  90:../../../../DaisyExamples/libDaisy//src/hid/audio.h ****      */
  91:../../../../DaisyExamples/libDaisy//src/hid/audio.h ****     typedef void (*InterleavingAudioCallback)(InterleavingInputBuffer  in,
  92:../../../../DaisyExamples/libDaisy//src/hid/audio.h ****                                               InterleavingOutputBuffer out,
  93:../../../../DaisyExamples/libDaisy//src/hid/audio.h ****                                               size_t                   size);
  94:../../../../DaisyExamples/libDaisy//src/hid/audio.h **** 
  95:../../../../DaisyExamples/libDaisy//src/hid/audio.h ****     AudioHandle() : pimpl_(nullptr) {}
  96:../../../../DaisyExamples/libDaisy//src/hid/audio.h ****     ~AudioHandle() {}
  60              		.loc 6 96 5 is_stmt 1 view .LVU8
  61              		.loc 6 96 5 is_stmt 0 view .LVU9
  62              	.LBE320:
  63              	.LBE316:
  64              	.LBB321:
  65              	.LBI321:
  66              		.file 7 "../../../../DaisyExamples/libDaisy//src/hid/switch.h"
   1:../../../../DaisyExamples/libDaisy//src/hid/switch.h **** #pragma once
   2:../../../../DaisyExamples/libDaisy//src/hid/switch.h **** #ifndef DSY_SWITCH_H
   3:../../../../DaisyExamples/libDaisy//src/hid/switch.h **** #define DSY_SWITCH_H
   4:../../../../DaisyExamples/libDaisy//src/hid/switch.h **** #include "daisy_core.h"
ARM GAS  C:\Users\samue\AppData\Local\Temp\ccfB2Gwd.s 			page 9


   5:../../../../DaisyExamples/libDaisy//src/hid/switch.h **** #include "per/gpio.h"
   6:../../../../DaisyExamples/libDaisy//src/hid/switch.h **** #include "sys/system.h"
   7:../../../../DaisyExamples/libDaisy//src/hid/switch.h **** 
   8:../../../../DaisyExamples/libDaisy//src/hid/switch.h **** namespace daisy
   9:../../../../DaisyExamples/libDaisy//src/hid/switch.h **** {
  10:../../../../DaisyExamples/libDaisy//src/hid/switch.h **** /** 
  11:../../../../DaisyExamples/libDaisy//src/hid/switch.h ****     Generic Class for handling momentary/latching switches \n 
  12:../../../../DaisyExamples/libDaisy//src/hid/switch.h ****     Inspired/influenced by Mutable Instruments (pichenettes) Switch classes
  13:../../../../DaisyExamples/libDaisy//src/hid/switch.h ****     @author Stephen Hensley
  14:../../../../DaisyExamples/libDaisy//src/hid/switch.h ****     @date December 2019
  15:../../../../DaisyExamples/libDaisy//src/hid/switch.h ****     @ingroup controls
  16:../../../../DaisyExamples/libDaisy//src/hid/switch.h **** */
  17:../../../../DaisyExamples/libDaisy//src/hid/switch.h **** class Switch
  18:../../../../DaisyExamples/libDaisy//src/hid/switch.h **** {
  19:../../../../DaisyExamples/libDaisy//src/hid/switch.h ****   public:
  20:../../../../DaisyExamples/libDaisy//src/hid/switch.h ****     /** Specifies the expected behavior of the switch */
  21:../../../../DaisyExamples/libDaisy//src/hid/switch.h ****     enum Type
  22:../../../../DaisyExamples/libDaisy//src/hid/switch.h ****     {
  23:../../../../DaisyExamples/libDaisy//src/hid/switch.h ****         TYPE_TOGGLE,    /**< & */
  24:../../../../DaisyExamples/libDaisy//src/hid/switch.h ****         TYPE_MOMENTARY, /**< & */
  25:../../../../DaisyExamples/libDaisy//src/hid/switch.h ****     };
  26:../../../../DaisyExamples/libDaisy//src/hid/switch.h ****     /** Specifies whether the pressed is HIGH or LOW. */
  27:../../../../DaisyExamples/libDaisy//src/hid/switch.h ****     enum Polarity
  28:../../../../DaisyExamples/libDaisy//src/hid/switch.h ****     {
  29:../../../../DaisyExamples/libDaisy//src/hid/switch.h ****         POLARITY_NORMAL,   /**< & */
  30:../../../../DaisyExamples/libDaisy//src/hid/switch.h ****         POLARITY_INVERTED, /**< & */
  31:../../../../DaisyExamples/libDaisy//src/hid/switch.h ****     };
  32:../../../../DaisyExamples/libDaisy//src/hid/switch.h **** 
  33:../../../../DaisyExamples/libDaisy//src/hid/switch.h ****     /** Specifies whether to use built-in Pull Up/Down resistors to hold button at a given state wh
  34:../../../../DaisyExamples/libDaisy//src/hid/switch.h ****     enum Pull
  35:../../../../DaisyExamples/libDaisy//src/hid/switch.h ****     {
  36:../../../../DaisyExamples/libDaisy//src/hid/switch.h ****         PULL_UP,   /**< & */
  37:../../../../DaisyExamples/libDaisy//src/hid/switch.h ****         PULL_DOWN, /**< & */
  38:../../../../DaisyExamples/libDaisy//src/hid/switch.h ****         PULL_NONE, /**< & */
  39:../../../../DaisyExamples/libDaisy//src/hid/switch.h ****     };
  40:../../../../DaisyExamples/libDaisy//src/hid/switch.h **** 
  41:../../../../DaisyExamples/libDaisy//src/hid/switch.h ****     Switch() {}
  42:../../../../DaisyExamples/libDaisy//src/hid/switch.h ****     ~Switch() {}
  67              		.loc 7 42 5 is_stmt 1 view .LVU10
  68              		.loc 7 42 5 is_stmt 0 view .LVU11
  69              	.LBE321:
  70              	.LBB322:
  71              	.LBI322:
  72              		.file 8 "../../../../DaisyExamples/libDaisy//src/hid/switch3.h"
   1:../../../../DaisyExamples/libDaisy//src/hid/switch3.h **** #pragma once
   2:../../../../DaisyExamples/libDaisy//src/hid/switch3.h **** #include "daisy_core.h"
   3:../../../../DaisyExamples/libDaisy//src/hid/switch3.h **** #include "per/gpio.h"
   4:../../../../DaisyExamples/libDaisy//src/hid/switch3.h **** 
   5:../../../../DaisyExamples/libDaisy//src/hid/switch3.h **** namespace daisy
   6:../../../../DaisyExamples/libDaisy//src/hid/switch3.h **** {
   7:../../../../DaisyExamples/libDaisy//src/hid/switch3.h **** class Switch3
   8:../../../../DaisyExamples/libDaisy//src/hid/switch3.h **** {
   9:../../../../DaisyExamples/libDaisy//src/hid/switch3.h ****   public:
  10:../../../../DaisyExamples/libDaisy//src/hid/switch3.h ****     enum
  11:../../../../DaisyExamples/libDaisy//src/hid/switch3.h ****     {
  12:../../../../DaisyExamples/libDaisy//src/hid/switch3.h ****         POS_CENTER = 0,
  13:../../../../DaisyExamples/libDaisy//src/hid/switch3.h ****         POS_LEFT   = 1,
ARM GAS  C:\Users\samue\AppData\Local\Temp\ccfB2Gwd.s 			page 10


  14:../../../../DaisyExamples/libDaisy//src/hid/switch3.h ****         POS_UP     = 1,
  15:../../../../DaisyExamples/libDaisy//src/hid/switch3.h ****         POS_RIGHT  = 2,
  16:../../../../DaisyExamples/libDaisy//src/hid/switch3.h ****         POS_DOWN   = 2,
  17:../../../../DaisyExamples/libDaisy//src/hid/switch3.h ****     };
  18:../../../../DaisyExamples/libDaisy//src/hid/switch3.h **** 
  19:../../../../DaisyExamples/libDaisy//src/hid/switch3.h **** 
  20:../../../../DaisyExamples/libDaisy//src/hid/switch3.h ****     Switch3() {}
  21:../../../../DaisyExamples/libDaisy//src/hid/switch3.h ****     ~Switch3() {}
  73              		.loc 8 21 5 is_stmt 1 view .LVU12
  74              		.loc 8 21 5 is_stmt 0 view .LVU13
  75              	.LBE322:
  76              	.LBB323:
  77              	.LBI323:
  78              		.loc 8 21 5 is_stmt 1 view .LVU14
  79              		.loc 8 21 5 is_stmt 0 view .LVU15
  80              	.LBE323:
  81              		.loc 1 20 21 view .LVU16
  82 0000 7047     		bx	lr
  83              		.cfi_endproc
  84              	.LFE4685:
  86              		.weak	_ZN5daisy11daisyCommonD1Ev
  87              		.thumb_set _ZN5daisy11daisyCommonD1Ev,_ZN5daisy11daisyCommonD2Ev
  88 0002 00BF     		.section	.text.__tcf_0,"ax",%progbits
  89              		.align	1
  90              		.p2align 2,,3
  91              		.syntax unified
  92              		.thumb
  93              		.thumb_func
  94              		.fpu fpv5-d16
  96              	__tcf_0:
  97              	.LFB5258:
  98              		.file 9 "Fractal_eval.cpp"
   1:Fractal_eval.cpp **** #include "daisy_seed.h"
   2:Fractal_eval.cpp **** #include "daisysp.h"
   3:Fractal_eval.cpp **** #include "daisy_common.h"
   4:Fractal_eval.cpp **** 
   5:Fractal_eval.cpp **** using namespace daisy;
   6:Fractal_eval.cpp **** using namespace daisysp;
   7:Fractal_eval.cpp **** 
   8:Fractal_eval.cpp **** daisyCommon board;
   9:Fractal_eval.cpp **** 
  10:Fractal_eval.cpp **** FractalRandomGenerator<ClockedNoise, 5> fract;
  11:Fractal_eval.cpp **** Oscillator                              lfo[2];
  99              		.loc 9 11 41 is_stmt 1 view -0
 100              		.cfi_startproc
 101              		@ args = 0, pretend = 0, frame = 0
 102              		@ frame_needed = 0, uses_anonymous_args = 0
 103              		@ link register save eliminated.
 104              		.loc 9 11 41 is_stmt 0 view .LVU18
 105 0000 7047     		bx	lr
 106              		.cfi_endproc
 107              	.LFE5258:
 109 0002 00BF     		.section	.text._ZN7daisysp22FractalRandomGeneratorINS_12ClockedNoiseELi5EED2Ev,"axG",%progbits,_ZN
 110              		.align	1
 111              		.p2align 2,,3
 112              		.weak	_ZN7daisysp22FractalRandomGeneratorINS_12ClockedNoiseELi5EED2Ev
 113              		.syntax unified
ARM GAS  C:\Users\samue\AppData\Local\Temp\ccfB2Gwd.s 			page 11


 114              		.thumb
 115              		.thumb_func
 116              		.fpu fpv5-d16
 118              	_ZN7daisysp22FractalRandomGeneratorINS_12ClockedNoiseELi5EED2Ev:
 119              	.LVL1:
 120              	.LFB5260:
 121              		.file 10 "../../../../DaisyExamples/DaisySP//Source/Noise/fractal_noise.h"
   1:../../../../DaisyExamples/DaisySP//Source/Noise/fractal_noise.h **** /*
   2:../../../../DaisyExamples/DaisySP//Source/Noise/fractal_noise.h **** Copyright (c) 2020 Electrosmith, Corp, Emilie Gillet
   3:../../../../DaisyExamples/DaisySP//Source/Noise/fractal_noise.h **** 
   4:../../../../DaisyExamples/DaisySP//Source/Noise/fractal_noise.h **** Use of this source code is governed by an MIT-style
   5:../../../../DaisyExamples/DaisySP//Source/Noise/fractal_noise.h **** license that can be found in the LICENSE file or at
   6:../../../../DaisyExamples/DaisySP//Source/Noise/fractal_noise.h **** https://opensource.org/licenses/MIT.
   7:../../../../DaisyExamples/DaisySP//Source/Noise/fractal_noise.h **** */
   8:../../../../DaisyExamples/DaisySP//Source/Noise/fractal_noise.h **** 
   9:../../../../DaisyExamples/DaisySP//Source/Noise/fractal_noise.h **** #pragma once
  10:../../../../DaisyExamples/DaisySP//Source/Noise/fractal_noise.h **** #ifndef DSY_FRACTAL_H
  11:../../../../DaisyExamples/DaisySP//Source/Noise/fractal_noise.h **** #define DSY_FRACTAL_H
  12:../../../../DaisyExamples/DaisySP//Source/Noise/fractal_noise.h **** 
  13:../../../../DaisyExamples/DaisySP//Source/Noise/fractal_noise.h **** #include <stdint.h>
  14:../../../../DaisyExamples/DaisySP//Source/Noise/fractal_noise.h **** #ifdef __cplusplus
  15:../../../../DaisyExamples/DaisySP//Source/Noise/fractal_noise.h **** 
  16:../../../../DaisyExamples/DaisySP//Source/Noise/fractal_noise.h **** /** @file fractal_noise.h */
  17:../../../../DaisyExamples/DaisySP//Source/Noise/fractal_noise.h **** 
  18:../../../../DaisyExamples/DaisySP//Source/Noise/fractal_noise.h **** namespace daisysp
  19:../../../../DaisyExamples/DaisySP//Source/Noise/fractal_noise.h **** {
  20:../../../../DaisyExamples/DaisySP//Source/Noise/fractal_noise.h **** /**  
  21:../../../../DaisyExamples/DaisySP//Source/Noise/fractal_noise.h ****        @brief Fractal Noise, stacks octaves of a noise source.
  22:../../../../DaisyExamples/DaisySP//Source/Noise/fractal_noise.h ****        @author Ported by Ben Sergentanis 
  23:../../../../DaisyExamples/DaisySP//Source/Noise/fractal_noise.h ****        @date Jan 2021 
  24:../../../../DaisyExamples/DaisySP//Source/Noise/fractal_noise.h ****        T is the noise source to use. T must have SetFreq() and Init(sample_rate) functions. \n
  25:../../../../DaisyExamples/DaisySP//Source/Noise/fractal_noise.h ****        Order is the number of noise sources to stack. \n \n
  26:../../../../DaisyExamples/DaisySP//Source/Noise/fractal_noise.h ****        Ported from pichenettes/eurorack/plaits/dsp/noise/fractal_random_generator.h \n
  27:../../../../DaisyExamples/DaisySP//Source/Noise/fractal_noise.h ****        to an independent module. \n
  28:../../../../DaisyExamples/DaisySP//Source/Noise/fractal_noise.h ****        Original code written by Emilie Gillet in 2016. \n
  29:../../../../DaisyExamples/DaisySP//Source/Noise/fractal_noise.h ****        
  30:../../../../DaisyExamples/DaisySP//Source/Noise/fractal_noise.h **** */
  31:../../../../DaisyExamples/DaisySP//Source/Noise/fractal_noise.h **** template <typename T, int order>
  32:../../../../DaisyExamples/DaisySP//Source/Noise/fractal_noise.h **** class FractalRandomGenerator
  33:../../../../DaisyExamples/DaisySP//Source/Noise/fractal_noise.h **** {
  34:../../../../DaisyExamples/DaisySP//Source/Noise/fractal_noise.h ****   public:
  35:../../../../DaisyExamples/DaisySP//Source/Noise/fractal_noise.h ****     FractalRandomGenerator() {}
  36:../../../../DaisyExamples/DaisySP//Source/Noise/fractal_noise.h ****     ~FractalRandomGenerator() {}
 122              		.loc 10 36 5 is_stmt 1 view -0
 123              		.cfi_startproc
 124              		@ args = 0, pretend = 0, frame = 0
 125              		@ frame_needed = 0, uses_anonymous_args = 0
 126              		@ link register save eliminated.
 127              		.loc 10 36 32 is_stmt 0 view .LVU20
 128 0000 7047     		bx	lr
 129              		.cfi_endproc
 130              	.LFE5260:
 132              		.weak	_ZN7daisysp22FractalRandomGeneratorINS_12ClockedNoiseELi5EED1Ev
 133              		.thumb_set _ZN7daisysp22FractalRandomGeneratorINS_12ClockedNoiseELi5EED1Ev,_ZN7daisysp22FractalRan
 134              		.section	.text._Z13AudioCallbackPKPKfPPfj,"ax",%progbits
 135              		.align	1
 136              		.p2align 2,,3
ARM GAS  C:\Users\samue\AppData\Local\Temp\ccfB2Gwd.s 			page 12


 137              		.global	_Z13AudioCallbackPKPKfPPfj
 138              		.syntax unified
 139              		.thumb
 140              		.thumb_func
 141              		.fpu fpv5-d16
 143              	_Z13AudioCallbackPKPKfPPfj:
 144              	.LVL2:
 145              	.LFB4687:
  12:Fractal_eval.cpp **** float sample_rate = 96000;
  13:Fractal_eval.cpp **** 
  14:Fractal_eval.cpp **** enum
  15:Fractal_eval.cpp **** {
  16:Fractal_eval.cpp **** 	freq, color
  17:Fractal_eval.cpp **** };
  18:Fractal_eval.cpp **** 
  19:Fractal_eval.cpp **** void AudioCallback(AudioHandle::InputBuffer  in,
  20:Fractal_eval.cpp ****                    AudioHandle::OutputBuffer out,
  21:Fractal_eval.cpp ****                    size_t                    size)
  22:Fractal_eval.cpp **** {
 146              		.loc 9 22 1 is_stmt 1 view -0
 147              		.cfi_startproc
 148              		@ args = 0, pretend = 0, frame = 8
 149              		@ frame_needed = 0, uses_anonymous_args = 0
  23:Fractal_eval.cpp ****     for(size_t i = 0; i < size; i++)
 150              		.loc 9 23 5 view .LVU22
 151              	.LBB349:
 152              		.loc 9 23 25 view .LVU23
 153              	.LBE349:
  22:Fractal_eval.cpp ****     for(size_t i = 0; i < size; i++)
 154              		.loc 9 22 1 is_stmt 0 view .LVU24
 155 0000 2DE9F04F 		push	{r4, r5, r6, r7, r8, r9, r10, fp, lr}
 156              		.cfi_def_cfa_offset 36
 157              		.cfi_offset 4, -36
 158              		.cfi_offset 5, -32
 159              		.cfi_offset 6, -28
 160              		.cfi_offset 7, -24
 161              		.cfi_offset 8, -20
 162              		.cfi_offset 9, -16
 163              		.cfi_offset 10, -12
 164              		.cfi_offset 11, -8
 165              		.cfi_offset 14, -4
 166 0004 2DED048B 		vpush.64	{d8, d9}
 167              		.cfi_def_cfa_offset 52
 168              		.cfi_offset 80, -52
 169              		.cfi_offset 81, -48
 170              		.cfi_offset 82, -44
 171              		.cfi_offset 83, -40
 172 0008 83B0     		sub	sp, sp, #12
 173              		.cfi_def_cfa_offset 64
 174              	.LBB407:
 175              		.loc 9 23 25 view .LVU25
 176 000a 0192     		str	r2, [sp, #4]
 177 000c 002A     		cmp	r2, #0
 178 000e 58D0     		beq	.L5
 179 0010 DFF8C4A0 		ldr	r10, .L15+12
 180 0014 8846     		mov	r8, r1
 181              		.loc 9 23 16 view .LVU26
ARM GAS  C:\Users\samue\AppData\Local\Temp\ccfB2Gwd.s 			page 13


 182 0016 0026     		movs	r6, #0
 183 0018 DFF8C0B0 		ldr	fp, .L15+16
 184 001c 0AF17005 		add	r5, r10, #112
 185              	.LVL3:
 186              	.L8:
  24:Fractal_eval.cpp ****     {
  25:Fractal_eval.cpp ****         //fract.SetFreq(fabsf(lfo[0].Process()));
  26:Fractal_eval.cpp **** 		fract.SetFreq(fmap(board.get_knob(freq), 0.0f, sample_rate/2.0f));
 187              		.loc 9 26 3 is_stmt 1 discriminator 2 view .LVU27
 188              		.loc 9 26 16 is_stmt 0 discriminator 2 view .LVU28
 189 0020 0021     		movs	r1, #0
 190 0022 2A48     		ldr	r0, .L15
 191 0024 F6EE008A 		vmov.f32	s17, #5.0e-1
 192 0028 FFF7FEFF 		bl	_ZN5daisy11daisyCommon8get_knobEi
 193              	.LVL4:
 194              	.LBB350:
 195              	.LBB351:
 196              		.file 11 "../../../../DaisyExamples/DaisySP//Source/Utility/dsp.h"
   1:../../../../DaisyExamples/DaisySP//Source/Utility/dsp.h **** /*
   2:../../../../DaisyExamples/DaisySP//Source/Utility/dsp.h **** Copyright (c) 2020 Electrosmith, Corp, Emilie Gillet
   3:../../../../DaisyExamples/DaisySP//Source/Utility/dsp.h **** 
   4:../../../../DaisyExamples/DaisySP//Source/Utility/dsp.h **** Use of this source code is governed by an MIT-style
   5:../../../../DaisyExamples/DaisySP//Source/Utility/dsp.h **** license that can be found in the LICENSE file or at
   6:../../../../DaisyExamples/DaisySP//Source/Utility/dsp.h **** https://opensource.org/licenses/MIT.
   7:../../../../DaisyExamples/DaisySP//Source/Utility/dsp.h **** */
   8:../../../../DaisyExamples/DaisySP//Source/Utility/dsp.h **** 
   9:../../../../DaisyExamples/DaisySP//Source/Utility/dsp.h **** /** Helpful defines, functions, and other utilities for use in/with daisysp modules.
  10:../../../../DaisyExamples/DaisySP//Source/Utility/dsp.h **** */
  11:../../../../DaisyExamples/DaisySP//Source/Utility/dsp.h **** #pragma once
  12:../../../../DaisyExamples/DaisySP//Source/Utility/dsp.h **** #ifndef DSY_CORE_DSP
  13:../../../../DaisyExamples/DaisySP//Source/Utility/dsp.h **** #define DSY_CORE_DSP
  14:../../../../DaisyExamples/DaisySP//Source/Utility/dsp.h **** #include <cassert>
  15:../../../../DaisyExamples/DaisySP//Source/Utility/dsp.h **** #include <cstdint>
  16:../../../../DaisyExamples/DaisySP//Source/Utility/dsp.h **** #include <random>
  17:../../../../DaisyExamples/DaisySP//Source/Utility/dsp.h **** #include <cmath>
  18:../../../../DaisyExamples/DaisySP//Source/Utility/dsp.h **** 
  19:../../../../DaisyExamples/DaisySP//Source/Utility/dsp.h **** /** PIs
  20:../../../../DaisyExamples/DaisySP//Source/Utility/dsp.h **** */
  21:../../../../DaisyExamples/DaisySP//Source/Utility/dsp.h **** #define PI_F 3.1415927410125732421875f
  22:../../../../DaisyExamples/DaisySP//Source/Utility/dsp.h **** #define TWOPI_F (2.0f * PI_F)
  23:../../../../DaisyExamples/DaisySP//Source/Utility/dsp.h **** #define HALFPI_F (PI_F * 0.5f)
  24:../../../../DaisyExamples/DaisySP//Source/Utility/dsp.h **** #define DSY_MIN(in, mn) (in < mn ? in : mn)
  25:../../../../DaisyExamples/DaisySP//Source/Utility/dsp.h **** #define DSY_MAX(in, mx) (in > mx ? in : mx)
  26:../../../../DaisyExamples/DaisySP//Source/Utility/dsp.h **** #define DSY_CLAMP(in, mn, mx) (DSY_MIN(DSY_MAX(in, mn), mx))
  27:../../../../DaisyExamples/DaisySP//Source/Utility/dsp.h **** #define DSY_COUNTOF(_arr) (sizeof(_arr) / sizeof(_arr[0]))
  28:../../../../DaisyExamples/DaisySP//Source/Utility/dsp.h **** 
  29:../../../../DaisyExamples/DaisySP//Source/Utility/dsp.h **** namespace daisysp
  30:../../../../DaisyExamples/DaisySP//Source/Utility/dsp.h **** {
  31:../../../../DaisyExamples/DaisySP//Source/Utility/dsp.h **** //Avoids division for random floats. e.g. rand() * kRandFrac
  32:../../../../DaisyExamples/DaisySP//Source/Utility/dsp.h **** static constexpr float kRandFrac = 1.f / (float)RAND_MAX;
  33:../../../../DaisyExamples/DaisySP//Source/Utility/dsp.h **** 
  34:../../../../DaisyExamples/DaisySP//Source/Utility/dsp.h **** //Convert from semitones to other units. e.g. 2 ^ (kOneTwelfth * x)
  35:../../../../DaisyExamples/DaisySP//Source/Utility/dsp.h **** static constexpr float kOneTwelfth = 1.f / 12.f;
  36:../../../../DaisyExamples/DaisySP//Source/Utility/dsp.h **** 
  37:../../../../DaisyExamples/DaisySP//Source/Utility/dsp.h **** /** efficient floating point min/max
  38:../../../../DaisyExamples/DaisySP//Source/Utility/dsp.h **** c/o stephen mccaul
  39:../../../../DaisyExamples/DaisySP//Source/Utility/dsp.h **** */
ARM GAS  C:\Users\samue\AppData\Local\Temp\ccfB2Gwd.s 			page 14


  40:../../../../DaisyExamples/DaisySP//Source/Utility/dsp.h **** inline float fmax(float a, float b)
  41:../../../../DaisyExamples/DaisySP//Source/Utility/dsp.h **** {
  42:../../../../DaisyExamples/DaisySP//Source/Utility/dsp.h ****     float r;
  43:../../../../DaisyExamples/DaisySP//Source/Utility/dsp.h **** #ifdef __arm__
  44:../../../../DaisyExamples/DaisySP//Source/Utility/dsp.h ****     asm("vmaxnm.f32 %[d], %[n], %[m]" : [d] "=t"(r) : [n] "t"(a), [m] "t"(b) :);
  45:../../../../DaisyExamples/DaisySP//Source/Utility/dsp.h **** #else
  46:../../../../DaisyExamples/DaisySP//Source/Utility/dsp.h ****     r = (a > b) ? a : b;
  47:../../../../DaisyExamples/DaisySP//Source/Utility/dsp.h **** #endif // __arm__
  48:../../../../DaisyExamples/DaisySP//Source/Utility/dsp.h ****     return r;
  49:../../../../DaisyExamples/DaisySP//Source/Utility/dsp.h **** }
  50:../../../../DaisyExamples/DaisySP//Source/Utility/dsp.h **** 
  51:../../../../DaisyExamples/DaisySP//Source/Utility/dsp.h **** inline float fmin(float a, float b)
  52:../../../../DaisyExamples/DaisySP//Source/Utility/dsp.h **** {
  53:../../../../DaisyExamples/DaisySP//Source/Utility/dsp.h ****     float r;
  54:../../../../DaisyExamples/DaisySP//Source/Utility/dsp.h **** #ifdef __arm__
  55:../../../../DaisyExamples/DaisySP//Source/Utility/dsp.h ****     asm("vminnm.f32 %[d], %[n], %[m]" : [d] "=t"(r) : [n] "t"(a), [m] "t"(b) :);
  56:../../../../DaisyExamples/DaisySP//Source/Utility/dsp.h **** #else
  57:../../../../DaisyExamples/DaisySP//Source/Utility/dsp.h ****     r = (a < b) ? a : b;
  58:../../../../DaisyExamples/DaisySP//Source/Utility/dsp.h **** #endif // __arm__
  59:../../../../DaisyExamples/DaisySP//Source/Utility/dsp.h ****     return r;
  60:../../../../DaisyExamples/DaisySP//Source/Utility/dsp.h **** }
  61:../../../../DaisyExamples/DaisySP//Source/Utility/dsp.h **** 
  62:../../../../DaisyExamples/DaisySP//Source/Utility/dsp.h **** /** quick fp clamp
  63:../../../../DaisyExamples/DaisySP//Source/Utility/dsp.h **** */
  64:../../../../DaisyExamples/DaisySP//Source/Utility/dsp.h **** inline float fclamp(float in, float min, float max)
  65:../../../../DaisyExamples/DaisySP//Source/Utility/dsp.h **** {
  66:../../../../DaisyExamples/DaisySP//Source/Utility/dsp.h ****     return fmin(fmax(in, min), max);
  67:../../../../DaisyExamples/DaisySP//Source/Utility/dsp.h **** }
  68:../../../../DaisyExamples/DaisySP//Source/Utility/dsp.h **** 
  69:../../../../DaisyExamples/DaisySP//Source/Utility/dsp.h **** /** From Musicdsp.org "Fast power and root estimates for 32bit floats)
  70:../../../../DaisyExamples/DaisySP//Source/Utility/dsp.h **** Original code by Stefan Stenzel
  71:../../../../DaisyExamples/DaisySP//Source/Utility/dsp.h **** These are approximations
  72:../../../../DaisyExamples/DaisySP//Source/Utility/dsp.h **** */
  73:../../../../DaisyExamples/DaisySP//Source/Utility/dsp.h **** inline float fastpower(float f, int n)
  74:../../../../DaisyExamples/DaisySP//Source/Utility/dsp.h **** {
  75:../../../../DaisyExamples/DaisySP//Source/Utility/dsp.h ****     long *lp, l;
  76:../../../../DaisyExamples/DaisySP//Source/Utility/dsp.h ****     lp = (long *)(&f);
  77:../../../../DaisyExamples/DaisySP//Source/Utility/dsp.h ****     l  = *lp;
  78:../../../../DaisyExamples/DaisySP//Source/Utility/dsp.h ****     l -= 0x3F800000;
  79:../../../../DaisyExamples/DaisySP//Source/Utility/dsp.h ****     l <<= (n - 1);
  80:../../../../DaisyExamples/DaisySP//Source/Utility/dsp.h ****     l += 0x3F800000;
  81:../../../../DaisyExamples/DaisySP//Source/Utility/dsp.h ****     *lp = l;
  82:../../../../DaisyExamples/DaisySP//Source/Utility/dsp.h ****     return f;
  83:../../../../DaisyExamples/DaisySP//Source/Utility/dsp.h **** }
  84:../../../../DaisyExamples/DaisySP//Source/Utility/dsp.h **** 
  85:../../../../DaisyExamples/DaisySP//Source/Utility/dsp.h **** inline float fastroot(float f, int n)
  86:../../../../DaisyExamples/DaisySP//Source/Utility/dsp.h **** {
  87:../../../../DaisyExamples/DaisySP//Source/Utility/dsp.h ****     long *lp, l;
  88:../../../../DaisyExamples/DaisySP//Source/Utility/dsp.h ****     lp = (long *)(&f);
  89:../../../../DaisyExamples/DaisySP//Source/Utility/dsp.h ****     l  = *lp;
  90:../../../../DaisyExamples/DaisySP//Source/Utility/dsp.h ****     l -= 0x3F800000;
  91:../../../../DaisyExamples/DaisySP//Source/Utility/dsp.h ****     l >>= (n - 1);
  92:../../../../DaisyExamples/DaisySP//Source/Utility/dsp.h ****     l += 0x3F800000;
  93:../../../../DaisyExamples/DaisySP//Source/Utility/dsp.h ****     *lp = l;
  94:../../../../DaisyExamples/DaisySP//Source/Utility/dsp.h ****     return f;
  95:../../../../DaisyExamples/DaisySP//Source/Utility/dsp.h **** }
  96:../../../../DaisyExamples/DaisySP//Source/Utility/dsp.h **** 
ARM GAS  C:\Users\samue\AppData\Local\Temp\ccfB2Gwd.s 			page 15


  97:../../../../DaisyExamples/DaisySP//Source/Utility/dsp.h **** /** Significantly more efficient than fmodf(x, 1.0f) for calculating
  98:../../../../DaisyExamples/DaisySP//Source/Utility/dsp.h ****  *  the decimal part of a floating point value.
  99:../../../../DaisyExamples/DaisySP//Source/Utility/dsp.h ****  */
 100:../../../../DaisyExamples/DaisySP//Source/Utility/dsp.h **** inline float fastmod1f(float x)
 101:../../../../DaisyExamples/DaisySP//Source/Utility/dsp.h **** {
 102:../../../../DaisyExamples/DaisySP//Source/Utility/dsp.h ****     return x - static_cast<int>(x);
 103:../../../../DaisyExamples/DaisySP//Source/Utility/dsp.h **** }
 104:../../../../DaisyExamples/DaisySP//Source/Utility/dsp.h **** 
 105:../../../../DaisyExamples/DaisySP//Source/Utility/dsp.h **** /** From http://openaudio.blogspot.com/2017/02/faster-log10-and-pow.html
 106:../../../../DaisyExamples/DaisySP//Source/Utility/dsp.h **** No approximation, pow10f(x) gives a 90% speed increase over powf(10.f, x)
 107:../../../../DaisyExamples/DaisySP//Source/Utility/dsp.h **** */
 108:../../../../DaisyExamples/DaisySP//Source/Utility/dsp.h **** inline float pow10f(float f)
 109:../../../../DaisyExamples/DaisySP//Source/Utility/dsp.h **** {
 110:../../../../DaisyExamples/DaisySP//Source/Utility/dsp.h ****     return expf(2.302585092994046f * f);
 111:../../../../DaisyExamples/DaisySP//Source/Utility/dsp.h **** }
 112:../../../../DaisyExamples/DaisySP//Source/Utility/dsp.h **** 
 113:../../../../DaisyExamples/DaisySP//Source/Utility/dsp.h **** /* Original code for fastlog2f by Dr. Paul Beckmann from the ARM community forum, adapted from the 
 114:../../../../DaisyExamples/DaisySP//Source/Utility/dsp.h **** About 25% performance increase over std::log10f
 115:../../../../DaisyExamples/DaisySP//Source/Utility/dsp.h **** */
 116:../../../../DaisyExamples/DaisySP//Source/Utility/dsp.h **** inline float fastlog2f(float f)
 117:../../../../DaisyExamples/DaisySP//Source/Utility/dsp.h **** {
 118:../../../../DaisyExamples/DaisySP//Source/Utility/dsp.h ****     float frac;
 119:../../../../DaisyExamples/DaisySP//Source/Utility/dsp.h ****     int   exp;
 120:../../../../DaisyExamples/DaisySP//Source/Utility/dsp.h ****     frac = frexpf(fabsf(f), &exp);
 121:../../../../DaisyExamples/DaisySP//Source/Utility/dsp.h ****     f    = 1.23149591368684f;
 122:../../../../DaisyExamples/DaisySP//Source/Utility/dsp.h ****     f *= frac;
 123:../../../../DaisyExamples/DaisySP//Source/Utility/dsp.h ****     f += -4.11852516267426f;
 124:../../../../DaisyExamples/DaisySP//Source/Utility/dsp.h ****     f *= frac;
 125:../../../../DaisyExamples/DaisySP//Source/Utility/dsp.h ****     f += 6.02197014179219f;
 126:../../../../DaisyExamples/DaisySP//Source/Utility/dsp.h ****     f *= frac;
 127:../../../../DaisyExamples/DaisySP//Source/Utility/dsp.h ****     f += -3.13396450166353f;
 128:../../../../DaisyExamples/DaisySP//Source/Utility/dsp.h ****     f += exp;
 129:../../../../DaisyExamples/DaisySP//Source/Utility/dsp.h ****     return (f);
 130:../../../../DaisyExamples/DaisySP//Source/Utility/dsp.h **** }
 131:../../../../DaisyExamples/DaisySP//Source/Utility/dsp.h **** 
 132:../../../../DaisyExamples/DaisySP//Source/Utility/dsp.h **** inline float fastlog10f(float f)
 133:../../../../DaisyExamples/DaisySP//Source/Utility/dsp.h **** {
 134:../../../../DaisyExamples/DaisySP//Source/Utility/dsp.h ****     return fastlog2f(f) * 0.3010299956639812f;
 135:../../../../DaisyExamples/DaisySP//Source/Utility/dsp.h **** }
 136:../../../../DaisyExamples/DaisySP//Source/Utility/dsp.h **** 
 137:../../../../DaisyExamples/DaisySP//Source/Utility/dsp.h **** /** Midi to frequency helper
 138:../../../../DaisyExamples/DaisySP//Source/Utility/dsp.h **** */
 139:../../../../DaisyExamples/DaisySP//Source/Utility/dsp.h **** inline float mtof(float m)
 140:../../../../DaisyExamples/DaisySP//Source/Utility/dsp.h **** {
 141:../../../../DaisyExamples/DaisySP//Source/Utility/dsp.h ****     return powf(2, (m - 69.0f) / 12.0f) * 440.0f;
 142:../../../../DaisyExamples/DaisySP//Source/Utility/dsp.h **** }
 143:../../../../DaisyExamples/DaisySP//Source/Utility/dsp.h **** 
 144:../../../../DaisyExamples/DaisySP//Source/Utility/dsp.h **** 
 145:../../../../DaisyExamples/DaisySP//Source/Utility/dsp.h **** /** one pole lpf
 146:../../../../DaisyExamples/DaisySP//Source/Utility/dsp.h **** out is passed by reference, and must be retained between
 147:../../../../DaisyExamples/DaisySP//Source/Utility/dsp.h **** calls to properly filter the signal
 148:../../../../DaisyExamples/DaisySP//Source/Utility/dsp.h **** coeff can be calculated:
 149:../../../../DaisyExamples/DaisySP//Source/Utility/dsp.h **** coeff = 1.0 / (time * sample_rate) ; where time is in seconds
 150:../../../../DaisyExamples/DaisySP//Source/Utility/dsp.h **** */
 151:../../../../DaisyExamples/DaisySP//Source/Utility/dsp.h **** inline void fonepole(float &out, float in, float coeff)
 152:../../../../DaisyExamples/DaisySP//Source/Utility/dsp.h **** {
 153:../../../../DaisyExamples/DaisySP//Source/Utility/dsp.h ****     out += coeff * (in - out);
ARM GAS  C:\Users\samue\AppData\Local\Temp\ccfB2Gwd.s 			page 16


 154:../../../../DaisyExamples/DaisySP//Source/Utility/dsp.h **** }
 155:../../../../DaisyExamples/DaisySP//Source/Utility/dsp.h **** 
 156:../../../../DaisyExamples/DaisySP//Source/Utility/dsp.h **** /** Curves to use with the fmap function */
 157:../../../../DaisyExamples/DaisySP//Source/Utility/dsp.h **** enum class Mapping
 158:../../../../DaisyExamples/DaisySP//Source/Utility/dsp.h **** {
 159:../../../../DaisyExamples/DaisySP//Source/Utility/dsp.h ****     LINEAR,
 160:../../../../DaisyExamples/DaisySP//Source/Utility/dsp.h ****     EXP,
 161:../../../../DaisyExamples/DaisySP//Source/Utility/dsp.h ****     LOG,
 162:../../../../DaisyExamples/DaisySP//Source/Utility/dsp.h **** };
 163:../../../../DaisyExamples/DaisySP//Source/Utility/dsp.h **** 
 164:../../../../DaisyExamples/DaisySP//Source/Utility/dsp.h **** /** Maps a float between a specified range, using a specified curve.
 165:../../../../DaisyExamples/DaisySP//Source/Utility/dsp.h ****  *
 166:../../../../DaisyExamples/DaisySP//Source/Utility/dsp.h ****  *  \param in a value between 0 to 1 that will be mapped to the new range.
 167:../../../../DaisyExamples/DaisySP//Source/Utility/dsp.h ****  *  \param min the new minimum value
 168:../../../../DaisyExamples/DaisySP//Source/Utility/dsp.h ****  *  \param max the new maxmimum value
 169:../../../../DaisyExamples/DaisySP//Source/Utility/dsp.h ****  *  \param curve a Mapping Value to adjust the response curve of the transformation
 170:../../../../DaisyExamples/DaisySP//Source/Utility/dsp.h ****  *               defaults to Linear. @see Mapping
 171:../../../../DaisyExamples/DaisySP//Source/Utility/dsp.h ****  *
 172:../../../../DaisyExamples/DaisySP//Source/Utility/dsp.h ****  *  When using the log curve min and max, must be greater than zero.
 173:../../../../DaisyExamples/DaisySP//Source/Utility/dsp.h ****  *
 174:../../../../DaisyExamples/DaisySP//Source/Utility/dsp.h ****  *  \retval returns the transformed float within the new range.
 175:../../../../DaisyExamples/DaisySP//Source/Utility/dsp.h **** */
 176:../../../../DaisyExamples/DaisySP//Source/Utility/dsp.h **** inline float
 177:../../../../DaisyExamples/DaisySP//Source/Utility/dsp.h **** fmap(float in, float min, float max, Mapping curve = Mapping::LINEAR)
 178:../../../../DaisyExamples/DaisySP//Source/Utility/dsp.h **** {
 179:../../../../DaisyExamples/DaisySP//Source/Utility/dsp.h ****     switch(curve)
 180:../../../../DaisyExamples/DaisySP//Source/Utility/dsp.h ****     {
 181:../../../../DaisyExamples/DaisySP//Source/Utility/dsp.h ****         case Mapping::EXP:
 182:../../../../DaisyExamples/DaisySP//Source/Utility/dsp.h ****             return fclamp(min + (in * in) * (max - min), min, max);
 183:../../../../DaisyExamples/DaisySP//Source/Utility/dsp.h ****         case Mapping::LOG:
 184:../../../../DaisyExamples/DaisySP//Source/Utility/dsp.h ****         {
 185:../../../../DaisyExamples/DaisySP//Source/Utility/dsp.h ****             const float a = 1.f / log10f(max / min);
 186:../../../../DaisyExamples/DaisySP//Source/Utility/dsp.h ****             return fclamp(min * powf(10, in / a), min, max);
 187:../../../../DaisyExamples/DaisySP//Source/Utility/dsp.h ****         }
 188:../../../../DaisyExamples/DaisySP//Source/Utility/dsp.h ****         case Mapping::LINEAR:
 189:../../../../DaisyExamples/DaisySP//Source/Utility/dsp.h ****         default: return fclamp(min + in * (max - min), min, max);
 197              		.loc 11 189 31 discriminator 2 view .LVU29
 198 002c DFED289A 		vldr.32	s19, .L15+4
 199              	.LBE351:
 200              	.LBE350:
  27:Fractal_eval.cpp ****         fract.SetColor(board.get_knob(color));
 201              		.loc 9 27 23 discriminator 2 view .LVU30
 202 0030 0121     		movs	r1, #1
  26:Fractal_eval.cpp ****         fract.SetColor(board.get_knob(color));
 203              		.loc 9 26 16 discriminator 2 view .LVU31
 204 0032 DBED007A 		vldr.32	s15, [fp]
 205 0036 4FEA8609 		lsl	r9, r6, #2
 206              		.loc 9 27 23 discriminator 2 view .LVU32
 207 003a 2448     		ldr	r0, .L15
 208              	.LBB361:
 209              	.LBB362:
  37:../../../../DaisyExamples/DaisySP//Source/Noise/fractal_noise.h **** 
  38:../../../../DaisyExamples/DaisySP//Source/Noise/fractal_noise.h ****     /** Initialize the module
  39:../../../../DaisyExamples/DaisySP//Source/Noise/fractal_noise.h ****         \param sample_rate Audio engine sample rate.
  40:../../../../DaisyExamples/DaisySP//Source/Noise/fractal_noise.h ****     */
  41:../../../../DaisyExamples/DaisySP//Source/Noise/fractal_noise.h ****     void Init(float sample_rate)
  42:../../../../DaisyExamples/DaisySP//Source/Noise/fractal_noise.h ****     {
ARM GAS  C:\Users\samue\AppData\Local\Temp\ccfB2Gwd.s 			page 17


  43:../../../../DaisyExamples/DaisySP//Source/Noise/fractal_noise.h ****         sample_rate_ = sample_rate;
  44:../../../../DaisyExamples/DaisySP//Source/Noise/fractal_noise.h **** 
  45:../../../../DaisyExamples/DaisySP//Source/Noise/fractal_noise.h ****         SetColor(.5f);
  46:../../../../DaisyExamples/DaisySP//Source/Noise/fractal_noise.h ****         SetFreq(440.f);
  47:../../../../DaisyExamples/DaisySP//Source/Noise/fractal_noise.h ****         for(int i = 0; i < order; ++i)
  48:../../../../DaisyExamples/DaisySP//Source/Noise/fractal_noise.h ****         {
  49:../../../../DaisyExamples/DaisySP//Source/Noise/fractal_noise.h ****             generator_[i].Init(sample_rate_);
  50:../../../../DaisyExamples/DaisySP//Source/Noise/fractal_noise.h ****         }
  51:../../../../DaisyExamples/DaisySP//Source/Noise/fractal_noise.h ****     }
  52:../../../../DaisyExamples/DaisySP//Source/Noise/fractal_noise.h **** 
  53:../../../../DaisyExamples/DaisySP//Source/Noise/fractal_noise.h ****     /** Get the next sample. */
  54:../../../../DaisyExamples/DaisySP//Source/Noise/fractal_noise.h ****     float Process()
  55:../../../../DaisyExamples/DaisySP//Source/Noise/fractal_noise.h ****     {
  56:../../../../DaisyExamples/DaisySP//Source/Noise/fractal_noise.h ****         float gain      = 0.5f;
  57:../../../../DaisyExamples/DaisySP//Source/Noise/fractal_noise.h ****         float sum       = 0.0f;
 210              		.loc 10 57 15 discriminator 2 view .LVU33
 211 003c B0EE699A 		vmov.f32	s18, s19
 212              	.LBE362:
 213              	.LBE361:
  26:Fractal_eval.cpp ****         fract.SetColor(board.get_knob(color));
 214              		.loc 9 26 16 discriminator 2 view .LVU34
 215 0040 27EEA87A 		vmul.f32	s14, s15, s17
 216              	.LVL5:
 217              	.LBB366:
 218              	.LBI350:
 177:../../../../DaisyExamples/DaisySP//Source/Utility/dsp.h **** {
 219              		.loc 11 177 1 is_stmt 1 discriminator 2 view .LVU35
 220              	.LBE366:
 221              	.LBE407:
 179:../../../../DaisyExamples/DaisySP//Source/Utility/dsp.h ****     {
 222              		.loc 11 179 5 discriminator 2 view .LVU36
 223              	.LBB408:
 224              	.LBB367:
 225              	.LBB358:
 188:../../../../DaisyExamples/DaisySP//Source/Utility/dsp.h ****         default: return fclamp(min + in * (max - min), min, max);
 226              		.loc 11 188 9 discriminator 2 view .LVU37
 227              		.loc 11 189 9 discriminator 2 view .LVU38
 228              		.loc 11 189 18 discriminator 2 view .LVU39
 229              	.LBE358:
 230              	.LBE367:
 231              	.LBB368:
 232              	.LBB369:
 233              	.LBB370:
 234              	.LBB371:
 235              	.LBB372:
  55:../../../../DaisyExamples/DaisySP//Source/Utility/dsp.h **** #else
 236              		.loc 11 55 5 is_stmt 0 discriminator 2 view .LVU40
 237 0044 DAED006A 		vldr.32	s13, [r10]
 238              	.LBE372:
 239              	.LBE371:
 240              	.LBE370:
 241              	.LBE369:
 242              	.LBE368:
 243              	.LBB381:
 244              	.LBB359:
 245              		.loc 11 189 31 discriminator 2 view .LVU41
 246 0048 F0EE697A 		vmov.f32	s15, s19
ARM GAS  C:\Users\samue\AppData\Local\Temp\ccfB2Gwd.s 			page 18


 247 004c 214C     		ldr	r4, .L15+8
 248 004e E0EE077A 		vfma.f32	s15, s0, s14
 249              	.LVL6:
 250              	.LBB352:
 251              	.LBI352:
  64:../../../../DaisyExamples/DaisySP//Source/Utility/dsp.h **** {
 252              		.loc 11 64 14 is_stmt 1 discriminator 2 view .LVU42
 253              	.LBE352:
 254              	.LBE359:
 255              	.LBE381:
 256              	.LBE408:
  66:../../../../DaisyExamples/DaisySP//Source/Utility/dsp.h **** }
 257              		.loc 11 66 5 discriminator 2 view .LVU43
 258              	.LBB409:
 259              	.LBB382:
 260              	.LBB360:
 261              	.LBB357:
 262              	.LBB353:
 263              	.LBI353:
  40:../../../../DaisyExamples/DaisySP//Source/Utility/dsp.h **** {
 264              		.loc 11 40 14 discriminator 2 view .LVU44
 265              	.LBB354:
  42:../../../../DaisyExamples/DaisySP//Source/Utility/dsp.h **** #ifdef __arm__
 266              		.loc 11 42 5 discriminator 2 view .LVU45
  44:../../../../DaisyExamples/DaisySP//Source/Utility/dsp.h **** #else
 267              		.loc 11 44 5 discriminator 2 view .LVU46
 268              		.syntax unified
 269              	@ 44 "../../../../DaisyExamples/DaisySP//Source/Utility/dsp.h" 1
 270 0052 C7FEA97A 		vmaxnm.f32 s15, s15, s19
 271              	@ 0 "" 2
 272              	.LVL7:
  48:../../../../DaisyExamples/DaisySP//Source/Utility/dsp.h **** }
 273              		.loc 11 48 5 discriminator 2 view .LVU47
  48:../../../../DaisyExamples/DaisySP//Source/Utility/dsp.h **** }
 274              		.loc 11 48 5 is_stmt 0 discriminator 2 view .LVU48
 275              		.thumb
 276              		.syntax unified
 277              	.LBE354:
 278              	.LBE353:
 279              	.LBB355:
 280              	.LBI355:
  51:../../../../DaisyExamples/DaisySP//Source/Utility/dsp.h **** {
 281              		.loc 11 51 14 is_stmt 1 discriminator 2 view .LVU49
 282              	.LBB356:
  53:../../../../DaisyExamples/DaisySP//Source/Utility/dsp.h **** #ifdef __arm__
 283              		.loc 11 53 5 discriminator 2 view .LVU50
  55:../../../../DaisyExamples/DaisySP//Source/Utility/dsp.h **** #else
 284              		.loc 11 55 5 discriminator 2 view .LVU51
 285              		.syntax unified
 286              	@ 55 "../../../../DaisyExamples/DaisySP//Source/Utility/dsp.h" 1
 287 0056 C7FEC77A 		vminnm.f32 s15, s15, s14
 288              	@ 0 "" 2
 289              	.LVL8:
  59:../../../../DaisyExamples/DaisySP//Source/Utility/dsp.h **** }
 290              		.loc 11 59 5 discriminator 2 view .LVU52
  59:../../../../DaisyExamples/DaisySP//Source/Utility/dsp.h **** }
 291              		.loc 11 59 5 is_stmt 0 discriminator 2 view .LVU53
ARM GAS  C:\Users\samue\AppData\Local\Temp\ccfB2Gwd.s 			page 19


 292              		.thumb
 293              		.syntax unified
 294              	.LBE356:
 295              	.LBE355:
 296              	.LBE357:
 297              	.LBE360:
 298              	.LBE382:
 299              	.LBB383:
 300              	.LBI368:
  58:../../../../DaisyExamples/DaisySP//Source/Noise/fractal_noise.h ****         float frequency = frequency_;
  59:../../../../DaisyExamples/DaisySP//Source/Noise/fractal_noise.h **** 
  60:../../../../DaisyExamples/DaisySP//Source/Noise/fractal_noise.h ****         for(int i = 0; i < order; ++i)
  61:../../../../DaisyExamples/DaisySP//Source/Noise/fractal_noise.h ****         {
  62:../../../../DaisyExamples/DaisySP//Source/Noise/fractal_noise.h ****             generator_[i].SetFreq(frequency);
  63:../../../../DaisyExamples/DaisySP//Source/Noise/fractal_noise.h ****             sum += generator_[i].Process() * gain;
  64:../../../../DaisyExamples/DaisySP//Source/Noise/fractal_noise.h ****             gain *= decay_;
  65:../../../../DaisyExamples/DaisySP//Source/Noise/fractal_noise.h ****             frequency *= 2.0f;
  66:../../../../DaisyExamples/DaisySP//Source/Noise/fractal_noise.h ****         }
  67:../../../../DaisyExamples/DaisySP//Source/Noise/fractal_noise.h **** 
  68:../../../../DaisyExamples/DaisySP//Source/Noise/fractal_noise.h ****         return sum;
  69:../../../../DaisyExamples/DaisySP//Source/Noise/fractal_noise.h ****     }
  70:../../../../DaisyExamples/DaisySP//Source/Noise/fractal_noise.h **** 
  71:../../../../DaisyExamples/DaisySP//Source/Noise/fractal_noise.h ****     /** Set the lowest noise frequency.
  72:../../../../DaisyExamples/DaisySP//Source/Noise/fractal_noise.h ****         \param freq Frequency of the lowest noise source in Hz.
  73:../../../../DaisyExamples/DaisySP//Source/Noise/fractal_noise.h ****     */
  74:../../../../DaisyExamples/DaisySP//Source/Noise/fractal_noise.h ****     void SetFreq(float freq) { frequency_ = fclamp(freq, 0.f, sample_rate_); }
 301              		.loc 10 74 10 is_stmt 1 discriminator 2 view .LVU54
 302              	.LBB379:
 303              	.LBB377:
 304              	.LBI370:
  64:../../../../DaisyExamples/DaisySP//Source/Utility/dsp.h **** {
 305              		.loc 11 64 14 discriminator 2 view .LVU55
 306              	.LBE377:
 307              	.LBE379:
 308              	.LBE383:
 309              	.LBE409:
  66:../../../../DaisyExamples/DaisySP//Source/Utility/dsp.h **** }
 310              		.loc 11 66 5 discriminator 2 view .LVU56
 311              	.LBB410:
 312              	.LBB384:
 313              	.LBB380:
 314              	.LBB378:
 315              	.LBB374:
 316              	.LBI374:
  40:../../../../DaisyExamples/DaisySP//Source/Utility/dsp.h **** {
 317              		.loc 11 40 14 discriminator 2 view .LVU57
 318              	.LBB375:
  42:../../../../DaisyExamples/DaisySP//Source/Utility/dsp.h **** #ifdef __arm__
 319              		.loc 11 42 5 discriminator 2 view .LVU58
  44:../../../../DaisyExamples/DaisySP//Source/Utility/dsp.h **** #else
 320              		.loc 11 44 5 discriminator 2 view .LVU59
 321              		.syntax unified
 322              	@ 44 "../../../../DaisyExamples/DaisySP//Source/Utility/dsp.h" 1
 323 005a C7FEA97A 		vmaxnm.f32 s15, s15, s19
 324              	@ 0 "" 2
 325              	.LVL9:
  48:../../../../DaisyExamples/DaisySP//Source/Utility/dsp.h **** }
ARM GAS  C:\Users\samue\AppData\Local\Temp\ccfB2Gwd.s 			page 20


 326              		.loc 11 48 5 discriminator 2 view .LVU60
  48:../../../../DaisyExamples/DaisySP//Source/Utility/dsp.h **** }
 327              		.loc 11 48 5 is_stmt 0 discriminator 2 view .LVU61
 328              		.thumb
 329              		.syntax unified
 330              	.LBE375:
 331              	.LBE374:
 332              	.LBB376:
 333              	.LBI371:
  51:../../../../DaisyExamples/DaisySP//Source/Utility/dsp.h **** {
 334              		.loc 11 51 14 is_stmt 1 discriminator 2 view .LVU62
 335              	.LBB373:
  53:../../../../DaisyExamples/DaisySP//Source/Utility/dsp.h **** #ifdef __arm__
 336              		.loc 11 53 5 discriminator 2 view .LVU63
  55:../../../../DaisyExamples/DaisySP//Source/Utility/dsp.h **** #else
 337              		.loc 11 55 5 discriminator 2 view .LVU64
 338              		.syntax unified
 339              	@ 55 "../../../../DaisyExamples/DaisySP//Source/Utility/dsp.h" 1
 340 005e C7FEE67A 		vminnm.f32 s15, s15, s13
 341              	@ 0 "" 2
 342              	.LVL10:
  59:../../../../DaisyExamples/DaisySP//Source/Utility/dsp.h **** }
 343              		.loc 11 59 5 discriminator 2 view .LVU65
  59:../../../../DaisyExamples/DaisySP//Source/Utility/dsp.h **** }
 344              		.loc 11 59 5 is_stmt 0 discriminator 2 view .LVU66
 345              		.thumb
 346              		.syntax unified
 347              	.LBE373:
 348              	.LBE376:
 349              	.LBE378:
 350              		.loc 10 74 43 discriminator 2 view .LVU67
 351 0062 CAED017A 		vstr.32	s15, [r10, #4]
 352              	.LVL11:
 353              		.loc 10 74 43 discriminator 2 view .LVU68
 354              	.LBE380:
 355              	.LBE384:
 356              		.loc 9 27 9 is_stmt 1 discriminator 2 view .LVU69
 357              		.loc 9 27 23 is_stmt 0 discriminator 2 view .LVU70
 358 0066 FFF7FEFF 		bl	_ZN5daisy11daisyCommon8get_knobEi
 359              	.LVL12:
 360              	.LBB385:
 361              	.LBI385:
  75:../../../../DaisyExamples/DaisySP//Source/Noise/fractal_noise.h **** 
  76:../../../../DaisyExamples/DaisySP//Source/Noise/fractal_noise.h ****     /** Sets the amount of high frequency noise.
  77:../../../../DaisyExamples/DaisySP//Source/Noise/fractal_noise.h ****         \** Works 0-1. 1 is the brightest, and 0 is the darkest.
  78:../../../../DaisyExamples/DaisySP//Source/Noise/fractal_noise.h ****     */
  79:../../../../DaisyExamples/DaisySP//Source/Noise/fractal_noise.h ****     void SetColor(float color) { decay_ = fclamp(color, 0.f, 1.f); }
 362              		.loc 10 79 10 is_stmt 1 discriminator 2 view .LVU71
 363              	.LBB386:
 364              	.LBB387:
 365              	.LBI387:
  64:../../../../DaisyExamples/DaisySP//Source/Utility/dsp.h **** {
 366              		.loc 11 64 14 discriminator 2 view .LVU72
 367              	.LBE387:
 368              	.LBE386:
 369              	.LBE385:
 370              	.LBE410:
ARM GAS  C:\Users\samue\AppData\Local\Temp\ccfB2Gwd.s 			page 21


  66:../../../../DaisyExamples/DaisySP//Source/Utility/dsp.h **** }
 371              		.loc 11 66 5 discriminator 2 view .LVU73
 372              	.LBB411:
 373              	.LBB402:
 374              	.LBB399:
 375              	.LBB396:
 376              	.LBB388:
 377              	.LBI388:
  40:../../../../DaisyExamples/DaisySP//Source/Utility/dsp.h **** {
 378              		.loc 11 40 14 discriminator 2 view .LVU74
 379              	.LBB389:
  42:../../../../DaisyExamples/DaisySP//Source/Utility/dsp.h **** #ifdef __arm__
 380              		.loc 11 42 5 discriminator 2 view .LVU75
  44:../../../../DaisyExamples/DaisySP//Source/Utility/dsp.h **** #else
 381              		.loc 11 44 5 discriminator 2 view .LVU76
 382              	.LBE389:
 383              	.LBE388:
 384              	.LBE396:
 385              	.LBE399:
 386              	.LBE402:
  28:Fractal_eval.cpp ****         out[0][i] = out[1][i] = fract.Process();
 387              		.loc 9 28 29 is_stmt 0 discriminator 2 view .LVU77
 388 006a D8F80470 		ldr	r7, [r8, #4]
 389              	.LBB403:
 390              	.LBB400:
 391              	.LBB397:
 392              	.LBB391:
 393              	.LBB392:
  55:../../../../DaisyExamples/DaisySP//Source/Utility/dsp.h **** #else
 394              		.loc 11 55 5 discriminator 2 view .LVU78
 395 006e F7EE007A 		vmov.f32	s15, #1.0e+0
 396              	.LBE392:
 397              	.LBE391:
 398              	.LBE397:
 399              	.LBE400:
 400              	.LBE403:
 401              	.LBB404:
 402              	.LBB364:
  58:../../../../DaisyExamples/DaisySP//Source/Noise/fractal_noise.h **** 
 403              		.loc 10 58 15 discriminator 2 view .LVU79
 404 0072 9AED018A 		vldr.32	s16, [r10, #4]
 405              	.LBE364:
 406              	.LBE404:
 407              		.loc 9 28 29 discriminator 2 view .LVU80
 408 0076 07EB8607 		add	r7, r7, r6, lsl #2
 409              	.LBB405:
 410              	.LBB401:
 411              	.LBB398:
 412              	.LBB394:
 413              	.LBB390:
  44:../../../../DaisyExamples/DaisySP//Source/Utility/dsp.h **** #else
 414              		.loc 11 44 5 discriminator 2 view .LVU81
 415              		.syntax unified
 416              	@ 44 "../../../../DaisyExamples/DaisySP//Source/Utility/dsp.h" 1
 417 007a 80FE290A 		vmaxnm.f32 s0, s0, s19
 418              	@ 0 "" 2
 419              	.LVL13:
ARM GAS  C:\Users\samue\AppData\Local\Temp\ccfB2Gwd.s 			page 22


  48:../../../../DaisyExamples/DaisySP//Source/Utility/dsp.h **** }
 420              		.loc 11 48 5 is_stmt 1 discriminator 2 view .LVU82
  48:../../../../DaisyExamples/DaisySP//Source/Utility/dsp.h **** }
 421              		.loc 11 48 5 is_stmt 0 discriminator 2 view .LVU83
 422              		.thumb
 423              		.syntax unified
 424              	.LBE390:
 425              	.LBE394:
 426              	.LBB395:
 427              	.LBI391:
  51:../../../../DaisyExamples/DaisySP//Source/Utility/dsp.h **** {
 428              		.loc 11 51 14 is_stmt 1 discriminator 2 view .LVU84
 429              	.LBB393:
  53:../../../../DaisyExamples/DaisySP//Source/Utility/dsp.h **** #ifdef __arm__
 430              		.loc 11 53 5 discriminator 2 view .LVU85
  55:../../../../DaisyExamples/DaisySP//Source/Utility/dsp.h **** #else
 431              		.loc 11 55 5 discriminator 2 view .LVU86
 432              		.syntax unified
 433              	@ 55 "../../../../DaisyExamples/DaisySP//Source/Utility/dsp.h" 1
 434 007e 80FE670A 		vminnm.f32 s0, s0, s15
 435              	@ 0 "" 2
 436              	.LVL14:
  59:../../../../DaisyExamples/DaisySP//Source/Utility/dsp.h **** }
 437              		.loc 11 59 5 discriminator 2 view .LVU87
  59:../../../../DaisyExamples/DaisySP//Source/Utility/dsp.h **** }
 438              		.loc 11 59 5 is_stmt 0 discriminator 2 view .LVU88
 439              		.thumb
 440              		.syntax unified
 441              	.LBE393:
 442              	.LBE395:
 443              	.LBE398:
 444              		.loc 10 79 41 discriminator 2 view .LVU89
 445 0082 8AED020A 		vstr.32	s0, [r10, #8]
 446              	.LVL15:
 447              		.loc 10 79 41 discriminator 2 view .LVU90
 448              	.LBE401:
 449              	.LBE405:
 450              		.loc 9 28 9 is_stmt 1 discriminator 2 view .LVU91
 451              	.LBB406:
 452              	.LBI361:
  54:../../../../DaisyExamples/DaisySP//Source/Noise/fractal_noise.h ****     {
 453              		.loc 10 54 11 discriminator 2 view .LVU92
 454              	.LBB365:
 455              	.LBB363:
  60:../../../../DaisyExamples/DaisySP//Source/Noise/fractal_noise.h ****         {
 456              		.loc 10 60 26 discriminator 2 view .LVU93
 457              	.L7:
  62:../../../../DaisyExamples/DaisySP//Source/Noise/fractal_noise.h ****             sum += generator_[i].Process() * gain;
 458              		.loc 10 62 34 is_stmt 0 view .LVU94
 459 0086 B0EE480A 		vmov.f32	s0, s16
 460 008a 2046     		mov	r0, r4
 461 008c FFF7FEFF 		bl	_ZN7daisysp12ClockedNoise7SetFreqEf
 462              	.LVL16:
  63:../../../../DaisyExamples/DaisySP//Source/Noise/fractal_noise.h ****             gain *= decay_;
 463              		.loc 10 63 41 view .LVU95
 464 0090 2046     		mov	r0, r4
  60:../../../../DaisyExamples/DaisySP//Source/Noise/fractal_noise.h ****         {
ARM GAS  C:\Users\samue\AppData\Local\Temp\ccfB2Gwd.s 			page 23


 465              		.loc 10 60 26 view .LVU96
 466 0092 1434     		adds	r4, r4, #20
  63:../../../../DaisyExamples/DaisySP//Source/Noise/fractal_noise.h ****             gain *= decay_;
 467              		.loc 10 63 41 view .LVU97
 468 0094 FFF7FEFF 		bl	_ZN7daisysp12ClockedNoise7ProcessEv
 469              	.LVL17:
  64:../../../../DaisyExamples/DaisySP//Source/Noise/fractal_noise.h ****             frequency *= 2.0f;
 470              		.loc 10 64 18 view .LVU98
 471 0098 DAED027A 		vldr.32	s15, [r10, #8]
  63:../../../../DaisyExamples/DaisySP//Source/Noise/fractal_noise.h ****             gain *= decay_;
 472              		.loc 10 63 17 view .LVU99
 473 009c A0EE289A 		vfma.f32	s18, s0, s17
 474              	.LVL18:
  60:../../../../DaisyExamples/DaisySP//Source/Noise/fractal_noise.h ****         {
 475              		.loc 10 60 26 view .LVU100
 476 00a0 A542     		cmp	r5, r4
  65:../../../../DaisyExamples/DaisySP//Source/Noise/fractal_noise.h ****         }
 477              		.loc 10 65 23 view .LVU101
 478 00a2 38EE088A 		vadd.f32	s16, s16, s16
 479              	.LVL19:
  64:../../../../DaisyExamples/DaisySP//Source/Noise/fractal_noise.h ****             frequency *= 2.0f;
 480              		.loc 10 64 18 view .LVU102
 481 00a6 68EEA78A 		vmul.f32	s17, s17, s15
 482              	.LVL20:
  60:../../../../DaisyExamples/DaisySP//Source/Noise/fractal_noise.h ****         {
 483              		.loc 10 60 9 is_stmt 1 view .LVU103
  60:../../../../DaisyExamples/DaisySP//Source/Noise/fractal_noise.h ****         {
 484              		.loc 10 60 26 view .LVU104
 485 00aa ECD1     		bne	.L7
 486              	.LVL21:
  60:../../../../DaisyExamples/DaisySP//Source/Noise/fractal_noise.h ****         {
 487              		.loc 10 60 26 is_stmt 0 view .LVU105
 488              	.LBE363:
 489              	.LBE365:
 490              	.LBE406:
 491              		.loc 9 28 19 view .LVU106
 492 00ac D8F80020 		ldr	r2, [r8]
  23:Fractal_eval.cpp ****     {
 493              		.loc 9 23 5 view .LVU107
 494 00b0 0136     		adds	r6, r6, #1
 495              	.LVL22:
  23:Fractal_eval.cpp ****     {
 496              		.loc 9 23 25 view .LVU108
 497 00b2 019B     		ldr	r3, [sp, #4]
 498              		.loc 9 28 19 view .LVU109
 499 00b4 9144     		add	r9, r9, r2
 500              		.loc 9 28 31 view .LVU110
 501 00b6 87ED009A 		vstr.32	s18, [r7]
  23:Fractal_eval.cpp ****     {
 502              		.loc 9 23 25 view .LVU111
 503 00ba B342     		cmp	r3, r6
 504              		.loc 9 28 19 view .LVU112
 505 00bc 89ED009A 		vstr.32	s18, [r9]
  23:Fractal_eval.cpp ****     {
 506              		.loc 9 23 5 is_stmt 1 view .LVU113
 507              	.LVL23:
  23:Fractal_eval.cpp ****     {
ARM GAS  C:\Users\samue\AppData\Local\Temp\ccfB2Gwd.s 			page 24


 508              		.loc 9 23 25 view .LVU114
 509 00c0 AED1     		bne	.L8
 510              	.LVL24:
 511              	.L5:
  23:Fractal_eval.cpp ****     {
 512              		.loc 9 23 25 is_stmt 0 view .LVU115
 513              	.LBE411:
  29:Fractal_eval.cpp ****     }
  30:Fractal_eval.cpp **** }
 514              		.loc 9 30 1 view .LVU116
 515 00c2 03B0     		add	sp, sp, #12
 516              		.cfi_def_cfa_offset 52
 517              		@ sp needed
 518 00c4 BDEC048B 		vldm	sp!, {d8-d9}
 519              		.cfi_restore 82
 520              		.cfi_restore 83
 521              		.cfi_restore 80
 522              		.cfi_restore 81
 523              		.cfi_def_cfa_offset 36
 524 00c8 BDE8F08F 		pop	{r4, r5, r6, r7, r8, r9, r10, fp, pc}
 525              	.LVL25:
 526              	.L16:
 527              		.loc 9 30 1 view .LVU117
 528              		.align	2
 529              	.L15:
 530 00cc 00000000 		.word	.LANCHOR0
 531 00d0 00000000 		.word	0
 532 00d4 0C000000 		.word	.LANCHOR2+12
 533 00d8 00000000 		.word	.LANCHOR2
 534 00dc 00000000 		.word	.LANCHOR1
 535              		.cfi_endproc
 536              	.LFE4687:
 538              		.section	.text.startup.main,"ax",%progbits
 539              		.align	1
 540              		.p2align 2,,3
 541              		.global	main
 542              		.syntax unified
 543              		.thumb
 544              		.thumb_func
 545              		.fpu fpv5-d16
 547              	main:
 548              	.LFB4688:
  31:Fractal_eval.cpp **** 
  32:Fractal_eval.cpp **** int main(void)
  33:Fractal_eval.cpp **** {
 549              		.loc 9 33 1 is_stmt 1 view -0
 550              		.cfi_startproc
 551              		@ Volatile: function does not return.
 552              		@ args = 0, pretend = 0, frame = 0
 553              		@ frame_needed = 0, uses_anonymous_args = 0
  34:Fractal_eval.cpp ****     board.add_knob(freq, board.knob_1);
 554              		.loc 9 34 5 view .LVU119
 555              		.loc 9 34 19 is_stmt 0 view .LVU120
 556 0000 0022     		movs	r2, #0
 557 0002 5A48     		ldr	r0, .L23
 558              	.LBB448:
 559              	.LBB449:
ARM GAS  C:\Users\samue\AppData\Local\Temp\ccfB2Gwd.s 			page 25


  43:../../../../DaisyExamples/DaisySP//Source/Noise/fractal_noise.h **** 
 560              		.loc 10 43 22 view .LVU121
 561 0004 5A4D     		ldr	r5, .L23+4
 562              	.LBE449:
 563              	.LBE448:
 564              		.loc 9 34 19 view .LVU122
 565 0006 1146     		mov	r1, r2
 566 0008 05F10C04 		add	r4, r5, #12
 567 000c 05F17006 		add	r6, r5, #112
  33:Fractal_eval.cpp ****     board.add_knob(freq, board.knob_1);
 568              		.loc 9 33 1 view .LVU123
 569 0010 80B5     		push	{r7, lr}
 570              		.cfi_def_cfa_offset 8
 571              		.cfi_offset 7, -8
 572              		.cfi_offset 14, -4
 573              		.loc 9 34 19 view .LVU124
 574 0012 FFF7FEFF 		bl	_ZN5daisy11daisyCommon8add_knobEii
 575              	.LVL26:
  35:Fractal_eval.cpp **** 	board.add_knob(color, board.knob_2);
 576              		.loc 9 35 2 is_stmt 1 view .LVU125
 577              		.loc 9 35 16 is_stmt 0 view .LVU126
 578 0016 0122     		movs	r2, #1
 579 0018 5448     		ldr	r0, .L23
 580 001a 1146     		mov	r1, r2
  36:Fractal_eval.cpp **** 
  37:Fractal_eval.cpp **** 	board.Init();
  38:Fractal_eval.cpp ****     board.seed.SetAudioBlockSize(4);
  39:Fractal_eval.cpp ****     board.seed.SetAudioSampleRate(SaiHandle::Config::SampleRate::SAI_96KHZ);
  40:Fractal_eval.cpp **** 
  41:Fractal_eval.cpp ****     fract.Init(sample_rate);
 581              		.loc 9 41 15 view .LVU127
 582 001c 554F     		ldr	r7, .L23+8
  35:Fractal_eval.cpp **** 	board.add_knob(color, board.knob_2);
 583              		.loc 9 35 16 view .LVU128
 584 001e FFF7FEFF 		bl	_ZN5daisy11daisyCommon8add_knobEii
 585              	.LVL27:
  37:Fractal_eval.cpp ****     board.seed.SetAudioBlockSize(4);
 586              		.loc 9 37 2 is_stmt 1 view .LVU129
  37:Fractal_eval.cpp ****     board.seed.SetAudioBlockSize(4);
 587              		.loc 9 37 12 is_stmt 0 view .LVU130
 588 0022 0021     		movs	r1, #0
 589 0024 5148     		ldr	r0, .L23
 590 0026 FFF7FEFF 		bl	_ZN5daisy11daisyCommon4InitEb
 591              	.LVL28:
  38:Fractal_eval.cpp ****     board.seed.SetAudioSampleRate(SaiHandle::Config::SampleRate::SAI_96KHZ);
 592              		.loc 9 38 5 is_stmt 1 view .LVU131
  38:Fractal_eval.cpp ****     board.seed.SetAudioSampleRate(SaiHandle::Config::SampleRate::SAI_96KHZ);
 593              		.loc 9 38 33 is_stmt 0 view .LVU132
 594 002a 0421     		movs	r1, #4
 595 002c 5248     		ldr	r0, .L23+12
 596 002e FFF7FEFF 		bl	_ZN5daisy9DaisySeed17SetAudioBlockSizeEj
 597              	.LVL29:
  39:Fractal_eval.cpp **** 
 598              		.loc 9 39 5 is_stmt 1 view .LVU133
  39:Fractal_eval.cpp **** 
 599              		.loc 9 39 34 is_stmt 0 view .LVU134
 600 0032 0421     		movs	r1, #4
ARM GAS  C:\Users\samue\AppData\Local\Temp\ccfB2Gwd.s 			page 26


 601 0034 5048     		ldr	r0, .L23+12
 602 0036 FFF7FEFF 		bl	_ZN5daisy9DaisySeed18SetAudioSampleRateENS_9SaiHandle6Config10SampleRateE
 603              	.LVL30:
 604              		.loc 9 41 5 is_stmt 1 view .LVU135
 605              		.loc 9 41 15 is_stmt 0 view .LVU136
 606 003a 97ED000A 		vldr.32	s0, [r7]
 607              	.LVL31:
 608              	.LBB509:
 609              	.LBI448:
  41:../../../../DaisyExamples/DaisySP//Source/Noise/fractal_noise.h ****     {
 610              		.loc 10 41 10 is_stmt 1 view .LVU137
 611              	.LBB506:
 612              	.LBB450:
  49:../../../../DaisyExamples/DaisySP//Source/Noise/fractal_noise.h ****         }
 613              		.loc 10 49 31 is_stmt 0 view .LVU138
 614 003e 2046     		mov	r0, r4
  47:../../../../DaisyExamples/DaisySP//Source/Noise/fractal_noise.h ****         {
 615              		.loc 10 47 26 view .LVU139
 616 0040 1434     		adds	r4, r4, #20
 617              	.LBE450:
 618              	.LBB451:
 619              	.LBB452:
 620              	.LBB453:
 621              	.LBB454:
 622              	.LBB455:
  44:../../../../DaisyExamples/DaisySP//Source/Utility/dsp.h **** #else
 623              		.loc 11 44 5 view .LVU140
 624 0042 DFED4E6A 		vldr.32	s13, .L23+16
 625              	.LBE455:
 626              	.LBE454:
 627              	.LBB459:
 628              	.LBB460:
  55:../../../../DaisyExamples/DaisySP//Source/Utility/dsp.h **** #else
 629              		.loc 11 55 5 view .LVU141
 630 0046 B7EE006A 		vmov.f32	s12, #1.0e+0
 631              	.LBE460:
 632              	.LBE459:
 633              	.LBB463:
 634              	.LBB456:
  44:../../../../DaisyExamples/DaisySP//Source/Utility/dsp.h **** #else
 635              		.loc 11 44 5 view .LVU142
 636 004a B6EE007A 		vmov.f32	s14, #5.0e-1
 637              	.LBE456:
 638              	.LBE463:
 639              	.LBE453:
 640              	.LBE452:
 641              	.LBE451:
 642              	.LBB476:
 643              	.LBB477:
 644              	.LBB478:
 645              	.LBB479:
 646              	.LBB480:
 647 004e DFED4C7A 		vldr.32	s15, .L23+20
 648              	.LBE480:
 649              	.LBE479:
 650              	.LBE478:
 651              	.LBE477:
ARM GAS  C:\Users\samue\AppData\Local\Temp\ccfB2Gwd.s 			page 27


 652              	.LBE476:
 653              	.LBB497:
 654              	.LBB472:
 655              	.LBB468:
 656              	.LBB464:
 657              	.LBB457:
 658              		.syntax unified
 659              	@ 44 "../../../../DaisyExamples/DaisySP//Source/Utility/dsp.h" 1
 660 0052 87FE267A 		vmaxnm.f32 s14, s14, s13
 661              	@ 0 "" 2
 662              		.thumb
 663              		.syntax unified
 664              	.LBE457:
 665              	.LBE464:
 666              	.LBE468:
 667              	.LBE472:
 668              	.LBE497:
 669              	.LBB498:
 670              	.LBB493:
 671              	.LBB489:
 672              	.LBB483:
 673              	.LBB481:
 674              		.syntax unified
 675              	@ 44 "../../../../DaisyExamples/DaisySP//Source/Utility/dsp.h" 1
 676 0056 C7FEA67A 		vmaxnm.f32 s15, s15, s13
 677              	@ 0 "" 2
 678              		.thumb
 679              		.syntax unified
 680              	.LBE481:
 681              	.LBE483:
 682              	.LBE489:
 683              	.LBE493:
 684              	.LBE498:
 685              	.LBB499:
 686              	.LBB473:
 687              	.LBB469:
 688              	.LBB465:
 689              	.LBB461:
  55:../../../../DaisyExamples/DaisySP//Source/Utility/dsp.h **** #else
 690              		.loc 11 55 5 view .LVU143
 691              		.syntax unified
 692              	@ 55 "../../../../DaisyExamples/DaisySP//Source/Utility/dsp.h" 1
 693 005a 87FE467A 		vminnm.f32 s14, s14, s12
 694              	@ 0 "" 2
 695              		.thumb
 696              		.syntax unified
 697              	.LBE461:
 698              	.LBE465:
 699              	.LBE469:
 700              	.LBE473:
 701              	.LBE499:
 702              	.LBB500:
 703              	.LBB494:
 704              	.LBB490:
 705              	.LBB484:
 706              	.LBB485:
 707              		.syntax unified
ARM GAS  C:\Users\samue\AppData\Local\Temp\ccfB2Gwd.s 			page 28


 708              	@ 55 "../../../../DaisyExamples/DaisySP//Source/Utility/dsp.h" 1
 709 005e C7FEC07A 		vminnm.f32 s15, s15, s0
 710              	@ 0 "" 2
 711              		.thumb
 712              		.syntax unified
 713              	.LBE485:
 714              	.LBE484:
 715              	.LBE490:
 716              	.LBE494:
 717              	.LBE500:
  43:../../../../DaisyExamples/DaisySP//Source/Noise/fractal_noise.h **** 
 718              		.loc 10 43 22 view .LVU144
 719 0062 85ED000A 		vstr.32	s0, [r5]
 720              	.LVL32:
 721              	.LBB501:
 722              	.LBI451:
 723              		.loc 10 79 10 is_stmt 1 view .LVU145
 724              	.LBB474:
 725              	.LBB470:
 726              	.LBI453:
  64:../../../../DaisyExamples/DaisySP//Source/Utility/dsp.h **** {
 727              		.loc 11 64 14 view .LVU146
 728              	.LBE470:
 729              	.LBE474:
 730              	.LBE501:
 731              	.LBE506:
 732              	.LBE509:
  66:../../../../DaisyExamples/DaisySP//Source/Utility/dsp.h **** }
 733              		.loc 11 66 5 view .LVU147
 734              	.LBB510:
 735              	.LBB507:
 736              	.LBB502:
 737              	.LBB475:
 738              	.LBB471:
 739              	.LBB466:
 740              	.LBI454:
  40:../../../../DaisyExamples/DaisySP//Source/Utility/dsp.h **** {
 741              		.loc 11 40 14 view .LVU148
 742              	.LBB458:
  42:../../../../DaisyExamples/DaisySP//Source/Utility/dsp.h **** #ifdef __arm__
 743              		.loc 11 42 5 view .LVU149
  44:../../../../DaisyExamples/DaisySP//Source/Utility/dsp.h **** #else
 744              		.loc 11 44 5 view .LVU150
  48:../../../../DaisyExamples/DaisySP//Source/Utility/dsp.h **** }
 745              		.loc 11 48 5 view .LVU151
  48:../../../../DaisyExamples/DaisySP//Source/Utility/dsp.h **** }
 746              		.loc 11 48 5 is_stmt 0 view .LVU152
 747              	.LBE458:
 748              	.LBE466:
 749              	.LBB467:
 750              	.LBI459:
  51:../../../../DaisyExamples/DaisySP//Source/Utility/dsp.h **** {
 751              		.loc 11 51 14 is_stmt 1 view .LVU153
 752              	.LBB462:
  53:../../../../DaisyExamples/DaisySP//Source/Utility/dsp.h **** #ifdef __arm__
 753              		.loc 11 53 5 view .LVU154
  55:../../../../DaisyExamples/DaisySP//Source/Utility/dsp.h **** #else
ARM GAS  C:\Users\samue\AppData\Local\Temp\ccfB2Gwd.s 			page 29


 754              		.loc 11 55 5 view .LVU155
  59:../../../../DaisyExamples/DaisySP//Source/Utility/dsp.h **** }
 755              		.loc 11 59 5 view .LVU156
  59:../../../../DaisyExamples/DaisySP//Source/Utility/dsp.h **** }
 756              		.loc 11 59 5 is_stmt 0 view .LVU157
 757              	.LBE462:
 758              	.LBE467:
 759              	.LBE471:
 760              		.loc 10 79 41 view .LVU158
 761 0066 85ED027A 		vstr.32	s14, [r5, #8]
 762              	.LVL33:
 763              		.loc 10 79 41 view .LVU159
 764              	.LBE475:
 765              	.LBE502:
 766              	.LBB503:
 767              	.LBI476:
  74:../../../../DaisyExamples/DaisySP//Source/Noise/fractal_noise.h **** 
 768              		.loc 10 74 10 is_stmt 1 view .LVU160
 769              	.LBB495:
 770              	.LBB491:
 771              	.LBI478:
  64:../../../../DaisyExamples/DaisySP//Source/Utility/dsp.h **** {
 772              		.loc 11 64 14 view .LVU161
 773              	.LBE491:
 774              	.LBE495:
 775              	.LBE503:
 776              	.LBE507:
 777              	.LBE510:
  66:../../../../DaisyExamples/DaisySP//Source/Utility/dsp.h **** }
 778              		.loc 11 66 5 view .LVU162
 779              	.LBB511:
 780              	.LBB508:
 781              	.LBB504:
 782              	.LBB496:
 783              	.LBB492:
 784              	.LBB487:
 785              	.LBI479:
  40:../../../../DaisyExamples/DaisySP//Source/Utility/dsp.h **** {
 786              		.loc 11 40 14 view .LVU163
 787              	.LBB482:
  42:../../../../DaisyExamples/DaisySP//Source/Utility/dsp.h **** #ifdef __arm__
 788              		.loc 11 42 5 view .LVU164
  44:../../../../DaisyExamples/DaisySP//Source/Utility/dsp.h **** #else
 789              		.loc 11 44 5 view .LVU165
  48:../../../../DaisyExamples/DaisySP//Source/Utility/dsp.h **** }
 790              		.loc 11 48 5 view .LVU166
  48:../../../../DaisyExamples/DaisySP//Source/Utility/dsp.h **** }
 791              		.loc 11 48 5 is_stmt 0 view .LVU167
 792              	.LBE482:
 793              	.LBE487:
 794              	.LBB488:
 795              	.LBI484:
  51:../../../../DaisyExamples/DaisySP//Source/Utility/dsp.h **** {
 796              		.loc 11 51 14 is_stmt 1 view .LVU168
 797              	.LBB486:
  53:../../../../DaisyExamples/DaisySP//Source/Utility/dsp.h **** #ifdef __arm__
 798              		.loc 11 53 5 view .LVU169
ARM GAS  C:\Users\samue\AppData\Local\Temp\ccfB2Gwd.s 			page 30


  55:../../../../DaisyExamples/DaisySP//Source/Utility/dsp.h **** #else
 799              		.loc 11 55 5 view .LVU170
  59:../../../../DaisyExamples/DaisySP//Source/Utility/dsp.h **** }
 800              		.loc 11 59 5 view .LVU171
  59:../../../../DaisyExamples/DaisySP//Source/Utility/dsp.h **** }
 801              		.loc 11 59 5 is_stmt 0 view .LVU172
 802              	.LBE486:
 803              	.LBE488:
 804              	.LBE492:
  74:../../../../DaisyExamples/DaisySP//Source/Noise/fractal_noise.h **** 
 805              		.loc 10 74 43 view .LVU173
 806 006a C5ED017A 		vstr.32	s15, [r5, #4]
 807              	.LVL34:
  74:../../../../DaisyExamples/DaisySP//Source/Noise/fractal_noise.h **** 
 808              		.loc 10 74 43 view .LVU174
 809              	.LBE496:
 810              	.LBE504:
 811              	.LBB505:
  47:../../../../DaisyExamples/DaisySP//Source/Noise/fractal_noise.h ****         {
 812              		.loc 10 47 26 is_stmt 1 view .LVU175
  49:../../../../DaisyExamples/DaisySP//Source/Noise/fractal_noise.h ****         }
 813              		.loc 10 49 31 is_stmt 0 view .LVU176
 814 006e FFF7FEFF 		bl	_ZN7daisysp12ClockedNoise4InitEf
 815              	.LVL35:
  47:../../../../DaisyExamples/DaisySP//Source/Noise/fractal_noise.h ****         {
 816              		.loc 10 47 9 is_stmt 1 view .LVU177
  47:../../../../DaisyExamples/DaisySP//Source/Noise/fractal_noise.h ****         {
 817              		.loc 10 47 26 view .LVU178
 818 0072 A642     		cmp	r6, r4
 819 0074 07D0     		beq	.L18
 820              	.L22:
  49:../../../../DaisyExamples/DaisySP//Source/Noise/fractal_noise.h ****         }
 821              		.loc 10 49 31 is_stmt 0 view .LVU179
 822 0076 2046     		mov	r0, r4
  47:../../../../DaisyExamples/DaisySP//Source/Noise/fractal_noise.h ****         {
 823              		.loc 10 47 26 view .LVU180
 824 0078 1434     		adds	r4, r4, #20
  49:../../../../DaisyExamples/DaisySP//Source/Noise/fractal_noise.h ****         }
 825              		.loc 10 49 31 view .LVU181
 826 007a 95ED000A 		vldr.32	s0, [r5]
 827 007e FFF7FEFF 		bl	_ZN7daisysp12ClockedNoise4InitEf
 828              	.LVL36:
  47:../../../../DaisyExamples/DaisySP//Source/Noise/fractal_noise.h ****         {
 829              		.loc 10 47 9 is_stmt 1 view .LVU182
  47:../../../../DaisyExamples/DaisySP//Source/Noise/fractal_noise.h ****         {
 830              		.loc 10 47 26 view .LVU183
 831 0082 A642     		cmp	r6, r4
 832 0084 F7D1     		bne	.L22
 833              	.L18:
 834              	.LVL37:
  47:../../../../DaisyExamples/DaisySP//Source/Noise/fractal_noise.h ****         {
 835              		.loc 10 47 26 is_stmt 0 view .LVU184
 836              	.LBE505:
 837              	.LBE508:
 838              	.LBE511:
  42:Fractal_eval.cpp ****     fract.SetFreq(sample_rate / 10.f);
 839              		.loc 9 42 5 is_stmt 1 view .LVU185
ARM GAS  C:\Users\samue\AppData\Local\Temp\ccfB2Gwd.s 			page 31


 840              	.LBB512:
 841              	.LBB513:
 842              		.file 12 "../../../../DaisyExamples/DaisySP//Source/Synthesis/oscillator.h"
   1:../../../../DaisyExamples/DaisySP//Source/Synthesis/oscillator.h **** /*
   2:../../../../DaisyExamples/DaisySP//Source/Synthesis/oscillator.h **** Copyright (c) 2020 Electrosmith, Corp
   3:../../../../DaisyExamples/DaisySP//Source/Synthesis/oscillator.h **** 
   4:../../../../DaisyExamples/DaisySP//Source/Synthesis/oscillator.h **** Use of this source code is governed by an MIT-style
   5:../../../../DaisyExamples/DaisySP//Source/Synthesis/oscillator.h **** license that can be found in the LICENSE file or at
   6:../../../../DaisyExamples/DaisySP//Source/Synthesis/oscillator.h **** https://opensource.org/licenses/MIT.
   7:../../../../DaisyExamples/DaisySP//Source/Synthesis/oscillator.h **** */
   8:../../../../DaisyExamples/DaisySP//Source/Synthesis/oscillator.h **** 
   9:../../../../DaisyExamples/DaisySP//Source/Synthesis/oscillator.h **** #pragma once
  10:../../../../DaisyExamples/DaisySP//Source/Synthesis/oscillator.h **** #ifndef DSY_OSCILLATOR_H
  11:../../../../DaisyExamples/DaisySP//Source/Synthesis/oscillator.h **** #define DSY_OSCILLATOR_H
  12:../../../../DaisyExamples/DaisySP//Source/Synthesis/oscillator.h **** #include <stdint.h>
  13:../../../../DaisyExamples/DaisySP//Source/Synthesis/oscillator.h **** #include "Utility/dsp.h"
  14:../../../../DaisyExamples/DaisySP//Source/Synthesis/oscillator.h **** #ifdef __cplusplus
  15:../../../../DaisyExamples/DaisySP//Source/Synthesis/oscillator.h **** 
  16:../../../../DaisyExamples/DaisySP//Source/Synthesis/oscillator.h **** namespace daisysp
  17:../../../../DaisyExamples/DaisySP//Source/Synthesis/oscillator.h **** {
  18:../../../../DaisyExamples/DaisySP//Source/Synthesis/oscillator.h **** /** Synthesis of several waveforms, including polyBLEP bandlimited waveforms.
  19:../../../../DaisyExamples/DaisySP//Source/Synthesis/oscillator.h **** */
  20:../../../../DaisyExamples/DaisySP//Source/Synthesis/oscillator.h **** class Oscillator
  21:../../../../DaisyExamples/DaisySP//Source/Synthesis/oscillator.h **** {
  22:../../../../DaisyExamples/DaisySP//Source/Synthesis/oscillator.h ****   public:
  23:../../../../DaisyExamples/DaisySP//Source/Synthesis/oscillator.h ****     Oscillator() {}
  24:../../../../DaisyExamples/DaisySP//Source/Synthesis/oscillator.h ****     ~Oscillator() {}
  25:../../../../DaisyExamples/DaisySP//Source/Synthesis/oscillator.h ****     /** Choices for output waveforms, POLYBLEP are appropriately labeled. Others are naive forms.
  26:../../../../DaisyExamples/DaisySP//Source/Synthesis/oscillator.h ****     */
  27:../../../../DaisyExamples/DaisySP//Source/Synthesis/oscillator.h ****     enum
  28:../../../../DaisyExamples/DaisySP//Source/Synthesis/oscillator.h ****     {
  29:../../../../DaisyExamples/DaisySP//Source/Synthesis/oscillator.h ****         WAVE_SIN,
  30:../../../../DaisyExamples/DaisySP//Source/Synthesis/oscillator.h ****         WAVE_TRI,
  31:../../../../DaisyExamples/DaisySP//Source/Synthesis/oscillator.h ****         WAVE_SAW,
  32:../../../../DaisyExamples/DaisySP//Source/Synthesis/oscillator.h ****         WAVE_RAMP,
  33:../../../../DaisyExamples/DaisySP//Source/Synthesis/oscillator.h ****         WAVE_SQUARE,
  34:../../../../DaisyExamples/DaisySP//Source/Synthesis/oscillator.h ****         WAVE_POLYBLEP_TRI,
  35:../../../../DaisyExamples/DaisySP//Source/Synthesis/oscillator.h ****         WAVE_POLYBLEP_SAW,
  36:../../../../DaisyExamples/DaisySP//Source/Synthesis/oscillator.h ****         WAVE_POLYBLEP_SQUARE,
  37:../../../../DaisyExamples/DaisySP//Source/Synthesis/oscillator.h ****         WAVE_LAST,
  38:../../../../DaisyExamples/DaisySP//Source/Synthesis/oscillator.h ****     };
  39:../../../../DaisyExamples/DaisySP//Source/Synthesis/oscillator.h **** 
  40:../../../../DaisyExamples/DaisySP//Source/Synthesis/oscillator.h **** 
  41:../../../../DaisyExamples/DaisySP//Source/Synthesis/oscillator.h ****     /** Initializes the Oscillator
  42:../../../../DaisyExamples/DaisySP//Source/Synthesis/oscillator.h **** 
  43:../../../../DaisyExamples/DaisySP//Source/Synthesis/oscillator.h ****         \param sample_rate - sample rate of the audio engine being run, and the frequency that the 
  44:../../../../DaisyExamples/DaisySP//Source/Synthesis/oscillator.h **** 
  45:../../../../DaisyExamples/DaisySP//Source/Synthesis/oscillator.h ****         Defaults:
  46:../../../../DaisyExamples/DaisySP//Source/Synthesis/oscillator.h ****         - freq_ = 100 Hz
  47:../../../../DaisyExamples/DaisySP//Source/Synthesis/oscillator.h ****         - amp_ = 0.5
  48:../../../../DaisyExamples/DaisySP//Source/Synthesis/oscillator.h ****         - waveform_ = sine wave.
  49:../../../../DaisyExamples/DaisySP//Source/Synthesis/oscillator.h ****     */
  50:../../../../DaisyExamples/DaisySP//Source/Synthesis/oscillator.h ****     void Init(float sample_rate)
  51:../../../../DaisyExamples/DaisySP//Source/Synthesis/oscillator.h ****     {
  52:../../../../DaisyExamples/DaisySP//Source/Synthesis/oscillator.h ****         sr_        = sample_rate;
  53:../../../../DaisyExamples/DaisySP//Source/Synthesis/oscillator.h ****         sr_recip_  = 1.0f / sample_rate;
 843              		.loc 12 53 27 is_stmt 0 view .LVU186
ARM GAS  C:\Users\samue\AppData\Local\Temp\ccfB2Gwd.s 			page 32


 844 0086 F7EE008A 		vmov.f32	s17, #1.0e+0
 845              	.LBE513:
 846              	.LBE512:
 847              		.loc 9 42 18 view .LVU187
 848 008a 97ED007A 		vldr.32	s14, [r7]
 849              	.LVL38:
 850              	.LBB521:
 851              	.LBI521:
  74:../../../../DaisyExamples/DaisySP//Source/Noise/fractal_noise.h **** 
 852              		.loc 10 74 10 is_stmt 1 view .LVU188
 853              	.LBB522:
 854              	.LBB523:
 855              	.LBI523:
  64:../../../../DaisyExamples/DaisySP//Source/Utility/dsp.h **** {
 856              		.loc 11 64 14 view .LVU189
 857              	.LBE523:
 858              	.LBE522:
 859              	.LBE521:
  66:../../../../DaisyExamples/DaisySP//Source/Utility/dsp.h **** }
 860              		.loc 11 66 5 view .LVU190
 861              	.LBB540:
 862              	.LBB537:
 863              	.LBB534:
 864              	.LBB524:
 865              	.LBI524:
  40:../../../../DaisyExamples/DaisySP//Source/Utility/dsp.h **** {
 866              		.loc 11 40 14 view .LVU191
 867              	.LBB525:
  42:../../../../DaisyExamples/DaisySP//Source/Utility/dsp.h **** #ifdef __arm__
 868              		.loc 11 42 5 view .LVU192
  44:../../../../DaisyExamples/DaisySP//Source/Utility/dsp.h **** #else
 869              		.loc 11 44 5 view .LVU193
 870              	.LBE525:
 871              	.LBE524:
 872              	.LBE534:
 873              	.LBE537:
 874              	.LBE540:
 875              	.LBB541:
 876              	.LBB514:
  52:../../../../DaisyExamples/DaisySP//Source/Synthesis/oscillator.h ****         sr_recip_  = 1.0f / sample_rate;
 877              		.loc 12 52 20 is_stmt 0 view .LVU194
 878 008e 3D4C     		ldr	r4, .L23+24
  54:../../../../DaisyExamples/DaisySP//Source/Synthesis/oscillator.h ****         freq_      = 100.0f;
  55:../../../../DaisyExamples/DaisySP//Source/Synthesis/oscillator.h ****         amp_       = 0.5f;
 879              		.loc 12 55 20 view .LVU195
 880 0090 4FF07C56 		mov	r6, #1056964608
  54:../../../../DaisyExamples/DaisySP//Source/Synthesis/oscillator.h ****         freq_      = 100.0f;
 881              		.loc 12 54 20 view .LVU196
 882 0094 9FED3C8A 		vldr.32	s16, .L23+28
 883              	.LBE514:
 884              	.LBE541:
 885              		.loc 9 42 18 view .LVU197
 886 0098 B2EE046A 		vmov.f32	s12, #1.0e+1
 887              	.LBB542:
 888              	.LBB515:
  53:../../../../DaisyExamples/DaisySP//Source/Synthesis/oscillator.h ****         freq_      = 100.0f;
 889              		.loc 12 53 27 view .LVU198
ARM GAS  C:\Users\samue\AppData\Local\Temp\ccfB2Gwd.s 			page 33


 890 009c C8EE876A 		vdiv.f32	s13, s17, s14
 891              	.LBE515:
 892              	.LBE542:
 893              	.LBB543:
 894              	.LBB538:
 895              	.LBB535:
 896              	.LBB528:
 897              	.LBB526:
  44:../../../../DaisyExamples/DaisySP//Source/Utility/dsp.h **** #else
 898              		.loc 11 44 5 view .LVU199
 899 00a0 9FED369A 		vldr.32	s18, .L23+16
 900              	.LBE526:
 901              	.LBE528:
 902              	.LBE535:
 903              	.LBE538:
 904              	.LBE543:
 905              	.LBB544:
 906              	.LBB516:
  56:../../../../DaisyExamples/DaisySP//Source/Synthesis/oscillator.h ****         pw_        = 0.5f;
  57:../../../../DaisyExamples/DaisySP//Source/Synthesis/oscillator.h ****         phase_     = 0.0f;
  58:../../../../DaisyExamples/DaisySP//Source/Synthesis/oscillator.h ****         phase_inc_ = CalcPhaseInc(freq_);
 907              		.loc 12 58 34 view .LVU200
 908 00a4 2046     		mov	r0, r4
  52:../../../../DaisyExamples/DaisySP//Source/Synthesis/oscillator.h ****         sr_recip_  = 1.0f / sample_rate;
 909              		.loc 12 52 20 view .LVU201
 910 00a6 84ED047A 		vstr.32	s14, [r4, #16]
  54:../../../../DaisyExamples/DaisySP//Source/Synthesis/oscillator.h ****         amp_       = 0.5f;
 911              		.loc 12 54 20 view .LVU202
 912 00aa 84ED028A 		vstr.32	s16, [r4, #8]
  59:../../../../DaisyExamples/DaisySP//Source/Synthesis/oscillator.h ****         waveform_  = WAVE_SIN;
 913              		.loc 12 59 20 view .LVU203
 914 00ae 4FF00008 		mov	r8, #0
  55:../../../../DaisyExamples/DaisySP//Source/Synthesis/oscillator.h ****         pw_        = 0.5f;
 915              		.loc 12 55 20 view .LVU204
 916 00b2 6660     		str	r6, [r4, #4]	@ float
  56:../../../../DaisyExamples/DaisySP//Source/Synthesis/oscillator.h ****         phase_     = 0.0f;
 917              		.loc 12 56 20 view .LVU205
 918 00b4 E660     		str	r6, [r4, #12]	@ float
  58:../../../../DaisyExamples/DaisySP//Source/Synthesis/oscillator.h ****         waveform_  = WAVE_SIN;
 919              		.loc 12 58 34 view .LVU206
 920 00b6 B0EE480A 		vmov.f32	s0, s16
  57:../../../../DaisyExamples/DaisySP//Source/Synthesis/oscillator.h ****         phase_inc_ = CalcPhaseInc(freq_);
 921              		.loc 12 57 20 view .LVU207
 922 00ba 84ED069A 		vstr.32	s18, [r4, #24]
 923              	.LBE516:
 924              	.LBE544:
 925              		.loc 9 42 18 view .LVU208
 926 00be C7EE067A 		vdiv.f32	s15, s14, s12
 927              	.LVL39:
 928              	.LBB545:
 929              	.LBB539:
 930              	.LBB536:
 931              	.LBB529:
 932              	.LBB530:
  55:../../../../DaisyExamples/DaisySP//Source/Utility/dsp.h **** #else
 933              		.loc 11 55 5 view .LVU209
 934 00c2 95ED006A 		vldr.32	s12, [r5]
ARM GAS  C:\Users\samue\AppData\Local\Temp\ccfB2Gwd.s 			page 34


 935              	.LBE530:
 936              	.LBE529:
 937              	.LBB532:
 938              	.LBB527:
  44:../../../../DaisyExamples/DaisySP//Source/Utility/dsp.h **** #else
 939              		.loc 11 44 5 view .LVU210
 940              		.syntax unified
 941              	@ 44 "../../../../DaisyExamples/DaisySP//Source/Utility/dsp.h" 1
 942 00c6 C7FE897A 		vmaxnm.f32 s15, s15, s18
 943              	@ 0 "" 2
 944              	.LVL40:
  48:../../../../DaisyExamples/DaisySP//Source/Utility/dsp.h **** }
 945              		.loc 11 48 5 is_stmt 1 view .LVU211
  48:../../../../DaisyExamples/DaisySP//Source/Utility/dsp.h **** }
 946              		.loc 11 48 5 is_stmt 0 view .LVU212
 947              		.thumb
 948              		.syntax unified
 949              	.LBE527:
 950              	.LBE532:
 951              	.LBB533:
 952              	.LBI529:
  51:../../../../DaisyExamples/DaisySP//Source/Utility/dsp.h **** {
 953              		.loc 11 51 14 is_stmt 1 view .LVU213
 954              	.LBB531:
  53:../../../../DaisyExamples/DaisySP//Source/Utility/dsp.h **** #ifdef __arm__
 955              		.loc 11 53 5 view .LVU214
  55:../../../../DaisyExamples/DaisySP//Source/Utility/dsp.h **** #else
 956              		.loc 11 55 5 view .LVU215
 957              		.syntax unified
 958              	@ 55 "../../../../DaisyExamples/DaisySP//Source/Utility/dsp.h" 1
 959 00ca C7FEC67A 		vminnm.f32 s15, s15, s12
 960              	@ 0 "" 2
 961              	.LVL41:
  59:../../../../DaisyExamples/DaisySP//Source/Utility/dsp.h **** }
 962              		.loc 11 59 5 view .LVU216
  59:../../../../DaisyExamples/DaisySP//Source/Utility/dsp.h **** }
 963              		.loc 11 59 5 is_stmt 0 view .LVU217
 964              		.thumb
 965              		.syntax unified
 966              	.LBE531:
 967              	.LBE533:
 968              	.LBE536:
  74:../../../../DaisyExamples/DaisySP//Source/Noise/fractal_noise.h **** 
 969              		.loc 10 74 43 view .LVU218
 970 00ce C5ED017A 		vstr.32	s15, [r5, #4]
 971              	.LVL42:
  74:../../../../DaisyExamples/DaisySP//Source/Noise/fractal_noise.h **** 
 972              		.loc 10 74 43 view .LVU219
 973              	.LBE539:
 974              	.LBE545:
  43:Fractal_eval.cpp **** 
  44:Fractal_eval.cpp ****     lfo[0].Init(sample_rate);
 975              		.loc 9 44 5 is_stmt 1 view .LVU220
 976              	.LBB546:
 977              	.LBI512:
  50:../../../../DaisyExamples/DaisySP//Source/Synthesis/oscillator.h ****     {
 978              		.loc 12 50 10 view .LVU221
ARM GAS  C:\Users\samue\AppData\Local\Temp\ccfB2Gwd.s 			page 35


 979              	.LBB517:
  52:../../../../DaisyExamples/DaisySP//Source/Synthesis/oscillator.h ****         sr_recip_  = 1.0f / sample_rate;
 980              		.loc 12 52 9 view .LVU222
  53:../../../../DaisyExamples/DaisySP//Source/Synthesis/oscillator.h ****         freq_      = 100.0f;
 981              		.loc 12 53 9 view .LVU223
  60:../../../../DaisyExamples/DaisySP//Source/Synthesis/oscillator.h ****         eoc_       = true;
  61:../../../../DaisyExamples/DaisySP//Source/Synthesis/oscillator.h ****         eor_       = true;
 982              		.loc 12 61 20 is_stmt 0 view .LVU224
 983 00d2 40F20115 		movw	r5, #257
  53:../../../../DaisyExamples/DaisySP//Source/Synthesis/oscillator.h ****         freq_      = 100.0f;
 984              		.loc 12 53 20 view .LVU225
 985 00d6 C4ED056A 		vstr.32	s13, [r4, #20]
  54:../../../../DaisyExamples/DaisySP//Source/Synthesis/oscillator.h ****         amp_       = 0.5f;
 986              		.loc 12 54 9 is_stmt 1 view .LVU226
  55:../../../../DaisyExamples/DaisySP//Source/Synthesis/oscillator.h ****         pw_        = 0.5f;
 987              		.loc 12 55 9 view .LVU227
  56:../../../../DaisyExamples/DaisySP//Source/Synthesis/oscillator.h ****         phase_     = 0.0f;
 988              		.loc 12 56 9 view .LVU228
  57:../../../../DaisyExamples/DaisySP//Source/Synthesis/oscillator.h ****         phase_inc_ = CalcPhaseInc(freq_);
 989              		.loc 12 57 9 view .LVU229
  58:../../../../DaisyExamples/DaisySP//Source/Synthesis/oscillator.h ****         waveform_  = WAVE_SIN;
 990              		.loc 12 58 9 view .LVU230
  58:../../../../DaisyExamples/DaisySP//Source/Synthesis/oscillator.h ****         waveform_  = WAVE_SIN;
 991              		.loc 12 58 34 is_stmt 0 view .LVU231
 992 00da FFF7FEFF 		bl	_ZN7daisysp10Oscillator12CalcPhaseIncEf
 993              	.LVL43:
  58:../../../../DaisyExamples/DaisySP//Source/Synthesis/oscillator.h ****         waveform_  = WAVE_SIN;
 994              		.loc 12 58 34 view .LVU232
 995              	.LBE517:
 996              	.LBE546:
  45:Fractal_eval.cpp ****     lfo[1].Init(sample_rate);
 997              		.loc 9 45 16 view .LVU233
 998 00de D7ED007A 		vldr.32	s15, [r7]
 999              	.LBB547:
 1000              	.LBB518:
  58:../../../../DaisyExamples/DaisySP//Source/Synthesis/oscillator.h ****         waveform_  = WAVE_SIN;
 1001              		.loc 12 58 34 view .LVU234
 1002 00e2 F0EE406A 		vmov.f32	s13, s0
 1003              	.LBE518:
 1004              	.LBE547:
 1005              	.LBB548:
 1006              	.LBB549:
 1007 00e6 04F12C00 		add	r0, r4, #44
  53:../../../../DaisyExamples/DaisySP//Source/Synthesis/oscillator.h ****         freq_      = 100.0f;
 1008              		.loc 12 53 27 view .LVU235
 1009 00ea 88EEA77A 		vdiv.f32	s14, s17, s15
  52:../../../../DaisyExamples/DaisySP//Source/Synthesis/oscillator.h ****         sr_recip_  = 1.0f / sample_rate;
 1010              		.loc 12 52 20 view .LVU236
 1011 00ee C4ED0F7A 		vstr.32	s15, [r4, #60]
 1012              	.LBE549:
 1013              	.LBE548:
 1014              	.LBB554:
 1015              	.LBB519:
  59:../../../../DaisyExamples/DaisySP//Source/Synthesis/oscillator.h ****         eoc_       = true;
 1016              		.loc 12 59 20 view .LVU237
 1017 00f2 84F80080 		strb	r8, [r4]
  58:../../../../DaisyExamples/DaisySP//Source/Synthesis/oscillator.h ****         waveform_  = WAVE_SIN;
ARM GAS  C:\Users\samue\AppData\Local\Temp\ccfB2Gwd.s 			page 36


 1018              		.loc 12 58 20 view .LVU238
 1019 00f6 C4ED076A 		vstr.32	s13, [r4, #28]
  59:../../../../DaisyExamples/DaisySP//Source/Synthesis/oscillator.h ****         eoc_       = true;
 1020              		.loc 12 59 9 is_stmt 1 view .LVU239
  60:../../../../DaisyExamples/DaisySP//Source/Synthesis/oscillator.h ****         eor_       = true;
 1021              		.loc 12 60 9 view .LVU240
 1022              		.loc 12 61 9 view .LVU241
 1023              	.LBE519:
 1024              	.LBE554:
 1025              	.LBB555:
 1026              	.LBB550:
  54:../../../../DaisyExamples/DaisySP//Source/Synthesis/oscillator.h ****         amp_       = 0.5f;
 1027              		.loc 12 54 20 is_stmt 0 view .LVU242
 1028 00fa 84ED0D8A 		vstr.32	s16, [r4, #52]
  55:../../../../DaisyExamples/DaisySP//Source/Synthesis/oscillator.h ****         pw_        = 0.5f;
 1029              		.loc 12 55 20 view .LVU243
 1030 00fe 2663     		str	r6, [r4, #48]	@ float
  58:../../../../DaisyExamples/DaisySP//Source/Synthesis/oscillator.h ****         waveform_  = WAVE_SIN;
 1031              		.loc 12 58 34 view .LVU244
 1032 0100 B0EE480A 		vmov.f32	s0, s16
 1033              	.LBE550:
 1034              	.LBE555:
 1035              	.LBB556:
 1036              	.LBB520:
 1037              		.loc 12 61 20 view .LVU245
 1038 0104 2585     		strh	r5, [r4, #40]	@ movhi
 1039              	.LVL44:
 1040              		.loc 12 61 20 view .LVU246
 1041              	.LBE520:
 1042              	.LBE556:
 1043              		.loc 9 45 5 is_stmt 1 view .LVU247
 1044              	.LBB557:
 1045              	.LBI548:
  50:../../../../DaisyExamples/DaisySP//Source/Synthesis/oscillator.h ****     {
 1046              		.loc 12 50 10 view .LVU248
 1047              	.LBB551:
  52:../../../../DaisyExamples/DaisySP//Source/Synthesis/oscillator.h ****         sr_recip_  = 1.0f / sample_rate;
 1048              		.loc 12 52 9 view .LVU249
  53:../../../../DaisyExamples/DaisySP//Source/Synthesis/oscillator.h ****         freq_      = 100.0f;
 1049              		.loc 12 53 9 view .LVU250
  56:../../../../DaisyExamples/DaisySP//Source/Synthesis/oscillator.h ****         phase_     = 0.0f;
 1050              		.loc 12 56 20 is_stmt 0 view .LVU251
 1051 0106 A663     		str	r6, [r4, #56]	@ float
  57:../../../../DaisyExamples/DaisySP//Source/Synthesis/oscillator.h ****         phase_inc_ = CalcPhaseInc(freq_);
 1052              		.loc 12 57 20 view .LVU252
 1053 0108 84ED119A 		vstr.32	s18, [r4, #68]
  53:../../../../DaisyExamples/DaisySP//Source/Synthesis/oscillator.h ****         freq_      = 100.0f;
 1054              		.loc 12 53 20 view .LVU253
 1055 010c 84ED107A 		vstr.32	s14, [r4, #64]
  54:../../../../DaisyExamples/DaisySP//Source/Synthesis/oscillator.h ****         amp_       = 0.5f;
 1056              		.loc 12 54 9 is_stmt 1 view .LVU254
  55:../../../../DaisyExamples/DaisySP//Source/Synthesis/oscillator.h ****         pw_        = 0.5f;
 1057              		.loc 12 55 9 view .LVU255
  56:../../../../DaisyExamples/DaisySP//Source/Synthesis/oscillator.h ****         phase_     = 0.0f;
 1058              		.loc 12 56 9 view .LVU256
  57:../../../../DaisyExamples/DaisySP//Source/Synthesis/oscillator.h ****         phase_inc_ = CalcPhaseInc(freq_);
 1059              		.loc 12 57 9 view .LVU257
ARM GAS  C:\Users\samue\AppData\Local\Temp\ccfB2Gwd.s 			page 37


  58:../../../../DaisyExamples/DaisySP//Source/Synthesis/oscillator.h ****         waveform_  = WAVE_SIN;
 1060              		.loc 12 58 9 view .LVU258
  58:../../../../DaisyExamples/DaisySP//Source/Synthesis/oscillator.h ****         waveform_  = WAVE_SIN;
 1061              		.loc 12 58 34 is_stmt 0 view .LVU259
 1062 0110 FFF7FEFF 		bl	_ZN7daisysp10Oscillator12CalcPhaseIncEf
 1063              	.LVL45:
  58:../../../../DaisyExamples/DaisySP//Source/Synthesis/oscillator.h ****         waveform_  = WAVE_SIN;
 1064              		.loc 12 58 34 view .LVU260
 1065              	.LBE551:
 1066              	.LBE557:
 1067              	.LBB558:
 1068              	.LBB559:
  62:../../../../DaisyExamples/DaisySP//Source/Synthesis/oscillator.h ****     }
  63:../../../../DaisyExamples/DaisySP//Source/Synthesis/oscillator.h **** 
  64:../../../../DaisyExamples/DaisySP//Source/Synthesis/oscillator.h **** 
  65:../../../../DaisyExamples/DaisySP//Source/Synthesis/oscillator.h ****     /** Changes the frequency of the Oscillator, and recalculates phase increment.
  66:../../../../DaisyExamples/DaisySP//Source/Synthesis/oscillator.h ****     */
  67:../../../../DaisyExamples/DaisySP//Source/Synthesis/oscillator.h ****     inline void SetFreq(const float f)
  68:../../../../DaisyExamples/DaisySP//Source/Synthesis/oscillator.h ****     {
  69:../../../../DaisyExamples/DaisySP//Source/Synthesis/oscillator.h ****         freq_      = f;
 1069              		.loc 12 69 20 view .LVU261
 1070 0114 F5EE007A 		vmov.f32	s15, #2.5e-1
  70:../../../../DaisyExamples/DaisySP//Source/Synthesis/oscillator.h ****         phase_inc_ = CalcPhaseInc(f);
 1071              		.loc 12 70 34 view .LVU262
 1072 0118 2046     		mov	r0, r4
 1073              	.LBE559:
 1074              	.LBE558:
 1075              	.LBB563:
 1076              	.LBB552:
  58:../../../../DaisyExamples/DaisySP//Source/Synthesis/oscillator.h ****         waveform_  = WAVE_SIN;
 1077              		.loc 12 58 20 view .LVU263
 1078 011a 84ED120A 		vstr.32	s0, [r4, #72]
  59:../../../../DaisyExamples/DaisySP//Source/Synthesis/oscillator.h ****         eoc_       = true;
 1079              		.loc 12 59 9 is_stmt 1 view .LVU264
  60:../../../../DaisyExamples/DaisySP//Source/Synthesis/oscillator.h ****         eor_       = true;
 1080              		.loc 12 60 9 view .LVU265
  61:../../../../DaisyExamples/DaisySP//Source/Synthesis/oscillator.h ****     }
 1081              		.loc 12 61 9 view .LVU266
  59:../../../../DaisyExamples/DaisySP//Source/Synthesis/oscillator.h ****         eoc_       = true;
 1082              		.loc 12 59 20 is_stmt 0 view .LVU267
 1083 011e 84F82C80 		strb	r8, [r4, #44]
 1084              	.LBE552:
 1085              	.LBE563:
 1086              	.LBB564:
 1087              	.LBB560:
 1088              		.loc 12 70 34 view .LVU268
 1089 0122 B0EE670A 		vmov.f32	s0, s15
  69:../../../../DaisyExamples/DaisySP//Source/Synthesis/oscillator.h ****         phase_inc_ = CalcPhaseInc(f);
 1090              		.loc 12 69 20 view .LVU269
 1091 0126 C4ED027A 		vstr.32	s15, [r4, #8]
 1092              	.LBE560:
 1093              	.LBE564:
 1094              	.LBB565:
 1095              	.LBB553:
  61:../../../../DaisyExamples/DaisySP//Source/Synthesis/oscillator.h ****     }
 1096              		.loc 12 61 20 view .LVU270
 1097 012a A4F85450 		strh	r5, [r4, #84]	@ movhi
ARM GAS  C:\Users\samue\AppData\Local\Temp\ccfB2Gwd.s 			page 38


 1098              	.LVL46:
  61:../../../../DaisyExamples/DaisySP//Source/Synthesis/oscillator.h ****     }
 1099              		.loc 12 61 20 view .LVU271
 1100              	.LBE553:
 1101              	.LBE565:
  46:Fractal_eval.cpp **** 
  47:Fractal_eval.cpp ****     lfo[0].SetFreq(.25f);
 1102              		.loc 9 47 5 is_stmt 1 view .LVU272
 1103              	.LBB566:
 1104              	.LBI558:
  67:../../../../DaisyExamples/DaisySP//Source/Synthesis/oscillator.h ****     {
 1105              		.loc 12 67 17 view .LVU273
 1106              	.LBB561:
  69:../../../../DaisyExamples/DaisySP//Source/Synthesis/oscillator.h ****         phase_inc_ = CalcPhaseInc(f);
 1107              		.loc 12 69 9 view .LVU274
 1108              		.loc 12 70 9 view .LVU275
 1109              		.loc 12 70 34 is_stmt 0 view .LVU276
 1110 012e FFF7FEFF 		bl	_ZN7daisysp10Oscillator12CalcPhaseIncEf
 1111              	.LVL47:
 1112              	.LBE561:
 1113              	.LBE566:
  48:Fractal_eval.cpp ****     lfo[0].SetAmp(sample_rate / 3.f);
 1114              		.loc 9 48 18 view .LVU277
 1115 0132 F0EE086A 		vmov.f32	s13, #3.0e+0
 1116 0136 97ED006A 		vldr.32	s12, [r7]
 1117              	.LBB567:
 1118              	.LBB568:
 1119              		.loc 12 70 34 view .LVU278
 1120 013a 04F12C00 		add	r0, r4, #44
  69:../../../../DaisyExamples/DaisySP//Source/Synthesis/oscillator.h ****         phase_inc_ = CalcPhaseInc(f);
 1121              		.loc 12 69 20 view .LVU279
 1122 013e DFED137A 		vldr.32	s15, .L23+32
 1123              	.LBE568:
 1124              	.LBE567:
 1125              		.loc 9 48 18 view .LVU280
 1126 0142 86EE267A 		vdiv.f32	s14, s12, s13
 1127              	.LBB572:
 1128              	.LBB562:
 1129              		.loc 12 70 20 view .LVU281
 1130 0146 84ED070A 		vstr.32	s0, [r4, #28]
 1131              	.LVL48:
 1132              		.loc 12 70 20 view .LVU282
 1133              	.LBE562:
 1134              	.LBE572:
 1135              		.loc 9 48 5 is_stmt 1 view .LVU283
 1136              	.LBB573:
 1137              	.LBI573:
  71:../../../../DaisyExamples/DaisySP//Source/Synthesis/oscillator.h ****     }
  72:../../../../DaisyExamples/DaisySP//Source/Synthesis/oscillator.h **** 
  73:../../../../DaisyExamples/DaisySP//Source/Synthesis/oscillator.h **** 
  74:../../../../DaisyExamples/DaisySP//Source/Synthesis/oscillator.h ****     /** Sets the amplitude of the waveform.
  75:../../../../DaisyExamples/DaisySP//Source/Synthesis/oscillator.h ****     */
  76:../../../../DaisyExamples/DaisySP//Source/Synthesis/oscillator.h ****     inline void SetAmp(const float a) { amp_ = a; }
 1138              		.loc 12 76 17 view .LVU284
 1139              	.LBB574:
 1140              		.loc 12 76 41 view .LVU285
 1141              	.LBE574:
ARM GAS  C:\Users\samue\AppData\Local\Temp\ccfB2Gwd.s 			page 39


 1142              	.LBE573:
 1143              	.LBB576:
 1144              	.LBB569:
  69:../../../../DaisyExamples/DaisySP//Source/Synthesis/oscillator.h ****         phase_inc_ = CalcPhaseInc(f);
 1145              		.loc 12 69 20 is_stmt 0 view .LVU286
 1146 014a C4ED0D7A 		vstr.32	s15, [r4, #52]
  70:../../../../DaisyExamples/DaisySP//Source/Synthesis/oscillator.h ****     }
 1147              		.loc 12 70 34 view .LVU287
 1148 014e B0EE670A 		vmov.f32	s0, s15
 1149              	.LBE569:
 1150              	.LBE576:
 1151              	.LBB577:
 1152              	.LBB575:
 1153              		.loc 12 76 46 view .LVU288
 1154 0152 84ED017A 		vstr.32	s14, [r4, #4]
 1155              	.LVL49:
 1156              		.loc 12 76 46 view .LVU289
 1157              	.LBE575:
 1158              	.LBE577:
  49:Fractal_eval.cpp ****     lfo[1].SetFreq(.1f);
 1159              		.loc 9 49 5 is_stmt 1 view .LVU290
 1160              	.LBB578:
 1161              	.LBI567:
  67:../../../../DaisyExamples/DaisySP//Source/Synthesis/oscillator.h ****     {
 1162              		.loc 12 67 17 view .LVU291
 1163              	.LBB570:
  69:../../../../DaisyExamples/DaisySP//Source/Synthesis/oscillator.h ****         phase_inc_ = CalcPhaseInc(f);
 1164              		.loc 12 69 9 view .LVU292
  70:../../../../DaisyExamples/DaisySP//Source/Synthesis/oscillator.h ****     }
 1165              		.loc 12 70 9 view .LVU293
  70:../../../../DaisyExamples/DaisySP//Source/Synthesis/oscillator.h ****     }
 1166              		.loc 12 70 34 is_stmt 0 view .LVU294
 1167 0156 FFF7FEFF 		bl	_ZN7daisysp10Oscillator12CalcPhaseIncEf
 1168              	.LVL50:
 1169              	.LBE570:
 1170              	.LBE578:
  50:Fractal_eval.cpp ****     lfo[1].SetAmp(1.f);
  51:Fractal_eval.cpp **** 
  52:Fractal_eval.cpp **** 
  53:Fractal_eval.cpp ****     board.seed.StartAudio(AudioCallback);
 1171              		.loc 9 53 26 view .LVU295
 1172 015a 0D49     		ldr	r1, .L23+36
 1173 015c 0648     		ldr	r0, .L23+12
 1174              	.LBB579:
 1175              	.LBB580:
 1176              		.loc 12 76 46 view .LVU296
 1177 015e C4ED0C8A 		vstr.32	s17, [r4, #48]
 1178              	.LBE580:
 1179              	.LBE579:
 1180              	.LBB582:
 1181              	.LBB571:
  70:../../../../DaisyExamples/DaisySP//Source/Synthesis/oscillator.h ****     }
 1182              		.loc 12 70 20 view .LVU297
 1183 0162 84ED120A 		vstr.32	s0, [r4, #72]
 1184              	.LVL51:
  70:../../../../DaisyExamples/DaisySP//Source/Synthesis/oscillator.h ****     }
 1185              		.loc 12 70 20 view .LVU298
ARM GAS  C:\Users\samue\AppData\Local\Temp\ccfB2Gwd.s 			page 40


 1186              	.LBE571:
 1187              	.LBE582:
  50:Fractal_eval.cpp ****     lfo[1].SetAmp(1.f);
 1188              		.loc 9 50 5 is_stmt 1 view .LVU299
 1189              	.LBB583:
 1190              	.LBI579:
 1191              		.loc 12 76 17 view .LVU300
 1192              	.LBB581:
 1193              		.loc 12 76 41 view .LVU301
 1194              		.loc 12 76 41 is_stmt 0 view .LVU302
 1195              	.LBE581:
 1196              	.LBE583:
 1197              		.loc 9 53 5 is_stmt 1 view .LVU303
 1198              		.loc 9 53 26 is_stmt 0 view .LVU304
 1199 0166 FFF7FEFF 		bl	_ZN5daisy9DaisySeed10StartAudioEPFvPKPKfPPfjE
 1200              	.LVL52:
 1201              	.L20:
  54:Fractal_eval.cpp ****     while(1) 
 1202              		.loc 9 54 5 is_stmt 1 discriminator 1 view .LVU305
 1203              		.loc 9 54 5 discriminator 1 view .LVU306
 1204              		.loc 9 54 5 discriminator 1 view .LVU307
 1205              		.loc 9 54 5 discriminator 1 view .LVU308
 1206 016a FEE7     		b	.L20
 1207              	.L24:
 1208              		.align	2
 1209              	.L23:
 1210 016c 00000000 		.word	.LANCHOR0
 1211 0170 00000000 		.word	.LANCHOR2
 1212 0174 00000000 		.word	.LANCHOR1
 1213 0178 20010000 		.word	.LANCHOR0+288
 1214 017c 00000000 		.word	0
 1215 0180 0000DC43 		.word	1138491392
 1216 0184 00000000 		.word	.LANCHOR3
 1217 0188 0000C842 		.word	1120403456
 1218 018c CDCCCC3D 		.word	1036831949
 1219 0190 00000000 		.word	_Z13AudioCallbackPKPKfPPfj
 1220              		.cfi_endproc
 1221              	.LFE4688:
 1223              		.section	.text.startup._GLOBAL__sub_I_board,"ax",%progbits
 1224              		.align	1
 1225              		.p2align 2,,3
 1226              		.syntax unified
 1227              		.thumb
 1228              		.thumb_func
 1229              		.fpu fpv5-d16
 1231              	_GLOBAL__sub_I_board:
 1232              	.LFB5262:
  55:Fractal_eval.cpp **** 	{
  56:Fractal_eval.cpp **** 		//lfo[0].SetAmp(fmap(board.get_knob(freq), 0.0f, sample_rate/2.0f, Mapping::LINEAR));
  57:Fractal_eval.cpp **** 	}
  58:Fractal_eval.cpp **** }
 1233              		.loc 9 58 1 view -0
 1234              		.cfi_startproc
 1235              		@ args = 0, pretend = 0, frame = 0
 1236              		@ frame_needed = 0, uses_anonymous_args = 0
 1237              	.LBB714:
 1238              	.LBI714:
ARM GAS  C:\Users\samue\AppData\Local\Temp\ccfB2Gwd.s 			page 41


 1239              		.loc 9 58 1 view .LVU310
 1240              	.LVL53:
 1241              	.LBB715:
 1242              	.LBB716:
 1243              	.LBI716:
  19:daisy_common.h ****     ~daisyCommon() {}
 1244              		.loc 1 19 5 view .LVU311
 1245              	.LBB717:
 1246              	.LBB718:
 1247              	.LBB719:
 1248              	.LBI719:
 1249              		.file 13 "../../../../DaisyExamples/libDaisy//src/per/gpio.h"
   1:../../../../DaisyExamples/libDaisy//src/per/gpio.h **** #pragma once
   2:../../../../DaisyExamples/libDaisy//src/per/gpio.h **** #ifndef DSY_GPIO_H
   3:../../../../DaisyExamples/libDaisy//src/per/gpio.h **** #define DSY_GPIO_H
   4:../../../../DaisyExamples/libDaisy//src/per/gpio.h **** #include "daisy_core.h"
   5:../../../../DaisyExamples/libDaisy//src/per/gpio.h **** 
   6:../../../../DaisyExamples/libDaisy//src/per/gpio.h **** #ifdef __cplusplus
   7:../../../../DaisyExamples/libDaisy//src/per/gpio.h **** 
   8:../../../../DaisyExamples/libDaisy//src/per/gpio.h **** namespace daisy
   9:../../../../DaisyExamples/libDaisy//src/per/gpio.h **** {
  10:../../../../DaisyExamples/libDaisy//src/per/gpio.h **** /** @brief General Purpose I/O control 
  11:../../../../DaisyExamples/libDaisy//src/per/gpio.h ****  *  @details peripheral control over a single GPIO
  12:../../../../DaisyExamples/libDaisy//src/per/gpio.h ****  *  @ingroup peripheral
  13:../../../../DaisyExamples/libDaisy//src/per/gpio.h ****  *   
  14:../../../../DaisyExamples/libDaisy//src/per/gpio.h ****  *  Button Input (with internal Pullup resistor)
  15:../../../../DaisyExamples/libDaisy//src/per/gpio.h ****  *  @include GPIO_Input.cpp 
  16:../../../../DaisyExamples/libDaisy//src/per/gpio.h ****  * 
  17:../../../../DaisyExamples/libDaisy//src/per/gpio.h ****  *  Output Example (perfect for blinking an LED)
  18:../../../../DaisyExamples/libDaisy//src/per/gpio.h ****  *  @include GPIO_Output.cpp
  19:../../../../DaisyExamples/libDaisy//src/per/gpio.h ****  * 
  20:../../../../DaisyExamples/libDaisy//src/per/gpio.h **** */
  21:../../../../DaisyExamples/libDaisy//src/per/gpio.h **** class GPIO
  22:../../../../DaisyExamples/libDaisy//src/per/gpio.h **** {
  23:../../../../DaisyExamples/libDaisy//src/per/gpio.h ****   public:
  24:../../../../DaisyExamples/libDaisy//src/per/gpio.h ****     /** @brief Mode of operation for the specified GPIO */
  25:../../../../DaisyExamples/libDaisy//src/per/gpio.h ****     enum class Mode
  26:../../../../DaisyExamples/libDaisy//src/per/gpio.h ****     {
  27:../../../../DaisyExamples/libDaisy//src/per/gpio.h ****         INPUT,     /**< Input for reading state of pin */
  28:../../../../DaisyExamples/libDaisy//src/per/gpio.h ****         OUTPUT,    /**< Output w/ push-pull configuration */
  29:../../../../DaisyExamples/libDaisy//src/per/gpio.h ****         OUTPUT_OD, /**< Output w/ open-drain configuration */
  30:../../../../DaisyExamples/libDaisy//src/per/gpio.h ****         ANALOG,    /**< Analog for connection to ADC or DAC peripheral */
  31:../../../../DaisyExamples/libDaisy//src/per/gpio.h ****     };
  32:../../../../DaisyExamples/libDaisy//src/per/gpio.h **** 
  33:../../../../DaisyExamples/libDaisy//src/per/gpio.h ****     /** @brief Configures whether an internal Pull up or Pull down resistor is used. 
  34:../../../../DaisyExamples/libDaisy//src/per/gpio.h ****      *  
  35:../../../../DaisyExamples/libDaisy//src/per/gpio.h ****      * Internal Pull up/down resistors are typically 40k ohms, and will be between
  36:../../../../DaisyExamples/libDaisy//src/per/gpio.h ****      * 30k and 50k
  37:../../../../DaisyExamples/libDaisy//src/per/gpio.h ****      * 
  38:../../../../DaisyExamples/libDaisy//src/per/gpio.h ****      * When the Pin is configured in Analog mode, the pull up/down resistors are
  39:../../../../DaisyExamples/libDaisy//src/per/gpio.h ****      * disabled by hardware. 
  40:../../../../DaisyExamples/libDaisy//src/per/gpio.h ****      */
  41:../../../../DaisyExamples/libDaisy//src/per/gpio.h ****     enum class Pull
  42:../../../../DaisyExamples/libDaisy//src/per/gpio.h ****     {
  43:../../../../DaisyExamples/libDaisy//src/per/gpio.h ****         NOPULL,   /**< No pull up resistor */
  44:../../../../DaisyExamples/libDaisy//src/per/gpio.h ****         PULLUP,   /**< Internal pull up enabled */
  45:../../../../DaisyExamples/libDaisy//src/per/gpio.h ****         PULLDOWN, /**< Internal pull down enabled*/
ARM GAS  C:\Users\samue\AppData\Local\Temp\ccfB2Gwd.s 			page 42


  46:../../../../DaisyExamples/libDaisy//src/per/gpio.h ****     };
  47:../../../../DaisyExamples/libDaisy//src/per/gpio.h **** 
  48:../../../../DaisyExamples/libDaisy//src/per/gpio.h ****     /** @brief Output speed controls the drive strength, and slew rate of the pin */
  49:../../../../DaisyExamples/libDaisy//src/per/gpio.h ****     enum class Speed
  50:../../../../DaisyExamples/libDaisy//src/per/gpio.h ****     {
  51:../../../../DaisyExamples/libDaisy//src/per/gpio.h ****         LOW,
  52:../../../../DaisyExamples/libDaisy//src/per/gpio.h ****         MEDIUM,
  53:../../../../DaisyExamples/libDaisy//src/per/gpio.h ****         HIGH,
  54:../../../../DaisyExamples/libDaisy//src/per/gpio.h ****         VERY_HIGH,
  55:../../../../DaisyExamples/libDaisy//src/per/gpio.h ****     };
  56:../../../../DaisyExamples/libDaisy//src/per/gpio.h **** 
  57:../../../../DaisyExamples/libDaisy//src/per/gpio.h ****     /** @brief Configuration for a given GPIO */
  58:../../../../DaisyExamples/libDaisy//src/per/gpio.h ****     struct Config
  59:../../../../DaisyExamples/libDaisy//src/per/gpio.h ****     {
  60:../../../../DaisyExamples/libDaisy//src/per/gpio.h ****         Pin   pin;
  61:../../../../DaisyExamples/libDaisy//src/per/gpio.h ****         Mode  mode;
  62:../../../../DaisyExamples/libDaisy//src/per/gpio.h ****         Pull  pull;
  63:../../../../DaisyExamples/libDaisy//src/per/gpio.h ****         Speed speed;
  64:../../../../DaisyExamples/libDaisy//src/per/gpio.h **** 
  65:../../../../DaisyExamples/libDaisy//src/per/gpio.h ****         /** Constructor with no arguments will prepare an invalid GPIO set as
  66:../../../../DaisyExamples/libDaisy//src/per/gpio.h ****          *  an input, with no pullup. 
  67:../../../../DaisyExamples/libDaisy//src/per/gpio.h ****          */
  68:../../../../DaisyExamples/libDaisy//src/per/gpio.h ****         Config()
  69:../../../../DaisyExamples/libDaisy//src/per/gpio.h ****         : pin(), mode(Mode::INPUT), pull(Pull::NOPULL), speed(Speed::LOW)
  70:../../../../DaisyExamples/libDaisy//src/per/gpio.h ****         {
  71:../../../../DaisyExamples/libDaisy//src/per/gpio.h ****         }
  72:../../../../DaisyExamples/libDaisy//src/per/gpio.h ****     };
  73:../../../../DaisyExamples/libDaisy//src/per/gpio.h **** 
  74:../../../../DaisyExamples/libDaisy//src/per/gpio.h ****     GPIO() {}
 1250              		.loc 13 74 5 view .LVU312
 1251              	.LBB720:
 1252              	.LBB721:
 1253              	.LBI721:
  68:../../../../DaisyExamples/libDaisy//src/per/gpio.h ****         : pin(), mode(Mode::INPUT), pull(Pull::NOPULL), speed(Speed::LOW)
 1254              		.loc 13 68 9 view .LVU313
 1255              	.LBB722:
 1256              	.LBB723:
 1257              	.LBB724:
 1258              	.LBI724:
 1259              		.file 14 "../../../../DaisyExamples/libDaisy//src/daisy_core.h"
   1:../../../../DaisyExamples/libDaisy//src/daisy_core.h **** #pragma once
   2:../../../../DaisyExamples/libDaisy//src/daisy_core.h **** #ifndef DSY_CORE_HW_H
   3:../../../../DaisyExamples/libDaisy//src/daisy_core.h **** #define DSY_CORE_HW_H /**< & */
   4:../../../../DaisyExamples/libDaisy//src/daisy_core.h **** #include <stdint.h>
   5:../../../../DaisyExamples/libDaisy//src/daisy_core.h **** #include <stdlib.h>
   6:../../../../DaisyExamples/libDaisy//src/daisy_core.h **** 
   7:../../../../DaisyExamples/libDaisy//src/daisy_core.h **** #if defined(_MSC_VER)
   8:../../../../DaisyExamples/libDaisy//src/daisy_core.h **** #define FORCE_INLINE __forceinline /**< & */
   9:../../../../DaisyExamples/libDaisy//src/daisy_core.h **** #elif defined(__clang__)
  10:../../../../DaisyExamples/libDaisy//src/daisy_core.h **** #define FORCE_INLINE inline __attribute__((always_inline)) /**< & */
  11:../../../../DaisyExamples/libDaisy//src/daisy_core.h **** #pragma clang diagnostic ignored "-Wduplicate-decl-specifier"
  12:../../../../DaisyExamples/libDaisy//src/daisy_core.h **** #elif defined(__GNUC__)
  13:../../../../DaisyExamples/libDaisy//src/daisy_core.h **** #define FORCE_INLINE inline __attribute__((always_inline)) /**< & */
  14:../../../../DaisyExamples/libDaisy//src/daisy_core.h **** #else
  15:../../../../DaisyExamples/libDaisy//src/daisy_core.h **** #error unknown compiler
  16:../../../../DaisyExamples/libDaisy//src/daisy_core.h **** #endif
  17:../../../../DaisyExamples/libDaisy//src/daisy_core.h **** 
ARM GAS  C:\Users\samue\AppData\Local\Temp\ccfB2Gwd.s 			page 43


  18:../../../../DaisyExamples/libDaisy//src/daisy_core.h **** /** @addtogroup utility
  19:../../../../DaisyExamples/libDaisy//src/daisy_core.h ****     @{
  20:../../../../DaisyExamples/libDaisy//src/daisy_core.h **** */
  21:../../../../DaisyExamples/libDaisy//src/daisy_core.h **** 
  22:../../../../DaisyExamples/libDaisy//src/daisy_core.h **** /** Macro for area of memory that is configured as cacheless
  23:../../../../DaisyExamples/libDaisy//src/daisy_core.h **** This should be used primarily for DMA buffers, and the like.
  24:../../../../DaisyExamples/libDaisy//src/daisy_core.h **** */
  25:../../../../DaisyExamples/libDaisy//src/daisy_core.h **** #define DMA_BUFFER_MEM_SECTION __attribute__((section(".sram1_bss")))
  26:../../../../DaisyExamples/libDaisy//src/daisy_core.h **** /** 
  27:../../../../DaisyExamples/libDaisy//src/daisy_core.h **** THE DTCM RAM section is also non-cached. However, is not suitable 
  28:../../../../DaisyExamples/libDaisy//src/daisy_core.h **** for DMA transfers. Performance is on par with internal SRAM w/ 
  29:../../../../DaisyExamples/libDaisy//src/daisy_core.h **** cache enabled.
  30:../../../../DaisyExamples/libDaisy//src/daisy_core.h **** */
  31:../../../../DaisyExamples/libDaisy//src/daisy_core.h **** #define DTCM_MEM_SECTION __attribute__((section(".dtcmram_bss")))
  32:../../../../DaisyExamples/libDaisy//src/daisy_core.h **** 
  33:../../../../DaisyExamples/libDaisy//src/daisy_core.h **** #define FBIPMAX 0.999985f             /**< close to 1.0f-LSB at 16 bit */
  34:../../../../DaisyExamples/libDaisy//src/daisy_core.h **** #define FBIPMIN (-FBIPMAX)            /**< - (1 - LSB) */
  35:../../../../DaisyExamples/libDaisy//src/daisy_core.h **** #define U82F_SCALE 0.0078740f         /**< 1 / 127 */
  36:../../../../DaisyExamples/libDaisy//src/daisy_core.h **** #define F2U8_SCALE 127.0f             /**< 128 - 1 */
  37:../../../../DaisyExamples/libDaisy//src/daisy_core.h **** #define S82F_SCALE 0.0078125f         /**< 1 / (2**7) */
  38:../../../../DaisyExamples/libDaisy//src/daisy_core.h **** #define F2S8_SCALE 127.0f             /**< (2 ** 7) - 1 */
  39:../../../../DaisyExamples/libDaisy//src/daisy_core.h **** #define S162F_SCALE 3.0517578125e-05f /**< 1 / (2** 15) */
  40:../../../../DaisyExamples/libDaisy//src/daisy_core.h **** #define F2S16_SCALE 32767.0f          /**< (2 ** 15) - 1 */
  41:../../../../DaisyExamples/libDaisy//src/daisy_core.h **** #define F2S24_SCALE 8388608.0f        /**< 2 ** 23 */
  42:../../../../DaisyExamples/libDaisy//src/daisy_core.h **** #define S242F_SCALE 1.192092896e-07f  /**< 1 / (2 ** 23) */
  43:../../../../DaisyExamples/libDaisy//src/daisy_core.h **** #define S24SIGN 0x800000              /**< 2 ** 23 */
  44:../../../../DaisyExamples/libDaisy//src/daisy_core.h **** #define S322F_SCALE 4.6566129e-10f    /**< 1 / (2** 31) */
  45:../../../../DaisyExamples/libDaisy//src/daisy_core.h **** #define F2S32_SCALE 2147483647.f      /**< (2 ** 31) - 1 */
  46:../../../../DaisyExamples/libDaisy//src/daisy_core.h **** 
  47:../../../../DaisyExamples/libDaisy//src/daisy_core.h **** 
  48:../../../../DaisyExamples/libDaisy//src/daisy_core.h **** /** shorthand macro for simplifying the reading of the left 
  49:../../../../DaisyExamples/libDaisy//src/daisy_core.h ****  *  channel of a non-interleaved output buffer named out */
  50:../../../../DaisyExamples/libDaisy//src/daisy_core.h **** #define OUT_L out[0]
  51:../../../../DaisyExamples/libDaisy//src/daisy_core.h **** 
  52:../../../../DaisyExamples/libDaisy//src/daisy_core.h **** /** shorthand macro for simplifying the reading of the right 
  53:../../../../DaisyExamples/libDaisy//src/daisy_core.h ****  *  channel of a non-interleaved output buffer named out */
  54:../../../../DaisyExamples/libDaisy//src/daisy_core.h **** #define OUT_R out[1]
  55:../../../../DaisyExamples/libDaisy//src/daisy_core.h **** 
  56:../../../../DaisyExamples/libDaisy//src/daisy_core.h **** /** shorthand macro for simplifying the reading of the left 
  57:../../../../DaisyExamples/libDaisy//src/daisy_core.h ****  *  channel of a non-interleaved input buffer named in */
  58:../../../../DaisyExamples/libDaisy//src/daisy_core.h **** #define IN_L in[0]
  59:../../../../DaisyExamples/libDaisy//src/daisy_core.h **** 
  60:../../../../DaisyExamples/libDaisy//src/daisy_core.h **** /** shorthand macro for simplifying the reading of the right 
  61:../../../../DaisyExamples/libDaisy//src/daisy_core.h ****  *  channel of a non-interleaved input buffer named in */
  62:../../../../DaisyExamples/libDaisy//src/daisy_core.h **** #define IN_R in[1]
  63:../../../../DaisyExamples/libDaisy//src/daisy_core.h **** 
  64:../../../../DaisyExamples/libDaisy//src/daisy_core.h **** /** 
  65:../../../../DaisyExamples/libDaisy//src/daisy_core.h ****     Computes cube.
  66:../../../../DaisyExamples/libDaisy//src/daisy_core.h ****     \param x Number to be cubed
  67:../../../../DaisyExamples/libDaisy//src/daisy_core.h ****     \return x ^ 3
  68:../../../../DaisyExamples/libDaisy//src/daisy_core.h **** */
  69:../../../../DaisyExamples/libDaisy//src/daisy_core.h **** FORCE_INLINE float cube(float x)
  70:../../../../DaisyExamples/libDaisy//src/daisy_core.h **** {
  71:../../../../DaisyExamples/libDaisy//src/daisy_core.h ****     return (x * x) * x;
  72:../../../../DaisyExamples/libDaisy//src/daisy_core.h **** }
  73:../../../../DaisyExamples/libDaisy//src/daisy_core.h **** 
  74:../../../../DaisyExamples/libDaisy//src/daisy_core.h **** /** 
ARM GAS  C:\Users\samue\AppData\Local\Temp\ccfB2Gwd.s 			page 44


  75:../../../../DaisyExamples/libDaisy//src/daisy_core.h ****     Converts unsigned 8-bit to float
  76:../../../../DaisyExamples/libDaisy//src/daisy_core.h ****     \param x Number to be scaled.
  77:../../../../DaisyExamples/libDaisy//src/daisy_core.h ****     \return Scaled number.
  78:../../../../DaisyExamples/libDaisy//src/daisy_core.h **** */
  79:../../../../DaisyExamples/libDaisy//src/daisy_core.h **** FORCE_INLINE float u82f(uint8_t x)
  80:../../../../DaisyExamples/libDaisy//src/daisy_core.h **** {
  81:../../../../DaisyExamples/libDaisy//src/daisy_core.h ****     return ((float)x - 127.f) * U82F_SCALE;
  82:../../../../DaisyExamples/libDaisy//src/daisy_core.h **** }
  83:../../../../DaisyExamples/libDaisy//src/daisy_core.h **** 
  84:../../../../DaisyExamples/libDaisy//src/daisy_core.h **** /**
  85:../../../../DaisyExamples/libDaisy//src/daisy_core.h ****     Converts float to unsigned 8-bit
  86:../../../../DaisyExamples/libDaisy//src/daisy_core.h **** */
  87:../../../../DaisyExamples/libDaisy//src/daisy_core.h **** FORCE_INLINE uint8_t f2u8(float x)
  88:../../../../DaisyExamples/libDaisy//src/daisy_core.h **** {
  89:../../../../DaisyExamples/libDaisy//src/daisy_core.h ****     x = x <= FBIPMIN ? FBIPMIN : x;
  90:../../../../DaisyExamples/libDaisy//src/daisy_core.h ****     x = x >= FBIPMAX ? FBIPMAX : x;
  91:../../../../DaisyExamples/libDaisy//src/daisy_core.h ****     return (uint8_t)((x * F2U8_SCALE) + F2U8_SCALE);
  92:../../../../DaisyExamples/libDaisy//src/daisy_core.h **** }
  93:../../../../DaisyExamples/libDaisy//src/daisy_core.h **** 
  94:../../../../DaisyExamples/libDaisy//src/daisy_core.h **** 
  95:../../../../DaisyExamples/libDaisy//src/daisy_core.h **** /** 
  96:../../../../DaisyExamples/libDaisy//src/daisy_core.h ****     Converts Signed 8-bit to float
  97:../../../../DaisyExamples/libDaisy//src/daisy_core.h ****     \param x Number to be scaled.
  98:../../../../DaisyExamples/libDaisy//src/daisy_core.h ****     \return Scaled number.
  99:../../../../DaisyExamples/libDaisy//src/daisy_core.h **** */
 100:../../../../DaisyExamples/libDaisy//src/daisy_core.h **** FORCE_INLINE float s82f(int8_t x)
 101:../../../../DaisyExamples/libDaisy//src/daisy_core.h **** {
 102:../../../../DaisyExamples/libDaisy//src/daisy_core.h ****     return (float)x * S82F_SCALE;
 103:../../../../DaisyExamples/libDaisy//src/daisy_core.h **** }
 104:../../../../DaisyExamples/libDaisy//src/daisy_core.h **** 
 105:../../../../DaisyExamples/libDaisy//src/daisy_core.h **** /**
 106:../../../../DaisyExamples/libDaisy//src/daisy_core.h ****     Converts float to Signed 8-bit
 107:../../../../DaisyExamples/libDaisy//src/daisy_core.h **** */
 108:../../../../DaisyExamples/libDaisy//src/daisy_core.h **** FORCE_INLINE int8_t f2s8(float x)
 109:../../../../DaisyExamples/libDaisy//src/daisy_core.h **** {
 110:../../../../DaisyExamples/libDaisy//src/daisy_core.h ****     x = x <= FBIPMIN ? FBIPMIN : x;
 111:../../../../DaisyExamples/libDaisy//src/daisy_core.h ****     x = x >= FBIPMAX ? FBIPMAX : x;
 112:../../../../DaisyExamples/libDaisy//src/daisy_core.h ****     return (int32_t)(x * F2S8_SCALE);
 113:../../../../DaisyExamples/libDaisy//src/daisy_core.h **** }
 114:../../../../DaisyExamples/libDaisy//src/daisy_core.h **** 
 115:../../../../DaisyExamples/libDaisy//src/daisy_core.h **** /** 
 116:../../../../DaisyExamples/libDaisy//src/daisy_core.h ****     Converts Signed 16-bit to float
 117:../../../../DaisyExamples/libDaisy//src/daisy_core.h ****     \param x Number to be scaled.
 118:../../../../DaisyExamples/libDaisy//src/daisy_core.h ****     \return Scaled number.
 119:../../../../DaisyExamples/libDaisy//src/daisy_core.h **** */
 120:../../../../DaisyExamples/libDaisy//src/daisy_core.h **** FORCE_INLINE float s162f(int16_t x)
 121:../../../../DaisyExamples/libDaisy//src/daisy_core.h **** {
 122:../../../../DaisyExamples/libDaisy//src/daisy_core.h ****     return (float)x * S162F_SCALE;
 123:../../../../DaisyExamples/libDaisy//src/daisy_core.h **** }
 124:../../../../DaisyExamples/libDaisy//src/daisy_core.h **** 
 125:../../../../DaisyExamples/libDaisy//src/daisy_core.h **** /**
 126:../../../../DaisyExamples/libDaisy//src/daisy_core.h ****     Converts float to Signed 16-bit
 127:../../../../DaisyExamples/libDaisy//src/daisy_core.h **** */
 128:../../../../DaisyExamples/libDaisy//src/daisy_core.h **** FORCE_INLINE int16_t f2s16(float x)
 129:../../../../DaisyExamples/libDaisy//src/daisy_core.h **** {
 130:../../../../DaisyExamples/libDaisy//src/daisy_core.h ****     x = x <= FBIPMIN ? FBIPMIN : x;
 131:../../../../DaisyExamples/libDaisy//src/daisy_core.h ****     x = x >= FBIPMAX ? FBIPMAX : x;
ARM GAS  C:\Users\samue\AppData\Local\Temp\ccfB2Gwd.s 			page 45


 132:../../../../DaisyExamples/libDaisy//src/daisy_core.h ****     return (int32_t)(x * F2S16_SCALE);
 133:../../../../DaisyExamples/libDaisy//src/daisy_core.h **** }
 134:../../../../DaisyExamples/libDaisy//src/daisy_core.h **** 
 135:../../../../DaisyExamples/libDaisy//src/daisy_core.h **** /**
 136:../../../../DaisyExamples/libDaisy//src/daisy_core.h ****     Converts Signed 24-bit to float
 137:../../../../DaisyExamples/libDaisy//src/daisy_core.h ****  */
 138:../../../../DaisyExamples/libDaisy//src/daisy_core.h **** FORCE_INLINE float s242f(int32_t x)
 139:../../../../DaisyExamples/libDaisy//src/daisy_core.h **** {
 140:../../../../DaisyExamples/libDaisy//src/daisy_core.h ****     x = (x ^ S24SIGN) - S24SIGN; //sign extend aka ((x<<8)>>8)
 141:../../../../DaisyExamples/libDaisy//src/daisy_core.h ****     return (float)x * S242F_SCALE;
 142:../../../../DaisyExamples/libDaisy//src/daisy_core.h **** }
 143:../../../../DaisyExamples/libDaisy//src/daisy_core.h **** /**
 144:../../../../DaisyExamples/libDaisy//src/daisy_core.h ****     Converts float to Signed 24-bit
 145:../../../../DaisyExamples/libDaisy//src/daisy_core.h ****  */
 146:../../../../DaisyExamples/libDaisy//src/daisy_core.h **** FORCE_INLINE int32_t f2s24(float x)
 147:../../../../DaisyExamples/libDaisy//src/daisy_core.h **** {
 148:../../../../DaisyExamples/libDaisy//src/daisy_core.h ****     x = x <= FBIPMIN ? FBIPMIN : x;
 149:../../../../DaisyExamples/libDaisy//src/daisy_core.h ****     x = x >= FBIPMAX ? FBIPMAX : x;
 150:../../../../DaisyExamples/libDaisy//src/daisy_core.h ****     return (int32_t)(x * F2S24_SCALE);
 151:../../../../DaisyExamples/libDaisy//src/daisy_core.h **** }
 152:../../../../DaisyExamples/libDaisy//src/daisy_core.h **** 
 153:../../../../DaisyExamples/libDaisy//src/daisy_core.h **** /**
 154:../../../../DaisyExamples/libDaisy//src/daisy_core.h ****     Converts Signed 32-bit to float
 155:../../../../DaisyExamples/libDaisy//src/daisy_core.h ****  */
 156:../../../../DaisyExamples/libDaisy//src/daisy_core.h **** FORCE_INLINE float s322f(int32_t x)
 157:../../../../DaisyExamples/libDaisy//src/daisy_core.h **** {
 158:../../../../DaisyExamples/libDaisy//src/daisy_core.h ****     return (float)x * S322F_SCALE;
 159:../../../../DaisyExamples/libDaisy//src/daisy_core.h **** }
 160:../../../../DaisyExamples/libDaisy//src/daisy_core.h **** /**
 161:../../../../DaisyExamples/libDaisy//src/daisy_core.h ****     Converts float to Signed 24-bit
 162:../../../../DaisyExamples/libDaisy//src/daisy_core.h ****  */
 163:../../../../DaisyExamples/libDaisy//src/daisy_core.h **** FORCE_INLINE int32_t f2s32(float x)
 164:../../../../DaisyExamples/libDaisy//src/daisy_core.h **** {
 165:../../../../DaisyExamples/libDaisy//src/daisy_core.h ****     x = x <= FBIPMIN ? FBIPMIN : x;
 166:../../../../DaisyExamples/libDaisy//src/daisy_core.h ****     x = x >= FBIPMAX ? FBIPMAX : x;
 167:../../../../DaisyExamples/libDaisy//src/daisy_core.h ****     return (int32_t)(x * F2S32_SCALE);
 168:../../../../DaisyExamples/libDaisy//src/daisy_core.h **** }
 169:../../../../DaisyExamples/libDaisy//src/daisy_core.h **** 
 170:../../../../DaisyExamples/libDaisy//src/daisy_core.h **** 
 171:../../../../DaisyExamples/libDaisy//src/daisy_core.h **** /** Enums and a simple struct for defining a hardware pin on the MCU
 172:../../../../DaisyExamples/libDaisy//src/daisy_core.h ****  *  These correlate with the stm32 datasheet, and are used to configure
 173:../../../../DaisyExamples/libDaisy//src/daisy_core.h ****  *  the hardware.
 174:../../../../DaisyExamples/libDaisy//src/daisy_core.h ****  * 
 175:../../../../DaisyExamples/libDaisy//src/daisy_core.h ****  *  This along with the dsy_gpio_pin class should no longer be used.
 176:../../../../DaisyExamples/libDaisy//src/daisy_core.h ****  *  They are available for backwards compatability. 
 177:../../../../DaisyExamples/libDaisy//src/daisy_core.h ****  * 
 178:../../../../DaisyExamples/libDaisy//src/daisy_core.h ****  *  Please use GPIOPort enum and the Pin struct instead.
 179:../../../../DaisyExamples/libDaisy//src/daisy_core.h ****  */
 180:../../../../DaisyExamples/libDaisy//src/daisy_core.h **** typedef enum
 181:../../../../DaisyExamples/libDaisy//src/daisy_core.h **** {
 182:../../../../DaisyExamples/libDaisy//src/daisy_core.h ****     DSY_GPIOA, /**< & */
 183:../../../../DaisyExamples/libDaisy//src/daisy_core.h ****     DSY_GPIOB, /**< & */
 184:../../../../DaisyExamples/libDaisy//src/daisy_core.h ****     DSY_GPIOC, /**< & */
 185:../../../../DaisyExamples/libDaisy//src/daisy_core.h ****     DSY_GPIOD, /**< & */
 186:../../../../DaisyExamples/libDaisy//src/daisy_core.h ****     DSY_GPIOE, /**< & */
 187:../../../../DaisyExamples/libDaisy//src/daisy_core.h ****     DSY_GPIOF, /**< & */
 188:../../../../DaisyExamples/libDaisy//src/daisy_core.h ****     DSY_GPIOG, /**< & */
ARM GAS  C:\Users\samue\AppData\Local\Temp\ccfB2Gwd.s 			page 46


 189:../../../../DaisyExamples/libDaisy//src/daisy_core.h ****     DSY_GPIOH, /**< & */
 190:../../../../DaisyExamples/libDaisy//src/daisy_core.h ****     DSY_GPIOI, /**< & */
 191:../../../../DaisyExamples/libDaisy//src/daisy_core.h ****     DSY_GPIOJ, /**< & */
 192:../../../../DaisyExamples/libDaisy//src/daisy_core.h ****     DSY_GPIOK, /**< & */
 193:../../../../DaisyExamples/libDaisy//src/daisy_core.h ****     DSY_GPIOX, /** This is a non-existant port for unsupported bits of hardware. */
 194:../../../../DaisyExamples/libDaisy//src/daisy_core.h ****     DSY_GPIO_LAST, /** Final enum member */
 195:../../../../DaisyExamples/libDaisy//src/daisy_core.h **** } dsy_gpio_port;
 196:../../../../DaisyExamples/libDaisy//src/daisy_core.h **** 
 197:../../../../DaisyExamples/libDaisy//src/daisy_core.h **** /** Hardware define pins 
 198:../../../../DaisyExamples/libDaisy//src/daisy_core.h ****  *  
 199:../../../../DaisyExamples/libDaisy//src/daisy_core.h ****  *  The dsy_gpio_pin struct should no longer be used, and is only available for
 200:../../../../DaisyExamples/libDaisy//src/daisy_core.h ****  *  backwards compatability.
 201:../../../../DaisyExamples/libDaisy//src/daisy_core.h ****  * 
 202:../../../../DaisyExamples/libDaisy//src/daisy_core.h ****  *  Please use Pin struct instead.
 203:../../../../DaisyExamples/libDaisy//src/daisy_core.h ****  */
 204:../../../../DaisyExamples/libDaisy//src/daisy_core.h **** typedef struct
 205:../../../../DaisyExamples/libDaisy//src/daisy_core.h **** {
 206:../../../../DaisyExamples/libDaisy//src/daisy_core.h ****     dsy_gpio_port port; /**< & */
 207:../../../../DaisyExamples/libDaisy//src/daisy_core.h ****     uint8_t       pin;  /**< number 0-15 */
 208:../../../../DaisyExamples/libDaisy//src/daisy_core.h **** } dsy_gpio_pin;
 209:../../../../DaisyExamples/libDaisy//src/daisy_core.h **** 
 210:../../../../DaisyExamples/libDaisy//src/daisy_core.h **** /** Helper for creating pins from port/pin combos easily
 211:../../../../DaisyExamples/libDaisy//src/daisy_core.h ****  * 
 212:../../../../DaisyExamples/libDaisy//src/daisy_core.h ****  *  The dsy_gpio_pin struct should no longer be used, and is only available for
 213:../../../../DaisyExamples/libDaisy//src/daisy_core.h ****  *  backwards compatability.
 214:../../../../DaisyExamples/libDaisy//src/daisy_core.h ****  * 
 215:../../../../DaisyExamples/libDaisy//src/daisy_core.h ****  *  Please use Pin struct instead.
 216:../../../../DaisyExamples/libDaisy//src/daisy_core.h **** */
 217:../../../../DaisyExamples/libDaisy//src/daisy_core.h **** FORCE_INLINE dsy_gpio_pin dsy_pin(dsy_gpio_port port, uint8_t pin)
 218:../../../../DaisyExamples/libDaisy//src/daisy_core.h **** {
 219:../../../../DaisyExamples/libDaisy//src/daisy_core.h ****     dsy_gpio_pin p;
 220:../../../../DaisyExamples/libDaisy//src/daisy_core.h ****     p.port = port;
 221:../../../../DaisyExamples/libDaisy//src/daisy_core.h ****     p.pin  = pin;
 222:../../../../DaisyExamples/libDaisy//src/daisy_core.h ****     return p;
 223:../../../../DaisyExamples/libDaisy//src/daisy_core.h **** }
 224:../../../../DaisyExamples/libDaisy//src/daisy_core.h **** 
 225:../../../../DaisyExamples/libDaisy//src/daisy_core.h **** /** Helper for testing sameness of two dsy_gpio_pins
 226:../../../../DaisyExamples/libDaisy//src/daisy_core.h ****  *  \return    1 if same, 0 if different
 227:../../../../DaisyExamples/libDaisy//src/daisy_core.h ****  * 
 228:../../../../DaisyExamples/libDaisy//src/daisy_core.h ****  *  The dsy_gpio_pin struct should no longer be used, and is only available for
 229:../../../../DaisyExamples/libDaisy//src/daisy_core.h ****  *  backwards compatability.
 230:../../../../DaisyExamples/libDaisy//src/daisy_core.h ****  * 
 231:../../../../DaisyExamples/libDaisy//src/daisy_core.h ****  *  Please use Pin struct instead.
 232:../../../../DaisyExamples/libDaisy//src/daisy_core.h ****  */
 233:../../../../DaisyExamples/libDaisy//src/daisy_core.h **** FORCE_INLINE uint8_t dsy_pin_cmp(dsy_gpio_pin *a, dsy_gpio_pin *b)
 234:../../../../DaisyExamples/libDaisy//src/daisy_core.h **** {
 235:../../../../DaisyExamples/libDaisy//src/daisy_core.h ****     return ((a->port == b->port) && (a->pin == b->pin));
 236:../../../../DaisyExamples/libDaisy//src/daisy_core.h **** }
 237:../../../../DaisyExamples/libDaisy//src/daisy_core.h **** 
 238:../../../../DaisyExamples/libDaisy//src/daisy_core.h **** #ifdef __cplusplus
 239:../../../../DaisyExamples/libDaisy//src/daisy_core.h **** 
 240:../../../../DaisyExamples/libDaisy//src/daisy_core.h **** namespace daisy
 241:../../../../DaisyExamples/libDaisy//src/daisy_core.h **** {
 242:../../../../DaisyExamples/libDaisy//src/daisy_core.h **** /** @brief GPIO Port names */
 243:../../../../DaisyExamples/libDaisy//src/daisy_core.h **** enum GPIOPort
 244:../../../../DaisyExamples/libDaisy//src/daisy_core.h **** {
 245:../../../../DaisyExamples/libDaisy//src/daisy_core.h ****     PORTA, /**< Port A */
ARM GAS  C:\Users\samue\AppData\Local\Temp\ccfB2Gwd.s 			page 47


 246:../../../../DaisyExamples/libDaisy//src/daisy_core.h ****     PORTB, /**< Port B */
 247:../../../../DaisyExamples/libDaisy//src/daisy_core.h ****     PORTC, /**< Port C */
 248:../../../../DaisyExamples/libDaisy//src/daisy_core.h ****     PORTD, /**< Port D */
 249:../../../../DaisyExamples/libDaisy//src/daisy_core.h ****     PORTE, /**< Port E */
 250:../../../../DaisyExamples/libDaisy//src/daisy_core.h ****     PORTF, /**< Port F */
 251:../../../../DaisyExamples/libDaisy//src/daisy_core.h ****     PORTG, /**< Port G */
 252:../../../../DaisyExamples/libDaisy//src/daisy_core.h ****     PORTH, /**< Port H */
 253:../../../../DaisyExamples/libDaisy//src/daisy_core.h ****     PORTI, /**< Port I */
 254:../../../../DaisyExamples/libDaisy//src/daisy_core.h ****     PORTJ, /**< Port J */
 255:../../../../DaisyExamples/libDaisy//src/daisy_core.h ****     PORTK, /**< Port K */
 256:../../../../DaisyExamples/libDaisy//src/daisy_core.h ****     PORTX, /**< Used as a dummy port to signal an invalid pin. */
 257:../../../../DaisyExamples/libDaisy//src/daisy_core.h **** };
 258:../../../../DaisyExamples/libDaisy//src/daisy_core.h **** 
 259:../../../../DaisyExamples/libDaisy//src/daisy_core.h **** /** @brief representation of hardware port/pin combination */
 260:../../../../DaisyExamples/libDaisy//src/daisy_core.h **** struct Pin
 261:../../../../DaisyExamples/libDaisy//src/daisy_core.h **** {
 262:../../../../DaisyExamples/libDaisy//src/daisy_core.h ****     GPIOPort port;
 263:../../../../DaisyExamples/libDaisy//src/daisy_core.h ****     uint8_t  pin;
 264:../../../../DaisyExamples/libDaisy//src/daisy_core.h **** 
 265:../../../../DaisyExamples/libDaisy//src/daisy_core.h ****     /** @brief Constructor creates a valid pin. 
 266:../../../../DaisyExamples/libDaisy//src/daisy_core.h ****      *  @param pt GPIOPort between PA, and PK corresponding to STM32 Port.
 267:../../../../DaisyExamples/libDaisy//src/daisy_core.h ****      *  @param pn pin number in range of 0-15
 268:../../../../DaisyExamples/libDaisy//src/daisy_core.h ****     */
 269:../../../../DaisyExamples/libDaisy//src/daisy_core.h ****     constexpr Pin(const GPIOPort pt, const uint8_t pn) : port(pt), pin(pn) {}
 270:../../../../DaisyExamples/libDaisy//src/daisy_core.h **** 
 271:../../../../DaisyExamples/libDaisy//src/daisy_core.h ****     /** @brief Basic Constructor creates an invalid Pin object */
 272:../../../../DaisyExamples/libDaisy//src/daisy_core.h ****     constexpr Pin() : port(PORTX), pin(255) {}
 1260              		.loc 14 272 15 view .LVU314
 1261              		.loc 14 272 15 is_stmt 0 view .LVU315
 1262              	.LBE724:
 1263              	.LBE723:
 1264              	.LBE722:
 1265              	.LBE721:
 1266              	.LBE720:
 1267              	.LBE719:
 1268              	.LBB733:
 1269              	.LBI733:
 1270              		.loc 13 74 5 is_stmt 1 view .LVU316
 1271              	.LBB734:
 1272              	.LBB735:
 1273              	.LBI735:
  68:../../../../DaisyExamples/libDaisy//src/per/gpio.h ****         : pin(), mode(Mode::INPUT), pull(Pull::NOPULL), speed(Speed::LOW)
 1274              		.loc 13 68 9 view .LVU317
 1275              	.LBB736:
 1276              	.LBB737:
 1277              	.LBB738:
 1278              	.LBI738:
 1279              		.loc 14 272 15 view .LVU318
 1280              		.loc 14 272 15 is_stmt 0 view .LVU319
 1281              	.LBE738:
 1282              	.LBE737:
 1283              	.LBE736:
 1284              	.LBE735:
 1285              	.LBE734:
 1286              	.LBE733:
 1287              	.LBB747:
 1288              	.LBI747:
ARM GAS  C:\Users\samue\AppData\Local\Temp\ccfB2Gwd.s 			page 48


 1289              		.loc 13 74 5 is_stmt 1 view .LVU320
 1290              	.LBB748:
 1291              	.LBB749:
 1292              	.LBI749:
  68:../../../../DaisyExamples/libDaisy//src/per/gpio.h ****         : pin(), mode(Mode::INPUT), pull(Pull::NOPULL), speed(Speed::LOW)
 1293              		.loc 13 68 9 view .LVU321
 1294              	.LBB750:
 1295              	.LBB751:
 1296              	.LBB752:
 1297              	.LBI752:
 1298              		.loc 14 272 15 view .LVU322
 1299              		.loc 14 272 15 is_stmt 0 view .LVU323
 1300              	.LBE752:
 1301              	.LBE751:
 1302              	.LBE750:
 1303              	.LBE749:
 1304              	.LBE748:
 1305              	.LBE747:
 1306              	.LBB761:
 1307              	.LBI761:
 1308              		.loc 13 74 5 is_stmt 1 view .LVU324
 1309              	.LBB762:
 1310              	.LBB763:
 1311              	.LBI763:
  68:../../../../DaisyExamples/libDaisy//src/per/gpio.h ****         : pin(), mode(Mode::INPUT), pull(Pull::NOPULL), speed(Speed::LOW)
 1312              		.loc 13 68 9 view .LVU325
 1313              	.LBB764:
 1314              	.LBB765:
 1315              	.LBB766:
 1316              	.LBI766:
 1317              		.loc 14 272 15 view .LVU326
 1318              		.loc 14 272 15 is_stmt 0 view .LVU327
 1319              	.LBE766:
 1320              	.LBE765:
 1321              	.LBE764:
 1322              	.LBE763:
 1323              	.LBE762:
 1324              	.LBE761:
 1325              	.LBB775:
 1326              	.LBI775:
 1327              		.loc 13 74 5 is_stmt 1 view .LVU328
 1328              	.LBB776:
 1329              	.LBB777:
 1330              	.LBI777:
  68:../../../../DaisyExamples/libDaisy//src/per/gpio.h ****         : pin(), mode(Mode::INPUT), pull(Pull::NOPULL), speed(Speed::LOW)
 1331              		.loc 13 68 9 view .LVU329
 1332              	.LBB778:
 1333              	.LBB779:
 1334              	.LBB780:
 1335              	.LBI780:
 1336              		.loc 14 272 15 view .LVU330
 1337              		.loc 14 272 15 is_stmt 0 view .LVU331
 1338              	.LBE780:
 1339              	.LBE779:
 1340              	.LBE778:
 1341              	.LBE777:
 1342              	.LBE776:
ARM GAS  C:\Users\samue\AppData\Local\Temp\ccfB2Gwd.s 			page 49


 1343              	.LBE775:
 1344              	.LBB789:
 1345              	.LBI789:
 1346              		.loc 13 74 5 is_stmt 1 view .LVU332
 1347              	.LBB790:
 1348              	.LBB791:
 1349              	.LBI791:
  68:../../../../DaisyExamples/libDaisy//src/per/gpio.h ****         : pin(), mode(Mode::INPUT), pull(Pull::NOPULL), speed(Speed::LOW)
 1350              		.loc 13 68 9 view .LVU333
 1351              	.LBB792:
 1352              	.LBB793:
 1353              	.LBB794:
 1354              	.LBI794:
 1355              		.loc 14 272 15 view .LVU334
 1356              		.loc 14 272 15 is_stmt 0 view .LVU335
 1357              	.LBE794:
 1358              	.LBE793:
 1359              	.LBE792:
 1360              	.LBE791:
 1361              	.LBE790:
 1362              	.LBE789:
 1363              	.LBB803:
 1364              	.LBI803:
 1365              		.loc 13 74 5 is_stmt 1 view .LVU336
 1366              	.LBB804:
 1367              	.LBB805:
 1368              	.LBI805:
  68:../../../../DaisyExamples/libDaisy//src/per/gpio.h ****         : pin(), mode(Mode::INPUT), pull(Pull::NOPULL), speed(Speed::LOW)
 1369              		.loc 13 68 9 view .LVU337
 1370              	.LBB806:
 1371              	.LBB807:
 1372              	.LBB808:
 1373              	.LBI808:
 1374              		.loc 14 272 15 view .LVU338
 1375              		.loc 14 272 15 is_stmt 0 view .LVU339
 1376              	.LBE808:
 1377              	.LBE807:
 1378              	.LBE806:
 1379              	.LBE805:
 1380              	.LBE804:
 1381              	.LBE803:
 1382              	.LBB817:
 1383              	.LBI817:
 1384              		.loc 13 74 5 is_stmt 1 view .LVU340
 1385              	.LBB818:
 1386              	.LBB819:
 1387              	.LBI819:
  68:../../../../DaisyExamples/libDaisy//src/per/gpio.h ****         : pin(), mode(Mode::INPUT), pull(Pull::NOPULL), speed(Speed::LOW)
 1388              		.loc 13 68 9 view .LVU341
 1389              	.LBB820:
 1390              	.LBB821:
 1391              	.LBB822:
 1392              	.LBI822:
 1393              		.loc 14 272 15 view .LVU342
 1394              		.loc 14 272 15 is_stmt 0 view .LVU343
 1395              	.LBE822:
 1396              	.LBE821:
ARM GAS  C:\Users\samue\AppData\Local\Temp\ccfB2Gwd.s 			page 50


 1397              	.LBE820:
 1398              	.LBE819:
 1399              	.LBE818:
 1400              	.LBE817:
 1401              	.LBE718:
  19:daisy_common.h ****     ~daisyCommon() {}
 1402              		.loc 1 19 19 view .LVU344
 1403 0000 3C48     		ldr	r0, .L27
 1404 0002 4FF60B72 		movw	r2, #65291
 1405              	.LBB933:
 1406 0006 0121     		movs	r1, #1
 1407 0008 4FF0FF33 		mov	r3, #-1
 1408              	.LBE933:
 1409              	.LBE717:
 1410              	.LBE716:
 1411              	.LBE715:
 1412              	.LBE714:
 1413              		.loc 9 58 1 view .LVU345
 1414 000c 10B5     		push	{r4, lr}
 1415              		.cfi_def_cfa_offset 8
 1416              		.cfi_offset 4, -8
 1417              		.cfi_offset 14, -4
 1418              	.LBB948:
 1419              	.LBB945:
 1420              	.LBB941:
 1421              	.LBB938:
 1422              	.LBB934:
 1423              	.LBB831:
 1424              	.LBB731:
 1425              	.LBB729:
 1426              	.LBB727:
 1427              	.LBB725:
  69:../../../../DaisyExamples/libDaisy//src/per/gpio.h ****         {
 1428              		.loc 13 69 73 view .LVU346
 1429 000e 0024     		movs	r4, #0
 1430              	.LBE725:
 1431              	.LBE727:
 1432              	.LBE729:
 1433              	.LBE731:
 1434              	.LBE831:
 1435              	.LBE934:
  19:daisy_common.h ****     ~daisyCommon() {}
 1436              		.loc 1 19 19 view .LVU347
 1437 0010 C0E90124 		strd	r2, r4, [r0, #4]
 1438              	.LBB935:
 1439              	.LBB832:
 1440              	.LBB745:
 1441              	.LBB743:
 1442              	.LBB741:
 1443              	.LBB739:
  69:../../../../DaisyExamples/libDaisy//src/per/gpio.h ****         {
 1444              		.loc 13 69 73 view .LVU348
 1445 0014 C0E90624 		strd	r2, r4, [r0, #24]
 1446              	.LBE739:
 1447              	.LBE741:
 1448              	.LBE743:
 1449              	.LBE745:
ARM GAS  C:\Users\samue\AppData\Local\Temp\ccfB2Gwd.s 			page 51


 1450              	.LBE832:
 1451              	.LBB833:
 1452              	.LBB759:
 1453              	.LBB757:
 1454              	.LBB755:
 1455              	.LBB753:
 1456 0018 C0E90B24 		strd	r2, r4, [r0, #44]
 1457              	.LBE753:
 1458              	.LBE755:
 1459              	.LBE757:
 1460              	.LBE759:
 1461              	.LBE833:
 1462              	.LBB834:
 1463              	.LBB773:
 1464              	.LBB771:
 1465              	.LBB769:
 1466              	.LBB767:
 1467 001c C0E91024 		strd	r2, r4, [r0, #64]
 1468              	.LBE767:
 1469              	.LBE769:
 1470              	.LBE771:
 1471              	.LBE773:
 1472              	.LBE834:
 1473              	.LBB835:
 1474              	.LBB787:
 1475              	.LBB785:
 1476              	.LBB783:
 1477              	.LBB781:
 1478 0020 C0E91524 		strd	r2, r4, [r0, #84]
 1479              	.LBE781:
 1480              	.LBE783:
 1481              	.LBE785:
 1482              	.LBE787:
 1483              	.LBE835:
 1484              	.LBB836:
 1485              	.LBB801:
 1486              	.LBB799:
 1487              	.LBB797:
 1488              	.LBB795:
 1489 0024 C0E91A24 		strd	r2, r4, [r0, #104]
 1490              	.LBE795:
 1491              	.LBE797:
 1492              	.LBE799:
 1493              	.LBE801:
 1494              	.LBE836:
 1495              	.LBB837:
 1496              	.LBB815:
 1497              	.LBB813:
 1498              	.LBB811:
 1499              	.LBB809:
 1500 0028 C0E91F24 		strd	r2, r4, [r0, #124]
 1501              	.LBE809:
 1502              	.LBE811:
 1503              	.LBE813:
 1504              	.LBE815:
 1505              	.LBE837:
 1506              	.LBB838:
ARM GAS  C:\Users\samue\AppData\Local\Temp\ccfB2Gwd.s 			page 52


 1507              	.LBB829:
 1508              	.LBB827:
 1509              	.LBB825:
 1510              	.LBB823:
 1511 002c C0E92424 		strd	r2, r4, [r0, #144]
 1512              	.LBE823:
 1513              	.LBE825:
 1514              	.LBE827:
 1515              	.LBE829:
 1516              	.LBE838:
 1517              	.LBB839:
 1518              	.LBB732:
 1519              	.LBB730:
 1520              	.LBB728:
 1521              	.LBB726:
 1522 0030 C0E90344 		strd	r4, r4, [r0, #12]
 1523              	.LBE726:
 1524              	.LBE728:
 1525              	.LBE730:
 1526              	.LBE732:
 1527              	.LBE839:
 1528              	.LBB840:
 1529              	.LBB746:
 1530              	.LBB744:
 1531              	.LBB742:
 1532              	.LBB740:
 1533 0034 C0E90844 		strd	r4, r4, [r0, #32]
 1534              	.LBE740:
 1535              	.LBE742:
 1536              	.LBE744:
 1537              	.LBE746:
 1538              	.LBE840:
 1539              	.LBB841:
 1540              	.LBB760:
 1541              	.LBB758:
 1542              	.LBB756:
 1543              	.LBB754:
 1544 0038 C0E90D44 		strd	r4, r4, [r0, #52]
 1545              	.LBE754:
 1546              	.LBE756:
 1547              	.LBE758:
 1548              	.LBE760:
 1549              	.LBE841:
 1550              	.LBB842:
 1551              	.LBB774:
 1552              	.LBB772:
 1553              	.LBB770:
 1554              	.LBB768:
 1555 003c C0E91244 		strd	r4, r4, [r0, #72]
 1556              	.LBE768:
 1557              	.LBE770:
 1558              	.LBE772:
 1559              	.LBE774:
 1560              	.LBE842:
 1561              	.LBB843:
 1562              	.LBB788:
 1563              	.LBB786:
ARM GAS  C:\Users\samue\AppData\Local\Temp\ccfB2Gwd.s 			page 53


 1564              	.LBB784:
 1565              	.LBB782:
 1566 0040 C0E91744 		strd	r4, r4, [r0, #92]
 1567              	.LBE782:
 1568              	.LBE784:
 1569              	.LBE786:
 1570              	.LBE788:
 1571              	.LBE843:
 1572              	.LBB844:
 1573              	.LBB802:
 1574              	.LBB800:
 1575              	.LBB798:
 1576              	.LBB796:
 1577 0044 C0E91C44 		strd	r4, r4, [r0, #112]
 1578              	.LBE796:
 1579              	.LBE798:
 1580              	.LBE800:
 1581              	.LBE802:
 1582              	.LBE844:
 1583              	.LBB845:
 1584              	.LBB816:
 1585              	.LBB814:
 1586              	.LBB812:
 1587              	.LBB810:
 1588 0048 C0E92144 		strd	r4, r4, [r0, #132]
 1589              	.LBE810:
 1590              	.LBE812:
 1591              	.LBE814:
 1592              	.LBE816:
 1593              	.LBE845:
 1594              	.LBB846:
 1595              	.LBB830:
 1596              	.LBB828:
 1597              	.LBB826:
 1598              	.LBB824:
 1599 004c C0E92644 		strd	r4, r4, [r0, #152]
 1600              	.LVL54:
  69:../../../../DaisyExamples/libDaisy//src/per/gpio.h ****         {
 1601              		.loc 13 69 73 view .LVU349
 1602              	.LBE824:
 1603              	.LBE826:
 1604              	.LBE828:
 1605              	.LBE830:
 1606              	.LBE846:
 1607              	.LBB847:
 1608              	.LBI847:
 1609              		.loc 13 74 5 is_stmt 1 view .LVU350
 1610              	.LBB848:
 1611              	.LBB849:
 1612              	.LBI849:
  68:../../../../DaisyExamples/libDaisy//src/per/gpio.h ****         : pin(), mode(Mode::INPUT), pull(Pull::NOPULL), speed(Speed::LOW)
 1613              		.loc 13 68 9 view .LVU351
 1614              	.LBB850:
 1615              	.LBB851:
 1616              	.LBB852:
 1617              	.LBI852:
 1618              		.loc 14 272 15 view .LVU352
ARM GAS  C:\Users\samue\AppData\Local\Temp\ccfB2Gwd.s 			page 54


 1619              		.loc 14 272 15 is_stmt 0 view .LVU353
 1620              	.LBE852:
 1621              	.LBE851:
 1622              	.LBE850:
 1623              	.LBE849:
 1624              	.LBE848:
 1625              	.LBE847:
 1626              	.LBB861:
 1627              	.LBI861:
 1628              		.loc 13 74 5 is_stmt 1 view .LVU354
 1629              	.LBB862:
 1630              	.LBB863:
 1631              	.LBI863:
  68:../../../../DaisyExamples/libDaisy//src/per/gpio.h ****         : pin(), mode(Mode::INPUT), pull(Pull::NOPULL), speed(Speed::LOW)
 1632              		.loc 13 68 9 view .LVU355
 1633              	.LBB864:
 1634              	.LBB865:
 1635              	.LBB866:
 1636              	.LBI866:
 1637              		.loc 14 272 15 view .LVU356
 1638              		.loc 14 272 15 is_stmt 0 view .LVU357
 1639              	.LBE866:
 1640              	.LBE865:
 1641              	.LBE864:
 1642              	.LBE863:
 1643              	.LBE862:
 1644              	.LBE861:
 1645              	.LBB875:
 1646              	.LBI875:
 1647              		.loc 13 74 5 is_stmt 1 view .LVU358
 1648              	.LBB876:
 1649              	.LBB877:
 1650              	.LBI877:
  68:../../../../DaisyExamples/libDaisy//src/per/gpio.h ****         : pin(), mode(Mode::INPUT), pull(Pull::NOPULL), speed(Speed::LOW)
 1651              		.loc 13 68 9 view .LVU359
 1652              	.LBB878:
 1653              	.LBB879:
 1654              	.LBB880:
 1655              	.LBI880:
 1656              		.loc 14 272 15 view .LVU360
 1657              		.loc 14 272 15 is_stmt 0 view .LVU361
 1658              	.LBE880:
 1659              	.LBE879:
 1660              	.LBE878:
 1661              	.LBE877:
 1662              	.LBE876:
 1663              	.LBE875:
 1664              	.LBB889:
 1665              	.LBI889:
 1666              		.loc 13 74 5 is_stmt 1 view .LVU362
 1667              	.LBB890:
 1668              	.LBB891:
 1669              	.LBI891:
  68:../../../../DaisyExamples/libDaisy//src/per/gpio.h ****         : pin(), mode(Mode::INPUT), pull(Pull::NOPULL), speed(Speed::LOW)
 1670              		.loc 13 68 9 view .LVU363
 1671              	.LBB892:
 1672              	.LBB893:
ARM GAS  C:\Users\samue\AppData\Local\Temp\ccfB2Gwd.s 			page 55


 1673              	.LBB894:
 1674              	.LBI894:
 1675              		.loc 14 272 15 view .LVU364
 1676              		.loc 14 272 15 is_stmt 0 view .LVU365
 1677              	.LBE894:
 1678              	.LBE893:
 1679              	.LBE892:
 1680              	.LBE891:
 1681              	.LBE890:
 1682              	.LBE889:
 1683              	.LBB903:
 1684              	.LBB859:
 1685              	.LBB857:
 1686              	.LBB855:
 1687              	.LBB853:
  69:../../../../DaisyExamples/libDaisy//src/per/gpio.h ****         {
 1688              		.loc 13 69 73 view .LVU366
 1689 0050 C0E92924 		strd	r2, r4, [r0, #164]
 1690              	.LBE853:
 1691              	.LBE855:
 1692              	.LBE857:
 1693              	.LBE859:
 1694              	.LBE903:
 1695              	.LBB904:
 1696              	.LBB873:
 1697              	.LBB871:
 1698              	.LBB869:
 1699              	.LBB867:
 1700 0054 C0E92E24 		strd	r2, r4, [r0, #184]
 1701              	.LBE867:
 1702              	.LBE869:
 1703              	.LBE871:
 1704              	.LBE873:
 1705              	.LBE904:
 1706              	.LBB905:
 1707              	.LBB887:
 1708              	.LBB885:
 1709              	.LBB883:
 1710              	.LBB881:
 1711 0058 C0E93324 		strd	r2, r4, [r0, #204]
 1712              	.LBE881:
 1713              	.LBE883:
 1714              	.LBE885:
 1715              	.LBE887:
 1716              	.LBE905:
 1717              	.LBB906:
 1718              	.LBB901:
 1719              	.LBB899:
 1720              	.LBB897:
 1721              	.LBB895:
 1722 005c C0E93824 		strd	r2, r4, [r0, #224]
 1723              	.LBE895:
 1724              	.LBE897:
 1725              	.LBE899:
 1726              	.LBE901:
 1727              	.LBE906:
  19:daisy_common.h ****     ~daisyCommon() {}
ARM GAS  C:\Users\samue\AppData\Local\Temp\ccfB2Gwd.s 			page 56


 1728              		.loc 1 19 19 view .LVU367
 1729 0060 C0F81811 		str	r1, [r0, #280]
 1730 0064 0622     		movs	r2, #6
 1731 0066 0221     		movs	r1, #2
 1732              	.LBB907:
 1733              	.LBB908:
 1734              	.LBB909:
 1735              	.LBB910:
 1736              	.LBB911:
  95:../../../../DaisyExamples/libDaisy//src/hid/audio.h ****     ~AudioHandle() {}
 1737              		.loc 6 95 35 view .LVU368
 1738 0068 C0F83441 		str	r4, [r0, #308]
 1739              	.LBE911:
 1740              	.LBE910:
 1741              	.LBE909:
 1742              	.LBB912:
 1743              	.LBB913:
 1744              	.LBB914:
 1745              		.file 15 "../../../../DaisyExamples/libDaisy//src/per/dac.h"
   1:../../../../DaisyExamples/libDaisy//src/per/dac.h **** #pragma once
   2:../../../../DaisyExamples/libDaisy//src/per/dac.h **** #ifndef DSY_DAC_H
   3:../../../../DaisyExamples/libDaisy//src/per/dac.h **** #define DSY_DAC_H
   4:../../../../DaisyExamples/libDaisy//src/per/dac.h **** 
   5:../../../../DaisyExamples/libDaisy//src/per/dac.h **** #include "daisy_core.h"
   6:../../../../DaisyExamples/libDaisy//src/per/dac.h **** 
   7:../../../../DaisyExamples/libDaisy//src/per/dac.h **** namespace daisy
   8:../../../../DaisyExamples/libDaisy//src/per/dac.h **** {
   9:../../../../DaisyExamples/libDaisy//src/per/dac.h **** /** @brief DAC handle for Built-in DAC Peripheral 
  10:../../../../DaisyExamples/libDaisy//src/per/dac.h ****  *  @ingroup per_analog
  11:../../../../DaisyExamples/libDaisy//src/per/dac.h ****  ** 
  12:../../../../DaisyExamples/libDaisy//src/per/dac.h ****  ** For now only Normal Mode is supported,
  13:../../../../DaisyExamples/libDaisy//src/per/dac.h ****  ** Sample and hold mode provides reduced power consumption, but requires a bit more setup.
  14:../../../../DaisyExamples/libDaisy//src/per/dac.h ****  **
  15:../../../../DaisyExamples/libDaisy//src/per/dac.h ****  ** For now connecting the DAC through other internal peripherals is also not supported.
  16:../../../../DaisyExamples/libDaisy//src/per/dac.h ****  **
  17:../../../../DaisyExamples/libDaisy//src/per/dac.h ****  ** Since the DAC channels have dedicated pins we don't need to pass in a pin config like with
  18:../../../../DaisyExamples/libDaisy//src/per/dac.h ****  ** other modules. However, it is still important to not try to use the DAC pins for anything else.
  19:../../../../DaisyExamples/libDaisy//src/per/dac.h ****  ** DAC Channel 1 is on PA4, and DAC Channel 2 is on PA5
  20:../../../../DaisyExamples/libDaisy//src/per/dac.h ****  ***/
  21:../../../../DaisyExamples/libDaisy//src/per/dac.h **** class DacHandle
  22:../../../../DaisyExamples/libDaisy//src/per/dac.h **** {
  23:../../../../DaisyExamples/libDaisy//src/per/dac.h ****   public:
  24:../../../../DaisyExamples/libDaisy//src/per/dac.h ****     /** Return Values for the DacHandle class */
  25:../../../../DaisyExamples/libDaisy//src/per/dac.h ****     enum class Result
  26:../../../../DaisyExamples/libDaisy//src/per/dac.h ****     {
  27:../../../../DaisyExamples/libDaisy//src/per/dac.h ****         OK,
  28:../../../../DaisyExamples/libDaisy//src/per/dac.h ****         ERR,
  29:../../../../DaisyExamples/libDaisy//src/per/dac.h ****     };
  30:../../../../DaisyExamples/libDaisy//src/per/dac.h **** 
  31:../../../../DaisyExamples/libDaisy//src/per/dac.h ****     /** Selects which channel(s) will be configured for use. */
  32:../../../../DaisyExamples/libDaisy//src/per/dac.h ****     enum class Channel
  33:../../../../DaisyExamples/libDaisy//src/per/dac.h ****     {
  34:../../../../DaisyExamples/libDaisy//src/per/dac.h ****         ONE,
  35:../../../../DaisyExamples/libDaisy//src/per/dac.h ****         TWO,
  36:../../../../DaisyExamples/libDaisy//src/per/dac.h ****         BOTH,
  37:../../../../DaisyExamples/libDaisy//src/per/dac.h ****     };
  38:../../../../DaisyExamples/libDaisy//src/per/dac.h **** 
ARM GAS  C:\Users\samue\AppData\Local\Temp\ccfB2Gwd.s 			page 57


  39:../../../../DaisyExamples/libDaisy//src/per/dac.h ****     /** Sets the Mode for the DAC channels.
  40:../../../../DaisyExamples/libDaisy//src/per/dac.h ****      **
  41:../../../../DaisyExamples/libDaisy//src/per/dac.h ****      ** Polling mode uses the blocking mode to transmit a single value at a time.
  42:../../../../DaisyExamples/libDaisy//src/per/dac.h ****      **
  43:../../../../DaisyExamples/libDaisy//src/per/dac.h ****      ** DMA mode uses a buffer, and periodically transmits it triggering a 
  44:../../../../DaisyExamples/libDaisy//src/per/dac.h ****      ** callback to fill the buffer when it is ready for more samples.
  45:../../../../DaisyExamples/libDaisy//src/per/dac.h ****      ***/
  46:../../../../DaisyExamples/libDaisy//src/per/dac.h ****     enum class Mode
  47:../../../../DaisyExamples/libDaisy//src/per/dac.h ****     {
  48:../../../../DaisyExamples/libDaisy//src/per/dac.h ****         POLLING,
  49:../../../../DaisyExamples/libDaisy//src/per/dac.h ****         DMA,
  50:../../../../DaisyExamples/libDaisy//src/per/dac.h ****     };
  51:../../../../DaisyExamples/libDaisy//src/per/dac.h **** 
  52:../../../../DaisyExamples/libDaisy//src/per/dac.h ****     /** Sets the number of bits per sample transmitted out of the DAC.
  53:../../../../DaisyExamples/libDaisy//src/per/dac.h ****      ** The output range will be: 0V - VDDA
  54:../../../../DaisyExamples/libDaisy//src/per/dac.h ****      ** The resolution will be roughly: bitdepth / (VDDA - 0V) 
  55:../../../../DaisyExamples/libDaisy//src/per/dac.h ****      ***/
  56:../../../../DaisyExamples/libDaisy//src/per/dac.h ****     enum class BitDepth
  57:../../../../DaisyExamples/libDaisy//src/per/dac.h ****     {
  58:../../../../DaisyExamples/libDaisy//src/per/dac.h ****         BITS_8,
  59:../../../../DaisyExamples/libDaisy//src/per/dac.h ****         BITS_12
  60:../../../../DaisyExamples/libDaisy//src/per/dac.h ****     };
  61:../../../../DaisyExamples/libDaisy//src/per/dac.h **** 
  62:../../../../DaisyExamples/libDaisy//src/per/dac.h ****     /** Sets whether the DAC output is buffered for higher drive ability. */
  63:../../../../DaisyExamples/libDaisy//src/per/dac.h ****     enum class BufferState
  64:../../../../DaisyExamples/libDaisy//src/per/dac.h ****     {
  65:../../../../DaisyExamples/libDaisy//src/per/dac.h ****         ENABLED,
  66:../../../../DaisyExamples/libDaisy//src/per/dac.h ****         DISABLED,
  67:../../../../DaisyExamples/libDaisy//src/per/dac.h ****     };
  68:../../../../DaisyExamples/libDaisy//src/per/dac.h **** 
  69:../../../../DaisyExamples/libDaisy//src/per/dac.h ****     /** Configuration structure for initializing the DAC structure. */
  70:../../../../DaisyExamples/libDaisy//src/per/dac.h ****     struct Config
  71:../../../../DaisyExamples/libDaisy//src/per/dac.h ****     {
  72:../../../../DaisyExamples/libDaisy//src/per/dac.h ****         /** Target Samplerate in Hz used to configure the internal 
  73:../../../../DaisyExamples/libDaisy//src/per/dac.h ****          ** timebase for DMA mode. Does nothing in POLLING mode.
  74:../../../../DaisyExamples/libDaisy//src/per/dac.h ****          ** If the value is 0 at Init time this will default to 48000Hz 
  75:../../../../DaisyExamples/libDaisy//src/per/dac.h ****          ** otherwise the driver will attempt meet the target.*/
  76:../../../../DaisyExamples/libDaisy//src/per/dac.h ****         uint32_t target_samplerate;
  77:../../../../DaisyExamples/libDaisy//src/per/dac.h **** 
  78:../../../../DaisyExamples/libDaisy//src/per/dac.h ****         Channel     chn;
  79:../../../../DaisyExamples/libDaisy//src/per/dac.h ****         Mode        mode;
  80:../../../../DaisyExamples/libDaisy//src/per/dac.h ****         BitDepth    bitdepth;
  81:../../../../DaisyExamples/libDaisy//src/per/dac.h ****         BufferState buff_state;
  82:../../../../DaisyExamples/libDaisy//src/per/dac.h ****     };
  83:../../../../DaisyExamples/libDaisy//src/per/dac.h **** 
  84:../../../../DaisyExamples/libDaisy//src/per/dac.h ****     DacHandle() : pimpl_(nullptr) {}
 1746              		.loc 15 84 33 view .LVU369
 1747 006c C0F84041 		str	r4, [r0, #320]
 1748              	.LBE914:
 1749              	.LBE913:
 1750              	.LBE912:
 1751              	.LBE908:
 1752              	.LBE907:
  19:daisy_common.h ****     ~daisyCommon() {}
 1753              		.loc 1 19 19 view .LVU370
 1754 0070 C0E95743 		strd	r4, r3, [r0, #348]
 1755              	.LBB925:
ARM GAS  C:\Users\samue\AppData\Local\Temp\ccfB2Gwd.s 			page 58


 1756              	.LBB860:
 1757              	.LBB858:
 1758              	.LBB856:
 1759              	.LBB854:
  69:../../../../DaisyExamples/libDaisy//src/per/gpio.h ****         {
 1760              		.loc 13 69 73 view .LVU371
 1761 0074 C0E92B44 		strd	r4, r4, [r0, #172]
 1762              	.LBE854:
 1763              	.LBE856:
 1764              	.LBE858:
 1765              	.LBE860:
 1766              	.LBE925:
 1767              	.LBB926:
 1768              	.LBB874:
 1769              	.LBB872:
 1770              	.LBB870:
 1771              	.LBB868:
 1772 0078 C0E93044 		strd	r4, r4, [r0, #192]
 1773              	.LBE868:
 1774              	.LBE870:
 1775              	.LBE872:
 1776              	.LBE874:
 1777              	.LBE926:
 1778              	.LBB927:
 1779              	.LBB888:
 1780              	.LBB886:
 1781              	.LBB884:
 1782              	.LBB882:
 1783 007c C0E93544 		strd	r4, r4, [r0, #212]
 1784              	.LBE882:
 1785              	.LBE884:
 1786              	.LBE886:
 1787              	.LBE888:
 1788              	.LBE927:
 1789              	.LBB928:
 1790              	.LBB902:
 1791              	.LBB900:
 1792              	.LBB898:
 1793              	.LBB896:
 1794 0080 C0E93A44 		strd	r4, r4, [r0, #232]
 1795              	.LVL55:
  69:../../../../DaisyExamples/libDaisy//src/per/gpio.h ****         {
 1796              		.loc 13 69 73 view .LVU372
 1797              	.LBE896:
 1798              	.LBE898:
 1799              	.LBE900:
 1800              	.LBE902:
 1801              	.LBE928:
 1802              	.LBB929:
 1803              	.LBI929:
  20:../../../../DaisyExamples/libDaisy//src/hid/switch3.h ****     ~Switch3() {}
 1804              		.loc 8 20 5 is_stmt 1 view .LVU373
  20:../../../../DaisyExamples/libDaisy//src/hid/switch3.h ****     ~Switch3() {}
 1805              		.loc 8 20 5 is_stmt 0 view .LVU374
 1806              	.LBE929:
 1807              	.LBB930:
 1808              	.LBI930:
ARM GAS  C:\Users\samue\AppData\Local\Temp\ccfB2Gwd.s 			page 59


  20:../../../../DaisyExamples/libDaisy//src/hid/switch3.h ****     ~Switch3() {}
 1809              		.loc 8 20 5 is_stmt 1 view .LVU375
  20:../../../../DaisyExamples/libDaisy//src/hid/switch3.h ****     ~Switch3() {}
 1810              		.loc 8 20 5 is_stmt 0 view .LVU376
 1811              	.LBE930:
 1812              	.LBB931:
 1813              	.LBI931:
  41:../../../../DaisyExamples/libDaisy//src/hid/switch.h ****     ~Switch() {}
 1814              		.loc 7 41 5 is_stmt 1 view .LVU377
  41:../../../../DaisyExamples/libDaisy//src/hid/switch.h ****     ~Switch() {}
 1815              		.loc 7 41 5 is_stmt 0 view .LVU378
 1816              	.LBE931:
 1817              	.LBB932:
 1818              	.LBB924:
 1819              	.LBB915:
 1820              	.LBB916:
 1821              	.LBB917:
 1822              		.file 16 "../../../../DaisyExamples/libDaisy//src/per/qspi.h"
   1:../../../../DaisyExamples/libDaisy//src/per/qspi.h **** #ifndef DSY_QSPI
   2:../../../../DaisyExamples/libDaisy//src/per/qspi.h **** #define DSY_QSPI /**< Macro */
   3:../../../../DaisyExamples/libDaisy//src/per/qspi.h **** 
   4:../../../../DaisyExamples/libDaisy//src/per/qspi.h **** #ifndef UNIT_TEST // for unit tests, a dummy implementation
   5:../../../../DaisyExamples/libDaisy//src/per/qspi.h **** 
   6:../../../../DaisyExamples/libDaisy//src/per/qspi.h **** #include <cstdint>
   7:../../../../DaisyExamples/libDaisy//src/per/qspi.h **** #include "daisy_core.h" // Added for dsy_gpio_pin typedef
   8:../../../../DaisyExamples/libDaisy//src/per/qspi.h **** 
   9:../../../../DaisyExamples/libDaisy//src/per/qspi.h **** #define DSY_QSPI_TEXT       \
  10:../../../../DaisyExamples/libDaisy//src/per/qspi.h ****     __attribute__((section( \
  11:../../../../DaisyExamples/libDaisy//src/per/qspi.h ****         ".qspiflash_text"))) /**< used for reading memory in memory_mapped mode. */
  12:../../../../DaisyExamples/libDaisy//src/per/qspi.h **** #define DSY_QSPI_DATA       \
  13:../../../../DaisyExamples/libDaisy//src/per/qspi.h ****     __attribute__((section( \
  14:../../../../DaisyExamples/libDaisy//src/per/qspi.h ****         ".qspiflash_data"))) /**< used for reading memory in memory_mapped mode. */
  15:../../../../DaisyExamples/libDaisy//src/per/qspi.h **** #define DSY_QSPI_BSS        \
  16:../../../../DaisyExamples/libDaisy//src/per/qspi.h ****     __attribute__((section( \
  17:../../../../DaisyExamples/libDaisy//src/per/qspi.h ****         ".qspiflash_bss"))) /**< used for reading memory in memory_mapped mode. */
  18:../../../../DaisyExamples/libDaisy//src/per/qspi.h **** 
  19:../../../../DaisyExamples/libDaisy//src/per/qspi.h **** namespace daisy
  20:../../../../DaisyExamples/libDaisy//src/per/qspi.h **** {
  21:../../../../DaisyExamples/libDaisy//src/per/qspi.h **** /** @addtogroup serial
  22:../../../../DaisyExamples/libDaisy//src/per/qspi.h **** @{
  23:../../../../DaisyExamples/libDaisy//src/per/qspi.h **** */
  24:../../../../DaisyExamples/libDaisy//src/per/qspi.h **** 
  25:../../../../DaisyExamples/libDaisy//src/per/qspi.h **** /** 
  26:../../../../DaisyExamples/libDaisy//src/per/qspi.h ****  Driver for QSPI peripheral to interface with external flash memory. \n 
  27:../../../../DaisyExamples/libDaisy//src/per/qspi.h ****     Currently supported QSPI Devices: \n 
  28:../../../../DaisyExamples/libDaisy//src/per/qspi.h ****     * IS25LP080D
  29:../../../../DaisyExamples/libDaisy//src/per/qspi.h **** */
  30:../../../../DaisyExamples/libDaisy//src/per/qspi.h **** class QSPIHandle
  31:../../../../DaisyExamples/libDaisy//src/per/qspi.h **** {
  32:../../../../DaisyExamples/libDaisy//src/per/qspi.h ****   public:
  33:../../../../DaisyExamples/libDaisy//src/per/qspi.h ****     enum Result
  34:../../../../DaisyExamples/libDaisy//src/per/qspi.h ****     {
  35:../../../../DaisyExamples/libDaisy//src/per/qspi.h ****         OK = 0,
  36:../../../../DaisyExamples/libDaisy//src/per/qspi.h ****         ERR
  37:../../../../DaisyExamples/libDaisy//src/per/qspi.h ****     };
  38:../../../../DaisyExamples/libDaisy//src/per/qspi.h **** 
  39:../../../../DaisyExamples/libDaisy//src/per/qspi.h ****     /** Indicates the current status of the module. 
ARM GAS  C:\Users\samue\AppData\Local\Temp\ccfB2Gwd.s 			page 60


  40:../../../../DaisyExamples/libDaisy//src/per/qspi.h ****          *  Warnings are indicated by a leading W.
  41:../../../../DaisyExamples/libDaisy//src/per/qspi.h ****          *  Errors are indicated by a leading E and cause an immediate exit.
  42:../../../../DaisyExamples/libDaisy//src/per/qspi.h ****          * 
  43:../../../../DaisyExamples/libDaisy//src/per/qspi.h ****          *  \param GOOD - No errors have been reported.
  44:../../../../DaisyExamples/libDaisy//src/per/qspi.h ****          *  \param E_HAL_ERROR - HAL code did not return HAL_OK.
  45:../../../../DaisyExamples/libDaisy//src/per/qspi.h ****          *  \param E_SWITCHING_MODES - An error was encountered while switching QSPI peripheral mod
  46:../../../../DaisyExamples/libDaisy//src/per/qspi.h ****          *  \param E_INVALID_MODE - QSPI should not be written to while the program is executing fr
  47:../../../../DaisyExamples/libDaisy//src/per/qspi.h ****          */
  48:../../../../DaisyExamples/libDaisy//src/per/qspi.h ****     enum Status
  49:../../../../DaisyExamples/libDaisy//src/per/qspi.h ****     {
  50:../../../../DaisyExamples/libDaisy//src/per/qspi.h ****         GOOD = 0,
  51:../../../../DaisyExamples/libDaisy//src/per/qspi.h ****         E_HAL_ERROR,
  52:../../../../DaisyExamples/libDaisy//src/per/qspi.h ****         E_SWITCHING_MODES,
  53:../../../../DaisyExamples/libDaisy//src/per/qspi.h ****         E_INVALID_MODE,
  54:../../../../DaisyExamples/libDaisy//src/per/qspi.h ****     };
  55:../../../../DaisyExamples/libDaisy//src/per/qspi.h **** 
  56:../../../../DaisyExamples/libDaisy//src/per/qspi.h ****     /** Configuration structure for interfacing with QSPI Driver */
  57:../../../../DaisyExamples/libDaisy//src/per/qspi.h ****     struct Config
  58:../../../../DaisyExamples/libDaisy//src/per/qspi.h ****     {
  59:../../../../DaisyExamples/libDaisy//src/per/qspi.h ****         /** Flash Devices supported. (Both of these are more-or-less the same, just different sizes
  60:../../../../DaisyExamples/libDaisy//src/per/qspi.h ****         enum Device
  61:../../../../DaisyExamples/libDaisy//src/per/qspi.h ****         {
  62:../../../../DaisyExamples/libDaisy//src/per/qspi.h ****             IS25LP080D,  /**< & */
  63:../../../../DaisyExamples/libDaisy//src/per/qspi.h ****             IS25LP064A,  /**< & */
  64:../../../../DaisyExamples/libDaisy//src/per/qspi.h ****             DEVICE_LAST, /**< & */
  65:../../../../DaisyExamples/libDaisy//src/per/qspi.h ****         };
  66:../../../../DaisyExamples/libDaisy//src/per/qspi.h **** 
  67:../../../../DaisyExamples/libDaisy//src/per/qspi.h ****         /** 
  68:../../../../DaisyExamples/libDaisy//src/per/qspi.h ****         Modes of operation.
  69:../../../../DaisyExamples/libDaisy//src/per/qspi.h ****         Memory Mapped mode: QSPI configured so that the QSPI can be
  70:../../../../DaisyExamples/libDaisy//src/per/qspi.h ****         read from starting address 0x90000000. Writing is not
  71:../../../../DaisyExamples/libDaisy//src/per/qspi.h ****         possible in this mode. \n 
  72:../../../../DaisyExamples/libDaisy//src/per/qspi.h ****         Indirect Polling mode: Device driver enabled. 
  73:../../../../DaisyExamples/libDaisy//src/per/qspi.h ****         */
  74:../../../../DaisyExamples/libDaisy//src/per/qspi.h ****         enum Mode
  75:../../../../DaisyExamples/libDaisy//src/per/qspi.h ****         {
  76:../../../../DaisyExamples/libDaisy//src/per/qspi.h ****             MEMORY_MAPPED,    /**< & */
  77:../../../../DaisyExamples/libDaisy//src/per/qspi.h ****             INDIRECT_POLLING, /**< & */
  78:../../../../DaisyExamples/libDaisy//src/per/qspi.h ****             MODE_LAST,
  79:../../../../DaisyExamples/libDaisy//src/per/qspi.h ****         };
  80:../../../../DaisyExamples/libDaisy//src/per/qspi.h **** 
  81:../../../../DaisyExamples/libDaisy//src/per/qspi.h ****         //SCK,  CE# (active low)
  82:../../../../DaisyExamples/libDaisy//src/per/qspi.h ****         struct
  83:../../../../DaisyExamples/libDaisy//src/per/qspi.h ****         {
  84:../../../../DaisyExamples/libDaisy//src/per/qspi.h ****             dsy_gpio_pin io0; /**< & */
  85:../../../../DaisyExamples/libDaisy//src/per/qspi.h ****             dsy_gpio_pin io1; /**< & */
  86:../../../../DaisyExamples/libDaisy//src/per/qspi.h ****             dsy_gpio_pin io2; /**< & */
  87:../../../../DaisyExamples/libDaisy//src/per/qspi.h ****             dsy_gpio_pin io3; /**< & */
  88:../../../../DaisyExamples/libDaisy//src/per/qspi.h ****             dsy_gpio_pin clk; /**< & */
  89:../../../../DaisyExamples/libDaisy//src/per/qspi.h ****             dsy_gpio_pin ncs; /**< & */
  90:../../../../DaisyExamples/libDaisy//src/per/qspi.h ****         } pin_config;
  91:../../../../DaisyExamples/libDaisy//src/per/qspi.h **** 
  92:../../../../DaisyExamples/libDaisy//src/per/qspi.h ****         Device device;
  93:../../../../DaisyExamples/libDaisy//src/per/qspi.h ****         Mode   mode;
  94:../../../../DaisyExamples/libDaisy//src/per/qspi.h ****     };
  95:../../../../DaisyExamples/libDaisy//src/per/qspi.h **** 
  96:../../../../DaisyExamples/libDaisy//src/per/qspi.h ****     /** 
ARM GAS  C:\Users\samue\AppData\Local\Temp\ccfB2Gwd.s 			page 61


  97:../../../../DaisyExamples/libDaisy//src/per/qspi.h ****         Initializes QSPI peripheral, and Resets, and prepares memory for access.
  98:../../../../DaisyExamples/libDaisy//src/per/qspi.h ****         \param config should be populated with the mode, device and pin_config before calling this 
  99:../../../../DaisyExamples/libDaisy//src/per/qspi.h ****         \return Result::OK or Result::ERR
 100:../../../../DaisyExamples/libDaisy//src/per/qspi.h ****         */
 101:../../../../DaisyExamples/libDaisy//src/per/qspi.h ****     Result Init(const Config& config);
 102:../../../../DaisyExamples/libDaisy//src/per/qspi.h **** 
 103:../../../../DaisyExamples/libDaisy//src/per/qspi.h ****     /** Returns the current config. */
 104:../../../../DaisyExamples/libDaisy//src/per/qspi.h ****     const Config& GetConfig() const;
 105:../../../../DaisyExamples/libDaisy//src/per/qspi.h **** 
 106:../../../../DaisyExamples/libDaisy//src/per/qspi.h ****     // Couldn't this just be called before anything else in init? That
 107:../../../../DaisyExamples/libDaisy//src/per/qspi.h ****     // would make manually calling it unnecessary.
 108:../../../../DaisyExamples/libDaisy//src/per/qspi.h ****     /** 
 109:../../../../DaisyExamples/libDaisy//src/per/qspi.h ****         Deinitializes the peripheral
 110:../../../../DaisyExamples/libDaisy//src/per/qspi.h ****         This should be called before reinitializing QSPI in a different mode.
 111:../../../../DaisyExamples/libDaisy//src/per/qspi.h ****         \return Result::OK or Result::ERR
 112:../../../../DaisyExamples/libDaisy//src/per/qspi.h ****         */
 113:../../../../DaisyExamples/libDaisy//src/per/qspi.h ****     Result DeInit();
 114:../../../../DaisyExamples/libDaisy//src/per/qspi.h **** 
 115:../../../../DaisyExamples/libDaisy//src/per/qspi.h ****     /** 
 116:../../../../DaisyExamples/libDaisy//src/per/qspi.h ****         Writes a single page to to the specified address on the QSPI chip.
 117:../../../../DaisyExamples/libDaisy//src/per/qspi.h ****         For IS25LP*, page size is 256 bytes.
 118:../../../../DaisyExamples/libDaisy//src/per/qspi.h ****         \param address Address to write to
 119:../../../../DaisyExamples/libDaisy//src/per/qspi.h ****         \param size Buffer size
 120:../../../../DaisyExamples/libDaisy//src/per/qspi.h ****         \param buffer Buffer to write
 121:../../../../DaisyExamples/libDaisy//src/per/qspi.h ****         \return Result::OK or Result::ERR
 122:../../../../DaisyExamples/libDaisy//src/per/qspi.h ****         */
 123:../../../../DaisyExamples/libDaisy//src/per/qspi.h ****     Result WritePage(uint32_t address, uint32_t size, uint8_t* buffer);
 124:../../../../DaisyExamples/libDaisy//src/per/qspi.h **** 
 125:../../../../DaisyExamples/libDaisy//src/per/qspi.h ****     /** 
 126:../../../../DaisyExamples/libDaisy//src/per/qspi.h ****         Writes data in buffer to to the QSPI. Starting at address to address+size 
 127:../../../../DaisyExamples/libDaisy//src/per/qspi.h ****         \param address Address to write to
 128:../../../../DaisyExamples/libDaisy//src/per/qspi.h ****         \param size Buffer size
 129:../../../../DaisyExamples/libDaisy//src/per/qspi.h ****         \param buffer Buffer to write
 130:../../../../DaisyExamples/libDaisy//src/per/qspi.h ****         \return Result::OK or Result::ERR
 131:../../../../DaisyExamples/libDaisy//src/per/qspi.h ****         */
 132:../../../../DaisyExamples/libDaisy//src/per/qspi.h ****     Result Write(uint32_t address, uint32_t size, uint8_t* buffer);
 133:../../../../DaisyExamples/libDaisy//src/per/qspi.h **** 
 134:../../../../DaisyExamples/libDaisy//src/per/qspi.h ****     /** 
 135:../../../../DaisyExamples/libDaisy//src/per/qspi.h ****         Erases the area specified on the chip.
 136:../../../../DaisyExamples/libDaisy//src/per/qspi.h ****         Erasures will happen by 4K, 32K or 64K increments.
 137:../../../../DaisyExamples/libDaisy//src/per/qspi.h ****         Smallest erase possible is 4kB at a time. (on IS25LP*)
 138:../../../../DaisyExamples/libDaisy//src/per/qspi.h ****         \param start_addr Address to begin erasing from
 139:../../../../DaisyExamples/libDaisy//src/per/qspi.h ****         \param end_addr  Address to stop erasing at
 140:../../../../DaisyExamples/libDaisy//src/per/qspi.h ****         \return Result::OK or Result::ERR
 141:../../../../DaisyExamples/libDaisy//src/per/qspi.h ****         */
 142:../../../../DaisyExamples/libDaisy//src/per/qspi.h ****     Result Erase(uint32_t start_addr, uint32_t end_addr);
 143:../../../../DaisyExamples/libDaisy//src/per/qspi.h **** 
 144:../../../../DaisyExamples/libDaisy//src/per/qspi.h ****     /**  
 145:../../../../DaisyExamples/libDaisy//src/per/qspi.h ****          Erases a single sector of the chip.  
 146:../../../../DaisyExamples/libDaisy//src/per/qspi.h ****         TODO: Document the size of this function. 
 147:../../../../DaisyExamples/libDaisy//src/per/qspi.h ****         \param address Address of sector to erase
 148:../../../../DaisyExamples/libDaisy//src/per/qspi.h ****         \return Result::OK or Result::ERR
 149:../../../../DaisyExamples/libDaisy//src/per/qspi.h ****         */
 150:../../../../DaisyExamples/libDaisy//src/per/qspi.h ****     Result EraseSector(uint32_t address);
 151:../../../../DaisyExamples/libDaisy//src/per/qspi.h **** 
 152:../../../../DaisyExamples/libDaisy//src/per/qspi.h ****     /** Returns the current class status. Useful for debugging.
 153:../../../../DaisyExamples/libDaisy//src/per/qspi.h ****      *  \returns Status
ARM GAS  C:\Users\samue\AppData\Local\Temp\ccfB2Gwd.s 			page 62


 154:../../../../DaisyExamples/libDaisy//src/per/qspi.h ****      */
 155:../../../../DaisyExamples/libDaisy//src/per/qspi.h ****     Status GetStatus();
 156:../../../../DaisyExamples/libDaisy//src/per/qspi.h **** 
 157:../../../../DaisyExamples/libDaisy//src/per/qspi.h ****     /** Returns a pointer to the actual memory used 
 158:../../../../DaisyExamples/libDaisy//src/per/qspi.h ****      *  The memory at this address is read-only
 159:../../../../DaisyExamples/libDaisy//src/per/qspi.h ****      *  to write to it use the Write function.
 160:../../../../DaisyExamples/libDaisy//src/per/qspi.h ****      * 
 161:../../../../DaisyExamples/libDaisy//src/per/qspi.h ****      *  \param offset returns the pointer starting this 
 162:../../../../DaisyExamples/libDaisy//src/per/qspi.h ****      *                many bytes into the memory
 163:../../../../DaisyExamples/libDaisy//src/per/qspi.h ****     */
 164:../../../../DaisyExamples/libDaisy//src/per/qspi.h ****     void* GetData(uint32_t offset = 0);
 165:../../../../DaisyExamples/libDaisy//src/per/qspi.h **** 
 166:../../../../DaisyExamples/libDaisy//src/per/qspi.h ****     QSPIHandle() : pimpl_(nullptr) {}
 1823              		.loc 16 166 34 view .LVU379
 1824 0084 C0E94744 		strd	r4, r4, [r0, #284]
 1825              	.LVL56:
 1826              		.loc 16 166 34 view .LVU380
 1827              	.LBE917:
 1828              	.LBE916:
 1829              	.LBE915:
 1830              	.LBB918:
 1831              	.LBI909:
  95:../../../../DaisyExamples/libDaisy//src/hid/audio.h ****     ~AudioHandle() {}
 1832              		.loc 6 95 5 is_stmt 1 view .LVU381
  95:../../../../DaisyExamples/libDaisy//src/hid/audio.h ****     ~AudioHandle() {}
 1833              		.loc 6 95 5 is_stmt 0 view .LVU382
 1834              	.LBE918:
 1835              	.LBB919:
 1836              	.LBI919:
 109:../../../../DaisyExamples/libDaisy//src/per/adc.h ****     ~AdcHandle() {}
 1837              		.loc 5 109 5 is_stmt 1 view .LVU383
 109:../../../../DaisyExamples/libDaisy//src/per/adc.h ****     ~AdcHandle() {}
 1838              		.loc 5 109 5 is_stmt 0 view .LVU384
 1839              	.LBE919:
 1840              	.LBB920:
 1841              	.LBI912:
 1842              		.loc 15 84 5 is_stmt 1 view .LVU385
 1843              		.loc 15 84 5 is_stmt 0 view .LVU386
 1844              	.LBE920:
 1845              	.LBB921:
 1846              	.LBI921:
  40:../../../../DaisyExamples/libDaisy//src/hid/usb.h **** 
 1847              		.loc 4 40 5 is_stmt 1 view .LVU387
  40:../../../../DaisyExamples/libDaisy//src/hid/usb.h **** 
 1848              		.loc 4 40 5 is_stmt 0 view .LVU388
 1849              	.LBE921:
 1850              	.LBB922:
 1851              	.LBI922:
  96:../../../../DaisyExamples/libDaisy//src/sys/system.h ****     ~System() {}
 1852              		.loc 3 96 5 is_stmt 1 view .LVU389
  96:../../../../DaisyExamples/libDaisy//src/sys/system.h ****     ~System() {}
 1853              		.loc 3 96 5 is_stmt 0 view .LVU390
 1854              	.LBE922:
 1855              	.LBB923:
 1856              	.LBI923:
 1857              		.file 17 "../../../../DaisyExamples/libDaisy//src/per/sai.h"
   1:../../../../DaisyExamples/libDaisy//src/per/sai.h **** #pragma once
ARM GAS  C:\Users\samue\AppData\Local\Temp\ccfB2Gwd.s 			page 63


   2:../../../../DaisyExamples/libDaisy//src/per/sai.h **** #ifndef DSY_SAI_H
   3:../../../../DaisyExamples/libDaisy//src/per/sai.h **** #define DSY_SAI_H
   4:../../../../DaisyExamples/libDaisy//src/per/sai.h **** 
   5:../../../../DaisyExamples/libDaisy//src/per/sai.h **** #include "daisy_core.h"
   6:../../../../DaisyExamples/libDaisy//src/per/sai.h **** 
   7:../../../../DaisyExamples/libDaisy//src/per/sai.h **** namespace daisy
   8:../../../../DaisyExamples/libDaisy//src/per/sai.h **** {
   9:../../../../DaisyExamples/libDaisy//src/per/sai.h **** /** 
  10:../../../../DaisyExamples/libDaisy//src/per/sai.h ****  * Support for I2S Audio Protocol with different bit-depth, samplerate options
  11:../../../../DaisyExamples/libDaisy//src/per/sai.h ****  * Allows for master or slave, as well as freedom of selecting direction, 
  12:../../../../DaisyExamples/libDaisy//src/per/sai.h ****  * and other behavior for each peripheral, and block.
  13:../../../../DaisyExamples/libDaisy//src/per/sai.h ****  * 
  14:../../../../DaisyExamples/libDaisy//src/per/sai.h ****  * DMA Transfer commands must use buffers located within non-cached memory or use cache maintenance
  15:../../../../DaisyExamples/libDaisy//src/per/sai.h ****  * To declare an unitialized global element in the DMA memory section:
  16:../../../../DaisyExamples/libDaisy//src/per/sai.h ****  *    int32_t DSY_DMA_BUFFER_SECTOR my_buffer[96];
  17:../../../../DaisyExamples/libDaisy//src/per/sai.h ****  *
  18:../../../../DaisyExamples/libDaisy//src/per/sai.h ****  * Callback functions will be called once per half of the buffer. In the above example, 
  19:../../../../DaisyExamples/libDaisy//src/per/sai.h ****  * the callback function would be called once for every 48 samples.
  20:../../../../DaisyExamples/libDaisy//src/per/sai.h ****  * 
  21:../../../../DaisyExamples/libDaisy//src/per/sai.h ****  * Use SAI Handle like this:
  22:../../../../DaisyExamples/libDaisy//src/per/sai.h ****  * 
  23:../../../../DaisyExamples/libDaisy//src/per/sai.h ****  *  SaiHandle::Config sai_config;
  24:../../../../DaisyExamples/libDaisy//src/per/sai.h ****  *  sai_config.periph          = SaiHandle::Config::Peripheral::SAI_1;
  25:../../../../DaisyExamples/libDaisy//src/per/sai.h ****  *  sai_config.sr              = SaiHandle::Config::SampleRate::SAI_48KHZ;
  26:../../../../DaisyExamples/libDaisy//src/per/sai.h ****  *  sai_config.bit_depth       = SaiHandle::Config::BitDepth::SAI_24BIT;
  27:../../../../DaisyExamples/libDaisy//src/per/sai.h ****  *  sai_config.a_sync          = SaiHandle::Config::Sync::MASTER;
  28:../../../../DaisyExamples/libDaisy//src/per/sai.h ****  *  sai_config.b_sync          = SaiHandle::Config::Sync::SLAVE;
  29:../../../../DaisyExamples/libDaisy//src/per/sai.h ****  *  sai_config.a_dir           = SaiHandle::Config::Direction::RECEIVE;
  30:../../../../DaisyExamples/libDaisy//src/per/sai.h ****  *  sai_config.b_dir           = SaiHandle::Config::Direction::TRANSMIT;
  31:../../../../DaisyExamples/libDaisy//src/per/sai.h ****  *  sai_config.pin_config.fs   = {DSY_GPIOE, 4};
  32:../../../../DaisyExamples/libDaisy//src/per/sai.h ****  *  sai_config.pin_config.mclk = {DSY_GPIOE, 2};
  33:../../../../DaisyExamples/libDaisy//src/per/sai.h ****  *  sai_config.pin_config.sck  = {DSY_GPIOE, 5};
  34:../../../../DaisyExamples/libDaisy//src/per/sai.h ****  *  sai_config.pin_config.sa   = {DSY_GPIOE, 6};
  35:../../../../DaisyExamples/libDaisy//src/per/sai.h ****  *  sai_config.pin_config.sb   = {DSY_GPIOE, 3};
  36:../../../../DaisyExamples/libDaisy//src/per/sai.h ****  *  // Then Initialize
  37:../../../../DaisyExamples/libDaisy//src/per/sai.h ****  *  SaiHandle sai;
  38:../../../../DaisyExamples/libDaisy//src/per/sai.h ****  *  sai.Init(sai_config);
  39:../../../../DaisyExamples/libDaisy//src/per/sai.h ****  *  // Now you can use it:
  40:../../../../DaisyExamples/libDaisy//src/per/sai.h ****  *  sai.StartDma(. . .);
  41:../../../../DaisyExamples/libDaisy//src/per/sai.h ****  */
  42:../../../../DaisyExamples/libDaisy//src/per/sai.h **** class SaiHandle
  43:../../../../DaisyExamples/libDaisy//src/per/sai.h **** {
  44:../../../../DaisyExamples/libDaisy//src/per/sai.h ****   public:
  45:../../../../DaisyExamples/libDaisy//src/per/sai.h ****     /** Contains settings for initialising an SAI Interface */
  46:../../../../DaisyExamples/libDaisy//src/per/sai.h ****     struct Config
  47:../../../../DaisyExamples/libDaisy//src/per/sai.h ****     {
  48:../../../../DaisyExamples/libDaisy//src/per/sai.h ****         /** Specifies the internal peripheral to use (mapped to different hardware pins) */
  49:../../../../DaisyExamples/libDaisy//src/per/sai.h ****         enum class Peripheral
  50:../../../../DaisyExamples/libDaisy//src/per/sai.h ****         {
  51:../../../../DaisyExamples/libDaisy//src/per/sai.h ****             SAI_1,
  52:../../../../DaisyExamples/libDaisy//src/per/sai.h ****             SAI_2,
  53:../../../../DaisyExamples/libDaisy//src/per/sai.h ****         };
  54:../../../../DaisyExamples/libDaisy//src/per/sai.h **** 
  55:../../../../DaisyExamples/libDaisy//src/per/sai.h ****         /** Rate at which samples will be streaming to/from the device. */
  56:../../../../DaisyExamples/libDaisy//src/per/sai.h ****         enum class SampleRate
  57:../../../../DaisyExamples/libDaisy//src/per/sai.h ****         {
  58:../../../../DaisyExamples/libDaisy//src/per/sai.h ****             SAI_8KHZ,
ARM GAS  C:\Users\samue\AppData\Local\Temp\ccfB2Gwd.s 			page 64


  59:../../../../DaisyExamples/libDaisy//src/per/sai.h ****             SAI_16KHZ,
  60:../../../../DaisyExamples/libDaisy//src/per/sai.h ****             SAI_32KHZ,
  61:../../../../DaisyExamples/libDaisy//src/per/sai.h ****             SAI_48KHZ,
  62:../../../../DaisyExamples/libDaisy//src/per/sai.h ****             SAI_96KHZ,
  63:../../../../DaisyExamples/libDaisy//src/per/sai.h ****         };
  64:../../../../DaisyExamples/libDaisy//src/per/sai.h **** 
  65:../../../../DaisyExamples/libDaisy//src/per/sai.h ****         /** Bit Depth that the hardware expects to be transferred to/from the device. */
  66:../../../../DaisyExamples/libDaisy//src/per/sai.h ****         enum class BitDepth
  67:../../../../DaisyExamples/libDaisy//src/per/sai.h ****         {
  68:../../../../DaisyExamples/libDaisy//src/per/sai.h ****             SAI_16BIT,
  69:../../../../DaisyExamples/libDaisy//src/per/sai.h ****             SAI_24BIT,
  70:../../../../DaisyExamples/libDaisy//src/per/sai.h ****             SAI_32BIT,
  71:../../../../DaisyExamples/libDaisy//src/per/sai.h ****         };
  72:../../../../DaisyExamples/libDaisy//src/per/sai.h **** 
  73:../../../../DaisyExamples/libDaisy//src/per/sai.h ****         /** Specifies whether a particular block is the master or the slave 
  74:../../../../DaisyExamples/libDaisy//src/per/sai.h ****          ** If both are set to slave, no MCLK signal will be used, and it is
  75:../../../../DaisyExamples/libDaisy//src/per/sai.h ****          ** expected that the codec will have its own xtal.
  76:../../../../DaisyExamples/libDaisy//src/per/sai.h ****          */
  77:../../../../DaisyExamples/libDaisy//src/per/sai.h ****         enum class Sync
  78:../../../../DaisyExamples/libDaisy//src/per/sai.h ****         {
  79:../../../../DaisyExamples/libDaisy//src/per/sai.h ****             MASTER,
  80:../../../../DaisyExamples/libDaisy//src/per/sai.h ****             SLAVE,
  81:../../../../DaisyExamples/libDaisy//src/per/sai.h ****         };
  82:../../../../DaisyExamples/libDaisy//src/per/sai.h **** 
  83:../../../../DaisyExamples/libDaisy//src/per/sai.h ****         /** Specifies the direction for each peripheral block. */
  84:../../../../DaisyExamples/libDaisy//src/per/sai.h ****         enum class Direction
  85:../../../../DaisyExamples/libDaisy//src/per/sai.h ****         {
  86:../../../../DaisyExamples/libDaisy//src/per/sai.h ****             TRANSMIT,
  87:../../../../DaisyExamples/libDaisy//src/per/sai.h ****             RECEIVE,
  88:../../../../DaisyExamples/libDaisy//src/per/sai.h ****         };
  89:../../../../DaisyExamples/libDaisy//src/per/sai.h **** 
  90:../../../../DaisyExamples/libDaisy//src/per/sai.h ****         Peripheral periph;
  91:../../../../DaisyExamples/libDaisy//src/per/sai.h ****         struct
  92:../../../../DaisyExamples/libDaisy//src/per/sai.h ****         {
  93:../../../../DaisyExamples/libDaisy//src/per/sai.h ****             dsy_gpio_pin mclk, fs, sck, sa, sb;
  94:../../../../DaisyExamples/libDaisy//src/per/sai.h ****         } pin_config;
  95:../../../../DaisyExamples/libDaisy//src/per/sai.h ****         SampleRate sr;
  96:../../../../DaisyExamples/libDaisy//src/per/sai.h ****         BitDepth   bit_depth;
  97:../../../../DaisyExamples/libDaisy//src/per/sai.h ****         Sync       a_sync, b_sync;
  98:../../../../DaisyExamples/libDaisy//src/per/sai.h ****         Direction  a_dir, b_dir;
  99:../../../../DaisyExamples/libDaisy//src/per/sai.h ****     };
 100:../../../../DaisyExamples/libDaisy//src/per/sai.h **** 
 101:../../../../DaisyExamples/libDaisy//src/per/sai.h ****     /** Return values for SAI functions */
 102:../../../../DaisyExamples/libDaisy//src/per/sai.h ****     enum class Result
 103:../../../../DaisyExamples/libDaisy//src/per/sai.h ****     {
 104:../../../../DaisyExamples/libDaisy//src/per/sai.h ****         OK,
 105:../../../../DaisyExamples/libDaisy//src/per/sai.h ****         ERR,
 106:../../../../DaisyExamples/libDaisy//src/per/sai.h ****     };
 107:../../../../DaisyExamples/libDaisy//src/per/sai.h **** 
 108:../../../../DaisyExamples/libDaisy//src/per/sai.h ****     SaiHandle() : pimpl_(nullptr) {}
 1858              		.loc 17 108 5 is_stmt 1 view .LVU391
 1859              	.LBE923:
 1860              	.LBE924:
 1861              	.LBE932:
  19:daisy_common.h ****     ~daisyCommon() {}
 1862              		.loc 1 19 19 is_stmt 0 view .LVU392
 1863 0088 C0E95933 		strd	r3, r3, [r0, #356]
ARM GAS  C:\Users\samue\AppData\Local\Temp\ccfB2Gwd.s 			page 65


 1864 008c C0E95B33 		strd	r3, r3, [r0, #364]
 1865 0090 C0E95D33 		strd	r3, r3, [r0, #372]
 1866 0094 C0E95F33 		strd	r3, r3, [r0, #380]
 1867 0098 C0E96133 		strd	r3, r3, [r0, #388]
 1868 009c C0E96934 		strd	r3, r4, [r0, #420]
 1869 00a0 C0E96B42 		strd	r4, r2, [r0, #428]
 1870 00a4 C0E97323 		strd	r2, r3, [r0, #460]
 1871 00a8 C0E96333 		strd	r3, r3, [r0, #396]
 1872 00ac C0E96533 		strd	r3, r3, [r0, #404]
 1873 00b0 C0E96733 		strd	r3, r3, [r0, #412]
 1874 00b4 C0E96D22 		strd	r2, r2, [r0, #436]
 1875 00b8 C0E96F22 		strd	r2, r2, [r0, #444]
 1876 00bc C0E97122 		strd	r2, r2, [r0, #452]
 1877 00c0 C0E97533 		strd	r3, r3, [r0, #468]
 1878              	.LBE935:
 1879              	.LBE938:
 1880              	.LBE941:
   8:Fractal_eval.cpp **** 
 1881              		.loc 9 8 13 view .LVU393
 1882 00c4 0C4A     		ldr	r2, .L27+4
 1883              	.LBB942:
 1884              	.LBB939:
 1885              	.LBB936:
  19:daisy_common.h ****     ~daisyCommon() {}
 1886              		.loc 1 19 19 view .LVU394
 1887 00c6 C0F8EC31 		str	r3, [r0, #492]
 1888 00ca C0F8F011 		str	r1, [r0, #496]
 1889              	.LVL57:
  19:daisy_common.h ****     ~daisyCommon() {}
 1890              		.loc 1 19 19 view .LVU395
 1891              	.LBE936:
 1892              	.LBE939:
 1893              	.LBE942:
   8:Fractal_eval.cpp **** 
 1894              		.loc 9 8 13 view .LVU396
 1895 00ce 0B49     		ldr	r1, .L27+8
 1896              	.LBB943:
 1897              	.LBB940:
 1898              	.LBB937:
  19:daisy_common.h ****     ~daisyCommon() {}
 1899              		.loc 1 19 19 view .LVU397
 1900 00d0 C0E97733 		strd	r3, r3, [r0, #476]
 1901 00d4 C0E97933 		strd	r3, r3, [r0, #484]
 1902              	.LBE937:
 1903              	.LBE940:
 1904              	.LBE943:
   8:Fractal_eval.cpp **** 
 1905              		.loc 9 8 13 view .LVU398
 1906 00d8 FFF7FEFF 		bl	__aeabi_atexit
 1907              	.LVL58:
 1908              	.LBB944:
 1909              	.LBI944:
  35:../../../../DaisyExamples/DaisySP//Source/Noise/fractal_noise.h ****     ~FractalRandomGenerator() {}
 1910              		.loc 10 35 5 is_stmt 1 view .LVU399
 1911              	.LBE944:
 1912              	.LBE945:
 1913              	.LBE948:
ARM GAS  C:\Users\samue\AppData\Local\Temp\ccfB2Gwd.s 			page 66


  35:../../../../DaisyExamples/DaisySP//Source/Noise/fractal_noise.h ****     ~FractalRandomGenerator() {}
 1914              		.loc 10 35 30 view .LVU400
 1915              	.LBB949:
 1916              	.LBB946:
  10:Fractal_eval.cpp **** Oscillator                              lfo[2];
 1917              		.loc 9 10 41 is_stmt 0 view .LVU401
 1918 00dc 064A     		ldr	r2, .L27+4
 1919 00de 0849     		ldr	r1, .L27+12
 1920 00e0 0848     		ldr	r0, .L27+16
 1921 00e2 FFF7FEFF 		bl	__aeabi_atexit
 1922              	.LVL59:
  11:Fractal_eval.cpp **** float sample_rate = 96000;
 1923              		.loc 9 11 46 is_stmt 1 view .LVU402
  11:Fractal_eval.cpp **** float sample_rate = 96000;
 1924              		.loc 9 11 41 is_stmt 0 view .LVU403
 1925 00e6 2046     		mov	r0, r4
 1926 00e8 034A     		ldr	r2, .L27+4
 1927 00ea 0749     		ldr	r1, .L27+20
 1928              	.LBE946:
 1929              	.LBE949:
 1930              		.loc 9 58 1 view .LVU404
 1931 00ec BDE81040 		pop	{r4, lr}
 1932              		.cfi_restore 14
 1933              		.cfi_restore 4
 1934              		.cfi_def_cfa_offset 0
 1935              	.LBB950:
 1936              	.LBB947:
  11:Fractal_eval.cpp **** float sample_rate = 96000;
 1937              		.loc 9 11 41 view .LVU405
 1938 00f0 FFF7FEBF 		b	__aeabi_atexit
 1939              	.LVL60:
 1940              	.L28:
 1941              		.align	2
 1942              	.L27:
 1943 00f4 00000000 		.word	.LANCHOR0
 1944 00f8 00000000 		.word	__dso_handle
 1945 00fc 00000000 		.word	_ZN5daisy11daisyCommonD1Ev
 1946 0100 00000000 		.word	_ZN7daisysp22FractalRandomGeneratorINS_12ClockedNoiseELi5EED1Ev
 1947 0104 00000000 		.word	.LANCHOR2
 1948 0108 00000000 		.word	__tcf_0
 1949              	.LBE947:
 1950              	.LBE950:
 1951              		.cfi_endproc
 1952              	.LFE5262:
 1954              		.section	.init_array,"aw",%init_array
 1955              		.align	2
 1956 0000 00000000 		.word	_GLOBAL__sub_I_board(target1)
 1957              		.global	sample_rate
 1958              		.global	lfo
 1959              		.global	fract
 1960              		.global	board
 1961              		.section	.bss.board,"aw",%nobits
 1962              		.align	2
 1963              		.set	.LANCHOR0,. + 0
 1966              	board:
 1967 0000 00000000 		.space	500
 1967      00000000 
ARM GAS  C:\Users\samue\AppData\Local\Temp\ccfB2Gwd.s 			page 67


 1967      00000000 
 1967      00000000 
 1967      00000000 
 1968              		.section	.bss.fract,"aw",%nobits
 1969              		.align	2
 1970              		.set	.LANCHOR2,. + 0
 1973              	fract:
 1974 0000 00000000 		.space	112
 1974      00000000 
 1974      00000000 
 1974      00000000 
 1974      00000000 
 1975              		.section	.bss.lfo,"aw",%nobits
 1976              		.align	2
 1977              		.set	.LANCHOR3,. + 0
 1980              	lfo:
 1981 0000 00000000 		.space	88
 1981      00000000 
 1981      00000000 
 1981      00000000 
 1981      00000000 
 1982              		.section	.data.sample_rate,"aw"
 1983              		.align	2
 1984              		.set	.LANCHOR1,. + 0
 1987              	sample_rate:
 1988 0000 0080BB47 		.word	1203470336
 1989              		.text
 1990              	.Letext0:
 1991              		.file 18 "c:\\program files\\daisytoolchain\\arm-none-eabi\\include\\machine\\_default_types.h"
 1992              		.file 19 "c:\\program files\\daisytoolchain\\arm-none-eabi\\include\\sys\\_stdint.h"
 1993              		.file 20 "c:\\program files\\daisytoolchain\\arm-none-eabi\\include\\stdint.h"
 1994              		.file 21 "c:\\program files\\daisytoolchain\\lib\\gcc\\arm-none-eabi\\10.2.1\\include\\stddef.h"
 1995              		.file 22 "c:\\program files\\daisytoolchain\\arm-none-eabi\\include\\c++\\10.2.1\\cmath"
 1996              		.file 23 "c:\\program files\\daisytoolchain\\arm-none-eabi\\include\\c++\\10.2.1\\bits\\std_abs.h"
 1997              		.file 24 "c:\\program files\\daisytoolchain\\arm-none-eabi\\include\\c++\\10.2.1\\cstdlib"
 1998              		.file 25 "c:\\program files\\daisytoolchain\\arm-none-eabi\\include\\c++\\10.2.1\\cstdint"
 1999              		.file 26 "c:\\program files\\daisytoolchain\\arm-none-eabi\\include\\c++\\10.2.1\\type_traits"
 2000              		.file 27 "c:\\program files\\daisytoolchain\\arm-none-eabi\\include\\c++\\10.2.1\\debug\\debug.h"
 2001              		.file 28 "c:\\program files\\daisytoolchain\\arm-none-eabi\\include\\c++\\10.2.1\\arm-none-eabi\\t
 2002              		.file 29 "c:\\program files\\daisytoolchain\\arm-none-eabi\\include\\c++\\10.2.1\\bits\\algorithmf
 2003              		.file 30 "c:\\program files\\daisytoolchain\\arm-none-eabi\\include\\c++\\10.2.1\\bits\\stl_pair.h
 2004              		.file 31 "c:\\program files\\daisytoolchain\\arm-none-eabi\\include\\c++\\10.2.1\\bits\\exception_
 2005              		.file 32 "c:\\program files\\daisytoolchain\\arm-none-eabi\\include\\c++\\10.2.1\\cstdarg"
 2006              		.file 33 "c:\\program files\\daisytoolchain\\arm-none-eabi\\include\\c++\\10.2.1\\cstdio"
 2007              		.file 34 "c:\\program files\\daisytoolchain\\arm-none-eabi\\include\\c++\\10.2.1\\cstring"
 2008              		.file 35 "c:\\program files\\daisytoolchain\\arm-none-eabi\\include\\c++\\10.2.1\\cwchar"
 2009              		.file 36 "c:\\program files\\daisytoolchain\\arm-none-eabi\\include\\c++\\10.2.1\\clocale"
 2010              		.file 37 "c:\\program files\\daisytoolchain\\arm-none-eabi\\include\\c++\\10.2.1\\bits\\basic_stri
 2011              		.file 38 "c:\\program files\\daisytoolchain\\arm-none-eabi\\include\\c++\\10.2.1\\bits\\stl_tempbu
 2012              		.file 39 "c:\\program files\\daisytoolchain\\arm-none-eabi\\include\\c++\\10.2.1\\bits\\predefined
 2013              		.file 40 "c:\\program files\\daisytoolchain\\arm-none-eabi\\include\\sys\\_types.h"
 2014              		.file 41 "c:\\program files\\daisytoolchain\\arm-none-eabi\\include\\sys\\reent.h"
 2015              		.file 42 "c:\\program files\\daisytoolchain\\arm-none-eabi\\include\\sys\\lock.h"
 2016              		.file 43 "c:\\program files\\daisytoolchain\\arm-none-eabi\\include\\math.h"
 2017              		.file 44 "c:\\program files\\daisytoolchain\\arm-none-eabi\\include\\stdlib.h"
 2018              		.file 45 "c:\\program files\\daisytoolchain\\arm-none-eabi\\include\\c++\\10.2.1\\math.h"
 2019              		.file 46 "c:\\program files\\daisytoolchain\\arm-none-eabi\\include\\c++\\10.2.1\\stdlib.h"
ARM GAS  C:\Users\samue\AppData\Local\Temp\ccfB2Gwd.s 			page 68


 2020              		.file 47 "../../../../DaisyExamples/libDaisy//src/per/tim.h"
 2021              		.file 48 "../../../../DaisyExamples/libDaisy//src/util/wav_format.h"
 2022              		.file 49 "../../../../DaisyExamples/libDaisy//src/dev/max11300.h"
 2023              		.file 50 "../../../../DaisyExamples/libDaisy//src/dev/sdram.h"
 2024              		.file 51 "c:\\program files\\daisytoolchain\\lib\\gcc\\arm-none-eabi\\10.2.1\\include\\stdarg.h"
 2025              		.file 52 "c:\\program files\\daisytoolchain\\arm-none-eabi\\include\\stdio.h"
 2026              		.file 53 "c:\\program files\\daisytoolchain\\arm-none-eabi\\include\\string.h"
 2027              		.file 54 "../../../../DaisyExamples/DaisySP//Source/Control/adenv.h"
 2028              		.file 55 "../../../../DaisyExamples/DaisySP//Source/Noise/clockednoise.h"
 2029              		.file 56 "c:\\program files\\daisytoolchain\\arm-none-eabi\\include\\wchar.h"
 2030              		.file 57 "c:\\program files\\daisytoolchain\\arm-none-eabi\\include\\locale.h"
 2031              		.file 58 "<built-in>"
 2032              		.file 59 "../../../../DaisyExamples/libDaisy//src/dev/sr_595.h"
ARM GAS  C:\Users\samue\AppData\Local\Temp\ccfB2Gwd.s 			page 69

