ARM GAS  C:\Users\samue\AppData\Local\Temp\cci865ja.s 			page 1


   1              		.cpu cortex-m7
   2              		.eabi_attribute 28, 1
   3              		.eabi_attribute 20, 1
   4              		.eabi_attribute 21, 1
   5              		.eabi_attribute 23, 3
   6              		.eabi_attribute 24, 1
   7              		.eabi_attribute 25, 1
   8              		.eabi_attribute 26, 1
   9              		.eabi_attribute 30, 2
  10              		.eabi_attribute 34, 1
  11              		.eabi_attribute 18, 4
  12              		.file	"daisy_common.cpp"
  13              		.text
  14              	.Ltext0:
  15              		.cfi_sections	.debug_frame
  16              		.section	.rodata._ZN5daisy11daisyCommon10print_knobEv.str1.4,"aMS",%progbits,1
  17              		.align	2
  18              	.LC8:
  19 0000 6B6E6F62 		.ascii	"knob_1_user: %d\000"
  19      5F315F75 
  19      7365723A 
  19      20256400 
  20              		.align	2
  21              	.LC9:
  22 0010 6B6E6F62 		.ascii	"knob_2_user: %d\000"
  22      5F325F75 
  22      7365723A 
  22      20256400 
  23              		.align	2
  24              	.LC10:
  25 0020 6B6E6F62 		.ascii	"knob_3_user: %d\000"
  25      5F335F75 
  25      7365723A 
  25      20256400 
  26              		.align	2
  27              	.LC11:
  28 0030 6B6E6F62 		.ascii	"knob_4_user: %d\000"
  28      5F345F75 
  28      7365723A 
  28      20256400 
  29              		.align	2
  30              	.LC12:
  31 0040 6B6E6F62 		.ascii	"knob_5_user: %d\000"
  31      5F355F75 
  31      7365723A 
  31      20256400 
  32              		.align	2
  33              	.LC13:
  34 0050 6B6E6F62 		.ascii	"knob_6_user: %d\000"
  34      5F365F75 
  34      7365723A 
  34      20256400 
  35              		.align	2
  36              	.LC14:
  37 0060 6B6E6F62 		.ascii	"knob_7_user: %d\000"
  37      5F375F75 
  37      7365723A 
ARM GAS  C:\Users\samue\AppData\Local\Temp\cci865ja.s 			page 2


  37      20256400 
  38              		.align	2
  39              	.LC15:
  40 0070 6B6E6F62 		.ascii	"knob_8_user: %d\000"
  40      5F385F75 
  40      7365723A 
  40      20256400 
  41              		.section	.text._ZN5daisy11daisyCommon10print_knobEv,"ax",%progbits
  42              		.align	1
  43              		.p2align 2,,3
  44              		.global	_ZN5daisy11daisyCommon10print_knobEv
  45              		.arch armv7e-m
  46              		.syntax unified
  47              		.thumb
  48              		.thumb_func
  49              		.fpu fpv5-d16
  51              	_ZN5daisy11daisyCommon10print_knobEv:
  52              	.LVL0:
  53              	.LFB3058:
  54              		.file 1 "daisy_common.cpp"
   1:daisy_common.cpp **** #include "daisy_common.h"
   2:daisy_common.cpp **** 
   3:daisy_common.cpp **** 
   4:daisy_common.cpp **** using namespace daisy;
   5:daisy_common.cpp **** using namespace daisy::seed;
   6:daisy_common.cpp **** using namespace std;
   7:daisy_common.cpp **** 
   8:daisy_common.cpp **** constexpr Pin TOGGLE_LEFT_PIN_1 = seed::D9;
   9:daisy_common.cpp **** constexpr Pin TOGGLE_LEFT_PIN_2 = seed::D8;
  10:daisy_common.cpp **** constexpr Pin TOGGLE_RIGHT_PIN_1 = seed::D14;
  11:daisy_common.cpp **** constexpr Pin TOGGLE_RIGHT_PIN_2 = seed::D13;
  12:daisy_common.cpp **** constexpr Pin MUX_X_ADC_PIN = seed::A11;
  13:daisy_common.cpp **** constexpr Pin MUX_Y_ADC_PIN = seed::A10;
  14:daisy_common.cpp **** constexpr Pin IN_1_ADC_PIN = seed::A0;
  15:daisy_common.cpp **** constexpr Pin IN_2_ADC_PIN = seed::A4;
  16:daisy_common.cpp **** constexpr Pin IN_3_ADC_PIN = seed::A9;
  17:daisy_common.cpp **** constexpr Pin IN_4_ADC_PIN = seed::A6;
  18:daisy_common.cpp **** constexpr Pin IN_5_ADC_PIN = seed::A1;
  19:daisy_common.cpp **** constexpr Pin IN_6_ADC_PIN = seed::A5;
  20:daisy_common.cpp **** constexpr Pin IN_7_ADC_PIN = seed::A2;
  21:daisy_common.cpp **** constexpr Pin IN_8_ADC_PIN = seed::A8;
  22:daisy_common.cpp **** constexpr Pin GATE_1_IN_4_PIN = seed::D21;
  23:daisy_common.cpp **** constexpr Pin GATE_2_IN_8_PIN = seed::D23;
  24:daisy_common.cpp **** constexpr Pin IN_1_GPIO_PIN = seed::D15;
  25:daisy_common.cpp **** constexpr Pin IN_2_GPIO_PIN = seed::D19;
  26:daisy_common.cpp **** constexpr Pin IN_3_GPIO_PIN = seed::D24;
  27:daisy_common.cpp **** constexpr Pin IN_5_GPIO_PIN = seed::D16;
  28:daisy_common.cpp **** constexpr Pin IN_6_GPIO_PIN = seed::D20;
  29:daisy_common.cpp **** constexpr Pin IN_7_GPIO_PIN = seed::D17;
  30:daisy_common.cpp **** 
  31:daisy_common.cpp **** void daisyCommon::print_knob()
  32:daisy_common.cpp **** {
  55              		.loc 1 32 1 view -0
  56              		.cfi_startproc
  57              		@ args = 0, pretend = 0, frame = 0
  58              		@ frame_needed = 0, uses_anonymous_args = 0
  33:daisy_common.cpp ****     seed.PrintLine("knob_1_user: %d", knob_1_user_name);
ARM GAS  C:\Users\samue\AppData\Local\Temp\cci865ja.s 			page 3


  59              		.loc 1 33 5 view .LVU1
  32:daisy_common.cpp ****     seed.PrintLine("knob_1_user: %d", knob_1_user_name);
  60              		.loc 1 32 1 is_stmt 0 view .LVU2
  61 0000 10B5     		push	{r4, lr}
  62              		.cfi_def_cfa_offset 8
  63              		.cfi_offset 4, -8
  64              		.cfi_offset 14, -4
  32:daisy_common.cpp ****     seed.PrintLine("knob_1_user: %d", knob_1_user_name);
  65              		.loc 1 32 1 view .LVU3
  66 0002 0446     		mov	r4, r0
  67              	.LBB296:
  68              	.LBB297:
  69              		.file 2 "../../DaisyExamples/libDaisy//src/daisy_seed.h"
   1:../../DaisyExamples/libDaisy//src/daisy_seed.h **** #pragma once
   2:../../DaisyExamples/libDaisy//src/daisy_seed.h **** #ifndef DSY_SEED_H
   3:../../DaisyExamples/libDaisy//src/daisy_seed.h **** #define DSY_SEED_H
   4:../../DaisyExamples/libDaisy//src/daisy_seed.h **** 
   5:../../DaisyExamples/libDaisy//src/daisy_seed.h **** #include "daisy.h"
   6:../../DaisyExamples/libDaisy//src/daisy_seed.h **** 
   7:../../DaisyExamples/libDaisy//src/daisy_seed.h **** //Uncomment this out if you're still using the rev2 hardware
   8:../../DaisyExamples/libDaisy//src/daisy_seed.h **** //#define SEED_REV2
   9:../../DaisyExamples/libDaisy//src/daisy_seed.h **** 
  10:../../DaisyExamples/libDaisy//src/daisy_seed.h **** namespace daisy
  11:../../DaisyExamples/libDaisy//src/daisy_seed.h **** {
  12:../../DaisyExamples/libDaisy//src/daisy_seed.h **** /**
  13:../../DaisyExamples/libDaisy//src/daisy_seed.h ****    @brief This is the higher-level interface for the Daisy board. \n 
  14:../../DaisyExamples/libDaisy//src/daisy_seed.h ****     All basic peripheral configuration/initialization is setup here. \n
  15:../../DaisyExamples/libDaisy//src/daisy_seed.h **** 
  16:../../DaisyExamples/libDaisy//src/daisy_seed.h ****    @ingroup boards
  17:../../DaisyExamples/libDaisy//src/daisy_seed.h **** */
  18:../../DaisyExamples/libDaisy//src/daisy_seed.h **** class DaisySeed
  19:../../DaisyExamples/libDaisy//src/daisy_seed.h **** {
  20:../../DaisyExamples/libDaisy//src/daisy_seed.h ****   public:
  21:../../DaisyExamples/libDaisy//src/daisy_seed.h ****     DaisySeed() {}
  22:../../DaisyExamples/libDaisy//src/daisy_seed.h ****     ~DaisySeed() {}
  23:../../DaisyExamples/libDaisy//src/daisy_seed.h **** 
  24:../../DaisyExamples/libDaisy//src/daisy_seed.h ****     /** This function used to provide a pre-initialization configuraiton 
  25:../../DaisyExamples/libDaisy//src/daisy_seed.h ****      *  it has since been deprecated, and does nothing.
  26:../../DaisyExamples/libDaisy//src/daisy_seed.h ****      */
  27:../../DaisyExamples/libDaisy//src/daisy_seed.h ****     void Configure();
  28:../../DaisyExamples/libDaisy//src/daisy_seed.h **** 
  29:../../DaisyExamples/libDaisy//src/daisy_seed.h ****     /** 
  30:../../DaisyExamples/libDaisy//src/daisy_seed.h ****     Initializes the Daisy Seed and the following peripherals:
  31:../../DaisyExamples/libDaisy//src/daisy_seed.h ****     SDRAM, QSPI, 24-bit 48kHz Audio via AK4556, Internal USB,
  32:../../DaisyExamples/libDaisy//src/daisy_seed.h ****     as well as the built-in LED and Testpoint.
  33:../../DaisyExamples/libDaisy//src/daisy_seed.h **** 
  34:../../DaisyExamples/libDaisy//src/daisy_seed.h ****     ADCs, DACs, and other special peripherals (such as I2C, SPI, etc.)
  35:../../DaisyExamples/libDaisy//src/daisy_seed.h ****     can be initialized using their specific initializers within libdaisy
  36:../../DaisyExamples/libDaisy//src/daisy_seed.h ****     for a specific application.
  37:../../DaisyExamples/libDaisy//src/daisy_seed.h ****     */
  38:../../DaisyExamples/libDaisy//src/daisy_seed.h ****     void Init(bool boost = false);
  39:../../DaisyExamples/libDaisy//src/daisy_seed.h **** 
  40:../../DaisyExamples/libDaisy//src/daisy_seed.h ****     /** 
  41:../../DaisyExamples/libDaisy//src/daisy_seed.h ****     Deinitializes all peripherals automatically handled by `Init`.
  42:../../DaisyExamples/libDaisy//src/daisy_seed.h ****     */
  43:../../DaisyExamples/libDaisy//src/daisy_seed.h ****     void DeInit();
  44:../../DaisyExamples/libDaisy//src/daisy_seed.h **** 
ARM GAS  C:\Users\samue\AppData\Local\Temp\cci865ja.s 			page 4


  45:../../DaisyExamples/libDaisy//src/daisy_seed.h ****     /** 
  46:../../DaisyExamples/libDaisy//src/daisy_seed.h ****     Wait some ms before going on.
  47:../../DaisyExamples/libDaisy//src/daisy_seed.h ****     \param del Delay time in ms.
  48:../../DaisyExamples/libDaisy//src/daisy_seed.h ****     */
  49:../../DaisyExamples/libDaisy//src/daisy_seed.h ****     void DelayMs(size_t del);
  50:../../DaisyExamples/libDaisy//src/daisy_seed.h **** 
  51:../../DaisyExamples/libDaisy//src/daisy_seed.h ****     /** 
  52:../../DaisyExamples/libDaisy//src/daisy_seed.h ****     Returns the gpio_pin corresponding to the index 0-31.
  53:../../DaisyExamples/libDaisy//src/daisy_seed.h ****     For the given GPIO on the Daisy Seed (labeled 1-32 in docs).
  54:../../DaisyExamples/libDaisy//src/daisy_seed.h ****     */
  55:../../DaisyExamples/libDaisy//src/daisy_seed.h ****     static dsy_gpio_pin GetPin(uint8_t pin_idx);
  56:../../DaisyExamples/libDaisy//src/daisy_seed.h **** 
  57:../../DaisyExamples/libDaisy//src/daisy_seed.h ****     /** Begins the audio for the seeds builtin audio.
  58:../../DaisyExamples/libDaisy//src/daisy_seed.h ****     the specified callback will get called whenever
  59:../../DaisyExamples/libDaisy//src/daisy_seed.h ****     new data is ready to be prepared.
  60:../../DaisyExamples/libDaisy//src/daisy_seed.h ****     */
  61:../../DaisyExamples/libDaisy//src/daisy_seed.h ****     void StartAudio(AudioHandle::InterleavingAudioCallback cb);
  62:../../DaisyExamples/libDaisy//src/daisy_seed.h **** 
  63:../../DaisyExamples/libDaisy//src/daisy_seed.h ****     /** Begins the audio for the seeds builtin audio.
  64:../../DaisyExamples/libDaisy//src/daisy_seed.h ****     the specified callback will get called whenever
  65:../../DaisyExamples/libDaisy//src/daisy_seed.h ****     new data is ready to be prepared.
  66:../../DaisyExamples/libDaisy//src/daisy_seed.h ****     This will use the newer non-interleaved callback.
  67:../../DaisyExamples/libDaisy//src/daisy_seed.h ****     */
  68:../../DaisyExamples/libDaisy//src/daisy_seed.h ****     void StartAudio(AudioHandle::AudioCallback cb);
  69:../../DaisyExamples/libDaisy//src/daisy_seed.h **** 
  70:../../DaisyExamples/libDaisy//src/daisy_seed.h ****     /** Changes to a new interleaved callback
  71:../../DaisyExamples/libDaisy//src/daisy_seed.h ****      */
  72:../../DaisyExamples/libDaisy//src/daisy_seed.h ****     void ChangeAudioCallback(AudioHandle::InterleavingAudioCallback cb);
  73:../../DaisyExamples/libDaisy//src/daisy_seed.h **** 
  74:../../DaisyExamples/libDaisy//src/daisy_seed.h ****     /** Changes to a new multichannel callback
  75:../../DaisyExamples/libDaisy//src/daisy_seed.h ****      */
  76:../../DaisyExamples/libDaisy//src/daisy_seed.h ****     void ChangeAudioCallback(AudioHandle::AudioCallback cb);
  77:../../DaisyExamples/libDaisy//src/daisy_seed.h **** 
  78:../../DaisyExamples/libDaisy//src/daisy_seed.h ****     /** Stops the audio if it is running. */
  79:../../DaisyExamples/libDaisy//src/daisy_seed.h ****     void StopAudio();
  80:../../DaisyExamples/libDaisy//src/daisy_seed.h **** 
  81:../../DaisyExamples/libDaisy//src/daisy_seed.h ****     /** Updates the Audio Sample Rate, and reinitializes.
  82:../../DaisyExamples/libDaisy//src/daisy_seed.h ****      ** Audio must be stopped for this to work.
  83:../../DaisyExamples/libDaisy//src/daisy_seed.h ****      */
  84:../../DaisyExamples/libDaisy//src/daisy_seed.h ****     void SetAudioSampleRate(SaiHandle::Config::SampleRate samplerate);
  85:../../DaisyExamples/libDaisy//src/daisy_seed.h **** 
  86:../../DaisyExamples/libDaisy//src/daisy_seed.h ****     /** Returns the audio sample rate in Hz as a floating point number.
  87:../../DaisyExamples/libDaisy//src/daisy_seed.h ****      */
  88:../../DaisyExamples/libDaisy//src/daisy_seed.h ****     float AudioSampleRate();
  89:../../DaisyExamples/libDaisy//src/daisy_seed.h **** 
  90:../../DaisyExamples/libDaisy//src/daisy_seed.h ****     /** Sets the number of samples processed per channel by the audio callback.
  91:../../DaisyExamples/libDaisy//src/daisy_seed.h ****      */
  92:../../DaisyExamples/libDaisy//src/daisy_seed.h ****     void SetAudioBlockSize(size_t blocksize);
  93:../../DaisyExamples/libDaisy//src/daisy_seed.h **** 
  94:../../DaisyExamples/libDaisy//src/daisy_seed.h ****     /** Returns the number of samples per channel in a block of audio. */
  95:../../DaisyExamples/libDaisy//src/daisy_seed.h ****     size_t AudioBlockSize();
  96:../../DaisyExamples/libDaisy//src/daisy_seed.h **** 
  97:../../DaisyExamples/libDaisy//src/daisy_seed.h ****     /** Returns the rate in Hz that the Audio callback is called */
  98:../../DaisyExamples/libDaisy//src/daisy_seed.h ****     float AudioCallbackRate() const;
  99:../../DaisyExamples/libDaisy//src/daisy_seed.h **** 
 100:../../DaisyExamples/libDaisy//src/daisy_seed.h ****     /** Returns the SAI Handle for the Daisy Seed 
 101:../../DaisyExamples/libDaisy//src/daisy_seed.h ****      *  This can be useful when adding a secondary codec,
ARM GAS  C:\Users\samue\AppData\Local\Temp\cci865ja.s 			page 5


 102:../../DaisyExamples/libDaisy//src/daisy_seed.h ****      *  the result of this function can be passed to the audio reinit 
 103:../../DaisyExamples/libDaisy//src/daisy_seed.h ****      *  with an SAI2 configuration
 104:../../DaisyExamples/libDaisy//src/daisy_seed.h ****      */
 105:../../DaisyExamples/libDaisy//src/daisy_seed.h ****     const SaiHandle& AudioSaiHandle() const;
 106:../../DaisyExamples/libDaisy//src/daisy_seed.h **** 
 107:../../DaisyExamples/libDaisy//src/daisy_seed.h ****     /** Sets the state of the built in LED
 108:../../DaisyExamples/libDaisy//src/daisy_seed.h ****      */
 109:../../DaisyExamples/libDaisy//src/daisy_seed.h ****     void SetLed(bool state);
 110:../../DaisyExamples/libDaisy//src/daisy_seed.h **** 
 111:../../DaisyExamples/libDaisy//src/daisy_seed.h ****     /** Sets the state of the test point near pin 10
 112:../../DaisyExamples/libDaisy//src/daisy_seed.h ****      */
 113:../../DaisyExamples/libDaisy//src/daisy_seed.h ****     void SetTestPoint(bool state);
 114:../../DaisyExamples/libDaisy//src/daisy_seed.h **** 
 115:../../DaisyExamples/libDaisy//src/daisy_seed.h ****     /** Print formatted debug log message
 116:../../DaisyExamples/libDaisy//src/daisy_seed.h ****      */
 117:../../DaisyExamples/libDaisy//src/daisy_seed.h ****     template <typename... VA>
 118:../../DaisyExamples/libDaisy//src/daisy_seed.h ****     static void Print(const char* format, VA... va)
 119:../../DaisyExamples/libDaisy//src/daisy_seed.h ****     {
 120:../../DaisyExamples/libDaisy//src/daisy_seed.h ****         Log::Print(format, va...);
 121:../../DaisyExamples/libDaisy//src/daisy_seed.h ****     }
 122:../../DaisyExamples/libDaisy//src/daisy_seed.h **** 
 123:../../DaisyExamples/libDaisy//src/daisy_seed.h ****     /** Print formatted debug log message with automatic line termination
 124:../../DaisyExamples/libDaisy//src/daisy_seed.h ****     */
 125:../../DaisyExamples/libDaisy//src/daisy_seed.h ****     template <typename... VA>
 126:../../DaisyExamples/libDaisy//src/daisy_seed.h ****     static void PrintLine(const char* format, VA... va)
 127:../../DaisyExamples/libDaisy//src/daisy_seed.h ****     {
 128:../../DaisyExamples/libDaisy//src/daisy_seed.h ****         Log::PrintLine(format, va...);
  70              		.loc 2 128 23 view .LVU4
  71 0004 1448     		ldr	r0, .L4
  72              	.LVL1:
  73              		.loc 2 128 23 view .LVU5
  74              	.LBE297:
  75              	.LBI296:
 126:../../DaisyExamples/libDaisy//src/daisy_seed.h ****     {
  76              		.loc 2 126 17 is_stmt 1 view .LVU6
  77              	.LBB298:
  78              		.loc 2 128 23 is_stmt 0 view .LVU7
  79 0006 D4F8E811 		ldr	r1, [r4, #488]
  80 000a FFF7FEFF 		bl	_ZN5daisy6LoggerILNS_17LoggerDestinationE1EE9PrintLineEPKcz
  81              	.LVL2:
  82              		.loc 2 128 23 view .LVU8
  83              	.LBE298:
  84              	.LBE296:
  34:daisy_common.cpp ****     seed.PrintLine("knob_2_user: %d", knob_2_user_name);
  85              		.loc 1 34 5 is_stmt 1 view .LVU9
  86              	.LBB299:
  87              	.LBI299:
 126:../../DaisyExamples/libDaisy//src/daisy_seed.h ****     {
  88              		.loc 2 126 17 view .LVU10
  89              	.LBB300:
  90              		.loc 2 128 23 is_stmt 0 view .LVU11
  91 000e D4F8EC11 		ldr	r1, [r4, #492]
  92 0012 1248     		ldr	r0, .L4+4
  93 0014 FFF7FEFF 		bl	_ZN5daisy6LoggerILNS_17LoggerDestinationE1EE9PrintLineEPKcz
  94              	.LVL3:
  95              		.loc 2 128 23 view .LVU12
  96              	.LBE300:
ARM GAS  C:\Users\samue\AppData\Local\Temp\cci865ja.s 			page 6


  97              	.LBE299:
  35:daisy_common.cpp ****     seed.PrintLine("knob_3_user: %d", knob_3_user_name);
  98              		.loc 1 35 5 is_stmt 1 view .LVU13
  99              	.LBB301:
 100              	.LBI301:
 126:../../DaisyExamples/libDaisy//src/daisy_seed.h ****     {
 101              		.loc 2 126 17 view .LVU14
 102              	.LBB302:
 103              		.loc 2 128 23 is_stmt 0 view .LVU15
 104 0018 D4F8F011 		ldr	r1, [r4, #496]
 105 001c 1048     		ldr	r0, .L4+8
 106 001e FFF7FEFF 		bl	_ZN5daisy6LoggerILNS_17LoggerDestinationE1EE9PrintLineEPKcz
 107              	.LVL4:
 108              		.loc 2 128 23 view .LVU16
 109              	.LBE302:
 110              	.LBE301:
  36:daisy_common.cpp ****     seed.PrintLine("knob_4_user: %d", knob_4_user_name);
 111              		.loc 1 36 5 is_stmt 1 view .LVU17
 112              	.LBB303:
 113              	.LBI303:
 126:../../DaisyExamples/libDaisy//src/daisy_seed.h ****     {
 114              		.loc 2 126 17 view .LVU18
 115              	.LBB304:
 116              		.loc 2 128 23 is_stmt 0 view .LVU19
 117 0022 D4F8F411 		ldr	r1, [r4, #500]
 118 0026 0F48     		ldr	r0, .L4+12
 119 0028 FFF7FEFF 		bl	_ZN5daisy6LoggerILNS_17LoggerDestinationE1EE9PrintLineEPKcz
 120              	.LVL5:
 121              		.loc 2 128 23 view .LVU20
 122              	.LBE304:
 123              	.LBE303:
  37:daisy_common.cpp ****     seed.PrintLine("knob_5_user: %d", knob_5_user_name);
 124              		.loc 1 37 5 is_stmt 1 view .LVU21
 125              	.LBB305:
 126              	.LBI305:
 126:../../DaisyExamples/libDaisy//src/daisy_seed.h ****     {
 127              		.loc 2 126 17 view .LVU22
 128              	.LBB306:
 129              		.loc 2 128 23 is_stmt 0 view .LVU23
 130 002c D4F8F811 		ldr	r1, [r4, #504]
 131 0030 0D48     		ldr	r0, .L4+16
 132 0032 FFF7FEFF 		bl	_ZN5daisy6LoggerILNS_17LoggerDestinationE1EE9PrintLineEPKcz
 133              	.LVL6:
 134              		.loc 2 128 23 view .LVU24
 135              	.LBE306:
 136              	.LBE305:
  38:daisy_common.cpp ****     seed.PrintLine("knob_6_user: %d", knob_6_user_name);
 137              		.loc 1 38 5 is_stmt 1 view .LVU25
 138              	.LBB307:
 139              	.LBI307:
 126:../../DaisyExamples/libDaisy//src/daisy_seed.h ****     {
 140              		.loc 2 126 17 view .LVU26
 141              	.LBB308:
 142              		.loc 2 128 23 is_stmt 0 view .LVU27
 143 0036 D4F8FC11 		ldr	r1, [r4, #508]
 144 003a 0C48     		ldr	r0, .L4+20
 145 003c FFF7FEFF 		bl	_ZN5daisy6LoggerILNS_17LoggerDestinationE1EE9PrintLineEPKcz
ARM GAS  C:\Users\samue\AppData\Local\Temp\cci865ja.s 			page 7


 146              	.LVL7:
 147              		.loc 2 128 23 view .LVU28
 148              	.LBE308:
 149              	.LBE307:
  39:daisy_common.cpp ****     seed.PrintLine("knob_7_user: %d", knob_7_user_name);
 150              		.loc 1 39 5 is_stmt 1 view .LVU29
 151              	.LBB309:
 152              	.LBI309:
 126:../../DaisyExamples/libDaisy//src/daisy_seed.h ****     {
 153              		.loc 2 126 17 view .LVU30
 154              	.LBB310:
 155              		.loc 2 128 23 is_stmt 0 view .LVU31
 156 0040 D4F80012 		ldr	r1, [r4, #512]
 157 0044 0A48     		ldr	r0, .L4+24
 158 0046 FFF7FEFF 		bl	_ZN5daisy6LoggerILNS_17LoggerDestinationE1EE9PrintLineEPKcz
 159              	.LVL8:
 160              		.loc 2 128 23 view .LVU32
 161              	.LBE310:
 162              	.LBE309:
  40:daisy_common.cpp ****     seed.PrintLine("knob_8_user: %d", knob_8_user_name);
 163              		.loc 1 40 5 is_stmt 1 view .LVU33
 164              	.LBB311:
 165              	.LBI311:
 126:../../DaisyExamples/libDaisy//src/daisy_seed.h ****     {
 166              		.loc 2 126 17 view .LVU34
 167              	.LBB312:
 168              		.loc 2 128 23 is_stmt 0 view .LVU35
 169 004a D4F80412 		ldr	r1, [r4, #516]
 170 004e 0948     		ldr	r0, .L4+28
 171              	.LBE312:
 172              	.LBE311:
  41:daisy_common.cpp **** 
  42:daisy_common.cpp **** }
 173              		.loc 1 42 1 view .LVU36
 174 0050 BDE81040 		pop	{r4, lr}
 175              		.cfi_restore 14
 176              		.cfi_restore 4
 177              		.cfi_def_cfa_offset 0
 178              	.LVL9:
 179              	.LBB314:
 180              	.LBB313:
 181              		.loc 2 128 23 view .LVU37
 182 0054 FFF7FEBF 		b	_ZN5daisy6LoggerILNS_17LoggerDestinationE1EE9PrintLineEPKcz
 183              	.LVL10:
 184              	.L5:
 185              		.loc 2 128 23 view .LVU38
 186              		.align	2
 187              	.L4:
 188 0058 00000000 		.word	.LC8
 189 005c 10000000 		.word	.LC9
 190 0060 20000000 		.word	.LC10
 191 0064 30000000 		.word	.LC11
 192 0068 40000000 		.word	.LC12
 193 006c 50000000 		.word	.LC13
 194 0070 60000000 		.word	.LC14
 195 0074 70000000 		.word	.LC15
 196              	.LBE313:
ARM GAS  C:\Users\samue\AppData\Local\Temp\cci865ja.s 			page 8


 197              	.LBE314:
 198              		.cfi_endproc
 199              	.LFE3058:
 201              		.section	.text._ZN5daisy11daisyCommon8add_knobEii,"ax",%progbits
 202              		.align	1
 203              		.p2align 2,,3
 204              		.global	_ZN5daisy11daisyCommon8add_knobEii
 205              		.syntax unified
 206              		.thumb
 207              		.thumb_func
 208              		.fpu fpv5-d16
 210              	_ZN5daisy11daisyCommon8add_knobEii:
 211              	.LVL11:
 212              	.LFB3060:
  43:daisy_common.cpp **** 
  44:daisy_common.cpp **** float daisyCommon::get_knob_value(int user_name)
  45:daisy_common.cpp **** {
  46:daisy_common.cpp ****     return seed.adc.GetMuxFloat(get_mux(user_name), get_adc_chan(user_name));
  47:daisy_common.cpp **** }
  48:daisy_common.cpp **** void daisyCommon::add_knob(int user_name, int knob_num)
  49:daisy_common.cpp **** {
 213              		.loc 1 49 1 is_stmt 1 view -0
 214              		.cfi_startproc
 215              		@ args = 0, pretend = 0, frame = 0
 216              		@ frame_needed = 0, uses_anonymous_args = 0
 217              		@ link register save eliminated.
  50:daisy_common.cpp ****     if(knob_num == knob_1) knob_1_user_name = user_name;
 218              		.loc 1 50 5 view .LVU40
 219 0000 12B9     		cbnz	r2, .L7
 220              		.loc 1 50 28 discriminator 1 view .LVU41
 221              		.loc 1 50 45 is_stmt 0 discriminator 1 view .LVU42
 222 0002 C0F8E811 		str	r1, [r0, #488]
  51:daisy_common.cpp ****     if(knob_num == knob_2) knob_2_user_name = user_name;
 223              		.loc 1 51 5 is_stmt 1 discriminator 1 view .LVU43
  52:daisy_common.cpp ****     if(knob_num == knob_3) knob_3_user_name = user_name;
 224              		.loc 1 52 5 discriminator 1 view .LVU44
  53:daisy_common.cpp ****     if(knob_num == knob_4) knob_4_user_name = user_name;
 225              		.loc 1 53 5 discriminator 1 view .LVU45
  54:daisy_common.cpp ****     if(knob_num == knob_5) knob_5_user_name = user_name;
 226              		.loc 1 54 5 discriminator 1 view .LVU46
 227 0006 7047     		bx	lr
 228              	.L7:
  51:daisy_common.cpp ****     if(knob_num == knob_3) knob_3_user_name = user_name;
 229              		.loc 1 51 5 view .LVU47
 230 0008 012A     		cmp	r2, #1
 231 000a 02D1     		bne	.L27
  51:daisy_common.cpp ****     if(knob_num == knob_3) knob_3_user_name = user_name;
 232              		.loc 1 51 28 discriminator 1 view .LVU48
  51:daisy_common.cpp ****     if(knob_num == knob_3) knob_3_user_name = user_name;
 233              		.loc 1 51 45 is_stmt 0 discriminator 1 view .LVU49
 234 000c C0F8EC11 		str	r1, [r0, #492]
  52:daisy_common.cpp ****     if(knob_num == knob_4) knob_4_user_name = user_name;
 235              		.loc 1 52 5 is_stmt 1 discriminator 1 view .LVU50
  53:daisy_common.cpp ****     if(knob_num == knob_5) knob_5_user_name = user_name;
 236              		.loc 1 53 5 discriminator 1 view .LVU51
 237              		.loc 1 54 5 discriminator 1 view .LVU52
 238 0010 7047     		bx	lr
ARM GAS  C:\Users\samue\AppData\Local\Temp\cci865ja.s 			page 9


 239              	.L27:
  52:daisy_common.cpp ****     if(knob_num == knob_4) knob_4_user_name = user_name;
 240              		.loc 1 52 5 view .LVU53
 241 0012 022A     		cmp	r2, #2
 242 0014 02D1     		bne	.L28
  52:daisy_common.cpp ****     if(knob_num == knob_4) knob_4_user_name = user_name;
 243              		.loc 1 52 28 discriminator 1 view .LVU54
  52:daisy_common.cpp ****     if(knob_num == knob_4) knob_4_user_name = user_name;
 244              		.loc 1 52 45 is_stmt 0 discriminator 1 view .LVU55
 245 0016 C0F8F011 		str	r1, [r0, #496]
  53:daisy_common.cpp ****     if(knob_num == knob_5) knob_5_user_name = user_name;
 246              		.loc 1 53 5 is_stmt 1 discriminator 1 view .LVU56
 247              		.loc 1 54 5 discriminator 1 view .LVU57
  55:daisy_common.cpp ****     if(knob_num == knob_6) knob_6_user_name = user_name;
 248              		.loc 1 55 5 discriminator 1 view .LVU58
 249 001a 7047     		bx	lr
 250              	.L28:
  53:daisy_common.cpp ****     if(knob_num == knob_5) knob_5_user_name = user_name;
 251              		.loc 1 53 5 view .LVU59
 252 001c 032A     		cmp	r2, #3
 253 001e 02D1     		bne	.L29
  53:daisy_common.cpp ****     if(knob_num == knob_5) knob_5_user_name = user_name;
 254              		.loc 1 53 28 discriminator 1 view .LVU60
  53:daisy_common.cpp ****     if(knob_num == knob_5) knob_5_user_name = user_name;
 255              		.loc 1 53 45 is_stmt 0 discriminator 1 view .LVU61
 256 0020 C0F8F411 		str	r1, [r0, #500]
  54:daisy_common.cpp ****     if(knob_num == knob_6) knob_6_user_name = user_name;
 257              		.loc 1 54 5 is_stmt 1 discriminator 1 view .LVU62
 258              		.loc 1 55 5 discriminator 1 view .LVU63
  56:daisy_common.cpp ****     if(knob_num == knob_7) knob_7_user_name = user_name;
 259              		.loc 1 56 5 discriminator 1 view .LVU64
 260 0024 7047     		bx	lr
 261              	.L29:
  54:daisy_common.cpp ****     if(knob_num == knob_6) knob_6_user_name = user_name;
 262              		.loc 1 54 5 view .LVU65
 263 0026 042A     		cmp	r2, #4
 264 0028 02D1     		bne	.L30
  54:daisy_common.cpp ****     if(knob_num == knob_6) knob_6_user_name = user_name;
 265              		.loc 1 54 28 discriminator 1 view .LVU66
  54:daisy_common.cpp ****     if(knob_num == knob_6) knob_6_user_name = user_name;
 266              		.loc 1 54 45 is_stmt 0 discriminator 1 view .LVU67
 267 002a C0F8F811 		str	r1, [r0, #504]
  55:daisy_common.cpp ****     if(knob_num == knob_6) knob_6_user_name = user_name;
 268              		.loc 1 55 5 is_stmt 1 discriminator 1 view .LVU68
 269              		.loc 1 56 5 discriminator 1 view .LVU69
  57:daisy_common.cpp ****     if(knob_num == knob_8) knob_8_user_name = user_name;
 270              		.loc 1 57 5 discriminator 1 view .LVU70
 271 002e 7047     		bx	lr
 272              	.L30:
  55:daisy_common.cpp ****     if(knob_num == knob_7) knob_7_user_name = user_name;
 273              		.loc 1 55 5 view .LVU71
 274 0030 052A     		cmp	r2, #5
 275 0032 02D1     		bne	.L31
  55:daisy_common.cpp ****     if(knob_num == knob_7) knob_7_user_name = user_name;
 276              		.loc 1 55 28 discriminator 1 view .LVU72
  55:daisy_common.cpp ****     if(knob_num == knob_7) knob_7_user_name = user_name;
 277              		.loc 1 55 45 is_stmt 0 discriminator 1 view .LVU73
ARM GAS  C:\Users\samue\AppData\Local\Temp\cci865ja.s 			page 10


 278 0034 C0F8FC11 		str	r1, [r0, #508]
  56:daisy_common.cpp ****     if(knob_num == knob_7) knob_7_user_name = user_name;
 279              		.loc 1 56 5 is_stmt 1 discriminator 1 view .LVU74
 280              		.loc 1 57 5 discriminator 1 view .LVU75
 281 0038 7047     		bx	lr
 282              	.L31:
  56:daisy_common.cpp ****     if(knob_num == knob_7) knob_7_user_name = user_name;
 283              		.loc 1 56 5 view .LVU76
 284 003a 062A     		cmp	r2, #6
 285 003c 02D1     		bne	.L32
  56:daisy_common.cpp ****     if(knob_num == knob_7) knob_7_user_name = user_name;
 286              		.loc 1 56 28 discriminator 1 view .LVU77
  56:daisy_common.cpp ****     if(knob_num == knob_7) knob_7_user_name = user_name;
 287              		.loc 1 56 45 is_stmt 0 discriminator 1 view .LVU78
 288 003e C0F80012 		str	r1, [r0, #512]
 289              		.loc 1 57 5 is_stmt 1 discriminator 1 view .LVU79
 290 0042 7047     		bx	lr
 291              	.L32:
 292              		.loc 1 57 5 view .LVU80
 293 0044 072A     		cmp	r2, #7
 294 0046 02D1     		bne	.L33
 295              		.loc 1 57 28 discriminator 1 view .LVU81
 296              		.loc 1 57 45 is_stmt 0 discriminator 1 view .LVU82
 297 0048 C0F80412 		str	r1, [r0, #516]
  58:daisy_common.cpp **** }
 298              		.loc 1 58 1 discriminator 1 view .LVU83
 299 004c 7047     		bx	lr
 300              	.L33:
 301              		.loc 1 58 1 discriminator 1 view .LVU84
 302 004e 7047     		bx	lr
 303              		.cfi_endproc
 304              	.LFE3060:
 306              		.section	.text._ZN5daisy11daisyCommon7get_muxEi,"ax",%progbits
 307              		.align	1
 308              		.p2align 2,,3
 309              		.global	_ZN5daisy11daisyCommon7get_muxEi
 310              		.syntax unified
 311              		.thumb
 312              		.thumb_func
 313              		.fpu fpv5-d16
 315              	_ZN5daisy11daisyCommon7get_muxEi:
 316              	.LVL12:
 317              	.LFB3061:
  59:daisy_common.cpp **** int daisyCommon::get_mux(int knob_user_name)
  60:daisy_common.cpp **** {
 318              		.loc 1 60 1 is_stmt 1 view -0
 319              		.cfi_startproc
 320              		@ args = 0, pretend = 0, frame = 0
 321              		@ frame_needed = 0, uses_anonymous_args = 0
 322              		@ link register save eliminated.
  61:daisy_common.cpp ****     if(knob_user_name == knob_1_user_name) return mux_x;
 323              		.loc 1 61 5 view .LVU86
 324 0000 D0F8E831 		ldr	r3, [r0, #488]
 325 0004 8B42     		cmp	r3, r1
 326 0006 1FD0     		beq	.L39
  62:daisy_common.cpp ****     if(knob_user_name == knob_3_user_name) return mux_x;
 327              		.loc 1 62 5 view .LVU87
ARM GAS  C:\Users\samue\AppData\Local\Temp\cci865ja.s 			page 11


 328 0008 D0F8F031 		ldr	r3, [r0, #496]
 329 000c 8B42     		cmp	r3, r1
 330 000e 1BD0     		beq	.L39
  63:daisy_common.cpp ****     if(knob_user_name == knob_4_user_name) return mux_x;
 331              		.loc 1 63 5 view .LVU88
 332 0010 D0F8F431 		ldr	r3, [r0, #500]
 333 0014 8B42     		cmp	r3, r1
 334 0016 17D0     		beq	.L39
  64:daisy_common.cpp ****     if(knob_user_name == knob_5_user_name) return mux_x;
 335              		.loc 1 64 5 view .LVU89
 336 0018 D0F8F831 		ldr	r3, [r0, #504]
 337 001c 8B42     		cmp	r3, r1
 338 001e 13D0     		beq	.L39
  65:daisy_common.cpp ****     if(knob_user_name == knob_2_user_name) return mux_y;
 339              		.loc 1 65 5 view .LVU90
 340 0020 D0F8EC31 		ldr	r3, [r0, #492]
 341 0024 8B42     		cmp	r3, r1
 342 0026 11D0     		beq	.L42
  66:daisy_common.cpp ****     if(knob_user_name == knob_6_user_name) return mux_y;
 343              		.loc 1 66 5 view .LVU91
 344 0028 D0F8FC31 		ldr	r3, [r0, #508]
 345 002c 8B42     		cmp	r3, r1
 346 002e 0DD0     		beq	.L42
 347              	.LVL13:
 348              	.LBB317:
 349              	.LBI317:
  59:daisy_common.cpp **** {
 350              		.loc 1 59 5 view .LVU92
 351              	.LBB318:
  67:daisy_common.cpp ****     if(knob_user_name == knob_7_user_name) return mux_y;
 352              		.loc 1 67 5 view .LVU93
 353 0030 D0F80032 		ldr	r3, [r0, #512]
 354 0034 9942     		cmp	r1, r3
 355 0036 09D0     		beq	.L42
  68:daisy_common.cpp ****     if(knob_user_name == knob_8_user_name) return mux_y;
 356              		.loc 1 68 5 view .LVU94
 357 0038 D0F80402 		ldr	r0, [r0, #516]
 358              	.LVL14:
  69:daisy_common.cpp ****     return -1;
 359              		.loc 1 69 13 is_stmt 0 view .LVU95
 360 003c 8142     		cmp	r1, r0
 361 003e 0CBF     		ite	eq
 362 0040 0120     		moveq	r0, #1
 363 0042 4FF0FF30 		movne	r0, #-1
 364 0046 7047     		bx	lr
 365              	.LVL15:
 366              	.L39:
 367              		.loc 1 69 13 view .LVU96
 368              	.LBE318:
 369              	.LBE317:
  61:daisy_common.cpp ****     if(knob_user_name == knob_3_user_name) return mux_x;
 370              		.loc 1 61 51 view .LVU97
 371 0048 0020     		movs	r0, #0
 372              	.LVL16:
  61:daisy_common.cpp ****     if(knob_user_name == knob_3_user_name) return mux_x;
 373              		.loc 1 61 51 view .LVU98
 374 004a 7047     		bx	lr
ARM GAS  C:\Users\samue\AppData\Local\Temp\cci865ja.s 			page 12


 375              	.LVL17:
 376              	.L42:
 377              	.LBB320:
 378              	.LBB319:
  68:daisy_common.cpp ****     if(knob_user_name == knob_8_user_name) return mux_y;
 379              		.loc 1 68 51 view .LVU99
 380 004c 0120     		movs	r0, #1
 381              	.LVL18:
  68:daisy_common.cpp ****     if(knob_user_name == knob_8_user_name) return mux_y;
 382              		.loc 1 68 51 view .LVU100
 383              	.LBE319:
 384              	.LBE320:
  70:daisy_common.cpp **** }
 385              		.loc 1 70 1 view .LVU101
 386 004e 7047     		bx	lr
 387              		.cfi_endproc
 388              	.LFE3061:
 390              		.section	.text._ZN5daisy11daisyCommon12get_adc_chanEi,"ax",%progbits
 391              		.align	1
 392              		.p2align 2,,3
 393              		.global	_ZN5daisy11daisyCommon12get_adc_chanEi
 394              		.syntax unified
 395              		.thumb
 396              		.thumb_func
 397              		.fpu fpv5-d16
 399              	_ZN5daisy11daisyCommon12get_adc_chanEi:
 400              	.LVL19:
 401              	.LFB3062:
  71:daisy_common.cpp **** int daisyCommon::get_adc_chan(int knob_user_name)
  72:daisy_common.cpp **** {
 402              		.loc 1 72 1 is_stmt 1 view -0
 403              		.cfi_startproc
 404              		@ args = 0, pretend = 0, frame = 0
 405              		@ frame_needed = 0, uses_anonymous_args = 0
 406              		@ link register save eliminated.
  73:daisy_common.cpp ****     if(knob_user_name == knob_1_user_name) return knob_1_chan;
 407              		.loc 1 73 5 view .LVU103
 408 0000 D0F8E831 		ldr	r3, [r0, #488]
 409 0004 8B42     		cmp	r3, r1
 410 0006 1FD0     		beq	.L50
  74:daisy_common.cpp ****     if(knob_user_name == knob_3_user_name) return knob_3_chan;
 411              		.loc 1 74 5 view .LVU104
 412 0008 D0F8F031 		ldr	r3, [r0, #496]
 413 000c 8B42     		cmp	r3, r1
 414 000e 1FD0     		beq	.L47
  75:daisy_common.cpp ****     if(knob_user_name == knob_4_user_name) return knob_4_chan;
 415              		.loc 1 75 5 view .LVU105
 416 0010 D0F8F431 		ldr	r3, [r0, #500]
 417 0014 8B42     		cmp	r3, r1
 418 0016 1DD0     		beq	.L52
  76:daisy_common.cpp ****     if(knob_user_name == knob_5_user_name) return knob_5_chan;
 419              		.loc 1 76 5 view .LVU106
 420 0018 D0F8F831 		ldr	r3, [r0, #504]
 421 001c 8B42     		cmp	r3, r1
 422 001e 15D0     		beq	.L51
  77:daisy_common.cpp ****     if(knob_user_name == knob_2_user_name) return knob_2_chan;
 423              		.loc 1 77 5 view .LVU107
ARM GAS  C:\Users\samue\AppData\Local\Temp\cci865ja.s 			page 13


 424 0020 D0F8EC31 		ldr	r3, [r0, #492]
 425 0024 8B42     		cmp	r3, r1
 426 0026 0FD0     		beq	.L50
  78:daisy_common.cpp ****     if(knob_user_name == knob_6_user_name) return knob_6_chan;
 427              		.loc 1 78 5 view .LVU108
 428 0028 D0F8FC31 		ldr	r3, [r0, #508]
 429 002c 8B42     		cmp	r3, r1
 430 002e 0DD0     		beq	.L51
 431              	.LVL20:
 432              	.LBB323:
 433              	.LBI323:
  71:daisy_common.cpp **** {
 434              		.loc 1 71 5 view .LVU109
 435              	.LBB324:
  79:daisy_common.cpp ****     if(knob_user_name == knob_7_user_name) return knob_7_chan;
 436              		.loc 1 79 5 view .LVU110
 437 0030 D0F80032 		ldr	r3, [r0, #512]
 438 0034 9942     		cmp	r1, r3
 439 0036 0DD0     		beq	.L52
  80:daisy_common.cpp ****     if(knob_user_name == knob_8_user_name) return knob_8_chan;
 440              		.loc 1 80 5 view .LVU111
 441 0038 D0F80402 		ldr	r0, [r0, #516]
 442              	.LVL21:
  81:daisy_common.cpp ****     return -1;
 443              		.loc 1 81 13 is_stmt 0 view .LVU112
 444 003c 8142     		cmp	r1, r0
 445 003e 0CBF     		ite	eq
 446 0040 0120     		moveq	r0, #1
 447 0042 4FF0FF30 		movne	r0, #-1
 448 0046 7047     		bx	lr
 449              	.LVL22:
 450              	.L50:
 451              		.loc 1 81 13 view .LVU113
 452              	.LBE324:
 453              	.LBE323:
  73:daisy_common.cpp ****     if(knob_user_name == knob_3_user_name) return knob_3_chan;
 454              		.loc 1 73 51 view .LVU114
 455 0048 0020     		movs	r0, #0
 456              	.LVL23:
  73:daisy_common.cpp ****     if(knob_user_name == knob_3_user_name) return knob_3_chan;
 457              		.loc 1 73 51 view .LVU115
 458 004a 7047     		bx	lr
 459              	.LVL24:
 460              	.L51:
  76:daisy_common.cpp ****     if(knob_user_name == knob_2_user_name) return knob_2_chan;
 461              		.loc 1 76 51 view .LVU116
 462 004c 0220     		movs	r0, #2
 463              	.LVL25:
  76:daisy_common.cpp ****     if(knob_user_name == knob_2_user_name) return knob_2_chan;
 464              		.loc 1 76 51 view .LVU117
 465 004e 7047     		bx	lr
 466              	.LVL26:
 467              	.L47:
 468              	.LBB326:
 469              	.LBB325:
  80:daisy_common.cpp ****     return -1;
 470              		.loc 1 80 51 view .LVU118
ARM GAS  C:\Users\samue\AppData\Local\Temp\cci865ja.s 			page 14


 471 0050 0120     		movs	r0, #1
 472              	.LVL27:
  80:daisy_common.cpp ****     return -1;
 473              		.loc 1 80 51 view .LVU119
 474 0052 7047     		bx	lr
 475              	.LVL28:
 476              	.L52:
  80:daisy_common.cpp ****     return -1;
 477              		.loc 1 80 51 view .LVU120
 478              	.LBE325:
 479              	.LBE326:
  75:daisy_common.cpp ****     if(knob_user_name == knob_5_user_name) return knob_5_chan;
 480              		.loc 1 75 51 view .LVU121
 481 0054 0320     		movs	r0, #3
 482              	.LVL29:
  82:daisy_common.cpp **** }
 483              		.loc 1 82 1 view .LVU122
 484 0056 7047     		bx	lr
 485              		.cfi_endproc
 486              	.LFE3062:
 488              		.section	.text._ZN5daisy11daisyCommon14get_knob_valueEi,"ax",%progbits
 489              		.align	1
 490              		.p2align 2,,3
 491              		.global	_ZN5daisy11daisyCommon14get_knob_valueEi
 492              		.syntax unified
 493              		.thumb
 494              		.thumb_func
 495              		.fpu fpv5-d16
 497              	_ZN5daisy11daisyCommon14get_knob_valueEi:
 498              	.LVL30:
 499              	.LFB3059:
  45:daisy_common.cpp ****     return seed.adc.GetMuxFloat(get_mux(user_name), get_adc_chan(user_name));
 500              		.loc 1 45 1 is_stmt 1 view -0
 501              		.cfi_startproc
 502              		@ args = 0, pretend = 0, frame = 0
 503              		@ frame_needed = 0, uses_anonymous_args = 0
  46:daisy_common.cpp **** }
 504              		.loc 1 46 5 view .LVU124
  45:daisy_common.cpp ****     return seed.adc.GetMuxFloat(get_mux(user_name), get_adc_chan(user_name));
 505              		.loc 1 45 1 is_stmt 0 view .LVU125
 506 0000 38B5     		push	{r3, r4, r5, lr}
 507              		.cfi_def_cfa_offset 16
 508              		.cfi_offset 3, -16
 509              		.cfi_offset 4, -12
 510              		.cfi_offset 5, -8
 511              		.cfi_offset 14, -4
 512              	.LBB331:
 513              	.LBB332:
  61:daisy_common.cpp ****     if(knob_user_name == knob_3_user_name) return mux_x;
 514              		.loc 1 61 5 view .LVU126
 515 0002 D0F8E831 		ldr	r3, [r0, #488]
 516              	.LBE332:
 517              	.LBE331:
  46:daisy_common.cpp **** }
 518              		.loc 1 46 32 view .LVU127
 519 0006 00F5E075 		add	r5, r0, #448
 520              	.LVL31:
ARM GAS  C:\Users\samue\AppData\Local\Temp\cci865ja.s 			page 15


 521              	.LBB339:
 522              	.LBI331:
  59:daisy_common.cpp **** {
 523              		.loc 1 59 5 is_stmt 1 view .LVU128
 524              	.LBB337:
  61:daisy_common.cpp ****     if(knob_user_name == knob_3_user_name) return mux_x;
 525              		.loc 1 61 5 view .LVU129
 526 000a 9942     		cmp	r1, r3
 527 000c 1ED0     		beq	.L59
  62:daisy_common.cpp ****     if(knob_user_name == knob_4_user_name) return mux_x;
 528              		.loc 1 62 5 view .LVU130
 529 000e D0F8F031 		ldr	r3, [r0, #496]
 530 0012 9942     		cmp	r1, r3
 531 0014 1AD0     		beq	.L59
  63:daisy_common.cpp ****     if(knob_user_name == knob_5_user_name) return mux_x;
 532              		.loc 1 63 5 view .LVU131
 533 0016 D0F8F431 		ldr	r3, [r0, #500]
 534 001a 9942     		cmp	r1, r3
 535 001c 16D0     		beq	.L59
  64:daisy_common.cpp ****     if(knob_user_name == knob_2_user_name) return mux_y;
 536              		.loc 1 64 5 view .LVU132
 537 001e D0F8F831 		ldr	r3, [r0, #504]
 538 0022 9942     		cmp	r1, r3
 539 0024 12D0     		beq	.L59
  65:daisy_common.cpp ****     if(knob_user_name == knob_6_user_name) return mux_y;
 540              		.loc 1 65 5 view .LVU133
 541 0026 D0F8EC31 		ldr	r3, [r0, #492]
 542 002a 9942     		cmp	r1, r3
 543 002c 19D0     		beq	.L62
  66:daisy_common.cpp ****     if(knob_user_name == knob_7_user_name) return mux_y;
 544              		.loc 1 66 5 view .LVU134
 545 002e D0F8FC31 		ldr	r3, [r0, #508]
 546 0032 9942     		cmp	r1, r3
 547 0034 15D0     		beq	.L62
 548              	.LVL32:
 549              	.LBB333:
 550              	.LBI333:
  59:daisy_common.cpp **** {
 551              		.loc 1 59 5 view .LVU135
 552              	.LBB334:
  67:daisy_common.cpp ****     if(knob_user_name == knob_8_user_name) return mux_y;
 553              		.loc 1 67 5 view .LVU136
 554 0036 D0F80032 		ldr	r3, [r0, #512]
 555 003a 9942     		cmp	r1, r3
 556 003c 11D0     		beq	.L62
  68:daisy_common.cpp ****     return -1;
 557              		.loc 1 68 5 view .LVU137
 558 003e D0F80442 		ldr	r4, [r0, #516]
 559 0042 A142     		cmp	r1, r4
 560 0044 14BF     		ite	ne
 561 0046 FF24     		movne	r4, #255
 562 0048 0124     		moveq	r4, #1
 563 004a 00E0     		b	.L55
 564              	.LVL33:
 565              	.L59:
  68:daisy_common.cpp ****     return -1;
 566              		.loc 1 68 5 is_stmt 0 view .LVU138
ARM GAS  C:\Users\samue\AppData\Local\Temp\cci865ja.s 			page 16


 567              	.LBE334:
 568              	.LBE333:
 569 004c 0024     		movs	r4, #0
 570              	.L55:
 571              	.LVL34:
  68:daisy_common.cpp ****     return -1;
 572              		.loc 1 68 5 view .LVU139
 573              	.LBE337:
 574              	.LBE339:
  46:daisy_common.cpp **** }
 575              		.loc 1 46 65 view .LVU140
 576 004e FFF7FEFF 		bl	_ZN5daisy11daisyCommon12get_adc_chanEi
 577              	.LVL35:
  46:daisy_common.cpp **** }
 578              		.loc 1 46 65 view .LVU141
 579 0052 0246     		mov	r2, r0
  46:daisy_common.cpp **** }
 580              		.loc 1 46 32 view .LVU142
 581 0054 2146     		mov	r1, r4
 582              	.LVL36:
  46:daisy_common.cpp **** }
 583              		.loc 1 46 32 view .LVU143
 584 0056 2846     		mov	r0, r5
 585 0058 D2B2     		uxtb	r2, r2
  47:daisy_common.cpp **** void daisyCommon::add_knob(int user_name, int knob_num)
 586              		.loc 1 47 1 view .LVU144
 587 005a BDE83840 		pop	{r3, r4, r5, lr}
 588              		.cfi_remember_state
 589              		.cfi_restore 14
 590              		.cfi_restore 5
 591              		.cfi_restore 4
 592              		.cfi_restore 3
 593              		.cfi_def_cfa_offset 0
 594              	.LVL37:
  46:daisy_common.cpp **** }
 595              		.loc 1 46 32 view .LVU145
 596 005e FFF7FEBF 		b	_ZNK5daisy9AdcHandle11GetMuxFloatEhh
 597              	.LVL38:
 598              	.L62:
 599              		.cfi_restore_state
 600              	.LBB340:
 601              	.LBB338:
 602              	.LBB336:
 603              	.LBB335:
  46:daisy_common.cpp **** }
 604              		.loc 1 46 32 view .LVU146
 605 0062 0124     		movs	r4, #1
 606 0064 F3E7     		b	.L55
 607              	.LBE335:
 608              	.LBE336:
 609              	.LBE338:
 610              	.LBE340:
 611              		.cfi_endproc
 612              	.LFE3059:
 614 0066 00BF     		.section	.text._ZN5daisy11daisyCommon8getCVPinEi,"ax",%progbits
 615              		.align	1
 616              		.p2align 2,,3
ARM GAS  C:\Users\samue\AppData\Local\Temp\cci865ja.s 			page 17


 617              		.global	_ZN5daisy11daisyCommon8getCVPinEi
 618              		.syntax unified
 619              		.thumb
 620              		.thumb_func
 621              		.fpu fpv5-d16
 623              	_ZN5daisy11daisyCommon8getCVPinEi:
 624              	.LVL39:
 625              	.LFB3068:
  83:daisy_common.cpp **** 
  84:daisy_common.cpp **** void daisyCommon::Init(bool boost)
  85:daisy_common.cpp **** {
  86:daisy_common.cpp ****     //seed.Configure();
  87:daisy_common.cpp ****     seed.Init(boost);
  88:daisy_common.cpp ****     InitGPIO_MUX();
  89:daisy_common.cpp ****     InitToggle();
  90:daisy_common.cpp ****     InitButton();
  91:daisy_common.cpp ****     InitADC();
  92:daisy_common.cpp ****     
  93:daisy_common.cpp **** }
  94:daisy_common.cpp **** 
  95:daisy_common.cpp **** void daisyCommon::add_cv(int user_name, int jack)
  96:daisy_common.cpp **** {
  97:daisy_common.cpp ****     struct cv ctrl;
  98:daisy_common.cpp ****     ctrl.user_name = user_name;
  99:daisy_common.cpp ****     ctrl.jack = jack;
 100:daisy_common.cpp ****     ctrl.adc_channel_num = cvs.size();
 101:daisy_common.cpp ****     ctrl.pin = getCVPin(jack);
 102:daisy_common.cpp ****     cvs.push_back(ctrl);
 103:daisy_common.cpp **** }
 104:daisy_common.cpp **** 
 105:daisy_common.cpp **** Pin daisyCommon::getCVPin(int jack)
 106:daisy_common.cpp **** {
 626              		.loc 1 106 1 is_stmt 1 view -0
 627              		.cfi_startproc
 628              		@ args = 0, pretend = 0, frame = 8
 629              		@ frame_needed = 0, uses_anonymous_args = 0
 630              		@ link register save eliminated.
 107:daisy_common.cpp ****     Pin pin;
 631              		.loc 1 107 5 view .LVU148
 108:daisy_common.cpp ****     switch(jack)
 632              		.loc 1 108 5 view .LVU149
 107:daisy_common.cpp ****     Pin pin;
 633              		.loc 1 107 9 is_stmt 0 view .LVU150
 634 0000 0829     		cmp	r1, #8
 635              	.LVL40:
 109:daisy_common.cpp ****     {
 110:daisy_common.cpp ****         case in_1: pin = IN_1_ADC_PIN;
 111:daisy_common.cpp ****         case in_2: pin = IN_2_ADC_PIN;
 112:daisy_common.cpp ****         case in_3: pin = IN_3_ADC_PIN;
 113:daisy_common.cpp ****         case gate_1_in_4: pin = GATE_1_IN_4_PIN;
 114:daisy_common.cpp ****         case in_5: pin = IN_5_GPIO_PIN;
 115:daisy_common.cpp ****         case in_6: pin = IN_6_GPIO_PIN;
 116:daisy_common.cpp ****         case in_7: pin = IN_7_GPIO_PIN;
 117:daisy_common.cpp ****         case gate_2_in_8: pin = GATE_2_IN_8_PIN;
 118:daisy_common.cpp ****         default: break;
 636              		.loc 1 118 9 is_stmt 1 view .LVU151
 637              		.loc 1 118 18 view .LVU152
ARM GAS  C:\Users\samue\AppData\Local\Temp\cci865ja.s 			page 18


 119:daisy_common.cpp ****     }
 120:daisy_common.cpp ****     return pin;
 638              		.loc 1 120 5 view .LVU153
 639              		.loc 1 120 12 is_stmt 0 view .LVU154
 640 0002 4FF00000 		mov	r0, #0
 641              	.LVL41:
 106:daisy_common.cpp ****     Pin pin;
 642              		.loc 1 106 1 view .LVU155
 643 0006 82B0     		sub	sp, sp, #8
 644              		.cfi_def_cfa_offset 8
 645              		.loc 1 120 12 view .LVU156
 646 0008 2DBF     		iteet	cs
 647 000a 0B22     		movcs	r2, #11
 648 000c 0246     		movcc	r2, r0
 649 000e 0423     		movcc	r3, #4
 650 0010 FF23     		movcs	r3, #255
 651 0012 62F30700 		bfi	r0, r2, #0, #8
 652 0016 63F30F20 		bfi	r0, r3, #8, #8
 121:daisy_common.cpp **** }
 653              		.loc 1 121 1 view .LVU157
 654 001a 02B0     		add	sp, sp, #8
 655              		.cfi_def_cfa_offset 0
 656              		@ sp needed
 657 001c 7047     		bx	lr
 658              		.cfi_endproc
 659              	.LFE3068:
 661 001e 00BF     		.section	.text._ZN5daisy11daisyCommon7getGPIOEi,"ax",%progbits
 662              		.align	1
 663              		.p2align 2,,3
 664              		.global	_ZN5daisy11daisyCommon7getGPIOEi
 665              		.syntax unified
 666              		.thumb
 667              		.thumb_func
 668              		.fpu fpv5-d16
 670              	_ZN5daisy11daisyCommon7getGPIOEi:
 671              	.LVL42:
 672              	.LFB3073:
 122:daisy_common.cpp **** 
 123:daisy_common.cpp **** void daisyCommon::add_jack_gpio(int user_name, int jack, int direction)
 124:daisy_common.cpp **** {
 125:daisy_common.cpp ****     struct jack_gpio gpio;
 126:daisy_common.cpp ****     gpio.jack = jack;
 127:daisy_common.cpp ****     gpio.user_name = user_name;
 128:daisy_common.cpp ****     gpio.direction = direction;
 129:daisy_common.cpp ****     gpio.pin = getGPIOPin(jack);
 130:daisy_common.cpp ****     gpio.gpio = getGPIO(jack);
 131:daisy_common.cpp ****     if(direction == output)
 132:daisy_common.cpp ****     {
 133:daisy_common.cpp ****         gpio.gpio.Init(gpio.pin, GPIO::Mode::OUTPUT);
 134:daisy_common.cpp ****     }
 135:daisy_common.cpp ****     else
 136:daisy_common.cpp ****     {
 137:daisy_common.cpp ****         gpio.gpio.Init(gpio.pin, GPIO::Mode::INPUT);
 138:daisy_common.cpp ****     }
 139:daisy_common.cpp ****     
 140:daisy_common.cpp **** }
 141:daisy_common.cpp **** 
ARM GAS  C:\Users\samue\AppData\Local\Temp\cci865ja.s 			page 19


 142:daisy_common.cpp **** GPIO daisyCommon::getGPIO(int jack)
 143:daisy_common.cpp **** {
 673              		.loc 1 143 1 is_stmt 1 view -0
 674              		.cfi_startproc
 675              		@ args = 0, pretend = 0, frame = 0
 676              		@ frame_needed = 0, uses_anonymous_args = 0
 144:daisy_common.cpp ****     switch(jack)
 677              		.loc 1 144 5 view .LVU159
 678 0000 013A     		subs	r2, r2, #1
 679              	.LVL43:
 143:daisy_common.cpp ****     switch(jack)
 680              		.loc 1 143 1 is_stmt 0 view .LVU160
 681 0002 10B5     		push	{r4, lr}
 682              		.cfi_def_cfa_offset 8
 683              		.cfi_offset 4, -8
 684              		.cfi_offset 14, -4
 143:daisy_common.cpp ****     switch(jack)
 685              		.loc 1 143 1 view .LVU161
 686 0004 8646     		mov	lr, r0
 687 0006 062A     		cmp	r2, #6
 688 0008 22D8     		bhi	.L70
 689 000a DFE802F0 		tbb	[pc, r2]
 690              	.L72:
 691 000e 0F       		.byte	(.L78-.L72)/2
 692 000f 12       		.byte	(.L77-.L72)/2
 693 0010 15       		.byte	(.L76-.L72)/2
 694 0011 18       		.byte	(.L75-.L72)/2
 695 0012 1B       		.byte	(.L74-.L72)/2
 696 0013 1E       		.byte	(.L73-.L72)/2
 697 0014 04       		.byte	(.L71-.L72)/2
 698 0015 00       		.p2align 1
 699              	.L71:
 145:daisy_common.cpp ****     {
 146:daisy_common.cpp ****         case in_1: return IN_1;
 147:daisy_common.cpp ****         case in_2: return IN_2;
 148:daisy_common.cpp ****         case in_3: return IN_3;
 149:daisy_common.cpp ****         case gate_1_in_4: return GATE_1_IN_4;
 150:daisy_common.cpp ****         case in_5: return IN_5;
 151:daisy_common.cpp ****         case in_6: return IN_6;
 152:daisy_common.cpp ****         case in_7: return IN_7;
 153:daisy_common.cpp ****         case gate_2_in_8: return GATE_2_IN_8;
 700              		.loc 1 153 9 is_stmt 1 view .LVU162
 701              		.loc 1 153 27 view .LVU163
 702              		.loc 1 153 34 is_stmt 0 view .LVU164
 703 0016 01F5B87C 		add	ip, r1, #368
 704              	.L81:
 705              		.loc 1 153 34 view .LVU165
 706 001a 7446     		mov	r4, lr
 707 001c BCE80F00 		ldmia	ip!, {r0, r1, r2, r3}
 708              	.LVL44:
 709              		.loc 1 153 34 view .LVU166
 710 0020 0FC4     		stmia	r4!, {r0, r1, r2, r3}
 711 0022 DCF80030 		ldr	r3, [ip]
 154:daisy_common.cpp ****         default: break;
 155:daisy_common.cpp ****     }
 156:daisy_common.cpp ****     return IN_1;
 157:daisy_common.cpp **** }
ARM GAS  C:\Users\samue\AppData\Local\Temp\cci865ja.s 			page 20


 712              		.loc 1 157 1 view .LVU167
 713 0026 7046     		mov	r0, lr
 153:daisy_common.cpp ****         default: break;
 714              		.loc 1 153 34 view .LVU168
 715 0028 2360     		str	r3, [r4]
 716              		.loc 1 157 1 view .LVU169
 717 002a 10BD     		pop	{r4, pc}
 718              	.LVL45:
 719              	.L78:
 147:daisy_common.cpp ****         case in_3: return IN_3;
 720              		.loc 1 147 9 is_stmt 1 view .LVU170
 147:daisy_common.cpp ****         case in_3: return IN_3;
 721              		.loc 1 147 20 view .LVU171
 147:daisy_common.cpp ****         case in_3: return IN_3;
 722              		.loc 1 147 27 is_stmt 0 view .LVU172
 723 002c 01F1F80C 		add	ip, r1, #248
 724 0030 F3E7     		b	.L81
 725              	.L77:
 148:daisy_common.cpp ****         case gate_1_in_4: return GATE_1_IN_4;
 726              		.loc 1 148 9 is_stmt 1 view .LVU173
 148:daisy_common.cpp ****         case gate_1_in_4: return GATE_1_IN_4;
 727              		.loc 1 148 20 view .LVU174
 148:daisy_common.cpp ****         case gate_1_in_4: return GATE_1_IN_4;
 728              		.loc 1 148 27 is_stmt 0 view .LVU175
 729 0032 01F5867C 		add	ip, r1, #268
 730 0036 F0E7     		b	.L81
 731              	.L76:
 149:daisy_common.cpp ****         case in_5: return IN_5;
 732              		.loc 1 149 9 is_stmt 1 view .LVU176
 149:daisy_common.cpp ****         case in_5: return IN_5;
 733              		.loc 1 149 27 view .LVU177
 149:daisy_common.cpp ****         case in_5: return IN_5;
 734              		.loc 1 149 34 is_stmt 0 view .LVU178
 735 0038 01F5907C 		add	ip, r1, #288
 736 003c EDE7     		b	.L81
 737              	.L75:
 150:daisy_common.cpp ****         case in_6: return IN_6;
 738              		.loc 1 150 9 is_stmt 1 view .LVU179
 150:daisy_common.cpp ****         case in_6: return IN_6;
 739              		.loc 1 150 20 view .LVU180
 150:daisy_common.cpp ****         case in_6: return IN_6;
 740              		.loc 1 150 27 is_stmt 0 view .LVU181
 741 003e 01F59A7C 		add	ip, r1, #308
 742 0042 EAE7     		b	.L81
 743              	.L74:
 151:daisy_common.cpp ****         case in_7: return IN_7;
 744              		.loc 1 151 9 is_stmt 1 view .LVU182
 151:daisy_common.cpp ****         case in_7: return IN_7;
 745              		.loc 1 151 20 view .LVU183
 151:daisy_common.cpp ****         case in_7: return IN_7;
 746              		.loc 1 151 27 is_stmt 0 view .LVU184
 747 0044 01F5A47C 		add	ip, r1, #328
 748 0048 E7E7     		b	.L81
 749              	.L73:
 152:daisy_common.cpp ****         case gate_2_in_8: return GATE_2_IN_8;
 750              		.loc 1 152 9 is_stmt 1 view .LVU185
 152:daisy_common.cpp ****         case gate_2_in_8: return GATE_2_IN_8;
ARM GAS  C:\Users\samue\AppData\Local\Temp\cci865ja.s 			page 21


 751              		.loc 1 152 20 view .LVU186
 152:daisy_common.cpp ****         case gate_2_in_8: return GATE_2_IN_8;
 752              		.loc 1 152 27 is_stmt 0 view .LVU187
 753 004a 01F5AE7C 		add	ip, r1, #348
 754 004e E4E7     		b	.L81
 755              	.L70:
 146:daisy_common.cpp ****         case in_2: return IN_2;
 756              		.loc 1 146 9 is_stmt 1 view .LVU188
 146:daisy_common.cpp ****         case in_2: return IN_2;
 757              		.loc 1 146 20 view .LVU189
 146:daisy_common.cpp ****         case in_2: return IN_2;
 758              		.loc 1 146 27 is_stmt 0 view .LVU190
 759 0050 01F1E40C 		add	ip, r1, #228
 760 0054 E1E7     		b	.L81
 761              		.cfi_endproc
 762              	.LFE3073:
 764 0056 00BF     		.section	.text._ZN5daisy11daisyCommon13add_jack_gpioEiii,"ax",%progbits
 765              		.align	1
 766              		.p2align 2,,3
 767              		.global	_ZN5daisy11daisyCommon13add_jack_gpioEiii
 768              		.syntax unified
 769              		.thumb
 770              		.thumb_func
 771              		.fpu fpv5-d16
 773              	_ZN5daisy11daisyCommon13add_jack_gpioEiii:
 774              	.LVL46:
 775              	.LFB3069:
 124:daisy_common.cpp ****     struct jack_gpio gpio;
 776              		.loc 1 124 1 is_stmt 1 view -0
 777              		.cfi_startproc
 778              		@ args = 0, pretend = 0, frame = 64
 779              		@ frame_needed = 0, uses_anonymous_args = 0
 125:daisy_common.cpp ****     gpio.jack = jack;
 780              		.loc 1 125 5 view .LVU192
 124:daisy_common.cpp ****     struct jack_gpio gpio;
 781              		.loc 1 124 1 is_stmt 0 view .LVU193
 782 0000 30B5     		push	{r4, r5, lr}
 783              		.cfi_def_cfa_offset 12
 784              		.cfi_offset 4, -12
 785              		.cfi_offset 5, -8
 786              		.cfi_offset 14, -4
 787              	.LBB341:
 788              	.LBB342:
 158:daisy_common.cpp **** 
 159:daisy_common.cpp **** Pin daisyCommon::getGPIOPin(int jack)
 160:daisy_common.cpp **** {
 161:daisy_common.cpp ****     Pin pin;
 162:daisy_common.cpp ****     switch(jack)
 163:daisy_common.cpp ****     {
 164:daisy_common.cpp ****         case in_1: pin = IN_1_GPIO_PIN;
 165:daisy_common.cpp ****         case in_2: pin = IN_2_GPIO_PIN;
 166:daisy_common.cpp ****         case in_3: pin = IN_3_GPIO_PIN;
 167:daisy_common.cpp ****         case gate_1_in_4: pin = IN_4_ADC_PIN;
 168:daisy_common.cpp ****         case in_5: pin = IN_5_ADC_PIN;
 169:daisy_common.cpp ****         case in_6: pin = IN_6_ADC_PIN;
 170:daisy_common.cpp ****         case in_7: pin = IN_7_ADC_PIN;
 171:daisy_common.cpp ****         case gate_2_in_8: pin = IN_8_ADC_PIN;
ARM GAS  C:\Users\samue\AppData\Local\Temp\cci865ja.s 			page 22


 789              		.loc 1 171 31 view .LVU194
 790 0002 072A     		cmp	r2, #7
 791              	.LBE342:
 792              	.LBE341:
 124:daisy_common.cpp ****     struct jack_gpio gpio;
 793              		.loc 1 124 1 view .LVU195
 794 0004 93B0     		sub	sp, sp, #76
 795              		.cfi_def_cfa_offset 88
 796              	.LVL47:
 797              	.LBB346:
 798              	.LBI346:
 799              		.file 3 "daisy_common.h"
   1:daisy_common.h **** #include "daisy_seed.h"
   2:daisy_common.h **** #include <vector>
   3:daisy_common.h **** using namespace daisy::seed;
   4:daisy_common.h **** using namespace daisy;
   5:daisy_common.h **** 
   6:daisy_common.h **** struct cv
   7:daisy_common.h **** {
   8:daisy_common.h ****     int user_name;
   9:daisy_common.h ****     int jack;
  10:daisy_common.h ****     int adc_channel_num;
  11:daisy_common.h ****     Pin pin;
  12:daisy_common.h ****     float cv_value;
  13:daisy_common.h **** };
  14:daisy_common.h **** struct jack_gpio
 800              		.loc 3 14 8 is_stmt 1 view .LVU196
 801              	.LBB347:
 802              	.LBI347:
 803              		.file 4 "../../DaisyExamples/libDaisy//src/daisy_core.h"
   1:../../DaisyExamples/libDaisy//src/daisy_core.h **** #pragma once
   2:../../DaisyExamples/libDaisy//src/daisy_core.h **** #ifndef DSY_CORE_HW_H
   3:../../DaisyExamples/libDaisy//src/daisy_core.h **** #define DSY_CORE_HW_H /**< & */
   4:../../DaisyExamples/libDaisy//src/daisy_core.h **** #include <stdint.h>
   5:../../DaisyExamples/libDaisy//src/daisy_core.h **** #include <stdlib.h>
   6:../../DaisyExamples/libDaisy//src/daisy_core.h **** 
   7:../../DaisyExamples/libDaisy//src/daisy_core.h **** #if defined(_MSC_VER)
   8:../../DaisyExamples/libDaisy//src/daisy_core.h **** #define FORCE_INLINE __forceinline /**< & */
   9:../../DaisyExamples/libDaisy//src/daisy_core.h **** #elif defined(__clang__)
  10:../../DaisyExamples/libDaisy//src/daisy_core.h **** #define FORCE_INLINE inline __attribute__((always_inline)) /**< & */
  11:../../DaisyExamples/libDaisy//src/daisy_core.h **** #pragma clang diagnostic ignored "-Wduplicate-decl-specifier"
  12:../../DaisyExamples/libDaisy//src/daisy_core.h **** #elif defined(__GNUC__)
  13:../../DaisyExamples/libDaisy//src/daisy_core.h **** #define FORCE_INLINE inline __attribute__((always_inline)) /**< & */
  14:../../DaisyExamples/libDaisy//src/daisy_core.h **** #else
  15:../../DaisyExamples/libDaisy//src/daisy_core.h **** #error unknown compiler
  16:../../DaisyExamples/libDaisy//src/daisy_core.h **** #endif
  17:../../DaisyExamples/libDaisy//src/daisy_core.h **** 
  18:../../DaisyExamples/libDaisy//src/daisy_core.h **** /** @addtogroup utility
  19:../../DaisyExamples/libDaisy//src/daisy_core.h ****     @{
  20:../../DaisyExamples/libDaisy//src/daisy_core.h **** */
  21:../../DaisyExamples/libDaisy//src/daisy_core.h **** 
  22:../../DaisyExamples/libDaisy//src/daisy_core.h **** /** Macro for area of memory that is configured as cacheless
  23:../../DaisyExamples/libDaisy//src/daisy_core.h **** This should be used primarily for DMA buffers, and the like.
  24:../../DaisyExamples/libDaisy//src/daisy_core.h **** */
  25:../../DaisyExamples/libDaisy//src/daisy_core.h **** #define DMA_BUFFER_MEM_SECTION __attribute__((section(".sram1_bss")))
  26:../../DaisyExamples/libDaisy//src/daisy_core.h **** /** 
  27:../../DaisyExamples/libDaisy//src/daisy_core.h **** THE DTCM RAM section is also non-cached. However, is not suitable 
ARM GAS  C:\Users\samue\AppData\Local\Temp\cci865ja.s 			page 23


  28:../../DaisyExamples/libDaisy//src/daisy_core.h **** for DMA transfers. Performance is on par with internal SRAM w/ 
  29:../../DaisyExamples/libDaisy//src/daisy_core.h **** cache enabled.
  30:../../DaisyExamples/libDaisy//src/daisy_core.h **** */
  31:../../DaisyExamples/libDaisy//src/daisy_core.h **** #define DTCM_MEM_SECTION __attribute__((section(".dtcmram_bss")))
  32:../../DaisyExamples/libDaisy//src/daisy_core.h **** 
  33:../../DaisyExamples/libDaisy//src/daisy_core.h **** #define FBIPMAX 0.999985f             /**< close to 1.0f-LSB at 16 bit */
  34:../../DaisyExamples/libDaisy//src/daisy_core.h **** #define FBIPMIN (-FBIPMAX)            /**< - (1 - LSB) */
  35:../../DaisyExamples/libDaisy//src/daisy_core.h **** #define U82F_SCALE 0.0078740f         /**< 1 / 127 */
  36:../../DaisyExamples/libDaisy//src/daisy_core.h **** #define F2U8_SCALE 127.0f             /**< 128 - 1 */
  37:../../DaisyExamples/libDaisy//src/daisy_core.h **** #define S82F_SCALE 0.0078125f         /**< 1 / (2**7) */
  38:../../DaisyExamples/libDaisy//src/daisy_core.h **** #define F2S8_SCALE 127.0f             /**< (2 ** 7) - 1 */
  39:../../DaisyExamples/libDaisy//src/daisy_core.h **** #define S162F_SCALE 3.0517578125e-05f /**< 1 / (2** 15) */
  40:../../DaisyExamples/libDaisy//src/daisy_core.h **** #define F2S16_SCALE 32767.0f          /**< (2 ** 15) - 1 */
  41:../../DaisyExamples/libDaisy//src/daisy_core.h **** #define F2S24_SCALE 8388608.0f        /**< 2 ** 23 */
  42:../../DaisyExamples/libDaisy//src/daisy_core.h **** #define S242F_SCALE 1.192092896e-07f  /**< 1 / (2 ** 23) */
  43:../../DaisyExamples/libDaisy//src/daisy_core.h **** #define S24SIGN 0x800000              /**< 2 ** 23 */
  44:../../DaisyExamples/libDaisy//src/daisy_core.h **** #define S322F_SCALE 4.6566129e-10f    /**< 1 / (2** 31) */
  45:../../DaisyExamples/libDaisy//src/daisy_core.h **** #define F2S32_SCALE 2147483647.f      /**< (2 ** 31) - 1 */
  46:../../DaisyExamples/libDaisy//src/daisy_core.h **** 
  47:../../DaisyExamples/libDaisy//src/daisy_core.h **** 
  48:../../DaisyExamples/libDaisy//src/daisy_core.h **** /** shorthand macro for simplifying the reading of the left 
  49:../../DaisyExamples/libDaisy//src/daisy_core.h ****  *  channel of a non-interleaved output buffer named out */
  50:../../DaisyExamples/libDaisy//src/daisy_core.h **** #define OUT_L out[0]
  51:../../DaisyExamples/libDaisy//src/daisy_core.h **** 
  52:../../DaisyExamples/libDaisy//src/daisy_core.h **** /** shorthand macro for simplifying the reading of the right 
  53:../../DaisyExamples/libDaisy//src/daisy_core.h ****  *  channel of a non-interleaved output buffer named out */
  54:../../DaisyExamples/libDaisy//src/daisy_core.h **** #define OUT_R out[1]
  55:../../DaisyExamples/libDaisy//src/daisy_core.h **** 
  56:../../DaisyExamples/libDaisy//src/daisy_core.h **** /** shorthand macro for simplifying the reading of the left 
  57:../../DaisyExamples/libDaisy//src/daisy_core.h ****  *  channel of a non-interleaved input buffer named in */
  58:../../DaisyExamples/libDaisy//src/daisy_core.h **** #define IN_L in[0]
  59:../../DaisyExamples/libDaisy//src/daisy_core.h **** 
  60:../../DaisyExamples/libDaisy//src/daisy_core.h **** /** shorthand macro for simplifying the reading of the right 
  61:../../DaisyExamples/libDaisy//src/daisy_core.h ****  *  channel of a non-interleaved input buffer named in */
  62:../../DaisyExamples/libDaisy//src/daisy_core.h **** #define IN_R in[1]
  63:../../DaisyExamples/libDaisy//src/daisy_core.h **** 
  64:../../DaisyExamples/libDaisy//src/daisy_core.h **** /** 
  65:../../DaisyExamples/libDaisy//src/daisy_core.h ****     Computes cube.
  66:../../DaisyExamples/libDaisy//src/daisy_core.h ****     \param x Number to be cubed
  67:../../DaisyExamples/libDaisy//src/daisy_core.h ****     \return x ^ 3
  68:../../DaisyExamples/libDaisy//src/daisy_core.h **** */
  69:../../DaisyExamples/libDaisy//src/daisy_core.h **** FORCE_INLINE float cube(float x)
  70:../../DaisyExamples/libDaisy//src/daisy_core.h **** {
  71:../../DaisyExamples/libDaisy//src/daisy_core.h ****     return (x * x) * x;
  72:../../DaisyExamples/libDaisy//src/daisy_core.h **** }
  73:../../DaisyExamples/libDaisy//src/daisy_core.h **** 
  74:../../DaisyExamples/libDaisy//src/daisy_core.h **** /** 
  75:../../DaisyExamples/libDaisy//src/daisy_core.h ****     Converts unsigned 8-bit to float
  76:../../DaisyExamples/libDaisy//src/daisy_core.h ****     \param x Number to be scaled.
  77:../../DaisyExamples/libDaisy//src/daisy_core.h ****     \return Scaled number.
  78:../../DaisyExamples/libDaisy//src/daisy_core.h **** */
  79:../../DaisyExamples/libDaisy//src/daisy_core.h **** FORCE_INLINE float u82f(uint8_t x)
  80:../../DaisyExamples/libDaisy//src/daisy_core.h **** {
  81:../../DaisyExamples/libDaisy//src/daisy_core.h ****     return ((float)x - 127.f) * U82F_SCALE;
  82:../../DaisyExamples/libDaisy//src/daisy_core.h **** }
  83:../../DaisyExamples/libDaisy//src/daisy_core.h **** 
  84:../../DaisyExamples/libDaisy//src/daisy_core.h **** /**
ARM GAS  C:\Users\samue\AppData\Local\Temp\cci865ja.s 			page 24


  85:../../DaisyExamples/libDaisy//src/daisy_core.h ****     Converts float to unsigned 8-bit
  86:../../DaisyExamples/libDaisy//src/daisy_core.h **** */
  87:../../DaisyExamples/libDaisy//src/daisy_core.h **** FORCE_INLINE uint8_t f2u8(float x)
  88:../../DaisyExamples/libDaisy//src/daisy_core.h **** {
  89:../../DaisyExamples/libDaisy//src/daisy_core.h ****     x = x <= FBIPMIN ? FBIPMIN : x;
  90:../../DaisyExamples/libDaisy//src/daisy_core.h ****     x = x >= FBIPMAX ? FBIPMAX : x;
  91:../../DaisyExamples/libDaisy//src/daisy_core.h ****     return (uint8_t)((x * F2U8_SCALE) + F2U8_SCALE);
  92:../../DaisyExamples/libDaisy//src/daisy_core.h **** }
  93:../../DaisyExamples/libDaisy//src/daisy_core.h **** 
  94:../../DaisyExamples/libDaisy//src/daisy_core.h **** 
  95:../../DaisyExamples/libDaisy//src/daisy_core.h **** /** 
  96:../../DaisyExamples/libDaisy//src/daisy_core.h ****     Converts Signed 8-bit to float
  97:../../DaisyExamples/libDaisy//src/daisy_core.h ****     \param x Number to be scaled.
  98:../../DaisyExamples/libDaisy//src/daisy_core.h ****     \return Scaled number.
  99:../../DaisyExamples/libDaisy//src/daisy_core.h **** */
 100:../../DaisyExamples/libDaisy//src/daisy_core.h **** FORCE_INLINE float s82f(int8_t x)
 101:../../DaisyExamples/libDaisy//src/daisy_core.h **** {
 102:../../DaisyExamples/libDaisy//src/daisy_core.h ****     return (float)x * S82F_SCALE;
 103:../../DaisyExamples/libDaisy//src/daisy_core.h **** }
 104:../../DaisyExamples/libDaisy//src/daisy_core.h **** 
 105:../../DaisyExamples/libDaisy//src/daisy_core.h **** /**
 106:../../DaisyExamples/libDaisy//src/daisy_core.h ****     Converts float to Signed 8-bit
 107:../../DaisyExamples/libDaisy//src/daisy_core.h **** */
 108:../../DaisyExamples/libDaisy//src/daisy_core.h **** FORCE_INLINE int8_t f2s8(float x)
 109:../../DaisyExamples/libDaisy//src/daisy_core.h **** {
 110:../../DaisyExamples/libDaisy//src/daisy_core.h ****     x = x <= FBIPMIN ? FBIPMIN : x;
 111:../../DaisyExamples/libDaisy//src/daisy_core.h ****     x = x >= FBIPMAX ? FBIPMAX : x;
 112:../../DaisyExamples/libDaisy//src/daisy_core.h ****     return (int32_t)(x * F2S8_SCALE);
 113:../../DaisyExamples/libDaisy//src/daisy_core.h **** }
 114:../../DaisyExamples/libDaisy//src/daisy_core.h **** 
 115:../../DaisyExamples/libDaisy//src/daisy_core.h **** /** 
 116:../../DaisyExamples/libDaisy//src/daisy_core.h ****     Converts Signed 16-bit to float
 117:../../DaisyExamples/libDaisy//src/daisy_core.h ****     \param x Number to be scaled.
 118:../../DaisyExamples/libDaisy//src/daisy_core.h ****     \return Scaled number.
 119:../../DaisyExamples/libDaisy//src/daisy_core.h **** */
 120:../../DaisyExamples/libDaisy//src/daisy_core.h **** FORCE_INLINE float s162f(int16_t x)
 121:../../DaisyExamples/libDaisy//src/daisy_core.h **** {
 122:../../DaisyExamples/libDaisy//src/daisy_core.h ****     return (float)x * S162F_SCALE;
 123:../../DaisyExamples/libDaisy//src/daisy_core.h **** }
 124:../../DaisyExamples/libDaisy//src/daisy_core.h **** 
 125:../../DaisyExamples/libDaisy//src/daisy_core.h **** /**
 126:../../DaisyExamples/libDaisy//src/daisy_core.h ****     Converts float to Signed 16-bit
 127:../../DaisyExamples/libDaisy//src/daisy_core.h **** */
 128:../../DaisyExamples/libDaisy//src/daisy_core.h **** FORCE_INLINE int16_t f2s16(float x)
 129:../../DaisyExamples/libDaisy//src/daisy_core.h **** {
 130:../../DaisyExamples/libDaisy//src/daisy_core.h ****     x = x <= FBIPMIN ? FBIPMIN : x;
 131:../../DaisyExamples/libDaisy//src/daisy_core.h ****     x = x >= FBIPMAX ? FBIPMAX : x;
 132:../../DaisyExamples/libDaisy//src/daisy_core.h ****     return (int32_t)(x * F2S16_SCALE);
 133:../../DaisyExamples/libDaisy//src/daisy_core.h **** }
 134:../../DaisyExamples/libDaisy//src/daisy_core.h **** 
 135:../../DaisyExamples/libDaisy//src/daisy_core.h **** /**
 136:../../DaisyExamples/libDaisy//src/daisy_core.h ****     Converts Signed 24-bit to float
 137:../../DaisyExamples/libDaisy//src/daisy_core.h ****  */
 138:../../DaisyExamples/libDaisy//src/daisy_core.h **** FORCE_INLINE float s242f(int32_t x)
 139:../../DaisyExamples/libDaisy//src/daisy_core.h **** {
 140:../../DaisyExamples/libDaisy//src/daisy_core.h ****     x = (x ^ S24SIGN) - S24SIGN; //sign extend aka ((x<<8)>>8)
 141:../../DaisyExamples/libDaisy//src/daisy_core.h ****     return (float)x * S242F_SCALE;
ARM GAS  C:\Users\samue\AppData\Local\Temp\cci865ja.s 			page 25


 142:../../DaisyExamples/libDaisy//src/daisy_core.h **** }
 143:../../DaisyExamples/libDaisy//src/daisy_core.h **** /**
 144:../../DaisyExamples/libDaisy//src/daisy_core.h ****     Converts float to Signed 24-bit
 145:../../DaisyExamples/libDaisy//src/daisy_core.h ****  */
 146:../../DaisyExamples/libDaisy//src/daisy_core.h **** FORCE_INLINE int32_t f2s24(float x)
 147:../../DaisyExamples/libDaisy//src/daisy_core.h **** {
 148:../../DaisyExamples/libDaisy//src/daisy_core.h ****     x = x <= FBIPMIN ? FBIPMIN : x;
 149:../../DaisyExamples/libDaisy//src/daisy_core.h ****     x = x >= FBIPMAX ? FBIPMAX : x;
 150:../../DaisyExamples/libDaisy//src/daisy_core.h ****     return (int32_t)(x * F2S24_SCALE);
 151:../../DaisyExamples/libDaisy//src/daisy_core.h **** }
 152:../../DaisyExamples/libDaisy//src/daisy_core.h **** 
 153:../../DaisyExamples/libDaisy//src/daisy_core.h **** /**
 154:../../DaisyExamples/libDaisy//src/daisy_core.h ****     Converts Signed 32-bit to float
 155:../../DaisyExamples/libDaisy//src/daisy_core.h ****  */
 156:../../DaisyExamples/libDaisy//src/daisy_core.h **** FORCE_INLINE float s322f(int32_t x)
 157:../../DaisyExamples/libDaisy//src/daisy_core.h **** {
 158:../../DaisyExamples/libDaisy//src/daisy_core.h ****     return (float)x * S322F_SCALE;
 159:../../DaisyExamples/libDaisy//src/daisy_core.h **** }
 160:../../DaisyExamples/libDaisy//src/daisy_core.h **** /**
 161:../../DaisyExamples/libDaisy//src/daisy_core.h ****     Converts float to Signed 24-bit
 162:../../DaisyExamples/libDaisy//src/daisy_core.h ****  */
 163:../../DaisyExamples/libDaisy//src/daisy_core.h **** FORCE_INLINE int32_t f2s32(float x)
 164:../../DaisyExamples/libDaisy//src/daisy_core.h **** {
 165:../../DaisyExamples/libDaisy//src/daisy_core.h ****     x = x <= FBIPMIN ? FBIPMIN : x;
 166:../../DaisyExamples/libDaisy//src/daisy_core.h ****     x = x >= FBIPMAX ? FBIPMAX : x;
 167:../../DaisyExamples/libDaisy//src/daisy_core.h ****     return (int32_t)(x * F2S32_SCALE);
 168:../../DaisyExamples/libDaisy//src/daisy_core.h **** }
 169:../../DaisyExamples/libDaisy//src/daisy_core.h **** 
 170:../../DaisyExamples/libDaisy//src/daisy_core.h **** 
 171:../../DaisyExamples/libDaisy//src/daisy_core.h **** /** Enums and a simple struct for defining a hardware pin on the MCU
 172:../../DaisyExamples/libDaisy//src/daisy_core.h ****  *  These correlate with the stm32 datasheet, and are used to configure
 173:../../DaisyExamples/libDaisy//src/daisy_core.h ****  *  the hardware.
 174:../../DaisyExamples/libDaisy//src/daisy_core.h ****  * 
 175:../../DaisyExamples/libDaisy//src/daisy_core.h ****  *  This along with the dsy_gpio_pin class should no longer be used.
 176:../../DaisyExamples/libDaisy//src/daisy_core.h ****  *  They are available for backwards compatability. 
 177:../../DaisyExamples/libDaisy//src/daisy_core.h ****  * 
 178:../../DaisyExamples/libDaisy//src/daisy_core.h ****  *  Please use GPIOPort enum and the Pin struct instead.
 179:../../DaisyExamples/libDaisy//src/daisy_core.h ****  */
 180:../../DaisyExamples/libDaisy//src/daisy_core.h **** typedef enum
 181:../../DaisyExamples/libDaisy//src/daisy_core.h **** {
 182:../../DaisyExamples/libDaisy//src/daisy_core.h ****     DSY_GPIOA, /**< & */
 183:../../DaisyExamples/libDaisy//src/daisy_core.h ****     DSY_GPIOB, /**< & */
 184:../../DaisyExamples/libDaisy//src/daisy_core.h ****     DSY_GPIOC, /**< & */
 185:../../DaisyExamples/libDaisy//src/daisy_core.h ****     DSY_GPIOD, /**< & */
 186:../../DaisyExamples/libDaisy//src/daisy_core.h ****     DSY_GPIOE, /**< & */
 187:../../DaisyExamples/libDaisy//src/daisy_core.h ****     DSY_GPIOF, /**< & */
 188:../../DaisyExamples/libDaisy//src/daisy_core.h ****     DSY_GPIOG, /**< & */
 189:../../DaisyExamples/libDaisy//src/daisy_core.h ****     DSY_GPIOH, /**< & */
 190:../../DaisyExamples/libDaisy//src/daisy_core.h ****     DSY_GPIOI, /**< & */
 191:../../DaisyExamples/libDaisy//src/daisy_core.h ****     DSY_GPIOJ, /**< & */
 192:../../DaisyExamples/libDaisy//src/daisy_core.h ****     DSY_GPIOK, /**< & */
 193:../../DaisyExamples/libDaisy//src/daisy_core.h ****     DSY_GPIOX, /** This is a non-existant port for unsupported bits of hardware. */
 194:../../DaisyExamples/libDaisy//src/daisy_core.h ****     DSY_GPIO_LAST, /** Final enum member */
 195:../../DaisyExamples/libDaisy//src/daisy_core.h **** } dsy_gpio_port;
 196:../../DaisyExamples/libDaisy//src/daisy_core.h **** 
 197:../../DaisyExamples/libDaisy//src/daisy_core.h **** /** Hardware define pins 
 198:../../DaisyExamples/libDaisy//src/daisy_core.h ****  *  
ARM GAS  C:\Users\samue\AppData\Local\Temp\cci865ja.s 			page 26


 199:../../DaisyExamples/libDaisy//src/daisy_core.h ****  *  The dsy_gpio_pin struct should no longer be used, and is only available for
 200:../../DaisyExamples/libDaisy//src/daisy_core.h ****  *  backwards compatability.
 201:../../DaisyExamples/libDaisy//src/daisy_core.h ****  * 
 202:../../DaisyExamples/libDaisy//src/daisy_core.h ****  *  Please use Pin struct instead.
 203:../../DaisyExamples/libDaisy//src/daisy_core.h ****  */
 204:../../DaisyExamples/libDaisy//src/daisy_core.h **** typedef struct
 205:../../DaisyExamples/libDaisy//src/daisy_core.h **** {
 206:../../DaisyExamples/libDaisy//src/daisy_core.h ****     dsy_gpio_port port; /**< & */
 207:../../DaisyExamples/libDaisy//src/daisy_core.h ****     uint8_t       pin;  /**< number 0-15 */
 208:../../DaisyExamples/libDaisy//src/daisy_core.h **** } dsy_gpio_pin;
 209:../../DaisyExamples/libDaisy//src/daisy_core.h **** 
 210:../../DaisyExamples/libDaisy//src/daisy_core.h **** /** Helper for creating pins from port/pin combos easily
 211:../../DaisyExamples/libDaisy//src/daisy_core.h ****  * 
 212:../../DaisyExamples/libDaisy//src/daisy_core.h ****  *  The dsy_gpio_pin struct should no longer be used, and is only available for
 213:../../DaisyExamples/libDaisy//src/daisy_core.h ****  *  backwards compatability.
 214:../../DaisyExamples/libDaisy//src/daisy_core.h ****  * 
 215:../../DaisyExamples/libDaisy//src/daisy_core.h ****  *  Please use Pin struct instead.
 216:../../DaisyExamples/libDaisy//src/daisy_core.h **** */
 217:../../DaisyExamples/libDaisy//src/daisy_core.h **** FORCE_INLINE dsy_gpio_pin dsy_pin(dsy_gpio_port port, uint8_t pin)
 218:../../DaisyExamples/libDaisy//src/daisy_core.h **** {
 219:../../DaisyExamples/libDaisy//src/daisy_core.h ****     dsy_gpio_pin p;
 220:../../DaisyExamples/libDaisy//src/daisy_core.h ****     p.port = port;
 221:../../DaisyExamples/libDaisy//src/daisy_core.h ****     p.pin  = pin;
 222:../../DaisyExamples/libDaisy//src/daisy_core.h ****     return p;
 223:../../DaisyExamples/libDaisy//src/daisy_core.h **** }
 224:../../DaisyExamples/libDaisy//src/daisy_core.h **** 
 225:../../DaisyExamples/libDaisy//src/daisy_core.h **** /** Helper for testing sameness of two dsy_gpio_pins
 226:../../DaisyExamples/libDaisy//src/daisy_core.h ****  *  \return    1 if same, 0 if different
 227:../../DaisyExamples/libDaisy//src/daisy_core.h ****  * 
 228:../../DaisyExamples/libDaisy//src/daisy_core.h ****  *  The dsy_gpio_pin struct should no longer be used, and is only available for
 229:../../DaisyExamples/libDaisy//src/daisy_core.h ****  *  backwards compatability.
 230:../../DaisyExamples/libDaisy//src/daisy_core.h ****  * 
 231:../../DaisyExamples/libDaisy//src/daisy_core.h ****  *  Please use Pin struct instead.
 232:../../DaisyExamples/libDaisy//src/daisy_core.h ****  */
 233:../../DaisyExamples/libDaisy//src/daisy_core.h **** FORCE_INLINE uint8_t dsy_pin_cmp(dsy_gpio_pin *a, dsy_gpio_pin *b)
 234:../../DaisyExamples/libDaisy//src/daisy_core.h **** {
 235:../../DaisyExamples/libDaisy//src/daisy_core.h ****     return ((a->port == b->port) && (a->pin == b->pin));
 236:../../DaisyExamples/libDaisy//src/daisy_core.h **** }
 237:../../DaisyExamples/libDaisy//src/daisy_core.h **** 
 238:../../DaisyExamples/libDaisy//src/daisy_core.h **** #ifdef __cplusplus
 239:../../DaisyExamples/libDaisy//src/daisy_core.h **** 
 240:../../DaisyExamples/libDaisy//src/daisy_core.h **** namespace daisy
 241:../../DaisyExamples/libDaisy//src/daisy_core.h **** {
 242:../../DaisyExamples/libDaisy//src/daisy_core.h **** /** @brief GPIO Port names */
 243:../../DaisyExamples/libDaisy//src/daisy_core.h **** enum GPIOPort
 244:../../DaisyExamples/libDaisy//src/daisy_core.h **** {
 245:../../DaisyExamples/libDaisy//src/daisy_core.h ****     PORTA, /**< Port A */
 246:../../DaisyExamples/libDaisy//src/daisy_core.h ****     PORTB, /**< Port B */
 247:../../DaisyExamples/libDaisy//src/daisy_core.h ****     PORTC, /**< Port C */
 248:../../DaisyExamples/libDaisy//src/daisy_core.h ****     PORTD, /**< Port D */
 249:../../DaisyExamples/libDaisy//src/daisy_core.h ****     PORTE, /**< Port E */
 250:../../DaisyExamples/libDaisy//src/daisy_core.h ****     PORTF, /**< Port F */
 251:../../DaisyExamples/libDaisy//src/daisy_core.h ****     PORTG, /**< Port G */
 252:../../DaisyExamples/libDaisy//src/daisy_core.h ****     PORTH, /**< Port H */
 253:../../DaisyExamples/libDaisy//src/daisy_core.h ****     PORTI, /**< Port I */
 254:../../DaisyExamples/libDaisy//src/daisy_core.h ****     PORTJ, /**< Port J */
 255:../../DaisyExamples/libDaisy//src/daisy_core.h ****     PORTK, /**< Port K */
ARM GAS  C:\Users\samue\AppData\Local\Temp\cci865ja.s 			page 27


 256:../../DaisyExamples/libDaisy//src/daisy_core.h ****     PORTX, /**< Used as a dummy port to signal an invalid pin. */
 257:../../DaisyExamples/libDaisy//src/daisy_core.h **** };
 258:../../DaisyExamples/libDaisy//src/daisy_core.h **** 
 259:../../DaisyExamples/libDaisy//src/daisy_core.h **** /** @brief representation of hardware port/pin combination */
 260:../../DaisyExamples/libDaisy//src/daisy_core.h **** struct Pin
 261:../../DaisyExamples/libDaisy//src/daisy_core.h **** {
 262:../../DaisyExamples/libDaisy//src/daisy_core.h ****     GPIOPort port;
 263:../../DaisyExamples/libDaisy//src/daisy_core.h ****     uint8_t  pin;
 264:../../DaisyExamples/libDaisy//src/daisy_core.h **** 
 265:../../DaisyExamples/libDaisy//src/daisy_core.h ****     /** @brief Constructor creates a valid pin. 
 266:../../DaisyExamples/libDaisy//src/daisy_core.h ****      *  @param pt GPIOPort between PA, and PK corresponding to STM32 Port.
 267:../../DaisyExamples/libDaisy//src/daisy_core.h ****      *  @param pn pin number in range of 0-15
 268:../../DaisyExamples/libDaisy//src/daisy_core.h ****     */
 269:../../DaisyExamples/libDaisy//src/daisy_core.h ****     constexpr Pin(const GPIOPort pt, const uint8_t pn) : port(pt), pin(pn) {}
 270:../../DaisyExamples/libDaisy//src/daisy_core.h **** 
 271:../../DaisyExamples/libDaisy//src/daisy_core.h ****     /** @brief Basic Constructor creates an invalid Pin object */
 272:../../DaisyExamples/libDaisy//src/daisy_core.h ****     constexpr Pin() : port(PORTX), pin(255) {}
 804              		.loc 4 272 15 view .LVU197
 805              		.loc 4 272 15 is_stmt 0 view .LVU198
 806              	.LBE347:
 807              	.LBB348:
 808              	.LBI348:
 809              		.file 5 "../../DaisyExamples/libDaisy//src/per/gpio.h"
   1:../../DaisyExamples/libDaisy//src/per/gpio.h **** #pragma once
   2:../../DaisyExamples/libDaisy//src/per/gpio.h **** #ifndef DSY_GPIO_H
   3:../../DaisyExamples/libDaisy//src/per/gpio.h **** #define DSY_GPIO_H
   4:../../DaisyExamples/libDaisy//src/per/gpio.h **** #include "daisy_core.h"
   5:../../DaisyExamples/libDaisy//src/per/gpio.h **** 
   6:../../DaisyExamples/libDaisy//src/per/gpio.h **** #ifdef __cplusplus
   7:../../DaisyExamples/libDaisy//src/per/gpio.h **** 
   8:../../DaisyExamples/libDaisy//src/per/gpio.h **** namespace daisy
   9:../../DaisyExamples/libDaisy//src/per/gpio.h **** {
  10:../../DaisyExamples/libDaisy//src/per/gpio.h **** /** @brief General Purpose I/O control 
  11:../../DaisyExamples/libDaisy//src/per/gpio.h ****  *  @details peripheral control over a single GPIO
  12:../../DaisyExamples/libDaisy//src/per/gpio.h ****  *  @ingroup peripheral
  13:../../DaisyExamples/libDaisy//src/per/gpio.h ****  *   
  14:../../DaisyExamples/libDaisy//src/per/gpio.h ****  *  Button Input (with internal Pullup resistor)
  15:../../DaisyExamples/libDaisy//src/per/gpio.h ****  *  @include GPIO_Input.cpp 
  16:../../DaisyExamples/libDaisy//src/per/gpio.h ****  * 
  17:../../DaisyExamples/libDaisy//src/per/gpio.h ****  *  Output Example (perfect for blinking an LED)
  18:../../DaisyExamples/libDaisy//src/per/gpio.h ****  *  @include GPIO_Output.cpp
  19:../../DaisyExamples/libDaisy//src/per/gpio.h ****  * 
  20:../../DaisyExamples/libDaisy//src/per/gpio.h **** */
  21:../../DaisyExamples/libDaisy//src/per/gpio.h **** class GPIO
  22:../../DaisyExamples/libDaisy//src/per/gpio.h **** {
  23:../../DaisyExamples/libDaisy//src/per/gpio.h ****   public:
  24:../../DaisyExamples/libDaisy//src/per/gpio.h ****     /** @brief Mode of operation for the specified GPIO */
  25:../../DaisyExamples/libDaisy//src/per/gpio.h ****     enum class Mode
  26:../../DaisyExamples/libDaisy//src/per/gpio.h ****     {
  27:../../DaisyExamples/libDaisy//src/per/gpio.h ****         INPUT,     /**< Input for reading state of pin */
  28:../../DaisyExamples/libDaisy//src/per/gpio.h ****         OUTPUT,    /**< Output w/ push-pull configuration */
  29:../../DaisyExamples/libDaisy//src/per/gpio.h ****         OUTPUT_OD, /**< Output w/ open-drain configuration */
  30:../../DaisyExamples/libDaisy//src/per/gpio.h ****         ANALOG,    /**< Analog for connection to ADC or DAC peripheral */
  31:../../DaisyExamples/libDaisy//src/per/gpio.h ****     };
  32:../../DaisyExamples/libDaisy//src/per/gpio.h **** 
  33:../../DaisyExamples/libDaisy//src/per/gpio.h ****     /** @brief Configures whether an internal Pull up or Pull down resistor is used. 
  34:../../DaisyExamples/libDaisy//src/per/gpio.h ****      *  
ARM GAS  C:\Users\samue\AppData\Local\Temp\cci865ja.s 			page 28


  35:../../DaisyExamples/libDaisy//src/per/gpio.h ****      * Internal Pull up/down resistors are typically 40k ohms, and will be between
  36:../../DaisyExamples/libDaisy//src/per/gpio.h ****      * 30k and 50k
  37:../../DaisyExamples/libDaisy//src/per/gpio.h ****      * 
  38:../../DaisyExamples/libDaisy//src/per/gpio.h ****      * When the Pin is configured in Analog mode, the pull up/down resistors are
  39:../../DaisyExamples/libDaisy//src/per/gpio.h ****      * disabled by hardware. 
  40:../../DaisyExamples/libDaisy//src/per/gpio.h ****      */
  41:../../DaisyExamples/libDaisy//src/per/gpio.h ****     enum class Pull
  42:../../DaisyExamples/libDaisy//src/per/gpio.h ****     {
  43:../../DaisyExamples/libDaisy//src/per/gpio.h ****         NOPULL,   /**< No pull up resistor */
  44:../../DaisyExamples/libDaisy//src/per/gpio.h ****         PULLUP,   /**< Internal pull up enabled */
  45:../../DaisyExamples/libDaisy//src/per/gpio.h ****         PULLDOWN, /**< Internal pull down enabled*/
  46:../../DaisyExamples/libDaisy//src/per/gpio.h ****     };
  47:../../DaisyExamples/libDaisy//src/per/gpio.h **** 
  48:../../DaisyExamples/libDaisy//src/per/gpio.h ****     /** @brief Output speed controls the drive strength, and slew rate of the pin */
  49:../../DaisyExamples/libDaisy//src/per/gpio.h ****     enum class Speed
  50:../../DaisyExamples/libDaisy//src/per/gpio.h ****     {
  51:../../DaisyExamples/libDaisy//src/per/gpio.h ****         LOW,
  52:../../DaisyExamples/libDaisy//src/per/gpio.h ****         MEDIUM,
  53:../../DaisyExamples/libDaisy//src/per/gpio.h ****         HIGH,
  54:../../DaisyExamples/libDaisy//src/per/gpio.h ****         VERY_HIGH,
  55:../../DaisyExamples/libDaisy//src/per/gpio.h ****     };
  56:../../DaisyExamples/libDaisy//src/per/gpio.h **** 
  57:../../DaisyExamples/libDaisy//src/per/gpio.h ****     /** @brief Configuration for a given GPIO */
  58:../../DaisyExamples/libDaisy//src/per/gpio.h ****     struct Config
  59:../../DaisyExamples/libDaisy//src/per/gpio.h ****     {
  60:../../DaisyExamples/libDaisy//src/per/gpio.h ****         Pin   pin;
  61:../../DaisyExamples/libDaisy//src/per/gpio.h ****         Mode  mode;
  62:../../DaisyExamples/libDaisy//src/per/gpio.h ****         Pull  pull;
  63:../../DaisyExamples/libDaisy//src/per/gpio.h ****         Speed speed;
  64:../../DaisyExamples/libDaisy//src/per/gpio.h **** 
  65:../../DaisyExamples/libDaisy//src/per/gpio.h ****         /** Constructor with no arguments will prepare an invalid GPIO set as
  66:../../DaisyExamples/libDaisy//src/per/gpio.h ****          *  an input, with no pullup. 
  67:../../DaisyExamples/libDaisy//src/per/gpio.h ****          */
  68:../../DaisyExamples/libDaisy//src/per/gpio.h ****         Config()
  69:../../DaisyExamples/libDaisy//src/per/gpio.h ****         : pin(), mode(Mode::INPUT), pull(Pull::NOPULL), speed(Speed::LOW)
  70:../../DaisyExamples/libDaisy//src/per/gpio.h ****         {
  71:../../DaisyExamples/libDaisy//src/per/gpio.h ****         }
  72:../../DaisyExamples/libDaisy//src/per/gpio.h ****     };
  73:../../DaisyExamples/libDaisy//src/per/gpio.h **** 
  74:../../DaisyExamples/libDaisy//src/per/gpio.h ****     GPIO() {}
 810              		.loc 5 74 5 is_stmt 1 view .LVU199
 811              	.LBB349:
 812              	.LBB350:
 813              	.LBI350:
  68:../../DaisyExamples/libDaisy//src/per/gpio.h ****         : pin(), mode(Mode::INPUT), pull(Pull::NOPULL), speed(Speed::LOW)
 814              		.loc 5 68 9 view .LVU200
 815              	.LBB351:
 816              	.LBB352:
 817              	.LBB353:
 818              	.LBI353:
 819              		.loc 4 272 15 view .LVU201
 820              		.loc 4 272 15 is_stmt 0 view .LVU202
 821              	.LBE353:
 822              	.LBE352:
 823              	.LBE351:
 824              	.LBE350:
 825              	.LBE349:
ARM GAS  C:\Users\samue\AppData\Local\Temp\cci865ja.s 			page 29


 826              	.LBE348:
 827              	.LBE346:
 124:daisy_common.cpp ****     struct jack_gpio gpio;
 828              		.loc 1 124 1 view .LVU203
 829 0006 1D46     		mov	r5, r3
 830              	.LBB369:
 831              	.LBB366:
 832              	.LBB363:
 833              	.LBB360:
 834              	.LBB357:
 835              	.LBB354:
  69:../../DaisyExamples/libDaisy//src/per/gpio.h ****         {
 836              		.loc 5 69 73 view .LVU204
 837 0008 4FF00004 		mov	r4, #0
 838              	.LBE354:
 839              	.LBE357:
 840              	.LBE360:
 841              	.LBE363:
 842              	.LBE366:
 843              	.LBE369:
 127:daisy_common.cpp ****     gpio.direction = direction;
 844              		.loc 1 127 20 view .LVU205
 845 000c 0991     		str	r1, [sp, #36]
 130:daisy_common.cpp ****     if(direction == output)
 846              		.loc 1 130 29 view .LVU206
 847 000e 0146     		mov	r1, r0
 848              	.LVL48:
 849              	.LBB370:
 850              	.LBB343:
 851              		.loc 1 171 31 view .LVU207
 852 0010 8CBF     		ite	hi
 853 0012 FF20     		movhi	r0, #255
 854              	.LVL49:
 855              		.loc 1 171 31 view .LVU208
 856 0014 0420     		movls	r0, #4
 857              	.LBE343:
 858              	.LBE370:
 859              	.LBB371:
 860              	.LBB367:
 861              	.LBB364:
 862              	.LBB361:
 863              	.LBB358:
 864              	.LBB355:
  69:../../DaisyExamples/libDaisy//src/per/gpio.h ****         {
 865              		.loc 5 69 73 view .LVU209
 866 0016 1094     		str	r4, [sp, #64]
 867              	.LBE355:
 868              	.LBE358:
 869              	.LBE361:
 870              	.LBE364:
 871              	.LBE367:
 872              	.LBE371:
 129:daisy_common.cpp ****     gpio.gpio = getGPIO(jack);
 873              		.loc 1 129 31 view .LVU210
 874 0018 8DF83100 		strb	r0, [sp, #49]
 130:daisy_common.cpp ****     if(direction == output)
 875              		.loc 1 130 29 view .LVU211
ARM GAS  C:\Users\samue\AppData\Local\Temp\cci865ja.s 			page 30


 876 001c 02A8     		add	r0, sp, #8
 128:daisy_common.cpp ****     gpio.pin = getGPIOPin(jack);
 877              		.loc 1 128 20 view .LVU212
 878 001e CDE90A23 		strd	r2, r3, [sp, #40]
 879              	.LBB372:
 880              	.LBB344:
 881              		.loc 1 171 31 view .LVU213
 882 0022 8CBF     		ite	hi
 883 0024 0B23     		movhi	r3, #11
 884              	.LVL50:
 885              		.loc 1 171 31 view .LVU214
 886 0026 0023     		movls	r3, #0
 887              	.LVL51:
 888              		.loc 1 171 31 view .LVU215
 889              	.LBE344:
 890              	.LBE372:
 126:daisy_common.cpp ****     gpio.user_name = user_name;
 891              		.loc 1 126 5 is_stmt 1 view .LVU216
 127:daisy_common.cpp ****     gpio.direction = direction;
 892              		.loc 1 127 5 view .LVU217
 128:daisy_common.cpp ****     gpio.pin = getGPIOPin(jack);
 893              		.loc 1 128 5 view .LVU218
 129:daisy_common.cpp ****     gpio.gpio = getGPIO(jack);
 894              		.loc 1 129 5 view .LVU219
 895              	.LBB373:
 896              	.LBI341:
 159:daisy_common.cpp **** {
 897              		.loc 1 159 5 view .LVU220
 898              	.LBB345:
 161:daisy_common.cpp ****     switch(jack)
 899              		.loc 1 161 5 view .LVU221
 162:daisy_common.cpp ****     {
 900              		.loc 1 162 5 view .LVU222
 172:daisy_common.cpp ****         default: break;
 901              		.loc 1 172 9 view .LVU223
 902              		.loc 1 172 18 view .LVU224
 173:daisy_common.cpp ****     }
 174:daisy_common.cpp ****     return pin;
 903              		.loc 1 174 5 view .LVU225
 904              		.loc 1 174 5 is_stmt 0 view .LVU226
 905              	.LBE345:
 906              	.LBE373:
 130:daisy_common.cpp ****     if(direction == output)
 907              		.loc 1 130 5 is_stmt 1 view .LVU227
 129:daisy_common.cpp ****     gpio.gpio = getGPIO(jack);
 908              		.loc 1 129 31 is_stmt 0 view .LVU228
 909 0028 8DF83030 		strb	r3, [sp, #48]
 910              	.LBB374:
 911              	.LBB368:
 912              	.LBB365:
 913              		.loc 5 74 12 view .LVU229
 914 002c 4FF60B73 		movw	r3, #65291
 915              	.LBB362:
 916              	.LBB359:
 917              	.LBB356:
  69:../../DaisyExamples/libDaisy//src/per/gpio.h ****         {
 918              		.loc 5 69 73 view .LVU230
ARM GAS  C:\Users\samue\AppData\Local\Temp\cci865ja.s 			page 31


 919 0030 CDE90E44 		strd	r4, r4, [sp, #56]
 920              	.LBE356:
 921              	.LBE359:
 922              	.LBE362:
 923              		.loc 5 74 12 view .LVU231
 924 0034 0D93     		str	r3, [sp, #52]
 925              	.LBE365:
 926              	.LBE368:
 927              	.LBE374:
 130:daisy_common.cpp ****     if(direction == output)
 928              		.loc 1 130 29 view .LVU232
 929 0036 FFF7FEFF 		bl	_ZN5daisy11daisyCommon7getGPIOEi
 930              	.LVL52:
 130:daisy_common.cpp ****     if(direction == output)
 931              		.loc 1 130 29 view .LVU233
 932 003a 0DF1080C 		add	ip, sp, #8
 933 003e 0DF1340E 		add	lr, sp, #52
 131:daisy_common.cpp ****     {
 934              		.loc 1 131 5 view .LVU234
 935 0042 012D     		cmp	r5, #1
 130:daisy_common.cpp ****     if(direction == output)
 936              		.loc 1 130 29 view .LVU235
 937 0044 BCE80F00 		ldmia	ip!, {r0, r1, r2, r3}
 938 0048 AEE80F00 		stmia	lr!, {r0, r1, r2, r3}
 939 004c DCF80030 		ldr	r3, [ip]
 133:daisy_common.cpp ****     }
 940              		.loc 1 133 23 view .LVU236
 941 0050 0CBF     		ite	eq
 942 0052 2A46     		moveq	r2, r5
 137:daisy_common.cpp ****     }
 943              		.loc 1 137 23 view .LVU237
 944 0054 2246     		movne	r2, r4
 945 0056 0C99     		ldr	r1, [sp, #48]
 130:daisy_common.cpp ****     if(direction == output)
 946              		.loc 1 130 29 view .LVU238
 947 0058 CEF80030 		str	r3, [lr]
 131:daisy_common.cpp ****     {
 948              		.loc 1 131 5 is_stmt 1 view .LVU239
 133:daisy_common.cpp ****     }
 949              		.loc 1 133 9 view .LVU240
 137:daisy_common.cpp ****     }
 950              		.loc 1 137 9 view .LVU241
 137:daisy_common.cpp ****     }
 951              		.loc 1 137 23 is_stmt 0 view .LVU242
 952 005c 0DA8     		add	r0, sp, #52
 133:daisy_common.cpp ****     }
 953              		.loc 1 133 23 view .LVU243
 954 005e 2346     		mov	r3, r4
 137:daisy_common.cpp ****     }
 955              		.loc 1 137 23 view .LVU244
 956 0060 0094     		str	r4, [sp]
 957 0062 FFF7FEFF 		bl	_ZN5daisy4GPIO4InitENS_3PinENS0_4ModeENS0_4PullENS0_5SpeedE
 958              	.LVL53:
 140:daisy_common.cpp **** 
 959              		.loc 1 140 1 view .LVU245
 960 0066 13B0     		add	sp, sp, #76
 961              		.cfi_def_cfa_offset 12
ARM GAS  C:\Users\samue\AppData\Local\Temp\cci865ja.s 			page 32


 962              		@ sp needed
 963 0068 30BD     		pop	{r4, r5, pc}
 140:daisy_common.cpp **** 
 964              		.loc 1 140 1 view .LVU246
 965              		.cfi_endproc
 966              	.LFE3069:
 968 006a 00BF     		.section	.text._ZN5daisy11daisyCommon10getGPIOPinEi,"ax",%progbits
 969              		.align	1
 970              		.p2align 2,,3
 971              		.global	_ZN5daisy11daisyCommon10getGPIOPinEi
 972              		.syntax unified
 973              		.thumb
 974              		.thumb_func
 975              		.fpu fpv5-d16
 977              	_ZN5daisy11daisyCommon10getGPIOPinEi:
 978              	.LFB3229:
 979              		.cfi_startproc
 980              		@ args = 0, pretend = 0, frame = 8
 981              		@ frame_needed = 0, uses_anonymous_args = 0
 982              		@ link register save eliminated.
 983 0000 0829     		cmp	r1, #8
 984 0002 4FF00000 		mov	r0, #0
 985 0006 82B0     		sub	sp, sp, #8
 986              		.cfi_def_cfa_offset 8
 987 0008 2DBF     		iteet	cs
 988 000a 0B22     		movcs	r2, #11
 989 000c 0246     		movcc	r2, r0
 990 000e 0423     		movcc	r3, #4
 991 0010 FF23     		movcs	r3, #255
 992 0012 62F30700 		bfi	r0, r2, #0, #8
 993 0016 63F30F20 		bfi	r0, r3, #8, #8
 994 001a 02B0     		add	sp, sp, #8
 995              		.cfi_def_cfa_offset 0
 996              		@ sp needed
 997 001c 7047     		bx	lr
 998              		.cfi_endproc
 999              	.LFE3229:
 1001 001e 00BF     		.section	.text._ZN5daisy11daisyCommon12InitGPIO_MUXEv,"ax",%progbits
 1002              		.align	1
 1003              		.p2align 2,,3
 1004              		.global	_ZN5daisy11daisyCommon12InitGPIO_MUXEv
 1005              		.syntax unified
 1006              		.thumb
 1007              		.thumb_func
 1008              		.fpu fpv5-d16
 1010              	_ZN5daisy11daisyCommon12InitGPIO_MUXEv:
 1011              	.LVL54:
 1012              	.LFB3075:
 175:daisy_common.cpp **** }
 176:daisy_common.cpp **** 
 177:daisy_common.cpp **** 
 178:daisy_common.cpp **** 
 179:daisy_common.cpp **** void daisyCommon::InitGPIO_MUX()
 180:daisy_common.cpp **** {
 1013              		.loc 1 180 1 is_stmt 1 view -0
 1014              		.cfi_startproc
 1015              		@ args = 0, pretend = 0, frame = 8
ARM GAS  C:\Users\samue\AppData\Local\Temp\cci865ja.s 			page 33


 1016              		@ frame_needed = 0, uses_anonymous_args = 0
 181:daisy_common.cpp ****     OUT_1_AUDIO_EN.Init(D3, GPIO::Mode::OUTPUT);
 1017              		.loc 1 181 5 view .LVU248
 180:daisy_common.cpp ****     OUT_1_AUDIO_EN.Init(D3, GPIO::Mode::OUTPUT);
 1018              		.loc 1 180 1 is_stmt 0 view .LVU249
 1019 0000 2DE9F04F 		push	{r4, r5, r6, r7, r8, r9, r10, fp, lr}
 1020              		.cfi_def_cfa_offset 36
 1021              		.cfi_offset 4, -36
 1022              		.cfi_offset 5, -32
 1023              		.cfi_offset 6, -28
 1024              		.cfi_offset 7, -24
 1025              		.cfi_offset 8, -20
 1026              		.cfi_offset 9, -16
 1027              		.cfi_offset 10, -12
 1028              		.cfi_offset 11, -8
 1029              		.cfi_offset 14, -4
 1030              		.loc 1 181 24 view .LVU250
 1031 0004 5F49     		ldr	r1, .L112
 1032 0006 0025     		movs	r5, #0
 180:daisy_common.cpp ****     OUT_1_AUDIO_EN.Init(D3, GPIO::Mode::OUTPUT);
 1033              		.loc 1 180 1 view .LVU251
 1034 0008 0446     		mov	r4, r0
 1035              		.loc 1 181 24 view .LVU252
 1036 000a 00F14408 		add	r8, r0, #68
 182:daisy_common.cpp **** 	OUT_2_AUDIO_EN.Init(D5, GPIO::Mode::OUTPUT);
 1037              		.loc 1 182 21 view .LVU253
 1038 000e 00F15806 		add	r6, r0, #88
 183:daisy_common.cpp **** 	OUT_1_DAC_EN.Init(D2, GPIO::Mode::OUTPUT);
 1039              		.loc 1 183 19 view .LVU254
 1040 0012 00F16C07 		add	r7, r0, #108
 184:daisy_common.cpp **** 	OUT_2_DAC_EN.Init(D4, GPIO::Mode::OUTPUT);
 1041              		.loc 1 184 19 view .LVU255
 1042 0016 8030     		adds	r0, r0, #128
 1043              	.LVL55:
 181:daisy_common.cpp **** 	OUT_2_AUDIO_EN.Init(D5, GPIO::Mode::OUTPUT);
 1044              		.loc 1 181 24 view .LVU256
 1045 0018 0122     		movs	r2, #1
 1046 001a 2B46     		mov	r3, r5
 1047 001c 0968     		ldr	r1, [r1]
 185:daisy_common.cpp ****     
 186:daisy_common.cpp ****     GATE_1_EN.Init(D27, GPIO::Mode::OUTPUT);
 1048              		.loc 1 186 19 view .LVU257
 1049 001e 04F1940A 		add	r10, r4, #148
 187:daisy_common.cpp **** 	GATE_2_EN.Init(D30, GPIO::Mode::OUTPUT);
 188:daisy_common.cpp **** 	IN_4_EN.Init(D26, GPIO::Mode::OUTPUT);
 1050              		.loc 1 188 14 view .LVU258
 1051 0022 04F1BC0B 		add	fp, r4, #188
 189:daisy_common.cpp **** 	IN_8_EN.Init(D29, GPIO::Mode::OUTPUT);
 1052              		.loc 1 189 14 view .LVU259
 1053 0026 04F1D009 		add	r9, r4, #208
 180:daisy_common.cpp ****     OUT_1_AUDIO_EN.Init(D3, GPIO::Mode::OUTPUT);
 1054              		.loc 1 180 1 view .LVU260
 1055 002a 2DED028B 		vpush.64	{d8}
 1056              		.cfi_def_cfa_offset 44
 1057              		.cfi_offset 80, -44
 1058              		.cfi_offset 81, -40
 1059 002e 85B0     		sub	sp, sp, #20
ARM GAS  C:\Users\samue\AppData\Local\Temp\cci865ja.s 			page 34


 1060              		.cfi_def_cfa_offset 64
 184:daisy_common.cpp ****     
 1061              		.loc 1 184 19 view .LVU261
 1062 0030 0290     		str	r0, [sp, #8]
 181:daisy_common.cpp **** 	OUT_2_AUDIO_EN.Init(D5, GPIO::Mode::OUTPUT);
 1063              		.loc 1 181 24 view .LVU262
 1064 0032 4046     		mov	r0, r8
 1065 0034 0095     		str	r5, [sp]
 1066 0036 FFF7FEFF 		bl	_ZN5daisy4GPIO4InitENS_3PinENS0_4ModeENS0_4PullENS0_5SpeedE
 1067              	.LVL56:
 182:daisy_common.cpp **** 	OUT_1_DAC_EN.Init(D2, GPIO::Mode::OUTPUT);
 1068              		.loc 1 182 2 is_stmt 1 view .LVU263
 182:daisy_common.cpp **** 	OUT_1_DAC_EN.Init(D2, GPIO::Mode::OUTPUT);
 1069              		.loc 1 182 21 is_stmt 0 view .LVU264
 1070 003a 534A     		ldr	r2, .L112+4
 1071 003c 2B46     		mov	r3, r5
 1072 003e 3046     		mov	r0, r6
 1073 0040 1168     		ldr	r1, [r2]
 1074 0042 0122     		movs	r2, #1
 1075 0044 0095     		str	r5, [sp]
 1076 0046 FFF7FEFF 		bl	_ZN5daisy4GPIO4InitENS_3PinENS0_4ModeENS0_4PullENS0_5SpeedE
 1077              	.LVL57:
 183:daisy_common.cpp **** 	OUT_2_DAC_EN.Init(D4, GPIO::Mode::OUTPUT);
 1078              		.loc 1 183 2 is_stmt 1 view .LVU265
 183:daisy_common.cpp **** 	OUT_2_DAC_EN.Init(D4, GPIO::Mode::OUTPUT);
 1079              		.loc 1 183 19 is_stmt 0 view .LVU266
 1080 004a 504A     		ldr	r2, .L112+8
 1081 004c 2B46     		mov	r3, r5
 1082 004e 3846     		mov	r0, r7
 1083 0050 1168     		ldr	r1, [r2]
 1084 0052 0122     		movs	r2, #1
 1085 0054 0095     		str	r5, [sp]
 1086 0056 FFF7FEFF 		bl	_ZN5daisy4GPIO4InitENS_3PinENS0_4ModeENS0_4PullENS0_5SpeedE
 1087              	.LVL58:
 184:daisy_common.cpp ****     
 1088              		.loc 1 184 2 is_stmt 1 view .LVU267
 184:daisy_common.cpp ****     
 1089              		.loc 1 184 19 is_stmt 0 view .LVU268
 1090 005a 4D4A     		ldr	r2, .L112+12
 1091 005c 2B46     		mov	r3, r5
 1092 005e 0298     		ldr	r0, [sp, #8]
 1093 0060 1168     		ldr	r1, [r2]
 1094 0062 0122     		movs	r2, #1
 1095 0064 0095     		str	r5, [sp]
 1096 0066 FFF7FEFF 		bl	_ZN5daisy4GPIO4InitENS_3PinENS0_4ModeENS0_4PullENS0_5SpeedE
 1097              	.LVL59:
 186:daisy_common.cpp **** 	GATE_2_EN.Init(D30, GPIO::Mode::OUTPUT);
 1098              		.loc 1 186 5 is_stmt 1 view .LVU269
 186:daisy_common.cpp **** 	GATE_2_EN.Init(D30, GPIO::Mode::OUTPUT);
 1099              		.loc 1 186 19 is_stmt 0 view .LVU270
 1100 006a 4A4A     		ldr	r2, .L112+16
 1101 006c 2B46     		mov	r3, r5
 1102 006e 5046     		mov	r0, r10
 1103 0070 1168     		ldr	r1, [r2]
 1104 0072 0122     		movs	r2, #1
 1105 0074 0095     		str	r5, [sp]
 1106 0076 FFF7FEFF 		bl	_ZN5daisy4GPIO4InitENS_3PinENS0_4ModeENS0_4PullENS0_5SpeedE
ARM GAS  C:\Users\samue\AppData\Local\Temp\cci865ja.s 			page 35


 1107              	.LVL60:
 187:daisy_common.cpp **** 	IN_4_EN.Init(D26, GPIO::Mode::OUTPUT);
 1108              		.loc 1 187 2 is_stmt 1 view .LVU271
 187:daisy_common.cpp **** 	IN_4_EN.Init(D26, GPIO::Mode::OUTPUT);
 1109              		.loc 1 187 16 is_stmt 0 view .LVU272
 1110 007a 04F1A803 		add	r3, r4, #168
 1111 007e 464A     		ldr	r2, .L112+20
 1112 0080 1846     		mov	r0, r3
 1113 0082 08EE103A 		vmov	s16, r3	@ int
 1114 0086 1168     		ldr	r1, [r2]
 1115 0088 2B46     		mov	r3, r5
 1116 008a 0122     		movs	r2, #1
 1117 008c 0095     		str	r5, [sp]
 1118 008e FFF7FEFF 		bl	_ZN5daisy4GPIO4InitENS_3PinENS0_4ModeENS0_4PullENS0_5SpeedE
 1119              	.LVL61:
 188:daisy_common.cpp **** 	IN_8_EN.Init(D29, GPIO::Mode::OUTPUT);
 1120              		.loc 1 188 2 is_stmt 1 view .LVU273
 188:daisy_common.cpp **** 	IN_8_EN.Init(D29, GPIO::Mode::OUTPUT);
 1121              		.loc 1 188 14 is_stmt 0 view .LVU274
 1122 0092 424A     		ldr	r2, .L112+24
 1123 0094 2B46     		mov	r3, r5
 1124 0096 5846     		mov	r0, fp
 1125 0098 1168     		ldr	r1, [r2]
 1126 009a 0122     		movs	r2, #1
 1127 009c 0095     		str	r5, [sp]
 1128 009e FFF7FEFF 		bl	_ZN5daisy4GPIO4InitENS_3PinENS0_4ModeENS0_4PullENS0_5SpeedE
 1129              	.LVL62:
 1130              		.loc 1 189 2 is_stmt 1 view .LVU275
 1131              		.loc 1 189 14 is_stmt 0 view .LVU276
 1132 00a2 3F4A     		ldr	r2, .L112+28
 1133 00a4 2B46     		mov	r3, r5
 1134 00a6 4846     		mov	r0, r9
 1135 00a8 1168     		ldr	r1, [r2]
 1136 00aa 0122     		movs	r2, #1
 1137 00ac 0095     		str	r5, [sp]
 1138 00ae FFF7FEFF 		bl	_ZN5daisy4GPIO4InitENS_3PinENS0_4ModeENS0_4PullENS0_5SpeedE
 1139              	.LVL63:
 190:daisy_common.cpp **** 
 191:daisy_common.cpp ****     if(jack_config.out_1 == audio_enable)
 1140              		.loc 1 191 5 is_stmt 1 view .LVU277
 1141              		.loc 1 191 20 is_stmt 0 view .LVU278
 1142 00b2 A269     		ldr	r2, [r4, #24]
 1143              		.loc 1 191 5 view .LVU279
 1144 00b4 B2B1     		cbz	r2, .L104
 192:daisy_common.cpp ****     {
 193:daisy_common.cpp ****         OUT_1_AUDIO_EN.Write(true);
 194:daisy_common.cpp ****         OUT_1_DAC_EN.Write(false);
 195:daisy_common.cpp ****     } 
 196:daisy_common.cpp ****     else if(jack_config.out_1 == dac_enable)
 1145              		.loc 1 196 10 is_stmt 1 view .LVU280
 1146 00b6 012A     		cmp	r2, #1
 1147 00b8 56D0     		beq	.L105
 197:daisy_common.cpp ****     {
 198:daisy_common.cpp ****         OUT_1_AUDIO_EN.Write(false);
 199:daisy_common.cpp ****         OUT_1_DAC_EN.Write(true);
 200:daisy_common.cpp ****     }
 201:daisy_common.cpp **** 
ARM GAS  C:\Users\samue\AppData\Local\Temp\cci865ja.s 			page 36


 202:daisy_common.cpp ****     if(jack_config.out_2 == audio_enable)
 1148              		.loc 1 202 5 view .LVU281
 1149              		.loc 1 202 20 is_stmt 0 view .LVU282
 1150 00ba E769     		ldr	r7, [r4, #28]
 1151              		.loc 1 202 5 view .LVU283
 1152 00bc FFB1     		cbz	r7, .L106
 1153              	.L95:
 203:daisy_common.cpp ****     {
 204:daisy_common.cpp ****         OUT_2_AUDIO_EN.Write(true);
 205:daisy_common.cpp ****         OUT_2_DAC_EN.Write(false);
 206:daisy_common.cpp ****     } 
 207:daisy_common.cpp ****     else if(jack_config.out_2 == dac_enable)
 1154              		.loc 1 207 10 is_stmt 1 view .LVU284
 1155 00be 012F     		cmp	r7, #1
 1156 00c0 56D0     		beq	.L107
 1157              	.L96:
 208:daisy_common.cpp ****     {
 209:daisy_common.cpp ****         OUT_2_AUDIO_EN.Write(false);
 210:daisy_common.cpp ****         OUT_2_DAC_EN.Write(true);
 211:daisy_common.cpp ****     }
 212:daisy_common.cpp **** 
 213:daisy_common.cpp ****     if((jack_config.gate_1_in_4 == adc_enable) || (jack_config.gate_1_in_4 == gpio_enable))
 1158              		.loc 1 213 5 view .LVU285
 1159              		.loc 1 213 21 is_stmt 0 view .LVU286
 1160 00c2 236A     		ldr	r3, [r4, #32]
 1161              		.loc 1 213 48 view .LVU287
 1162 00c4 DA1E     		subs	r2, r3, #3
 1163              		.loc 1 213 5 view .LVU288
 1164 00c6 012A     		cmp	r2, #1
 1165 00c8 25D9     		bls	.L108
 1166              	.L97:
 214:daisy_common.cpp ****     {
 215:daisy_common.cpp ****         IN_4_EN.Write(true);
 216:daisy_common.cpp ****         GATE_1_EN.Write(false);
 217:daisy_common.cpp ****     }
 218:daisy_common.cpp ****     else if(jack_config.gate_1_in_4 == gate_enable)
 1167              		.loc 1 218 10 is_stmt 1 view .LVU289
 1168 00ca 022B     		cmp	r3, #2
 1169 00cc 3DD0     		beq	.L109
 1170              	.L98:
 219:daisy_common.cpp ****     {
 220:daisy_common.cpp ****         IN_4_EN.Write(false);
 221:daisy_common.cpp ****         GATE_1_EN.Write(true);       
 222:daisy_common.cpp ****     }
 223:daisy_common.cpp **** 
 224:daisy_common.cpp ****     if((jack_config.gate_2_in_8 == adc_enable) || (jack_config.gate_2_in_8 == gpio_enable))
 1171              		.loc 1 224 5 view .LVU290
 1172              		.loc 1 224 21 is_stmt 0 view .LVU291
 1173 00ce 636A     		ldr	r3, [r4, #36]
 1174              		.loc 1 224 48 view .LVU292
 1175 00d0 DA1E     		subs	r2, r3, #3
 1176              		.loc 1 224 5 view .LVU293
 1177 00d2 012A     		cmp	r2, #1
 1178 00d4 2BD9     		bls	.L110
 1179              	.L99:
 225:daisy_common.cpp ****     {
 226:daisy_common.cpp ****         IN_8_EN.Write(true);
ARM GAS  C:\Users\samue\AppData\Local\Temp\cci865ja.s 			page 37


 227:daisy_common.cpp ****         GATE_2_EN.Write(false);
 228:daisy_common.cpp ****     }
 229:daisy_common.cpp ****     else if(jack_config.gate_2_in_8 == gate_enable)
 1180              		.loc 1 229 10 is_stmt 1 view .LVU294
 1181 00d6 022B     		cmp	r3, #2
 1182 00d8 40D0     		beq	.L111
 230:daisy_common.cpp ****     {
 231:daisy_common.cpp ****         IN_8_EN.Write(false);
 232:daisy_common.cpp ****         GATE_2_EN.Write(true);       
 233:daisy_common.cpp ****     }
 234:daisy_common.cpp **** }
 1183              		.loc 1 234 1 is_stmt 0 view .LVU295
 1184 00da 05B0     		add	sp, sp, #20
 1185              		.cfi_remember_state
 1186              		.cfi_def_cfa_offset 44
 1187              		@ sp needed
 1188 00dc BDEC028B 		vldm	sp!, {d8}
 1189              		.cfi_restore 80
 1190              		.cfi_restore 81
 1191              		.cfi_def_cfa_offset 36
 1192 00e0 BDE8F08F 		pop	{r4, r5, r6, r7, r8, r9, r10, fp, pc}
 1193              	.LVL64:
 1194              	.L104:
 1195              		.cfi_restore_state
 193:daisy_common.cpp ****         OUT_1_DAC_EN.Write(false);
 1196              		.loc 1 193 29 view .LVU296
 1197 00e4 4046     		mov	r0, r8
 1198 00e6 0121     		movs	r1, #1
 1199 00e8 0392     		str	r2, [sp, #12]
 193:daisy_common.cpp ****         OUT_1_DAC_EN.Write(false);
 1200              		.loc 1 193 9 is_stmt 1 view .LVU297
 1201              	.L102:
 198:daisy_common.cpp ****         OUT_1_DAC_EN.Write(true);
 1202              		.loc 1 198 29 is_stmt 0 view .LVU298
 1203 00ea FFF7FEFF 		bl	_ZN5daisy4GPIO5WriteEb
 1204              	.LVL65:
 199:daisy_common.cpp ****     }
 1205              		.loc 1 199 9 is_stmt 1 view .LVU299
 199:daisy_common.cpp ****     }
 1206              		.loc 1 199 27 is_stmt 0 view .LVU300
 1207 00ee 039A     		ldr	r2, [sp, #12]
 1208 00f0 3846     		mov	r0, r7
 1209 00f2 1146     		mov	r1, r2
 1210 00f4 FFF7FEFF 		bl	_ZN5daisy4GPIO5WriteEb
 1211              	.LVL66:
 202:daisy_common.cpp ****     {
 1212              		.loc 1 202 5 is_stmt 1 view .LVU301
 202:daisy_common.cpp ****     {
 1213              		.loc 1 202 20 is_stmt 0 view .LVU302
 1214 00f8 E769     		ldr	r7, [r4, #28]
 202:daisy_common.cpp ****     {
 1215              		.loc 1 202 5 view .LVU303
 1216 00fa 002F     		cmp	r7, #0
 1217 00fc DFD1     		bne	.L95
 1218              	.L106:
 204:daisy_common.cpp ****         OUT_2_DAC_EN.Write(false);
 1219              		.loc 1 204 9 is_stmt 1 view .LVU304
ARM GAS  C:\Users\samue\AppData\Local\Temp\cci865ja.s 			page 38


 204:daisy_common.cpp ****         OUT_2_DAC_EN.Write(false);
 1220              		.loc 1 204 29 is_stmt 0 view .LVU305
 1221 00fe 3046     		mov	r0, r6
 1222 0100 0121     		movs	r1, #1
 1223 0102 FFF7FEFF 		bl	_ZN5daisy4GPIO5WriteEb
 1224              	.LVL67:
 205:daisy_common.cpp ****     } 
 1225              		.loc 1 205 9 is_stmt 1 view .LVU306
 205:daisy_common.cpp ****     } 
 1226              		.loc 1 205 27 is_stmt 0 view .LVU307
 1227 0106 3946     		mov	r1, r7
 1228 0108 0298     		ldr	r0, [sp, #8]
 1229 010a FFF7FEFF 		bl	_ZN5daisy4GPIO5WriteEb
 1230              	.LVL68:
 213:daisy_common.cpp ****     {
 1231              		.loc 1 213 5 is_stmt 1 view .LVU308
 213:daisy_common.cpp ****     {
 1232              		.loc 1 213 21 is_stmt 0 view .LVU309
 1233 010e 236A     		ldr	r3, [r4, #32]
 213:daisy_common.cpp ****     {
 1234              		.loc 1 213 48 view .LVU310
 1235 0110 DA1E     		subs	r2, r3, #3
 213:daisy_common.cpp ****     {
 1236              		.loc 1 213 5 view .LVU311
 1237 0112 012A     		cmp	r2, #1
 1238 0114 D9D8     		bhi	.L97
 1239              	.L108:
 215:daisy_common.cpp ****         GATE_1_EN.Write(false);
 1240              		.loc 1 215 9 is_stmt 1 view .LVU312
 215:daisy_common.cpp ****         GATE_1_EN.Write(false);
 1241              		.loc 1 215 22 is_stmt 0 view .LVU313
 1242 0116 5846     		mov	r0, fp
 1243 0118 0121     		movs	r1, #1
 1244 011a FFF7FEFF 		bl	_ZN5daisy4GPIO5WriteEb
 1245              	.LVL69:
 216:daisy_common.cpp ****     }
 1246              		.loc 1 216 9 is_stmt 1 view .LVU314
 216:daisy_common.cpp ****     }
 1247              		.loc 1 216 24 is_stmt 0 view .LVU315
 1248 011e 0021     		movs	r1, #0
 1249 0120 5046     		mov	r0, r10
 1250 0122 FFF7FEFF 		bl	_ZN5daisy4GPIO5WriteEb
 1251              	.LVL70:
 224:daisy_common.cpp ****     {
 1252              		.loc 1 224 5 is_stmt 1 view .LVU316
 224:daisy_common.cpp ****     {
 1253              		.loc 1 224 21 is_stmt 0 view .LVU317
 1254 0126 636A     		ldr	r3, [r4, #36]
 224:daisy_common.cpp ****     {
 1255              		.loc 1 224 48 view .LVU318
 1256 0128 DA1E     		subs	r2, r3, #3
 224:daisy_common.cpp ****     {
 1257              		.loc 1 224 5 view .LVU319
 1258 012a 012A     		cmp	r2, #1
 1259 012c D3D8     		bhi	.L99
 1260              	.L110:
 226:daisy_common.cpp ****         GATE_2_EN.Write(false);
ARM GAS  C:\Users\samue\AppData\Local\Temp\cci865ja.s 			page 39


 1261              		.loc 1 226 9 is_stmt 1 view .LVU320
 226:daisy_common.cpp ****         GATE_2_EN.Write(false);
 1262              		.loc 1 226 22 is_stmt 0 view .LVU321
 1263 012e 0121     		movs	r1, #1
 1264 0130 4846     		mov	r0, r9
 1265 0132 FFF7FEFF 		bl	_ZN5daisy4GPIO5WriteEb
 1266              	.LVL71:
 227:daisy_common.cpp ****     }
 1267              		.loc 1 227 9 is_stmt 1 view .LVU322
 227:daisy_common.cpp ****     }
 1268              		.loc 1 227 24 is_stmt 0 view .LVU323
 1269 0136 0021     		movs	r1, #0
 1270              	.L103:
 232:daisy_common.cpp ****     }
 1271              		.loc 1 232 24 view .LVU324
 1272 0138 18EE100A 		vmov	r0, s16	@ int
 1273              		.loc 1 234 1 view .LVU325
 1274 013c 05B0     		add	sp, sp, #20
 1275              		.cfi_remember_state
 1276              		.cfi_def_cfa_offset 44
 1277              		@ sp needed
 1278 013e BDEC028B 		vldm	sp!, {d8}
 1279              		.cfi_restore 80
 1280              		.cfi_restore 81
 1281              		.cfi_def_cfa_offset 36
 1282 0142 BDE8F04F 		pop	{r4, r5, r6, r7, r8, r9, r10, fp, lr}
 1283              		.cfi_restore 14
 1284              		.cfi_restore 11
 1285              		.cfi_restore 10
 1286              		.cfi_restore 9
 1287              		.cfi_restore 8
 1288              		.cfi_restore 7
 1289              		.cfi_restore 6
 1290              		.cfi_restore 5
 1291              		.cfi_restore 4
 1292              		.cfi_def_cfa_offset 0
 1293              	.LVL72:
 232:daisy_common.cpp ****     }
 1294              		.loc 1 232 24 view .LVU326
 1295 0146 FFF7FEBF 		b	_ZN5daisy4GPIO5WriteEb
 1296              	.LVL73:
 1297              	.L109:
 1298              		.cfi_restore_state
 220:daisy_common.cpp ****         GATE_1_EN.Write(true);       
 1299              		.loc 1 220 9 is_stmt 1 view .LVU327
 220:daisy_common.cpp ****         GATE_1_EN.Write(true);       
 1300              		.loc 1 220 22 is_stmt 0 view .LVU328
 1301 014a 5846     		mov	r0, fp
 1302 014c 0021     		movs	r1, #0
 1303 014e FFF7FEFF 		bl	_ZN5daisy4GPIO5WriteEb
 1304              	.LVL74:
 221:daisy_common.cpp ****     }
 1305              		.loc 1 221 9 is_stmt 1 view .LVU329
 221:daisy_common.cpp ****     }
 1306              		.loc 1 221 24 is_stmt 0 view .LVU330
 1307 0152 0121     		movs	r1, #1
 1308 0154 5046     		mov	r0, r10
ARM GAS  C:\Users\samue\AppData\Local\Temp\cci865ja.s 			page 40


 1309 0156 FFF7FEFF 		bl	_ZN5daisy4GPIO5WriteEb
 1310              	.LVL75:
 1311 015a B8E7     		b	.L98
 1312              	.L111:
 231:daisy_common.cpp ****         GATE_2_EN.Write(true);       
 1313              		.loc 1 231 9 is_stmt 1 view .LVU331
 231:daisy_common.cpp ****         GATE_2_EN.Write(true);       
 1314              		.loc 1 231 22 is_stmt 0 view .LVU332
 1315 015c 0021     		movs	r1, #0
 1316 015e 4846     		mov	r0, r9
 1317 0160 FFF7FEFF 		bl	_ZN5daisy4GPIO5WriteEb
 1318              	.LVL76:
 232:daisy_common.cpp ****     }
 1319              		.loc 1 232 9 is_stmt 1 view .LVU333
 232:daisy_common.cpp ****     }
 1320              		.loc 1 232 24 is_stmt 0 view .LVU334
 1321 0164 0121     		movs	r1, #1
 1322 0166 E7E7     		b	.L103
 1323              	.L105:
 198:daisy_common.cpp ****         OUT_1_DAC_EN.Write(true);
 1324              		.loc 1 198 29 view .LVU335
 1325 0168 2946     		mov	r1, r5
 1326 016a 4046     		mov	r0, r8
 1327 016c 0392     		str	r2, [sp, #12]
 198:daisy_common.cpp ****         OUT_1_DAC_EN.Write(true);
 1328              		.loc 1 198 9 is_stmt 1 view .LVU336
 1329 016e BCE7     		b	.L102
 1330              	.L107:
 209:daisy_common.cpp ****         OUT_2_DAC_EN.Write(true);
 1331              		.loc 1 209 9 view .LVU337
 209:daisy_common.cpp ****         OUT_2_DAC_EN.Write(true);
 1332              		.loc 1 209 29 is_stmt 0 view .LVU338
 1333 0170 3046     		mov	r0, r6
 1334 0172 0021     		movs	r1, #0
 1335 0174 FFF7FEFF 		bl	_ZN5daisy4GPIO5WriteEb
 1336              	.LVL77:
 210:daisy_common.cpp ****     }
 1337              		.loc 1 210 9 is_stmt 1 view .LVU339
 210:daisy_common.cpp ****     }
 1338              		.loc 1 210 27 is_stmt 0 view .LVU340
 1339 0178 3946     		mov	r1, r7
 1340 017a 0298     		ldr	r0, [sp, #8]
 1341 017c FFF7FEFF 		bl	_ZN5daisy4GPIO5WriteEb
 1342              	.LVL78:
 1343 0180 9FE7     		b	.L96
 1344              	.L113:
 1345 0182 00BF     		.align	2
 1346              	.L112:
 1347 0184 00000000 		.word	.LANCHOR0
 1348 0188 00000000 		.word	.LANCHOR1
 1349 018c 00000000 		.word	.LANCHOR2
 1350 0190 00000000 		.word	.LANCHOR3
 1351 0194 00000000 		.word	.LANCHOR4
 1352 0198 00000000 		.word	.LANCHOR5
 1353 019c 00000000 		.word	.LANCHOR6
 1354 01a0 00000000 		.word	.LANCHOR7
 1355              		.cfi_endproc
ARM GAS  C:\Users\samue\AppData\Local\Temp\cci865ja.s 			page 41


 1356              	.LFE3075:
 1358              		.section	.text._ZN5daisy11daisyCommon10InitToggleEv,"ax",%progbits
 1359              		.align	1
 1360              		.p2align 2,,3
 1361              		.global	_ZN5daisy11daisyCommon10InitToggleEv
 1362              		.syntax unified
 1363              		.thumb
 1364              		.thumb_func
 1365              		.fpu fpv5-d16
 1367              	_ZN5daisy11daisyCommon10InitToggleEv:
 1368              	.LVL79:
 1369              	.LFB3076:
 235:daisy_common.cpp **** 
 236:daisy_common.cpp **** void daisyCommon::InitToggle()
 237:daisy_common.cpp **** {
 1370              		.loc 1 237 1 is_stmt 1 view -0
 1371              		.cfi_startproc
 1372              		@ args = 0, pretend = 0, frame = 0
 1373              		@ frame_needed = 0, uses_anonymous_args = 0
 238:daisy_common.cpp ****     toggle_left.Init(TOGGLE_LEFT_PIN_1, TOGGLE_LEFT_PIN_2);
 1374              		.loc 1 238 5 view .LVU342
 237:daisy_common.cpp ****     toggle_left.Init(TOGGLE_LEFT_PIN_1, TOGGLE_LEFT_PIN_2);
 1375              		.loc 1 237 1 is_stmt 0 view .LVU343
 1376 0000 F8B5     		push	{r3, r4, r5, r6, r7, lr}
 1377              		.cfi_def_cfa_offset 24
 1378              		.cfi_offset 3, -24
 1379              		.cfi_offset 4, -20
 1380              		.cfi_offset 5, -16
 1381              		.cfi_offset 6, -12
 1382              		.cfi_offset 7, -8
 1383              		.cfi_offset 14, -4
 237:daisy_common.cpp ****     toggle_left.Init(TOGGLE_LEFT_PIN_1, TOGGLE_LEFT_PIN_2);
 1384              		.loc 1 237 1 view .LVU344
 1385 0002 0446     		mov	r4, r0
 1386              	.LVL80:
 1387              	.LBB379:
 1388              	.LBI379:
 1389              		.file 6 "../../DaisyExamples/libDaisy//src/hid/switch3.h"
   1:../../DaisyExamples/libDaisy//src/hid/switch3.h **** #pragma once
   2:../../DaisyExamples/libDaisy//src/hid/switch3.h **** #include "daisy_core.h"
   3:../../DaisyExamples/libDaisy//src/hid/switch3.h **** #include "per/gpio.h"
   4:../../DaisyExamples/libDaisy//src/hid/switch3.h **** 
   5:../../DaisyExamples/libDaisy//src/hid/switch3.h **** namespace daisy
   6:../../DaisyExamples/libDaisy//src/hid/switch3.h **** {
   7:../../DaisyExamples/libDaisy//src/hid/switch3.h **** class Switch3
   8:../../DaisyExamples/libDaisy//src/hid/switch3.h **** {
   9:../../DaisyExamples/libDaisy//src/hid/switch3.h ****   public:
  10:../../DaisyExamples/libDaisy//src/hid/switch3.h ****     enum
  11:../../DaisyExamples/libDaisy//src/hid/switch3.h ****     {
  12:../../DaisyExamples/libDaisy//src/hid/switch3.h ****         POS_CENTER = 0,
  13:../../DaisyExamples/libDaisy//src/hid/switch3.h ****         POS_LEFT   = 1,
  14:../../DaisyExamples/libDaisy//src/hid/switch3.h ****         POS_UP     = 1,
  15:../../DaisyExamples/libDaisy//src/hid/switch3.h ****         POS_RIGHT  = 2,
  16:../../DaisyExamples/libDaisy//src/hid/switch3.h ****         POS_DOWN   = 2,
  17:../../DaisyExamples/libDaisy//src/hid/switch3.h ****     };
  18:../../DaisyExamples/libDaisy//src/hid/switch3.h **** 
  19:../../DaisyExamples/libDaisy//src/hid/switch3.h **** 
ARM GAS  C:\Users\samue\AppData\Local\Temp\cci865ja.s 			page 42


  20:../../DaisyExamples/libDaisy//src/hid/switch3.h ****     Switch3() {}
  21:../../DaisyExamples/libDaisy//src/hid/switch3.h ****     ~Switch3() {}
  22:../../DaisyExamples/libDaisy//src/hid/switch3.h **** 
  23:../../DaisyExamples/libDaisy//src/hid/switch3.h ****     void Init(dsy_gpio_pin pina, dsy_gpio_pin pinb)
 1390              		.loc 6 23 10 is_stmt 1 view .LVU345
 1391              	.LBB380:
  24:../../DaisyExamples/libDaisy//src/hid/switch3.h ****     {
  25:../../DaisyExamples/libDaisy//src/hid/switch3.h ****         pina_gpio_.pin  = pina;
 1392              		.loc 6 25 9 view .LVU346
 1393              		.loc 6 25 25 is_stmt 0 view .LVU347
 1394 0004 0125     		movs	r5, #1
  26:../../DaisyExamples/libDaisy//src/hid/switch3.h ****         pina_gpio_.mode = DSY_GPIO_MODE_INPUT;
 1395              		.loc 6 26 25 view .LVU348
 1396 0006 0026     		movs	r6, #0
  25:../../DaisyExamples/libDaisy//src/hid/switch3.h ****         pina_gpio_.mode = DSY_GPIO_MODE_INPUT;
 1397              		.loc 6 25 25 view .LVU349
 1398 0008 0423     		movs	r3, #4
  27:../../DaisyExamples/libDaisy//src/hid/switch3.h ****         pina_gpio_.pull = DSY_GPIO_PULLUP;
  28:../../DaisyExamples/libDaisy//src/hid/switch3.h ****         dsy_gpio_init(&pina_gpio_);
 1399              		.loc 6 28 22 view .LVU350
 1400 000a 00F5C270 		add	r0, r0, #388
 1401              	.LVL81:
  25:../../DaisyExamples/libDaisy//src/hid/switch3.h ****         pina_gpio_.mode = DSY_GPIO_MODE_INPUT;
 1402              		.loc 6 25 25 view .LVU351
 1403 000e 84F88451 		strb	r5, [r4, #388]
 1404 0012 84F88531 		strb	r3, [r4, #389]
  26:../../DaisyExamples/libDaisy//src/hid/switch3.h ****         pina_gpio_.pull = DSY_GPIO_PULLUP;
 1405              		.loc 6 26 9 is_stmt 1 view .LVU352
  29:../../DaisyExamples/libDaisy//src/hid/switch3.h **** 
  30:../../DaisyExamples/libDaisy//src/hid/switch3.h ****         pinb_gpio_.pin  = pinb;
 1406              		.loc 6 30 25 is_stmt 0 view .LVU353
 1407 0016 0627     		movs	r7, #6
  26:../../DaisyExamples/libDaisy//src/hid/switch3.h ****         pina_gpio_.pull = DSY_GPIO_PULLUP;
 1408              		.loc 6 26 25 view .LVU354
 1409 0018 84F88661 		strb	r6, [r4, #390]
  27:../../DaisyExamples/libDaisy//src/hid/switch3.h ****         dsy_gpio_init(&pina_gpio_);
 1410              		.loc 6 27 9 is_stmt 1 view .LVU355
  27:../../DaisyExamples/libDaisy//src/hid/switch3.h ****         dsy_gpio_init(&pina_gpio_);
 1411              		.loc 6 27 25 is_stmt 0 view .LVU356
 1412 001c 84F88751 		strb	r5, [r4, #391]
  28:../../DaisyExamples/libDaisy//src/hid/switch3.h **** 
 1413              		.loc 6 28 9 is_stmt 1 view .LVU357
  28:../../DaisyExamples/libDaisy//src/hid/switch3.h **** 
 1414              		.loc 6 28 22 is_stmt 0 view .LVU358
 1415 0020 FFF7FEFF 		bl	dsy_gpio_init
 1416              	.LVL82:
 1417              		.loc 6 30 9 is_stmt 1 view .LVU359
 1418              		.loc 6 30 25 is_stmt 0 view .LVU360
 1419 0024 0B23     		movs	r3, #11
  31:../../DaisyExamples/libDaisy//src/hid/switch3.h ****         pinb_gpio_.mode = DSY_GPIO_MODE_INPUT;
  32:../../DaisyExamples/libDaisy//src/hid/switch3.h ****         pinb_gpio_.pull = DSY_GPIO_PULLUP;
  33:../../DaisyExamples/libDaisy//src/hid/switch3.h ****         dsy_gpio_init(&pinb_gpio_);
 1420              		.loc 6 33 22 view .LVU361
 1421 0026 04F5C470 		add	r0, r4, #392
  30:../../DaisyExamples/libDaisy//src/hid/switch3.h ****         pinb_gpio_.mode = DSY_GPIO_MODE_INPUT;
 1422              		.loc 6 30 25 view .LVU362
 1423 002a 84F88871 		strb	r7, [r4, #392]
ARM GAS  C:\Users\samue\AppData\Local\Temp\cci865ja.s 			page 43


 1424 002e 84F88931 		strb	r3, [r4, #393]
  31:../../DaisyExamples/libDaisy//src/hid/switch3.h ****         pinb_gpio_.mode = DSY_GPIO_MODE_INPUT;
 1425              		.loc 6 31 9 is_stmt 1 view .LVU363
  32:../../DaisyExamples/libDaisy//src/hid/switch3.h ****         dsy_gpio_init(&pinb_gpio_);
 1426              		.loc 6 32 9 view .LVU364
  31:../../DaisyExamples/libDaisy//src/hid/switch3.h ****         pinb_gpio_.mode = DSY_GPIO_MODE_INPUT;
 1427              		.loc 6 31 25 is_stmt 0 view .LVU365
 1428 0032 84F88A61 		strb	r6, [r4, #394]
  32:../../DaisyExamples/libDaisy//src/hid/switch3.h ****         dsy_gpio_init(&pinb_gpio_);
 1429              		.loc 6 32 25 view .LVU366
 1430 0036 84F88B51 		strb	r5, [r4, #395]
 1431              		.loc 6 33 9 is_stmt 1 view .LVU367
 1432              		.loc 6 33 22 is_stmt 0 view .LVU368
 1433 003a FFF7FEFF 		bl	dsy_gpio_init
 1434              	.LVL83:
 1435              		.loc 6 33 22 view .LVU369
 1436              	.LBE380:
 1437              	.LBE379:
 239:daisy_common.cpp **** 	toggle_right.Init(TOGGLE_RIGHT_PIN_1, TOGGLE_RIGHT_PIN_2);
 1438              		.loc 1 239 2 is_stmt 1 view .LVU370
 1439              	.LBB381:
 1440              	.LBI381:
  23:../../DaisyExamples/libDaisy//src/hid/switch3.h ****     {
 1441              		.loc 6 23 10 view .LVU371
 1442              	.LBB382:
  25:../../DaisyExamples/libDaisy//src/hid/switch3.h ****         pina_gpio_.mode = DSY_GPIO_MODE_INPUT;
 1443              		.loc 6 25 9 view .LVU372
  25:../../DaisyExamples/libDaisy//src/hid/switch3.h ****         pina_gpio_.mode = DSY_GPIO_MODE_INPUT;
 1444              		.loc 6 25 25 is_stmt 0 view .LVU373
 1445 003e 0723     		movs	r3, #7
  28:../../DaisyExamples/libDaisy//src/hid/switch3.h **** 
 1446              		.loc 6 28 22 view .LVU374
 1447 0040 04F5C670 		add	r0, r4, #396
 1448              	.LVL84:
  25:../../DaisyExamples/libDaisy//src/hid/switch3.h ****         pina_gpio_.mode = DSY_GPIO_MODE_INPUT;
 1449              		.loc 6 25 25 view .LVU375
 1450 0044 84F88C51 		strb	r5, [r4, #396]
  26:../../DaisyExamples/libDaisy//src/hid/switch3.h ****         pina_gpio_.pull = DSY_GPIO_PULLUP;
 1451              		.loc 6 26 25 view .LVU376
 1452 0048 84F88E61 		strb	r6, [r4, #398]
  25:../../DaisyExamples/libDaisy//src/hid/switch3.h ****         pina_gpio_.mode = DSY_GPIO_MODE_INPUT;
 1453              		.loc 6 25 25 view .LVU377
 1454 004c 84F88D31 		strb	r3, [r4, #397]
  26:../../DaisyExamples/libDaisy//src/hid/switch3.h ****         pina_gpio_.pull = DSY_GPIO_PULLUP;
 1455              		.loc 6 26 9 is_stmt 1 view .LVU378
  27:../../DaisyExamples/libDaisy//src/hid/switch3.h ****         dsy_gpio_init(&pina_gpio_);
 1456              		.loc 6 27 9 view .LVU379
  27:../../DaisyExamples/libDaisy//src/hid/switch3.h ****         dsy_gpio_init(&pina_gpio_);
 1457              		.loc 6 27 25 is_stmt 0 view .LVU380
 1458 0050 84F88F51 		strb	r5, [r4, #399]
  28:../../DaisyExamples/libDaisy//src/hid/switch3.h **** 
 1459              		.loc 6 28 9 is_stmt 1 view .LVU381
  28:../../DaisyExamples/libDaisy//src/hid/switch3.h **** 
 1460              		.loc 6 28 22 is_stmt 0 view .LVU382
 1461 0054 FFF7FEFF 		bl	dsy_gpio_init
 1462              	.LVL85:
  30:../../DaisyExamples/libDaisy//src/hid/switch3.h ****         pinb_gpio_.mode = DSY_GPIO_MODE_INPUT;
ARM GAS  C:\Users\samue\AppData\Local\Temp\cci865ja.s 			page 44


 1463              		.loc 6 30 9 is_stmt 1 view .LVU383
 1464              		.loc 6 33 22 is_stmt 0 view .LVU384
 1465 0058 04F5C870 		add	r0, r4, #400
  30:../../DaisyExamples/libDaisy//src/hid/switch3.h ****         pinb_gpio_.mode = DSY_GPIO_MODE_INPUT;
 1466              		.loc 6 30 25 view .LVU385
 1467 005c 84F89051 		strb	r5, [r4, #400]
 1468 0060 84F89171 		strb	r7, [r4, #401]
  31:../../DaisyExamples/libDaisy//src/hid/switch3.h ****         pinb_gpio_.pull = DSY_GPIO_PULLUP;
 1469              		.loc 6 31 9 is_stmt 1 view .LVU386
  31:../../DaisyExamples/libDaisy//src/hid/switch3.h ****         pinb_gpio_.pull = DSY_GPIO_PULLUP;
 1470              		.loc 6 31 25 is_stmt 0 view .LVU387
 1471 0064 84F89261 		strb	r6, [r4, #402]
  32:../../DaisyExamples/libDaisy//src/hid/switch3.h ****         dsy_gpio_init(&pinb_gpio_);
 1472              		.loc 6 32 9 is_stmt 1 view .LVU388
  32:../../DaisyExamples/libDaisy//src/hid/switch3.h ****         dsy_gpio_init(&pinb_gpio_);
 1473              		.loc 6 32 25 is_stmt 0 view .LVU389
 1474 0068 84F89351 		strb	r5, [r4, #403]
 1475              		.loc 6 33 9 is_stmt 1 view .LVU390
 1476              	.LBE382:
 1477              	.LBE381:
 240:daisy_common.cpp **** }
 1478              		.loc 1 240 1 is_stmt 0 view .LVU391
 1479 006c BDE8F840 		pop	{r3, r4, r5, r6, r7, lr}
 1480              		.cfi_restore 14
 1481              		.cfi_restore 7
 1482              		.cfi_restore 6
 1483              		.cfi_restore 5
 1484              		.cfi_restore 4
 1485              		.cfi_restore 3
 1486              		.cfi_def_cfa_offset 0
 1487              	.LVL86:
 1488              	.LBB384:
 1489              	.LBB383:
 1490              		.loc 6 33 22 view .LVU392
 1491 0070 FFF7FEBF 		b	dsy_gpio_init
 1492              	.LVL87:
 1493              		.loc 6 33 22 view .LVU393
 1494              	.LBE383:
 1495              	.LBE384:
 1496              		.cfi_endproc
 1497              	.LFE3076:
 1499              		.section	.text._ZN5daisy11daisyCommon10InitButtonEv,"ax",%progbits
 1500              		.align	1
 1501              		.p2align 2,,3
 1502              		.global	_ZN5daisy11daisyCommon10InitButtonEv
 1503              		.syntax unified
 1504              		.thumb
 1505              		.thumb_func
 1506              		.fpu fpv5-d16
 1508              	_ZN5daisy11daisyCommon10InitButtonEv:
 1509              	.LVL88:
 1510              	.LFB3077:
 241:daisy_common.cpp **** 
 242:daisy_common.cpp **** void daisyCommon::InitButton()
 243:daisy_common.cpp **** {
 1511              		.loc 1 243 1 is_stmt 1 view -0
 1512              		.cfi_startproc
ARM GAS  C:\Users\samue\AppData\Local\Temp\cci865ja.s 			page 45


 1513              		@ args = 0, pretend = 0, frame = 8
 1514              		@ frame_needed = 0, uses_anonymous_args = 0
 1515              		@ link register save eliminated.
 244:daisy_common.cpp ****     button.Init(D10);
 1516              		.loc 1 244 5 view .LVU395
 243:daisy_common.cpp ****     button.Init(D10);
 1517              		.loc 1 243 1 is_stmt 0 view .LVU396
 1518 0000 82B0     		sub	sp, sp, #8
 1519              		.cfi_def_cfa_offset 8
 1520              		.loc 1 244 16 view .LVU397
 1521 0002 0122     		movs	r2, #1
 1522 0004 0523     		movs	r3, #5
 1523 0006 9FED060A 		vldr.32	s0, .L118
 1524 000a 8DF80420 		strb	r2, [sp, #4]
 1525 000e 00F5CA70 		add	r0, r0, #404
 1526              	.LVL89:
 1527              		.loc 1 244 16 view .LVU398
 1528 0012 8DF80530 		strb	r3, [sp, #5]
 1529 0016 0199     		ldr	r1, [sp, #4]
 245:daisy_common.cpp **** }
 1530              		.loc 1 245 1 view .LVU399
 1531 0018 02B0     		add	sp, sp, #8
 1532              		.cfi_def_cfa_offset 0
 1533              		@ sp needed
 244:daisy_common.cpp ****     button.Init(D10);
 1534              		.loc 1 244 16 view .LVU400
 1535 001a FFF7FEBF 		b	_ZN5daisy6Switch4InitE12dsy_gpio_pinf
 1536              	.LVL90:
 1537              	.L119:
 244:daisy_common.cpp ****     button.Init(D10);
 1538              		.loc 1 244 16 view .LVU401
 1539 001e 00BF     		.align	2
 1540              	.L118:
 1541 0020 00000000 		.word	0
 1542              		.cfi_endproc
 1543              	.LFE3077:
 1545              		.section	.text._ZN5daisy11daisyCommon7InitADCEv,"ax",%progbits
 1546              		.align	1
 1547              		.p2align 2,,3
 1548              		.global	_ZN5daisy11daisyCommon7InitADCEv
 1549              		.syntax unified
 1550              		.thumb
 1551              		.thumb_func
 1552              		.fpu fpv5-d16
 1554              	_ZN5daisy11daisyCommon7InitADCEv:
 1555              	.LVL91:
 1556              	.LFB3078:
 246:daisy_common.cpp **** 
 247:daisy_common.cpp **** void daisyCommon::InitADC()
 248:daisy_common.cpp **** {
 1557              		.loc 1 248 1 is_stmt 1 view -0
 1558              		.cfi_startproc
 1559              		@ args = 0, pretend = 0, frame = 48
 1560              		@ frame_needed = 1, uses_anonymous_args = 0
 249:daisy_common.cpp ****     AdcChannelConfig adc_config[cvs.size()+2];
 1561              		.loc 1 249 5 view .LVU403
 1562              	.LBB385:
ARM GAS  C:\Users\samue\AppData\Local\Temp\cci865ja.s 			page 46


 1563              	.LBI385:
 1564              		.file 7 "c:\\program files\\daisytoolchain\\arm-none-eabi\\include\\c++\\10.2.1\\bits\\stl_vector.
   1:c:\program files\daisytoolchain\arm-none-eabi\include\c++\10.2.1\bits\stl_vector.h **** // Vector implementation -*- C++ -*-
   2:c:\program files\daisytoolchain\arm-none-eabi\include\c++\10.2.1\bits\stl_vector.h **** 
   3:c:\program files\daisytoolchain\arm-none-eabi\include\c++\10.2.1\bits\stl_vector.h **** // Copyright (C) 2001-2020 Free Software Foundation, Inc.
   4:c:\program files\daisytoolchain\arm-none-eabi\include\c++\10.2.1\bits\stl_vector.h **** //
   5:c:\program files\daisytoolchain\arm-none-eabi\include\c++\10.2.1\bits\stl_vector.h **** // This file is part of the GNU ISO C++ Library.  This library is free
   6:c:\program files\daisytoolchain\arm-none-eabi\include\c++\10.2.1\bits\stl_vector.h **** // software; you can redistribute it and/or modify it under the
   7:c:\program files\daisytoolchain\arm-none-eabi\include\c++\10.2.1\bits\stl_vector.h **** // terms of the GNU General Public License as published by the
   8:c:\program files\daisytoolchain\arm-none-eabi\include\c++\10.2.1\bits\stl_vector.h **** // Free Software Foundation; either version 3, or (at your option)
   9:c:\program files\daisytoolchain\arm-none-eabi\include\c++\10.2.1\bits\stl_vector.h **** // any later version.
  10:c:\program files\daisytoolchain\arm-none-eabi\include\c++\10.2.1\bits\stl_vector.h **** 
  11:c:\program files\daisytoolchain\arm-none-eabi\include\c++\10.2.1\bits\stl_vector.h **** // This library is distributed in the hope that it will be useful,
  12:c:\program files\daisytoolchain\arm-none-eabi\include\c++\10.2.1\bits\stl_vector.h **** // but WITHOUT ANY WARRANTY; without even the implied warranty of
  13:c:\program files\daisytoolchain\arm-none-eabi\include\c++\10.2.1\bits\stl_vector.h **** // MERCHANTABILITY or FITNESS FOR A PARTICULAR PURPOSE.  See the
  14:c:\program files\daisytoolchain\arm-none-eabi\include\c++\10.2.1\bits\stl_vector.h **** // GNU General Public License for more details.
  15:c:\program files\daisytoolchain\arm-none-eabi\include\c++\10.2.1\bits\stl_vector.h **** 
  16:c:\program files\daisytoolchain\arm-none-eabi\include\c++\10.2.1\bits\stl_vector.h **** // Under Section 7 of GPL version 3, you are granted additional
  17:c:\program files\daisytoolchain\arm-none-eabi\include\c++\10.2.1\bits\stl_vector.h **** // permissions described in the GCC Runtime Library Exception, version
  18:c:\program files\daisytoolchain\arm-none-eabi\include\c++\10.2.1\bits\stl_vector.h **** // 3.1, as published by the Free Software Foundation.
  19:c:\program files\daisytoolchain\arm-none-eabi\include\c++\10.2.1\bits\stl_vector.h **** 
  20:c:\program files\daisytoolchain\arm-none-eabi\include\c++\10.2.1\bits\stl_vector.h **** // You should have received a copy of the GNU General Public License and
  21:c:\program files\daisytoolchain\arm-none-eabi\include\c++\10.2.1\bits\stl_vector.h **** // a copy of the GCC Runtime Library Exception along with this program;
  22:c:\program files\daisytoolchain\arm-none-eabi\include\c++\10.2.1\bits\stl_vector.h **** // see the files COPYING3 and COPYING.RUNTIME respectively.  If not, see
  23:c:\program files\daisytoolchain\arm-none-eabi\include\c++\10.2.1\bits\stl_vector.h **** // <http://www.gnu.org/licenses/>.
  24:c:\program files\daisytoolchain\arm-none-eabi\include\c++\10.2.1\bits\stl_vector.h **** 
  25:c:\program files\daisytoolchain\arm-none-eabi\include\c++\10.2.1\bits\stl_vector.h **** /*
  26:c:\program files\daisytoolchain\arm-none-eabi\include\c++\10.2.1\bits\stl_vector.h ****  *
  27:c:\program files\daisytoolchain\arm-none-eabi\include\c++\10.2.1\bits\stl_vector.h ****  * Copyright (c) 1994
  28:c:\program files\daisytoolchain\arm-none-eabi\include\c++\10.2.1\bits\stl_vector.h ****  * Hewlett-Packard Company
  29:c:\program files\daisytoolchain\arm-none-eabi\include\c++\10.2.1\bits\stl_vector.h ****  *
  30:c:\program files\daisytoolchain\arm-none-eabi\include\c++\10.2.1\bits\stl_vector.h ****  * Permission to use, copy, modify, distribute and sell this software
  31:c:\program files\daisytoolchain\arm-none-eabi\include\c++\10.2.1\bits\stl_vector.h ****  * and its documentation for any purpose is hereby granted without fee,
  32:c:\program files\daisytoolchain\arm-none-eabi\include\c++\10.2.1\bits\stl_vector.h ****  * provided that the above copyright notice appear in all copies and
  33:c:\program files\daisytoolchain\arm-none-eabi\include\c++\10.2.1\bits\stl_vector.h ****  * that both that copyright notice and this permission notice appear
  34:c:\program files\daisytoolchain\arm-none-eabi\include\c++\10.2.1\bits\stl_vector.h ****  * in supporting documentation.  Hewlett-Packard Company makes no
  35:c:\program files\daisytoolchain\arm-none-eabi\include\c++\10.2.1\bits\stl_vector.h ****  * representations about the suitability of this software for any
  36:c:\program files\daisytoolchain\arm-none-eabi\include\c++\10.2.1\bits\stl_vector.h ****  * purpose.  It is provided "as is" without express or implied warranty.
  37:c:\program files\daisytoolchain\arm-none-eabi\include\c++\10.2.1\bits\stl_vector.h ****  *
  38:c:\program files\daisytoolchain\arm-none-eabi\include\c++\10.2.1\bits\stl_vector.h ****  *
  39:c:\program files\daisytoolchain\arm-none-eabi\include\c++\10.2.1\bits\stl_vector.h ****  * Copyright (c) 1996
  40:c:\program files\daisytoolchain\arm-none-eabi\include\c++\10.2.1\bits\stl_vector.h ****  * Silicon Graphics Computer Systems, Inc.
  41:c:\program files\daisytoolchain\arm-none-eabi\include\c++\10.2.1\bits\stl_vector.h ****  *
  42:c:\program files\daisytoolchain\arm-none-eabi\include\c++\10.2.1\bits\stl_vector.h ****  * Permission to use, copy, modify, distribute and sell this software
  43:c:\program files\daisytoolchain\arm-none-eabi\include\c++\10.2.1\bits\stl_vector.h ****  * and its documentation for any purpose is hereby granted without fee,
  44:c:\program files\daisytoolchain\arm-none-eabi\include\c++\10.2.1\bits\stl_vector.h ****  * provided that the above copyright notice appear in all copies and
  45:c:\program files\daisytoolchain\arm-none-eabi\include\c++\10.2.1\bits\stl_vector.h ****  * that both that copyright notice and this permission notice appear
  46:c:\program files\daisytoolchain\arm-none-eabi\include\c++\10.2.1\bits\stl_vector.h ****  * in supporting documentation.  Silicon Graphics makes no
  47:c:\program files\daisytoolchain\arm-none-eabi\include\c++\10.2.1\bits\stl_vector.h ****  * representations about the suitability of this  software for any
  48:c:\program files\daisytoolchain\arm-none-eabi\include\c++\10.2.1\bits\stl_vector.h ****  * purpose.  It is provided "as is" without express or implied warranty.
  49:c:\program files\daisytoolchain\arm-none-eabi\include\c++\10.2.1\bits\stl_vector.h ****  */
  50:c:\program files\daisytoolchain\arm-none-eabi\include\c++\10.2.1\bits\stl_vector.h **** 
  51:c:\program files\daisytoolchain\arm-none-eabi\include\c++\10.2.1\bits\stl_vector.h **** /** @file bits/stl_vector.h
  52:c:\program files\daisytoolchain\arm-none-eabi\include\c++\10.2.1\bits\stl_vector.h ****  *  This is an internal header file, included by other library headers.
  53:c:\program files\daisytoolchain\arm-none-eabi\include\c++\10.2.1\bits\stl_vector.h ****  *  Do not attempt to use it directly. @headername{vector}
  54:c:\program files\daisytoolchain\arm-none-eabi\include\c++\10.2.1\bits\stl_vector.h ****  */
  55:c:\program files\daisytoolchain\arm-none-eabi\include\c++\10.2.1\bits\stl_vector.h **** 
ARM GAS  C:\Users\samue\AppData\Local\Temp\cci865ja.s 			page 47


  56:c:\program files\daisytoolchain\arm-none-eabi\include\c++\10.2.1\bits\stl_vector.h **** #ifndef _STL_VECTOR_H
  57:c:\program files\daisytoolchain\arm-none-eabi\include\c++\10.2.1\bits\stl_vector.h **** #define _STL_VECTOR_H 1
  58:c:\program files\daisytoolchain\arm-none-eabi\include\c++\10.2.1\bits\stl_vector.h **** 
  59:c:\program files\daisytoolchain\arm-none-eabi\include\c++\10.2.1\bits\stl_vector.h **** #include <bits/stl_iterator_base_funcs.h>
  60:c:\program files\daisytoolchain\arm-none-eabi\include\c++\10.2.1\bits\stl_vector.h **** #include <bits/functexcept.h>
  61:c:\program files\daisytoolchain\arm-none-eabi\include\c++\10.2.1\bits\stl_vector.h **** #include <bits/concept_check.h>
  62:c:\program files\daisytoolchain\arm-none-eabi\include\c++\10.2.1\bits\stl_vector.h **** #if __cplusplus >= 201103L
  63:c:\program files\daisytoolchain\arm-none-eabi\include\c++\10.2.1\bits\stl_vector.h **** #include <initializer_list>
  64:c:\program files\daisytoolchain\arm-none-eabi\include\c++\10.2.1\bits\stl_vector.h **** #endif
  65:c:\program files\daisytoolchain\arm-none-eabi\include\c++\10.2.1\bits\stl_vector.h **** #if __cplusplus > 201703L
  66:c:\program files\daisytoolchain\arm-none-eabi\include\c++\10.2.1\bits\stl_vector.h **** # include <compare>
  67:c:\program files\daisytoolchain\arm-none-eabi\include\c++\10.2.1\bits\stl_vector.h **** #endif
  68:c:\program files\daisytoolchain\arm-none-eabi\include\c++\10.2.1\bits\stl_vector.h **** 
  69:c:\program files\daisytoolchain\arm-none-eabi\include\c++\10.2.1\bits\stl_vector.h **** #include <debug/assertions.h>
  70:c:\program files\daisytoolchain\arm-none-eabi\include\c++\10.2.1\bits\stl_vector.h **** 
  71:c:\program files\daisytoolchain\arm-none-eabi\include\c++\10.2.1\bits\stl_vector.h **** #if _GLIBCXX_SANITIZE_STD_ALLOCATOR && _GLIBCXX_SANITIZE_VECTOR
  72:c:\program files\daisytoolchain\arm-none-eabi\include\c++\10.2.1\bits\stl_vector.h **** extern "C" void
  73:c:\program files\daisytoolchain\arm-none-eabi\include\c++\10.2.1\bits\stl_vector.h **** __sanitizer_annotate_contiguous_container(const void*, const void*,
  74:c:\program files\daisytoolchain\arm-none-eabi\include\c++\10.2.1\bits\stl_vector.h **** 					  const void*, const void*);
  75:c:\program files\daisytoolchain\arm-none-eabi\include\c++\10.2.1\bits\stl_vector.h **** #endif
  76:c:\program files\daisytoolchain\arm-none-eabi\include\c++\10.2.1\bits\stl_vector.h **** 
  77:c:\program files\daisytoolchain\arm-none-eabi\include\c++\10.2.1\bits\stl_vector.h **** namespace std _GLIBCXX_VISIBILITY(default)
  78:c:\program files\daisytoolchain\arm-none-eabi\include\c++\10.2.1\bits\stl_vector.h **** {
  79:c:\program files\daisytoolchain\arm-none-eabi\include\c++\10.2.1\bits\stl_vector.h **** _GLIBCXX_BEGIN_NAMESPACE_VERSION
  80:c:\program files\daisytoolchain\arm-none-eabi\include\c++\10.2.1\bits\stl_vector.h **** _GLIBCXX_BEGIN_NAMESPACE_CONTAINER
  81:c:\program files\daisytoolchain\arm-none-eabi\include\c++\10.2.1\bits\stl_vector.h **** 
  82:c:\program files\daisytoolchain\arm-none-eabi\include\c++\10.2.1\bits\stl_vector.h ****   /// See bits/stl_deque.h's _Deque_base for an explanation.
  83:c:\program files\daisytoolchain\arm-none-eabi\include\c++\10.2.1\bits\stl_vector.h ****   template<typename _Tp, typename _Alloc>
  84:c:\program files\daisytoolchain\arm-none-eabi\include\c++\10.2.1\bits\stl_vector.h ****     struct _Vector_base
  85:c:\program files\daisytoolchain\arm-none-eabi\include\c++\10.2.1\bits\stl_vector.h ****     {
  86:c:\program files\daisytoolchain\arm-none-eabi\include\c++\10.2.1\bits\stl_vector.h ****       typedef typename __gnu_cxx::__alloc_traits<_Alloc>::template
  87:c:\program files\daisytoolchain\arm-none-eabi\include\c++\10.2.1\bits\stl_vector.h **** 	rebind<_Tp>::other _Tp_alloc_type;
  88:c:\program files\daisytoolchain\arm-none-eabi\include\c++\10.2.1\bits\stl_vector.h ****       typedef typename __gnu_cxx::__alloc_traits<_Tp_alloc_type>::pointer
  89:c:\program files\daisytoolchain\arm-none-eabi\include\c++\10.2.1\bits\stl_vector.h ****        	pointer;
  90:c:\program files\daisytoolchain\arm-none-eabi\include\c++\10.2.1\bits\stl_vector.h **** 
  91:c:\program files\daisytoolchain\arm-none-eabi\include\c++\10.2.1\bits\stl_vector.h ****       struct _Vector_impl_data
  92:c:\program files\daisytoolchain\arm-none-eabi\include\c++\10.2.1\bits\stl_vector.h ****       {
  93:c:\program files\daisytoolchain\arm-none-eabi\include\c++\10.2.1\bits\stl_vector.h **** 	pointer _M_start;
  94:c:\program files\daisytoolchain\arm-none-eabi\include\c++\10.2.1\bits\stl_vector.h **** 	pointer _M_finish;
  95:c:\program files\daisytoolchain\arm-none-eabi\include\c++\10.2.1\bits\stl_vector.h **** 	pointer _M_end_of_storage;
  96:c:\program files\daisytoolchain\arm-none-eabi\include\c++\10.2.1\bits\stl_vector.h **** 
  97:c:\program files\daisytoolchain\arm-none-eabi\include\c++\10.2.1\bits\stl_vector.h **** 	_Vector_impl_data() _GLIBCXX_NOEXCEPT
  98:c:\program files\daisytoolchain\arm-none-eabi\include\c++\10.2.1\bits\stl_vector.h **** 	: _M_start(), _M_finish(), _M_end_of_storage()
  99:c:\program files\daisytoolchain\arm-none-eabi\include\c++\10.2.1\bits\stl_vector.h **** 	{ }
 100:c:\program files\daisytoolchain\arm-none-eabi\include\c++\10.2.1\bits\stl_vector.h **** 
 101:c:\program files\daisytoolchain\arm-none-eabi\include\c++\10.2.1\bits\stl_vector.h **** #if __cplusplus >= 201103L
 102:c:\program files\daisytoolchain\arm-none-eabi\include\c++\10.2.1\bits\stl_vector.h **** 	_Vector_impl_data(_Vector_impl_data&& __x) noexcept
 103:c:\program files\daisytoolchain\arm-none-eabi\include\c++\10.2.1\bits\stl_vector.h **** 	: _M_start(__x._M_start), _M_finish(__x._M_finish),
 104:c:\program files\daisytoolchain\arm-none-eabi\include\c++\10.2.1\bits\stl_vector.h **** 	  _M_end_of_storage(__x._M_end_of_storage)
 105:c:\program files\daisytoolchain\arm-none-eabi\include\c++\10.2.1\bits\stl_vector.h **** 	{ __x._M_start = __x._M_finish = __x._M_end_of_storage = pointer(); }
 106:c:\program files\daisytoolchain\arm-none-eabi\include\c++\10.2.1\bits\stl_vector.h **** #endif
 107:c:\program files\daisytoolchain\arm-none-eabi\include\c++\10.2.1\bits\stl_vector.h **** 
 108:c:\program files\daisytoolchain\arm-none-eabi\include\c++\10.2.1\bits\stl_vector.h **** 	void
 109:c:\program files\daisytoolchain\arm-none-eabi\include\c++\10.2.1\bits\stl_vector.h **** 	_M_copy_data(_Vector_impl_data const& __x) _GLIBCXX_NOEXCEPT
 110:c:\program files\daisytoolchain\arm-none-eabi\include\c++\10.2.1\bits\stl_vector.h **** 	{
 111:c:\program files\daisytoolchain\arm-none-eabi\include\c++\10.2.1\bits\stl_vector.h **** 	  _M_start = __x._M_start;
 112:c:\program files\daisytoolchain\arm-none-eabi\include\c++\10.2.1\bits\stl_vector.h **** 	  _M_finish = __x._M_finish;
ARM GAS  C:\Users\samue\AppData\Local\Temp\cci865ja.s 			page 48


 113:c:\program files\daisytoolchain\arm-none-eabi\include\c++\10.2.1\bits\stl_vector.h **** 	  _M_end_of_storage = __x._M_end_of_storage;
 114:c:\program files\daisytoolchain\arm-none-eabi\include\c++\10.2.1\bits\stl_vector.h **** 	}
 115:c:\program files\daisytoolchain\arm-none-eabi\include\c++\10.2.1\bits\stl_vector.h **** 
 116:c:\program files\daisytoolchain\arm-none-eabi\include\c++\10.2.1\bits\stl_vector.h **** 	void
 117:c:\program files\daisytoolchain\arm-none-eabi\include\c++\10.2.1\bits\stl_vector.h **** 	_M_swap_data(_Vector_impl_data& __x) _GLIBCXX_NOEXCEPT
 118:c:\program files\daisytoolchain\arm-none-eabi\include\c++\10.2.1\bits\stl_vector.h **** 	{
 119:c:\program files\daisytoolchain\arm-none-eabi\include\c++\10.2.1\bits\stl_vector.h **** 	  // Do not use std::swap(_M_start, __x._M_start), etc as it loses
 120:c:\program files\daisytoolchain\arm-none-eabi\include\c++\10.2.1\bits\stl_vector.h **** 	  // information used by TBAA.
 121:c:\program files\daisytoolchain\arm-none-eabi\include\c++\10.2.1\bits\stl_vector.h **** 	  _Vector_impl_data __tmp;
 122:c:\program files\daisytoolchain\arm-none-eabi\include\c++\10.2.1\bits\stl_vector.h **** 	  __tmp._M_copy_data(*this);
 123:c:\program files\daisytoolchain\arm-none-eabi\include\c++\10.2.1\bits\stl_vector.h **** 	  _M_copy_data(__x);
 124:c:\program files\daisytoolchain\arm-none-eabi\include\c++\10.2.1\bits\stl_vector.h **** 	  __x._M_copy_data(__tmp);
 125:c:\program files\daisytoolchain\arm-none-eabi\include\c++\10.2.1\bits\stl_vector.h **** 	}
 126:c:\program files\daisytoolchain\arm-none-eabi\include\c++\10.2.1\bits\stl_vector.h ****       };
 127:c:\program files\daisytoolchain\arm-none-eabi\include\c++\10.2.1\bits\stl_vector.h **** 
 128:c:\program files\daisytoolchain\arm-none-eabi\include\c++\10.2.1\bits\stl_vector.h ****       struct _Vector_impl
 129:c:\program files\daisytoolchain\arm-none-eabi\include\c++\10.2.1\bits\stl_vector.h **** 	: public _Tp_alloc_type, public _Vector_impl_data
 130:c:\program files\daisytoolchain\arm-none-eabi\include\c++\10.2.1\bits\stl_vector.h ****       {
 131:c:\program files\daisytoolchain\arm-none-eabi\include\c++\10.2.1\bits\stl_vector.h **** 	_Vector_impl() _GLIBCXX_NOEXCEPT_IF(
 132:c:\program files\daisytoolchain\arm-none-eabi\include\c++\10.2.1\bits\stl_vector.h **** 	    is_nothrow_default_constructible<_Tp_alloc_type>::value)
 133:c:\program files\daisytoolchain\arm-none-eabi\include\c++\10.2.1\bits\stl_vector.h **** 	: _Tp_alloc_type()
 134:c:\program files\daisytoolchain\arm-none-eabi\include\c++\10.2.1\bits\stl_vector.h **** 	{ }
 135:c:\program files\daisytoolchain\arm-none-eabi\include\c++\10.2.1\bits\stl_vector.h **** 
 136:c:\program files\daisytoolchain\arm-none-eabi\include\c++\10.2.1\bits\stl_vector.h **** 	_Vector_impl(_Tp_alloc_type const& __a) _GLIBCXX_NOEXCEPT
 137:c:\program files\daisytoolchain\arm-none-eabi\include\c++\10.2.1\bits\stl_vector.h **** 	: _Tp_alloc_type(__a)
 138:c:\program files\daisytoolchain\arm-none-eabi\include\c++\10.2.1\bits\stl_vector.h **** 	{ }
 139:c:\program files\daisytoolchain\arm-none-eabi\include\c++\10.2.1\bits\stl_vector.h **** 
 140:c:\program files\daisytoolchain\arm-none-eabi\include\c++\10.2.1\bits\stl_vector.h **** #if __cplusplus >= 201103L
 141:c:\program files\daisytoolchain\arm-none-eabi\include\c++\10.2.1\bits\stl_vector.h **** 	// Not defaulted, to enforce noexcept(true) even when
 142:c:\program files\daisytoolchain\arm-none-eabi\include\c++\10.2.1\bits\stl_vector.h **** 	// !is_nothrow_move_constructible<_Tp_alloc_type>.
 143:c:\program files\daisytoolchain\arm-none-eabi\include\c++\10.2.1\bits\stl_vector.h **** 	_Vector_impl(_Vector_impl&& __x) noexcept
 144:c:\program files\daisytoolchain\arm-none-eabi\include\c++\10.2.1\bits\stl_vector.h **** 	: _Tp_alloc_type(std::move(__x)), _Vector_impl_data(std::move(__x))
 145:c:\program files\daisytoolchain\arm-none-eabi\include\c++\10.2.1\bits\stl_vector.h **** 	{ }
 146:c:\program files\daisytoolchain\arm-none-eabi\include\c++\10.2.1\bits\stl_vector.h **** 
 147:c:\program files\daisytoolchain\arm-none-eabi\include\c++\10.2.1\bits\stl_vector.h **** 	_Vector_impl(_Tp_alloc_type&& __a) noexcept
 148:c:\program files\daisytoolchain\arm-none-eabi\include\c++\10.2.1\bits\stl_vector.h **** 	: _Tp_alloc_type(std::move(__a))
 149:c:\program files\daisytoolchain\arm-none-eabi\include\c++\10.2.1\bits\stl_vector.h **** 	{ }
 150:c:\program files\daisytoolchain\arm-none-eabi\include\c++\10.2.1\bits\stl_vector.h **** 
 151:c:\program files\daisytoolchain\arm-none-eabi\include\c++\10.2.1\bits\stl_vector.h **** 	_Vector_impl(_Tp_alloc_type&& __a, _Vector_impl&& __rv) noexcept
 152:c:\program files\daisytoolchain\arm-none-eabi\include\c++\10.2.1\bits\stl_vector.h **** 	: _Tp_alloc_type(std::move(__a)), _Vector_impl_data(std::move(__rv))
 153:c:\program files\daisytoolchain\arm-none-eabi\include\c++\10.2.1\bits\stl_vector.h **** 	{ }
 154:c:\program files\daisytoolchain\arm-none-eabi\include\c++\10.2.1\bits\stl_vector.h **** #endif
 155:c:\program files\daisytoolchain\arm-none-eabi\include\c++\10.2.1\bits\stl_vector.h **** 
 156:c:\program files\daisytoolchain\arm-none-eabi\include\c++\10.2.1\bits\stl_vector.h **** #if _GLIBCXX_SANITIZE_STD_ALLOCATOR && _GLIBCXX_SANITIZE_VECTOR
 157:c:\program files\daisytoolchain\arm-none-eabi\include\c++\10.2.1\bits\stl_vector.h **** 	template<typename = _Tp_alloc_type>
 158:c:\program files\daisytoolchain\arm-none-eabi\include\c++\10.2.1\bits\stl_vector.h **** 	  struct _Asan
 159:c:\program files\daisytoolchain\arm-none-eabi\include\c++\10.2.1\bits\stl_vector.h **** 	  {
 160:c:\program files\daisytoolchain\arm-none-eabi\include\c++\10.2.1\bits\stl_vector.h **** 	    typedef typename __gnu_cxx::__alloc_traits<_Tp_alloc_type>
 161:c:\program files\daisytoolchain\arm-none-eabi\include\c++\10.2.1\bits\stl_vector.h **** 	      ::size_type size_type;
 162:c:\program files\daisytoolchain\arm-none-eabi\include\c++\10.2.1\bits\stl_vector.h **** 
 163:c:\program files\daisytoolchain\arm-none-eabi\include\c++\10.2.1\bits\stl_vector.h **** 	    static void _S_shrink(_Vector_impl&, size_type) { }
 164:c:\program files\daisytoolchain\arm-none-eabi\include\c++\10.2.1\bits\stl_vector.h **** 	    static void _S_on_dealloc(_Vector_impl&) { }
 165:c:\program files\daisytoolchain\arm-none-eabi\include\c++\10.2.1\bits\stl_vector.h **** 
 166:c:\program files\daisytoolchain\arm-none-eabi\include\c++\10.2.1\bits\stl_vector.h **** 	    typedef _Vector_impl& _Reinit;
 167:c:\program files\daisytoolchain\arm-none-eabi\include\c++\10.2.1\bits\stl_vector.h **** 
 168:c:\program files\daisytoolchain\arm-none-eabi\include\c++\10.2.1\bits\stl_vector.h **** 	    struct _Grow
 169:c:\program files\daisytoolchain\arm-none-eabi\include\c++\10.2.1\bits\stl_vector.h **** 	    {
ARM GAS  C:\Users\samue\AppData\Local\Temp\cci865ja.s 			page 49


 170:c:\program files\daisytoolchain\arm-none-eabi\include\c++\10.2.1\bits\stl_vector.h **** 	      _Grow(_Vector_impl&, size_type) { }
 171:c:\program files\daisytoolchain\arm-none-eabi\include\c++\10.2.1\bits\stl_vector.h **** 	      void _M_grew(size_type) { }
 172:c:\program files\daisytoolchain\arm-none-eabi\include\c++\10.2.1\bits\stl_vector.h **** 	    };
 173:c:\program files\daisytoolchain\arm-none-eabi\include\c++\10.2.1\bits\stl_vector.h **** 	  };
 174:c:\program files\daisytoolchain\arm-none-eabi\include\c++\10.2.1\bits\stl_vector.h **** 
 175:c:\program files\daisytoolchain\arm-none-eabi\include\c++\10.2.1\bits\stl_vector.h **** 	// Enable ASan annotations for memory obtained from std::allocator.
 176:c:\program files\daisytoolchain\arm-none-eabi\include\c++\10.2.1\bits\stl_vector.h **** 	template<typename _Up>
 177:c:\program files\daisytoolchain\arm-none-eabi\include\c++\10.2.1\bits\stl_vector.h **** 	  struct _Asan<allocator<_Up> >
 178:c:\program files\daisytoolchain\arm-none-eabi\include\c++\10.2.1\bits\stl_vector.h **** 	  {
 179:c:\program files\daisytoolchain\arm-none-eabi\include\c++\10.2.1\bits\stl_vector.h **** 	    typedef typename __gnu_cxx::__alloc_traits<_Tp_alloc_type>
 180:c:\program files\daisytoolchain\arm-none-eabi\include\c++\10.2.1\bits\stl_vector.h **** 	      ::size_type size_type;
 181:c:\program files\daisytoolchain\arm-none-eabi\include\c++\10.2.1\bits\stl_vector.h **** 
 182:c:\program files\daisytoolchain\arm-none-eabi\include\c++\10.2.1\bits\stl_vector.h **** 	    // Adjust ASan annotation for [_M_start, _M_end_of_storage) to
 183:c:\program files\daisytoolchain\arm-none-eabi\include\c++\10.2.1\bits\stl_vector.h **** 	    // mark end of valid region as __curr instead of __prev.
 184:c:\program files\daisytoolchain\arm-none-eabi\include\c++\10.2.1\bits\stl_vector.h **** 	    static void
 185:c:\program files\daisytoolchain\arm-none-eabi\include\c++\10.2.1\bits\stl_vector.h **** 	    _S_adjust(_Vector_impl& __impl, pointer __prev, pointer __curr)
 186:c:\program files\daisytoolchain\arm-none-eabi\include\c++\10.2.1\bits\stl_vector.h **** 	    {
 187:c:\program files\daisytoolchain\arm-none-eabi\include\c++\10.2.1\bits\stl_vector.h **** 	      __sanitizer_annotate_contiguous_container(__impl._M_start,
 188:c:\program files\daisytoolchain\arm-none-eabi\include\c++\10.2.1\bits\stl_vector.h **** 		  __impl._M_end_of_storage, __prev, __curr);
 189:c:\program files\daisytoolchain\arm-none-eabi\include\c++\10.2.1\bits\stl_vector.h **** 	    }
 190:c:\program files\daisytoolchain\arm-none-eabi\include\c++\10.2.1\bits\stl_vector.h **** 
 191:c:\program files\daisytoolchain\arm-none-eabi\include\c++\10.2.1\bits\stl_vector.h **** 	    static void
 192:c:\program files\daisytoolchain\arm-none-eabi\include\c++\10.2.1\bits\stl_vector.h **** 	    _S_grow(_Vector_impl& __impl, size_type __n)
 193:c:\program files\daisytoolchain\arm-none-eabi\include\c++\10.2.1\bits\stl_vector.h **** 	    { _S_adjust(__impl, __impl._M_finish, __impl._M_finish + __n); }
 194:c:\program files\daisytoolchain\arm-none-eabi\include\c++\10.2.1\bits\stl_vector.h **** 
 195:c:\program files\daisytoolchain\arm-none-eabi\include\c++\10.2.1\bits\stl_vector.h **** 	    static void
 196:c:\program files\daisytoolchain\arm-none-eabi\include\c++\10.2.1\bits\stl_vector.h **** 	    _S_shrink(_Vector_impl& __impl, size_type __n)
 197:c:\program files\daisytoolchain\arm-none-eabi\include\c++\10.2.1\bits\stl_vector.h **** 	    { _S_adjust(__impl, __impl._M_finish + __n, __impl._M_finish); }
 198:c:\program files\daisytoolchain\arm-none-eabi\include\c++\10.2.1\bits\stl_vector.h **** 
 199:c:\program files\daisytoolchain\arm-none-eabi\include\c++\10.2.1\bits\stl_vector.h **** 	    static void
 200:c:\program files\daisytoolchain\arm-none-eabi\include\c++\10.2.1\bits\stl_vector.h **** 	    _S_on_dealloc(_Vector_impl& __impl)
 201:c:\program files\daisytoolchain\arm-none-eabi\include\c++\10.2.1\bits\stl_vector.h **** 	    {
 202:c:\program files\daisytoolchain\arm-none-eabi\include\c++\10.2.1\bits\stl_vector.h **** 	      if (__impl._M_start)
 203:c:\program files\daisytoolchain\arm-none-eabi\include\c++\10.2.1\bits\stl_vector.h **** 		_S_adjust(__impl, __impl._M_finish, __impl._M_end_of_storage);
 204:c:\program files\daisytoolchain\arm-none-eabi\include\c++\10.2.1\bits\stl_vector.h **** 	    }
 205:c:\program files\daisytoolchain\arm-none-eabi\include\c++\10.2.1\bits\stl_vector.h **** 
 206:c:\program files\daisytoolchain\arm-none-eabi\include\c++\10.2.1\bits\stl_vector.h **** 	    // Used on reallocation to tell ASan unused capacity is invalid.
 207:c:\program files\daisytoolchain\arm-none-eabi\include\c++\10.2.1\bits\stl_vector.h **** 	    struct _Reinit
 208:c:\program files\daisytoolchain\arm-none-eabi\include\c++\10.2.1\bits\stl_vector.h **** 	    {
 209:c:\program files\daisytoolchain\arm-none-eabi\include\c++\10.2.1\bits\stl_vector.h **** 	      explicit _Reinit(_Vector_impl& __impl) : _M_impl(__impl)
 210:c:\program files\daisytoolchain\arm-none-eabi\include\c++\10.2.1\bits\stl_vector.h **** 	      {
 211:c:\program files\daisytoolchain\arm-none-eabi\include\c++\10.2.1\bits\stl_vector.h **** 		// Mark unused capacity as valid again before deallocating it.
 212:c:\program files\daisytoolchain\arm-none-eabi\include\c++\10.2.1\bits\stl_vector.h **** 		_S_on_dealloc(_M_impl);
 213:c:\program files\daisytoolchain\arm-none-eabi\include\c++\10.2.1\bits\stl_vector.h **** 	      }
 214:c:\program files\daisytoolchain\arm-none-eabi\include\c++\10.2.1\bits\stl_vector.h **** 
 215:c:\program files\daisytoolchain\arm-none-eabi\include\c++\10.2.1\bits\stl_vector.h **** 	      ~_Reinit()
 216:c:\program files\daisytoolchain\arm-none-eabi\include\c++\10.2.1\bits\stl_vector.h **** 	      {
 217:c:\program files\daisytoolchain\arm-none-eabi\include\c++\10.2.1\bits\stl_vector.h **** 		// Mark unused capacity as invalid after reallocation.
 218:c:\program files\daisytoolchain\arm-none-eabi\include\c++\10.2.1\bits\stl_vector.h **** 		if (_M_impl._M_start)
 219:c:\program files\daisytoolchain\arm-none-eabi\include\c++\10.2.1\bits\stl_vector.h **** 		  _S_adjust(_M_impl, _M_impl._M_end_of_storage,
 220:c:\program files\daisytoolchain\arm-none-eabi\include\c++\10.2.1\bits\stl_vector.h **** 			    _M_impl._M_finish);
 221:c:\program files\daisytoolchain\arm-none-eabi\include\c++\10.2.1\bits\stl_vector.h **** 	      }
 222:c:\program files\daisytoolchain\arm-none-eabi\include\c++\10.2.1\bits\stl_vector.h **** 
 223:c:\program files\daisytoolchain\arm-none-eabi\include\c++\10.2.1\bits\stl_vector.h **** 	      _Vector_impl& _M_impl;
 224:c:\program files\daisytoolchain\arm-none-eabi\include\c++\10.2.1\bits\stl_vector.h **** 
 225:c:\program files\daisytoolchain\arm-none-eabi\include\c++\10.2.1\bits\stl_vector.h **** #if __cplusplus >= 201103L
 226:c:\program files\daisytoolchain\arm-none-eabi\include\c++\10.2.1\bits\stl_vector.h **** 	      _Reinit(const _Reinit&) = delete;
ARM GAS  C:\Users\samue\AppData\Local\Temp\cci865ja.s 			page 50


 227:c:\program files\daisytoolchain\arm-none-eabi\include\c++\10.2.1\bits\stl_vector.h **** 	      _Reinit& operator=(const _Reinit&) = delete;
 228:c:\program files\daisytoolchain\arm-none-eabi\include\c++\10.2.1\bits\stl_vector.h **** #endif
 229:c:\program files\daisytoolchain\arm-none-eabi\include\c++\10.2.1\bits\stl_vector.h **** 	    };
 230:c:\program files\daisytoolchain\arm-none-eabi\include\c++\10.2.1\bits\stl_vector.h **** 
 231:c:\program files\daisytoolchain\arm-none-eabi\include\c++\10.2.1\bits\stl_vector.h **** 	    // Tell ASan when unused capacity is initialized to be valid.
 232:c:\program files\daisytoolchain\arm-none-eabi\include\c++\10.2.1\bits\stl_vector.h **** 	    struct _Grow
 233:c:\program files\daisytoolchain\arm-none-eabi\include\c++\10.2.1\bits\stl_vector.h **** 	    {
 234:c:\program files\daisytoolchain\arm-none-eabi\include\c++\10.2.1\bits\stl_vector.h **** 	      _Grow(_Vector_impl& __impl, size_type __n)
 235:c:\program files\daisytoolchain\arm-none-eabi\include\c++\10.2.1\bits\stl_vector.h **** 	      : _M_impl(__impl), _M_n(__n)
 236:c:\program files\daisytoolchain\arm-none-eabi\include\c++\10.2.1\bits\stl_vector.h **** 	      { _S_grow(_M_impl, __n); }
 237:c:\program files\daisytoolchain\arm-none-eabi\include\c++\10.2.1\bits\stl_vector.h **** 
 238:c:\program files\daisytoolchain\arm-none-eabi\include\c++\10.2.1\bits\stl_vector.h **** 	      ~_Grow() { if (_M_n) _S_shrink(_M_impl, _M_n); }
 239:c:\program files\daisytoolchain\arm-none-eabi\include\c++\10.2.1\bits\stl_vector.h **** 
 240:c:\program files\daisytoolchain\arm-none-eabi\include\c++\10.2.1\bits\stl_vector.h **** 	      void _M_grew(size_type __n) { _M_n -= __n; }
 241:c:\program files\daisytoolchain\arm-none-eabi\include\c++\10.2.1\bits\stl_vector.h **** 
 242:c:\program files\daisytoolchain\arm-none-eabi\include\c++\10.2.1\bits\stl_vector.h **** #if __cplusplus >= 201103L
 243:c:\program files\daisytoolchain\arm-none-eabi\include\c++\10.2.1\bits\stl_vector.h **** 	      _Grow(const _Grow&) = delete;
 244:c:\program files\daisytoolchain\arm-none-eabi\include\c++\10.2.1\bits\stl_vector.h **** 	      _Grow& operator=(const _Grow&) = delete;
 245:c:\program files\daisytoolchain\arm-none-eabi\include\c++\10.2.1\bits\stl_vector.h **** #endif
 246:c:\program files\daisytoolchain\arm-none-eabi\include\c++\10.2.1\bits\stl_vector.h **** 	    private:
 247:c:\program files\daisytoolchain\arm-none-eabi\include\c++\10.2.1\bits\stl_vector.h **** 	      _Vector_impl& _M_impl;
 248:c:\program files\daisytoolchain\arm-none-eabi\include\c++\10.2.1\bits\stl_vector.h **** 	      size_type _M_n;
 249:c:\program files\daisytoolchain\arm-none-eabi\include\c++\10.2.1\bits\stl_vector.h **** 	    };
 250:c:\program files\daisytoolchain\arm-none-eabi\include\c++\10.2.1\bits\stl_vector.h **** 	  };
 251:c:\program files\daisytoolchain\arm-none-eabi\include\c++\10.2.1\bits\stl_vector.h **** 
 252:c:\program files\daisytoolchain\arm-none-eabi\include\c++\10.2.1\bits\stl_vector.h **** #define _GLIBCXX_ASAN_ANNOTATE_REINIT \
 253:c:\program files\daisytoolchain\arm-none-eabi\include\c++\10.2.1\bits\stl_vector.h ****   typename _Base::_Vector_impl::template _Asan<>::_Reinit const \
 254:c:\program files\daisytoolchain\arm-none-eabi\include\c++\10.2.1\bits\stl_vector.h **** 	__attribute__((__unused__)) __reinit_guard(this->_M_impl)
 255:c:\program files\daisytoolchain\arm-none-eabi\include\c++\10.2.1\bits\stl_vector.h **** #define _GLIBCXX_ASAN_ANNOTATE_GROW(n) \
 256:c:\program files\daisytoolchain\arm-none-eabi\include\c++\10.2.1\bits\stl_vector.h ****   typename _Base::_Vector_impl::template _Asan<>::_Grow \
 257:c:\program files\daisytoolchain\arm-none-eabi\include\c++\10.2.1\bits\stl_vector.h **** 	__attribute__((__unused__)) __grow_guard(this->_M_impl, (n))
 258:c:\program files\daisytoolchain\arm-none-eabi\include\c++\10.2.1\bits\stl_vector.h **** #define _GLIBCXX_ASAN_ANNOTATE_GREW(n) __grow_guard._M_grew(n)
 259:c:\program files\daisytoolchain\arm-none-eabi\include\c++\10.2.1\bits\stl_vector.h **** #define _GLIBCXX_ASAN_ANNOTATE_SHRINK(n) \
 260:c:\program files\daisytoolchain\arm-none-eabi\include\c++\10.2.1\bits\stl_vector.h ****   _Base::_Vector_impl::template _Asan<>::_S_shrink(this->_M_impl, n)
 261:c:\program files\daisytoolchain\arm-none-eabi\include\c++\10.2.1\bits\stl_vector.h **** #define _GLIBCXX_ASAN_ANNOTATE_BEFORE_DEALLOC \
 262:c:\program files\daisytoolchain\arm-none-eabi\include\c++\10.2.1\bits\stl_vector.h ****   _Base::_Vector_impl::template _Asan<>::_S_on_dealloc(this->_M_impl)
 263:c:\program files\daisytoolchain\arm-none-eabi\include\c++\10.2.1\bits\stl_vector.h **** #else // ! (_GLIBCXX_SANITIZE_STD_ALLOCATOR && _GLIBCXX_SANITIZE_VECTOR)
 264:c:\program files\daisytoolchain\arm-none-eabi\include\c++\10.2.1\bits\stl_vector.h **** #define _GLIBCXX_ASAN_ANNOTATE_REINIT
 265:c:\program files\daisytoolchain\arm-none-eabi\include\c++\10.2.1\bits\stl_vector.h **** #define _GLIBCXX_ASAN_ANNOTATE_GROW(n)
 266:c:\program files\daisytoolchain\arm-none-eabi\include\c++\10.2.1\bits\stl_vector.h **** #define _GLIBCXX_ASAN_ANNOTATE_GREW(n)
 267:c:\program files\daisytoolchain\arm-none-eabi\include\c++\10.2.1\bits\stl_vector.h **** #define _GLIBCXX_ASAN_ANNOTATE_SHRINK(n)
 268:c:\program files\daisytoolchain\arm-none-eabi\include\c++\10.2.1\bits\stl_vector.h **** #define _GLIBCXX_ASAN_ANNOTATE_BEFORE_DEALLOC
 269:c:\program files\daisytoolchain\arm-none-eabi\include\c++\10.2.1\bits\stl_vector.h **** #endif // _GLIBCXX_SANITIZE_STD_ALLOCATOR && _GLIBCXX_SANITIZE_VECTOR
 270:c:\program files\daisytoolchain\arm-none-eabi\include\c++\10.2.1\bits\stl_vector.h ****       };
 271:c:\program files\daisytoolchain\arm-none-eabi\include\c++\10.2.1\bits\stl_vector.h **** 
 272:c:\program files\daisytoolchain\arm-none-eabi\include\c++\10.2.1\bits\stl_vector.h ****     public:
 273:c:\program files\daisytoolchain\arm-none-eabi\include\c++\10.2.1\bits\stl_vector.h ****       typedef _Alloc allocator_type;
 274:c:\program files\daisytoolchain\arm-none-eabi\include\c++\10.2.1\bits\stl_vector.h **** 
 275:c:\program files\daisytoolchain\arm-none-eabi\include\c++\10.2.1\bits\stl_vector.h ****       _Tp_alloc_type&
 276:c:\program files\daisytoolchain\arm-none-eabi\include\c++\10.2.1\bits\stl_vector.h ****       _M_get_Tp_allocator() _GLIBCXX_NOEXCEPT
 277:c:\program files\daisytoolchain\arm-none-eabi\include\c++\10.2.1\bits\stl_vector.h ****       { return this->_M_impl; }
 278:c:\program files\daisytoolchain\arm-none-eabi\include\c++\10.2.1\bits\stl_vector.h **** 
 279:c:\program files\daisytoolchain\arm-none-eabi\include\c++\10.2.1\bits\stl_vector.h ****       const _Tp_alloc_type&
 280:c:\program files\daisytoolchain\arm-none-eabi\include\c++\10.2.1\bits\stl_vector.h ****       _M_get_Tp_allocator() const _GLIBCXX_NOEXCEPT
 281:c:\program files\daisytoolchain\arm-none-eabi\include\c++\10.2.1\bits\stl_vector.h ****       { return this->_M_impl; }
 282:c:\program files\daisytoolchain\arm-none-eabi\include\c++\10.2.1\bits\stl_vector.h **** 
 283:c:\program files\daisytoolchain\arm-none-eabi\include\c++\10.2.1\bits\stl_vector.h ****       allocator_type
ARM GAS  C:\Users\samue\AppData\Local\Temp\cci865ja.s 			page 51


 284:c:\program files\daisytoolchain\arm-none-eabi\include\c++\10.2.1\bits\stl_vector.h ****       get_allocator() const _GLIBCXX_NOEXCEPT
 285:c:\program files\daisytoolchain\arm-none-eabi\include\c++\10.2.1\bits\stl_vector.h ****       { return allocator_type(_M_get_Tp_allocator()); }
 286:c:\program files\daisytoolchain\arm-none-eabi\include\c++\10.2.1\bits\stl_vector.h **** 
 287:c:\program files\daisytoolchain\arm-none-eabi\include\c++\10.2.1\bits\stl_vector.h **** #if __cplusplus >= 201103L
 288:c:\program files\daisytoolchain\arm-none-eabi\include\c++\10.2.1\bits\stl_vector.h ****       _Vector_base() = default;
 289:c:\program files\daisytoolchain\arm-none-eabi\include\c++\10.2.1\bits\stl_vector.h **** #else
 290:c:\program files\daisytoolchain\arm-none-eabi\include\c++\10.2.1\bits\stl_vector.h ****       _Vector_base() { }
 291:c:\program files\daisytoolchain\arm-none-eabi\include\c++\10.2.1\bits\stl_vector.h **** #endif
 292:c:\program files\daisytoolchain\arm-none-eabi\include\c++\10.2.1\bits\stl_vector.h **** 
 293:c:\program files\daisytoolchain\arm-none-eabi\include\c++\10.2.1\bits\stl_vector.h ****       _Vector_base(const allocator_type& __a) _GLIBCXX_NOEXCEPT
 294:c:\program files\daisytoolchain\arm-none-eabi\include\c++\10.2.1\bits\stl_vector.h ****       : _M_impl(__a) { }
 295:c:\program files\daisytoolchain\arm-none-eabi\include\c++\10.2.1\bits\stl_vector.h **** 
 296:c:\program files\daisytoolchain\arm-none-eabi\include\c++\10.2.1\bits\stl_vector.h ****       // Kept for ABI compatibility.
 297:c:\program files\daisytoolchain\arm-none-eabi\include\c++\10.2.1\bits\stl_vector.h **** #if !_GLIBCXX_INLINE_VERSION
 298:c:\program files\daisytoolchain\arm-none-eabi\include\c++\10.2.1\bits\stl_vector.h ****       _Vector_base(size_t __n)
 299:c:\program files\daisytoolchain\arm-none-eabi\include\c++\10.2.1\bits\stl_vector.h ****       : _M_impl()
 300:c:\program files\daisytoolchain\arm-none-eabi\include\c++\10.2.1\bits\stl_vector.h ****       { _M_create_storage(__n); }
 301:c:\program files\daisytoolchain\arm-none-eabi\include\c++\10.2.1\bits\stl_vector.h **** #endif
 302:c:\program files\daisytoolchain\arm-none-eabi\include\c++\10.2.1\bits\stl_vector.h **** 
 303:c:\program files\daisytoolchain\arm-none-eabi\include\c++\10.2.1\bits\stl_vector.h ****       _Vector_base(size_t __n, const allocator_type& __a)
 304:c:\program files\daisytoolchain\arm-none-eabi\include\c++\10.2.1\bits\stl_vector.h ****       : _M_impl(__a)
 305:c:\program files\daisytoolchain\arm-none-eabi\include\c++\10.2.1\bits\stl_vector.h ****       { _M_create_storage(__n); }
 306:c:\program files\daisytoolchain\arm-none-eabi\include\c++\10.2.1\bits\stl_vector.h **** 
 307:c:\program files\daisytoolchain\arm-none-eabi\include\c++\10.2.1\bits\stl_vector.h **** #if __cplusplus >= 201103L
 308:c:\program files\daisytoolchain\arm-none-eabi\include\c++\10.2.1\bits\stl_vector.h ****       _Vector_base(_Vector_base&&) = default;
 309:c:\program files\daisytoolchain\arm-none-eabi\include\c++\10.2.1\bits\stl_vector.h **** 
 310:c:\program files\daisytoolchain\arm-none-eabi\include\c++\10.2.1\bits\stl_vector.h ****       // Kept for ABI compatibility.
 311:c:\program files\daisytoolchain\arm-none-eabi\include\c++\10.2.1\bits\stl_vector.h **** # if !_GLIBCXX_INLINE_VERSION
 312:c:\program files\daisytoolchain\arm-none-eabi\include\c++\10.2.1\bits\stl_vector.h ****       _Vector_base(_Tp_alloc_type&& __a) noexcept
 313:c:\program files\daisytoolchain\arm-none-eabi\include\c++\10.2.1\bits\stl_vector.h ****       : _M_impl(std::move(__a)) { }
 314:c:\program files\daisytoolchain\arm-none-eabi\include\c++\10.2.1\bits\stl_vector.h **** 
 315:c:\program files\daisytoolchain\arm-none-eabi\include\c++\10.2.1\bits\stl_vector.h ****       _Vector_base(_Vector_base&& __x, const allocator_type& __a)
 316:c:\program files\daisytoolchain\arm-none-eabi\include\c++\10.2.1\bits\stl_vector.h ****       : _M_impl(__a)
 317:c:\program files\daisytoolchain\arm-none-eabi\include\c++\10.2.1\bits\stl_vector.h ****       {
 318:c:\program files\daisytoolchain\arm-none-eabi\include\c++\10.2.1\bits\stl_vector.h **** 	if (__x.get_allocator() == __a)
 319:c:\program files\daisytoolchain\arm-none-eabi\include\c++\10.2.1\bits\stl_vector.h **** 	  this->_M_impl._M_swap_data(__x._M_impl);
 320:c:\program files\daisytoolchain\arm-none-eabi\include\c++\10.2.1\bits\stl_vector.h **** 	else
 321:c:\program files\daisytoolchain\arm-none-eabi\include\c++\10.2.1\bits\stl_vector.h **** 	  {
 322:c:\program files\daisytoolchain\arm-none-eabi\include\c++\10.2.1\bits\stl_vector.h **** 	    size_t __n = __x._M_impl._M_finish - __x._M_impl._M_start;
 323:c:\program files\daisytoolchain\arm-none-eabi\include\c++\10.2.1\bits\stl_vector.h **** 	    _M_create_storage(__n);
 324:c:\program files\daisytoolchain\arm-none-eabi\include\c++\10.2.1\bits\stl_vector.h **** 	  }
 325:c:\program files\daisytoolchain\arm-none-eabi\include\c++\10.2.1\bits\stl_vector.h ****       }
 326:c:\program files\daisytoolchain\arm-none-eabi\include\c++\10.2.1\bits\stl_vector.h **** # endif
 327:c:\program files\daisytoolchain\arm-none-eabi\include\c++\10.2.1\bits\stl_vector.h **** 
 328:c:\program files\daisytoolchain\arm-none-eabi\include\c++\10.2.1\bits\stl_vector.h ****       _Vector_base(const allocator_type& __a, _Vector_base&& __x)
 329:c:\program files\daisytoolchain\arm-none-eabi\include\c++\10.2.1\bits\stl_vector.h ****       : _M_impl(_Tp_alloc_type(__a), std::move(__x._M_impl))
 330:c:\program files\daisytoolchain\arm-none-eabi\include\c++\10.2.1\bits\stl_vector.h ****       { }
 331:c:\program files\daisytoolchain\arm-none-eabi\include\c++\10.2.1\bits\stl_vector.h **** #endif
 332:c:\program files\daisytoolchain\arm-none-eabi\include\c++\10.2.1\bits\stl_vector.h **** 
 333:c:\program files\daisytoolchain\arm-none-eabi\include\c++\10.2.1\bits\stl_vector.h ****       ~_Vector_base() _GLIBCXX_NOEXCEPT
 334:c:\program files\daisytoolchain\arm-none-eabi\include\c++\10.2.1\bits\stl_vector.h ****       {
 335:c:\program files\daisytoolchain\arm-none-eabi\include\c++\10.2.1\bits\stl_vector.h **** 	_M_deallocate(_M_impl._M_start,
 336:c:\program files\daisytoolchain\arm-none-eabi\include\c++\10.2.1\bits\stl_vector.h **** 		      _M_impl._M_end_of_storage - _M_impl._M_start);
 337:c:\program files\daisytoolchain\arm-none-eabi\include\c++\10.2.1\bits\stl_vector.h ****       }
 338:c:\program files\daisytoolchain\arm-none-eabi\include\c++\10.2.1\bits\stl_vector.h **** 
 339:c:\program files\daisytoolchain\arm-none-eabi\include\c++\10.2.1\bits\stl_vector.h ****     public:
 340:c:\program files\daisytoolchain\arm-none-eabi\include\c++\10.2.1\bits\stl_vector.h ****       _Vector_impl _M_impl;
ARM GAS  C:\Users\samue\AppData\Local\Temp\cci865ja.s 			page 52


 341:c:\program files\daisytoolchain\arm-none-eabi\include\c++\10.2.1\bits\stl_vector.h **** 
 342:c:\program files\daisytoolchain\arm-none-eabi\include\c++\10.2.1\bits\stl_vector.h ****       pointer
 343:c:\program files\daisytoolchain\arm-none-eabi\include\c++\10.2.1\bits\stl_vector.h ****       _M_allocate(size_t __n)
 344:c:\program files\daisytoolchain\arm-none-eabi\include\c++\10.2.1\bits\stl_vector.h ****       {
 345:c:\program files\daisytoolchain\arm-none-eabi\include\c++\10.2.1\bits\stl_vector.h **** 	typedef __gnu_cxx::__alloc_traits<_Tp_alloc_type> _Tr;
 346:c:\program files\daisytoolchain\arm-none-eabi\include\c++\10.2.1\bits\stl_vector.h **** 	return __n != 0 ? _Tr::allocate(_M_impl, __n) : pointer();
 347:c:\program files\daisytoolchain\arm-none-eabi\include\c++\10.2.1\bits\stl_vector.h ****       }
 348:c:\program files\daisytoolchain\arm-none-eabi\include\c++\10.2.1\bits\stl_vector.h **** 
 349:c:\program files\daisytoolchain\arm-none-eabi\include\c++\10.2.1\bits\stl_vector.h ****       void
 350:c:\program files\daisytoolchain\arm-none-eabi\include\c++\10.2.1\bits\stl_vector.h ****       _M_deallocate(pointer __p, size_t __n)
 351:c:\program files\daisytoolchain\arm-none-eabi\include\c++\10.2.1\bits\stl_vector.h ****       {
 352:c:\program files\daisytoolchain\arm-none-eabi\include\c++\10.2.1\bits\stl_vector.h **** 	typedef __gnu_cxx::__alloc_traits<_Tp_alloc_type> _Tr;
 353:c:\program files\daisytoolchain\arm-none-eabi\include\c++\10.2.1\bits\stl_vector.h **** 	if (__p)
 354:c:\program files\daisytoolchain\arm-none-eabi\include\c++\10.2.1\bits\stl_vector.h **** 	  _Tr::deallocate(_M_impl, __p, __n);
 355:c:\program files\daisytoolchain\arm-none-eabi\include\c++\10.2.1\bits\stl_vector.h ****       }
 356:c:\program files\daisytoolchain\arm-none-eabi\include\c++\10.2.1\bits\stl_vector.h **** 
 357:c:\program files\daisytoolchain\arm-none-eabi\include\c++\10.2.1\bits\stl_vector.h ****     protected:
 358:c:\program files\daisytoolchain\arm-none-eabi\include\c++\10.2.1\bits\stl_vector.h ****       void
 359:c:\program files\daisytoolchain\arm-none-eabi\include\c++\10.2.1\bits\stl_vector.h ****       _M_create_storage(size_t __n)
 360:c:\program files\daisytoolchain\arm-none-eabi\include\c++\10.2.1\bits\stl_vector.h ****       {
 361:c:\program files\daisytoolchain\arm-none-eabi\include\c++\10.2.1\bits\stl_vector.h **** 	this->_M_impl._M_start = this->_M_allocate(__n);
 362:c:\program files\daisytoolchain\arm-none-eabi\include\c++\10.2.1\bits\stl_vector.h **** 	this->_M_impl._M_finish = this->_M_impl._M_start;
 363:c:\program files\daisytoolchain\arm-none-eabi\include\c++\10.2.1\bits\stl_vector.h **** 	this->_M_impl._M_end_of_storage = this->_M_impl._M_start + __n;
 364:c:\program files\daisytoolchain\arm-none-eabi\include\c++\10.2.1\bits\stl_vector.h ****       }
 365:c:\program files\daisytoolchain\arm-none-eabi\include\c++\10.2.1\bits\stl_vector.h ****     };
 366:c:\program files\daisytoolchain\arm-none-eabi\include\c++\10.2.1\bits\stl_vector.h **** 
 367:c:\program files\daisytoolchain\arm-none-eabi\include\c++\10.2.1\bits\stl_vector.h ****   /**
 368:c:\program files\daisytoolchain\arm-none-eabi\include\c++\10.2.1\bits\stl_vector.h ****    *  @brief A standard container which offers fixed time access to
 369:c:\program files\daisytoolchain\arm-none-eabi\include\c++\10.2.1\bits\stl_vector.h ****    *  individual elements in any order.
 370:c:\program files\daisytoolchain\arm-none-eabi\include\c++\10.2.1\bits\stl_vector.h ****    *
 371:c:\program files\daisytoolchain\arm-none-eabi\include\c++\10.2.1\bits\stl_vector.h ****    *  @ingroup sequences
 372:c:\program files\daisytoolchain\arm-none-eabi\include\c++\10.2.1\bits\stl_vector.h ****    *
 373:c:\program files\daisytoolchain\arm-none-eabi\include\c++\10.2.1\bits\stl_vector.h ****    *  @tparam _Tp  Type of element.
 374:c:\program files\daisytoolchain\arm-none-eabi\include\c++\10.2.1\bits\stl_vector.h ****    *  @tparam _Alloc  Allocator type, defaults to allocator<_Tp>.
 375:c:\program files\daisytoolchain\arm-none-eabi\include\c++\10.2.1\bits\stl_vector.h ****    *
 376:c:\program files\daisytoolchain\arm-none-eabi\include\c++\10.2.1\bits\stl_vector.h ****    *  Meets the requirements of a <a href="tables.html#65">container</a>, a
 377:c:\program files\daisytoolchain\arm-none-eabi\include\c++\10.2.1\bits\stl_vector.h ****    *  <a href="tables.html#66">reversible container</a>, and a
 378:c:\program files\daisytoolchain\arm-none-eabi\include\c++\10.2.1\bits\stl_vector.h ****    *  <a href="tables.html#67">sequence</a>, including the
 379:c:\program files\daisytoolchain\arm-none-eabi\include\c++\10.2.1\bits\stl_vector.h ****    *  <a href="tables.html#68">optional sequence requirements</a> with the
 380:c:\program files\daisytoolchain\arm-none-eabi\include\c++\10.2.1\bits\stl_vector.h ****    *  %exception of @c push_front and @c pop_front.
 381:c:\program files\daisytoolchain\arm-none-eabi\include\c++\10.2.1\bits\stl_vector.h ****    *
 382:c:\program files\daisytoolchain\arm-none-eabi\include\c++\10.2.1\bits\stl_vector.h ****    *  In some terminology a %vector can be described as a dynamic
 383:c:\program files\daisytoolchain\arm-none-eabi\include\c++\10.2.1\bits\stl_vector.h ****    *  C-style array, it offers fast and efficient access to individual
 384:c:\program files\daisytoolchain\arm-none-eabi\include\c++\10.2.1\bits\stl_vector.h ****    *  elements in any order and saves the user from worrying about
 385:c:\program files\daisytoolchain\arm-none-eabi\include\c++\10.2.1\bits\stl_vector.h ****    *  memory and size allocation.  Subscripting ( @c [] ) access is
 386:c:\program files\daisytoolchain\arm-none-eabi\include\c++\10.2.1\bits\stl_vector.h ****    *  also provided as with C-style arrays.
 387:c:\program files\daisytoolchain\arm-none-eabi\include\c++\10.2.1\bits\stl_vector.h ****   */
 388:c:\program files\daisytoolchain\arm-none-eabi\include\c++\10.2.1\bits\stl_vector.h ****   template<typename _Tp, typename _Alloc = std::allocator<_Tp> >
 389:c:\program files\daisytoolchain\arm-none-eabi\include\c++\10.2.1\bits\stl_vector.h ****     class vector : protected _Vector_base<_Tp, _Alloc>
 390:c:\program files\daisytoolchain\arm-none-eabi\include\c++\10.2.1\bits\stl_vector.h ****     {
 391:c:\program files\daisytoolchain\arm-none-eabi\include\c++\10.2.1\bits\stl_vector.h **** #ifdef _GLIBCXX_CONCEPT_CHECKS
 392:c:\program files\daisytoolchain\arm-none-eabi\include\c++\10.2.1\bits\stl_vector.h ****       // Concept requirements.
 393:c:\program files\daisytoolchain\arm-none-eabi\include\c++\10.2.1\bits\stl_vector.h ****       typedef typename _Alloc::value_type		_Alloc_value_type;
 394:c:\program files\daisytoolchain\arm-none-eabi\include\c++\10.2.1\bits\stl_vector.h **** # if __cplusplus < 201103L
 395:c:\program files\daisytoolchain\arm-none-eabi\include\c++\10.2.1\bits\stl_vector.h ****       __glibcxx_class_requires(_Tp, _SGIAssignableConcept)
 396:c:\program files\daisytoolchain\arm-none-eabi\include\c++\10.2.1\bits\stl_vector.h **** # endif
 397:c:\program files\daisytoolchain\arm-none-eabi\include\c++\10.2.1\bits\stl_vector.h ****       __glibcxx_class_requires2(_Tp, _Alloc_value_type, _SameTypeConcept)
ARM GAS  C:\Users\samue\AppData\Local\Temp\cci865ja.s 			page 53


 398:c:\program files\daisytoolchain\arm-none-eabi\include\c++\10.2.1\bits\stl_vector.h **** #endif
 399:c:\program files\daisytoolchain\arm-none-eabi\include\c++\10.2.1\bits\stl_vector.h **** 
 400:c:\program files\daisytoolchain\arm-none-eabi\include\c++\10.2.1\bits\stl_vector.h **** #if __cplusplus >= 201103L
 401:c:\program files\daisytoolchain\arm-none-eabi\include\c++\10.2.1\bits\stl_vector.h ****       static_assert(is_same<typename remove_cv<_Tp>::type, _Tp>::value,
 402:c:\program files\daisytoolchain\arm-none-eabi\include\c++\10.2.1\bits\stl_vector.h **** 	  "std::vector must have a non-const, non-volatile value_type");
 403:c:\program files\daisytoolchain\arm-none-eabi\include\c++\10.2.1\bits\stl_vector.h **** # if __cplusplus > 201703L || defined __STRICT_ANSI__
 404:c:\program files\daisytoolchain\arm-none-eabi\include\c++\10.2.1\bits\stl_vector.h ****       static_assert(is_same<typename _Alloc::value_type, _Tp>::value,
 405:c:\program files\daisytoolchain\arm-none-eabi\include\c++\10.2.1\bits\stl_vector.h **** 	  "std::vector must have the same value_type as its allocator");
 406:c:\program files\daisytoolchain\arm-none-eabi\include\c++\10.2.1\bits\stl_vector.h **** # endif
 407:c:\program files\daisytoolchain\arm-none-eabi\include\c++\10.2.1\bits\stl_vector.h **** #endif
 408:c:\program files\daisytoolchain\arm-none-eabi\include\c++\10.2.1\bits\stl_vector.h **** 
 409:c:\program files\daisytoolchain\arm-none-eabi\include\c++\10.2.1\bits\stl_vector.h ****       typedef _Vector_base<_Tp, _Alloc>			_Base;
 410:c:\program files\daisytoolchain\arm-none-eabi\include\c++\10.2.1\bits\stl_vector.h ****       typedef typename _Base::_Tp_alloc_type		_Tp_alloc_type;
 411:c:\program files\daisytoolchain\arm-none-eabi\include\c++\10.2.1\bits\stl_vector.h ****       typedef __gnu_cxx::__alloc_traits<_Tp_alloc_type>	_Alloc_traits;
 412:c:\program files\daisytoolchain\arm-none-eabi\include\c++\10.2.1\bits\stl_vector.h **** 
 413:c:\program files\daisytoolchain\arm-none-eabi\include\c++\10.2.1\bits\stl_vector.h ****     public:
 414:c:\program files\daisytoolchain\arm-none-eabi\include\c++\10.2.1\bits\stl_vector.h ****       typedef _Tp					value_type;
 415:c:\program files\daisytoolchain\arm-none-eabi\include\c++\10.2.1\bits\stl_vector.h ****       typedef typename _Base::pointer			pointer;
 416:c:\program files\daisytoolchain\arm-none-eabi\include\c++\10.2.1\bits\stl_vector.h ****       typedef typename _Alloc_traits::const_pointer	const_pointer;
 417:c:\program files\daisytoolchain\arm-none-eabi\include\c++\10.2.1\bits\stl_vector.h ****       typedef typename _Alloc_traits::reference		reference;
 418:c:\program files\daisytoolchain\arm-none-eabi\include\c++\10.2.1\bits\stl_vector.h ****       typedef typename _Alloc_traits::const_reference	const_reference;
 419:c:\program files\daisytoolchain\arm-none-eabi\include\c++\10.2.1\bits\stl_vector.h ****       typedef __gnu_cxx::__normal_iterator<pointer, vector> iterator;
 420:c:\program files\daisytoolchain\arm-none-eabi\include\c++\10.2.1\bits\stl_vector.h ****       typedef __gnu_cxx::__normal_iterator<const_pointer, vector>
 421:c:\program files\daisytoolchain\arm-none-eabi\include\c++\10.2.1\bits\stl_vector.h ****       const_iterator;
 422:c:\program files\daisytoolchain\arm-none-eabi\include\c++\10.2.1\bits\stl_vector.h ****       typedef std::reverse_iterator<const_iterator>	const_reverse_iterator;
 423:c:\program files\daisytoolchain\arm-none-eabi\include\c++\10.2.1\bits\stl_vector.h ****       typedef std::reverse_iterator<iterator>		reverse_iterator;
 424:c:\program files\daisytoolchain\arm-none-eabi\include\c++\10.2.1\bits\stl_vector.h ****       typedef size_t					size_type;
 425:c:\program files\daisytoolchain\arm-none-eabi\include\c++\10.2.1\bits\stl_vector.h ****       typedef ptrdiff_t					difference_type;
 426:c:\program files\daisytoolchain\arm-none-eabi\include\c++\10.2.1\bits\stl_vector.h ****       typedef _Alloc					allocator_type;
 427:c:\program files\daisytoolchain\arm-none-eabi\include\c++\10.2.1\bits\stl_vector.h **** 
 428:c:\program files\daisytoolchain\arm-none-eabi\include\c++\10.2.1\bits\stl_vector.h ****     private:
 429:c:\program files\daisytoolchain\arm-none-eabi\include\c++\10.2.1\bits\stl_vector.h **** #if __cplusplus >= 201103L
 430:c:\program files\daisytoolchain\arm-none-eabi\include\c++\10.2.1\bits\stl_vector.h ****       static constexpr bool
 431:c:\program files\daisytoolchain\arm-none-eabi\include\c++\10.2.1\bits\stl_vector.h ****       _S_nothrow_relocate(true_type)
 432:c:\program files\daisytoolchain\arm-none-eabi\include\c++\10.2.1\bits\stl_vector.h ****       {
 433:c:\program files\daisytoolchain\arm-none-eabi\include\c++\10.2.1\bits\stl_vector.h **** 	return noexcept(std::__relocate_a(std::declval<pointer>(),
 434:c:\program files\daisytoolchain\arm-none-eabi\include\c++\10.2.1\bits\stl_vector.h **** 					  std::declval<pointer>(),
 435:c:\program files\daisytoolchain\arm-none-eabi\include\c++\10.2.1\bits\stl_vector.h **** 					  std::declval<pointer>(),
 436:c:\program files\daisytoolchain\arm-none-eabi\include\c++\10.2.1\bits\stl_vector.h **** 					  std::declval<_Tp_alloc_type&>()));
 437:c:\program files\daisytoolchain\arm-none-eabi\include\c++\10.2.1\bits\stl_vector.h ****       }
 438:c:\program files\daisytoolchain\arm-none-eabi\include\c++\10.2.1\bits\stl_vector.h **** 
 439:c:\program files\daisytoolchain\arm-none-eabi\include\c++\10.2.1\bits\stl_vector.h ****       static constexpr bool
 440:c:\program files\daisytoolchain\arm-none-eabi\include\c++\10.2.1\bits\stl_vector.h ****       _S_nothrow_relocate(false_type)
 441:c:\program files\daisytoolchain\arm-none-eabi\include\c++\10.2.1\bits\stl_vector.h ****       { return false; }
 442:c:\program files\daisytoolchain\arm-none-eabi\include\c++\10.2.1\bits\stl_vector.h **** 
 443:c:\program files\daisytoolchain\arm-none-eabi\include\c++\10.2.1\bits\stl_vector.h ****       static constexpr bool
 444:c:\program files\daisytoolchain\arm-none-eabi\include\c++\10.2.1\bits\stl_vector.h ****       _S_use_relocate()
 445:c:\program files\daisytoolchain\arm-none-eabi\include\c++\10.2.1\bits\stl_vector.h ****       {
 446:c:\program files\daisytoolchain\arm-none-eabi\include\c++\10.2.1\bits\stl_vector.h **** 	// Instantiating std::__relocate_a might cause an error outside the
 447:c:\program files\daisytoolchain\arm-none-eabi\include\c++\10.2.1\bits\stl_vector.h **** 	// immediate context (in __relocate_object_a's noexcept-specifier),
 448:c:\program files\daisytoolchain\arm-none-eabi\include\c++\10.2.1\bits\stl_vector.h **** 	// so only do it if we know the type can be move-inserted into *this.
 449:c:\program files\daisytoolchain\arm-none-eabi\include\c++\10.2.1\bits\stl_vector.h **** 	return _S_nothrow_relocate(__is_move_insertable<_Tp_alloc_type>{});
 450:c:\program files\daisytoolchain\arm-none-eabi\include\c++\10.2.1\bits\stl_vector.h ****       }
 451:c:\program files\daisytoolchain\arm-none-eabi\include\c++\10.2.1\bits\stl_vector.h **** 
 452:c:\program files\daisytoolchain\arm-none-eabi\include\c++\10.2.1\bits\stl_vector.h ****       static pointer
 453:c:\program files\daisytoolchain\arm-none-eabi\include\c++\10.2.1\bits\stl_vector.h ****       _S_do_relocate(pointer __first, pointer __last, pointer __result,
 454:c:\program files\daisytoolchain\arm-none-eabi\include\c++\10.2.1\bits\stl_vector.h **** 		     _Tp_alloc_type& __alloc, true_type) noexcept
ARM GAS  C:\Users\samue\AppData\Local\Temp\cci865ja.s 			page 54


 455:c:\program files\daisytoolchain\arm-none-eabi\include\c++\10.2.1\bits\stl_vector.h ****       {
 456:c:\program files\daisytoolchain\arm-none-eabi\include\c++\10.2.1\bits\stl_vector.h **** 	return std::__relocate_a(__first, __last, __result, __alloc);
 457:c:\program files\daisytoolchain\arm-none-eabi\include\c++\10.2.1\bits\stl_vector.h ****       }
 458:c:\program files\daisytoolchain\arm-none-eabi\include\c++\10.2.1\bits\stl_vector.h **** 
 459:c:\program files\daisytoolchain\arm-none-eabi\include\c++\10.2.1\bits\stl_vector.h ****       static pointer
 460:c:\program files\daisytoolchain\arm-none-eabi\include\c++\10.2.1\bits\stl_vector.h ****       _S_do_relocate(pointer, pointer, pointer __result,
 461:c:\program files\daisytoolchain\arm-none-eabi\include\c++\10.2.1\bits\stl_vector.h **** 		     _Tp_alloc_type&, false_type) noexcept
 462:c:\program files\daisytoolchain\arm-none-eabi\include\c++\10.2.1\bits\stl_vector.h ****       { return __result; }
 463:c:\program files\daisytoolchain\arm-none-eabi\include\c++\10.2.1\bits\stl_vector.h **** 
 464:c:\program files\daisytoolchain\arm-none-eabi\include\c++\10.2.1\bits\stl_vector.h ****       static pointer
 465:c:\program files\daisytoolchain\arm-none-eabi\include\c++\10.2.1\bits\stl_vector.h ****       _S_relocate(pointer __first, pointer __last, pointer __result,
 466:c:\program files\daisytoolchain\arm-none-eabi\include\c++\10.2.1\bits\stl_vector.h **** 		  _Tp_alloc_type& __alloc) noexcept
 467:c:\program files\daisytoolchain\arm-none-eabi\include\c++\10.2.1\bits\stl_vector.h ****       {
 468:c:\program files\daisytoolchain\arm-none-eabi\include\c++\10.2.1\bits\stl_vector.h **** 	using __do_it = __bool_constant<_S_use_relocate()>;
 469:c:\program files\daisytoolchain\arm-none-eabi\include\c++\10.2.1\bits\stl_vector.h **** 	return _S_do_relocate(__first, __last, __result, __alloc, __do_it{});
 470:c:\program files\daisytoolchain\arm-none-eabi\include\c++\10.2.1\bits\stl_vector.h ****       }
 471:c:\program files\daisytoolchain\arm-none-eabi\include\c++\10.2.1\bits\stl_vector.h **** #endif // C++11
 472:c:\program files\daisytoolchain\arm-none-eabi\include\c++\10.2.1\bits\stl_vector.h **** 
 473:c:\program files\daisytoolchain\arm-none-eabi\include\c++\10.2.1\bits\stl_vector.h ****     protected:
 474:c:\program files\daisytoolchain\arm-none-eabi\include\c++\10.2.1\bits\stl_vector.h ****       using _Base::_M_allocate;
 475:c:\program files\daisytoolchain\arm-none-eabi\include\c++\10.2.1\bits\stl_vector.h ****       using _Base::_M_deallocate;
 476:c:\program files\daisytoolchain\arm-none-eabi\include\c++\10.2.1\bits\stl_vector.h ****       using _Base::_M_impl;
 477:c:\program files\daisytoolchain\arm-none-eabi\include\c++\10.2.1\bits\stl_vector.h ****       using _Base::_M_get_Tp_allocator;
 478:c:\program files\daisytoolchain\arm-none-eabi\include\c++\10.2.1\bits\stl_vector.h **** 
 479:c:\program files\daisytoolchain\arm-none-eabi\include\c++\10.2.1\bits\stl_vector.h ****     public:
 480:c:\program files\daisytoolchain\arm-none-eabi\include\c++\10.2.1\bits\stl_vector.h ****       // [23.2.4.1] construct/copy/destroy
 481:c:\program files\daisytoolchain\arm-none-eabi\include\c++\10.2.1\bits\stl_vector.h ****       // (assign() and get_allocator() are also listed in this section)
 482:c:\program files\daisytoolchain\arm-none-eabi\include\c++\10.2.1\bits\stl_vector.h **** 
 483:c:\program files\daisytoolchain\arm-none-eabi\include\c++\10.2.1\bits\stl_vector.h ****       /**
 484:c:\program files\daisytoolchain\arm-none-eabi\include\c++\10.2.1\bits\stl_vector.h ****        *  @brief  Creates a %vector with no elements.
 485:c:\program files\daisytoolchain\arm-none-eabi\include\c++\10.2.1\bits\stl_vector.h ****        */
 486:c:\program files\daisytoolchain\arm-none-eabi\include\c++\10.2.1\bits\stl_vector.h **** #if __cplusplus >= 201103L
 487:c:\program files\daisytoolchain\arm-none-eabi\include\c++\10.2.1\bits\stl_vector.h ****       vector() = default;
 488:c:\program files\daisytoolchain\arm-none-eabi\include\c++\10.2.1\bits\stl_vector.h **** #else
 489:c:\program files\daisytoolchain\arm-none-eabi\include\c++\10.2.1\bits\stl_vector.h ****       vector() { }
 490:c:\program files\daisytoolchain\arm-none-eabi\include\c++\10.2.1\bits\stl_vector.h **** #endif
 491:c:\program files\daisytoolchain\arm-none-eabi\include\c++\10.2.1\bits\stl_vector.h **** 
 492:c:\program files\daisytoolchain\arm-none-eabi\include\c++\10.2.1\bits\stl_vector.h ****       /**
 493:c:\program files\daisytoolchain\arm-none-eabi\include\c++\10.2.1\bits\stl_vector.h ****        *  @brief  Creates a %vector with no elements.
 494:c:\program files\daisytoolchain\arm-none-eabi\include\c++\10.2.1\bits\stl_vector.h ****        *  @param  __a  An allocator object.
 495:c:\program files\daisytoolchain\arm-none-eabi\include\c++\10.2.1\bits\stl_vector.h ****        */
 496:c:\program files\daisytoolchain\arm-none-eabi\include\c++\10.2.1\bits\stl_vector.h ****       explicit
 497:c:\program files\daisytoolchain\arm-none-eabi\include\c++\10.2.1\bits\stl_vector.h ****       vector(const allocator_type& __a) _GLIBCXX_NOEXCEPT
 498:c:\program files\daisytoolchain\arm-none-eabi\include\c++\10.2.1\bits\stl_vector.h ****       : _Base(__a) { }
 499:c:\program files\daisytoolchain\arm-none-eabi\include\c++\10.2.1\bits\stl_vector.h **** 
 500:c:\program files\daisytoolchain\arm-none-eabi\include\c++\10.2.1\bits\stl_vector.h **** #if __cplusplus >= 201103L
 501:c:\program files\daisytoolchain\arm-none-eabi\include\c++\10.2.1\bits\stl_vector.h ****       /**
 502:c:\program files\daisytoolchain\arm-none-eabi\include\c++\10.2.1\bits\stl_vector.h ****        *  @brief  Creates a %vector with default constructed elements.
 503:c:\program files\daisytoolchain\arm-none-eabi\include\c++\10.2.1\bits\stl_vector.h ****        *  @param  __n  The number of elements to initially create.
 504:c:\program files\daisytoolchain\arm-none-eabi\include\c++\10.2.1\bits\stl_vector.h ****        *  @param  __a  An allocator.
 505:c:\program files\daisytoolchain\arm-none-eabi\include\c++\10.2.1\bits\stl_vector.h ****        *
 506:c:\program files\daisytoolchain\arm-none-eabi\include\c++\10.2.1\bits\stl_vector.h ****        *  This constructor fills the %vector with @a __n default
 507:c:\program files\daisytoolchain\arm-none-eabi\include\c++\10.2.1\bits\stl_vector.h ****        *  constructed elements.
 508:c:\program files\daisytoolchain\arm-none-eabi\include\c++\10.2.1\bits\stl_vector.h ****        */
 509:c:\program files\daisytoolchain\arm-none-eabi\include\c++\10.2.1\bits\stl_vector.h ****       explicit
 510:c:\program files\daisytoolchain\arm-none-eabi\include\c++\10.2.1\bits\stl_vector.h ****       vector(size_type __n, const allocator_type& __a = allocator_type())
 511:c:\program files\daisytoolchain\arm-none-eabi\include\c++\10.2.1\bits\stl_vector.h ****       : _Base(_S_check_init_len(__n, __a), __a)
ARM GAS  C:\Users\samue\AppData\Local\Temp\cci865ja.s 			page 55


 512:c:\program files\daisytoolchain\arm-none-eabi\include\c++\10.2.1\bits\stl_vector.h ****       { _M_default_initialize(__n); }
 513:c:\program files\daisytoolchain\arm-none-eabi\include\c++\10.2.1\bits\stl_vector.h **** 
 514:c:\program files\daisytoolchain\arm-none-eabi\include\c++\10.2.1\bits\stl_vector.h ****       /**
 515:c:\program files\daisytoolchain\arm-none-eabi\include\c++\10.2.1\bits\stl_vector.h ****        *  @brief  Creates a %vector with copies of an exemplar element.
 516:c:\program files\daisytoolchain\arm-none-eabi\include\c++\10.2.1\bits\stl_vector.h ****        *  @param  __n  The number of elements to initially create.
 517:c:\program files\daisytoolchain\arm-none-eabi\include\c++\10.2.1\bits\stl_vector.h ****        *  @param  __value  An element to copy.
 518:c:\program files\daisytoolchain\arm-none-eabi\include\c++\10.2.1\bits\stl_vector.h ****        *  @param  __a  An allocator.
 519:c:\program files\daisytoolchain\arm-none-eabi\include\c++\10.2.1\bits\stl_vector.h ****        *
 520:c:\program files\daisytoolchain\arm-none-eabi\include\c++\10.2.1\bits\stl_vector.h ****        *  This constructor fills the %vector with @a __n copies of @a __value.
 521:c:\program files\daisytoolchain\arm-none-eabi\include\c++\10.2.1\bits\stl_vector.h ****        */
 522:c:\program files\daisytoolchain\arm-none-eabi\include\c++\10.2.1\bits\stl_vector.h ****       vector(size_type __n, const value_type& __value,
 523:c:\program files\daisytoolchain\arm-none-eabi\include\c++\10.2.1\bits\stl_vector.h **** 	     const allocator_type& __a = allocator_type())
 524:c:\program files\daisytoolchain\arm-none-eabi\include\c++\10.2.1\bits\stl_vector.h ****       : _Base(_S_check_init_len(__n, __a), __a)
 525:c:\program files\daisytoolchain\arm-none-eabi\include\c++\10.2.1\bits\stl_vector.h ****       { _M_fill_initialize(__n, __value); }
 526:c:\program files\daisytoolchain\arm-none-eabi\include\c++\10.2.1\bits\stl_vector.h **** #else
 527:c:\program files\daisytoolchain\arm-none-eabi\include\c++\10.2.1\bits\stl_vector.h ****       /**
 528:c:\program files\daisytoolchain\arm-none-eabi\include\c++\10.2.1\bits\stl_vector.h ****        *  @brief  Creates a %vector with copies of an exemplar element.
 529:c:\program files\daisytoolchain\arm-none-eabi\include\c++\10.2.1\bits\stl_vector.h ****        *  @param  __n  The number of elements to initially create.
 530:c:\program files\daisytoolchain\arm-none-eabi\include\c++\10.2.1\bits\stl_vector.h ****        *  @param  __value  An element to copy.
 531:c:\program files\daisytoolchain\arm-none-eabi\include\c++\10.2.1\bits\stl_vector.h ****        *  @param  __a  An allocator.
 532:c:\program files\daisytoolchain\arm-none-eabi\include\c++\10.2.1\bits\stl_vector.h ****        *
 533:c:\program files\daisytoolchain\arm-none-eabi\include\c++\10.2.1\bits\stl_vector.h ****        *  This constructor fills the %vector with @a __n copies of @a __value.
 534:c:\program files\daisytoolchain\arm-none-eabi\include\c++\10.2.1\bits\stl_vector.h ****        */
 535:c:\program files\daisytoolchain\arm-none-eabi\include\c++\10.2.1\bits\stl_vector.h ****       explicit
 536:c:\program files\daisytoolchain\arm-none-eabi\include\c++\10.2.1\bits\stl_vector.h ****       vector(size_type __n, const value_type& __value = value_type(),
 537:c:\program files\daisytoolchain\arm-none-eabi\include\c++\10.2.1\bits\stl_vector.h **** 	     const allocator_type& __a = allocator_type())
 538:c:\program files\daisytoolchain\arm-none-eabi\include\c++\10.2.1\bits\stl_vector.h ****       : _Base(_S_check_init_len(__n, __a), __a)
 539:c:\program files\daisytoolchain\arm-none-eabi\include\c++\10.2.1\bits\stl_vector.h ****       { _M_fill_initialize(__n, __value); }
 540:c:\program files\daisytoolchain\arm-none-eabi\include\c++\10.2.1\bits\stl_vector.h **** #endif
 541:c:\program files\daisytoolchain\arm-none-eabi\include\c++\10.2.1\bits\stl_vector.h **** 
 542:c:\program files\daisytoolchain\arm-none-eabi\include\c++\10.2.1\bits\stl_vector.h ****       /**
 543:c:\program files\daisytoolchain\arm-none-eabi\include\c++\10.2.1\bits\stl_vector.h ****        *  @brief  %Vector copy constructor.
 544:c:\program files\daisytoolchain\arm-none-eabi\include\c++\10.2.1\bits\stl_vector.h ****        *  @param  __x  A %vector of identical element and allocator types.
 545:c:\program files\daisytoolchain\arm-none-eabi\include\c++\10.2.1\bits\stl_vector.h ****        *
 546:c:\program files\daisytoolchain\arm-none-eabi\include\c++\10.2.1\bits\stl_vector.h ****        *  All the elements of @a __x are copied, but any unused capacity in
 547:c:\program files\daisytoolchain\arm-none-eabi\include\c++\10.2.1\bits\stl_vector.h ****        *  @a __x  will not be copied
 548:c:\program files\daisytoolchain\arm-none-eabi\include\c++\10.2.1\bits\stl_vector.h ****        *  (i.e. capacity() == size() in the new %vector).
 549:c:\program files\daisytoolchain\arm-none-eabi\include\c++\10.2.1\bits\stl_vector.h ****        *
 550:c:\program files\daisytoolchain\arm-none-eabi\include\c++\10.2.1\bits\stl_vector.h ****        *  The newly-created %vector uses a copy of the allocator object used
 551:c:\program files\daisytoolchain\arm-none-eabi\include\c++\10.2.1\bits\stl_vector.h ****        *  by @a __x (unless the allocator traits dictate a different object).
 552:c:\program files\daisytoolchain\arm-none-eabi\include\c++\10.2.1\bits\stl_vector.h ****        */
 553:c:\program files\daisytoolchain\arm-none-eabi\include\c++\10.2.1\bits\stl_vector.h ****       vector(const vector& __x)
 554:c:\program files\daisytoolchain\arm-none-eabi\include\c++\10.2.1\bits\stl_vector.h ****       : _Base(__x.size(),
 555:c:\program files\daisytoolchain\arm-none-eabi\include\c++\10.2.1\bits\stl_vector.h **** 	_Alloc_traits::_S_select_on_copy(__x._M_get_Tp_allocator()))
 556:c:\program files\daisytoolchain\arm-none-eabi\include\c++\10.2.1\bits\stl_vector.h ****       {
 557:c:\program files\daisytoolchain\arm-none-eabi\include\c++\10.2.1\bits\stl_vector.h **** 	this->_M_impl._M_finish =
 558:c:\program files\daisytoolchain\arm-none-eabi\include\c++\10.2.1\bits\stl_vector.h **** 	  std::__uninitialized_copy_a(__x.begin(), __x.end(),
 559:c:\program files\daisytoolchain\arm-none-eabi\include\c++\10.2.1\bits\stl_vector.h **** 				      this->_M_impl._M_start,
 560:c:\program files\daisytoolchain\arm-none-eabi\include\c++\10.2.1\bits\stl_vector.h **** 				      _M_get_Tp_allocator());
 561:c:\program files\daisytoolchain\arm-none-eabi\include\c++\10.2.1\bits\stl_vector.h ****       }
 562:c:\program files\daisytoolchain\arm-none-eabi\include\c++\10.2.1\bits\stl_vector.h **** 
 563:c:\program files\daisytoolchain\arm-none-eabi\include\c++\10.2.1\bits\stl_vector.h **** #if __cplusplus >= 201103L
 564:c:\program files\daisytoolchain\arm-none-eabi\include\c++\10.2.1\bits\stl_vector.h ****       /**
 565:c:\program files\daisytoolchain\arm-none-eabi\include\c++\10.2.1\bits\stl_vector.h ****        *  @brief  %Vector move constructor.
 566:c:\program files\daisytoolchain\arm-none-eabi\include\c++\10.2.1\bits\stl_vector.h ****        *
 567:c:\program files\daisytoolchain\arm-none-eabi\include\c++\10.2.1\bits\stl_vector.h ****        *  The newly-created %vector contains the exact contents of the
 568:c:\program files\daisytoolchain\arm-none-eabi\include\c++\10.2.1\bits\stl_vector.h ****        *  moved instance.
ARM GAS  C:\Users\samue\AppData\Local\Temp\cci865ja.s 			page 56


 569:c:\program files\daisytoolchain\arm-none-eabi\include\c++\10.2.1\bits\stl_vector.h ****        *  The contents of the moved instance are a valid, but unspecified
 570:c:\program files\daisytoolchain\arm-none-eabi\include\c++\10.2.1\bits\stl_vector.h ****        *  %vector.
 571:c:\program files\daisytoolchain\arm-none-eabi\include\c++\10.2.1\bits\stl_vector.h ****        */
 572:c:\program files\daisytoolchain\arm-none-eabi\include\c++\10.2.1\bits\stl_vector.h ****       vector(vector&&) noexcept = default;
 573:c:\program files\daisytoolchain\arm-none-eabi\include\c++\10.2.1\bits\stl_vector.h **** 
 574:c:\program files\daisytoolchain\arm-none-eabi\include\c++\10.2.1\bits\stl_vector.h ****       /// Copy constructor with alternative allocator
 575:c:\program files\daisytoolchain\arm-none-eabi\include\c++\10.2.1\bits\stl_vector.h ****       vector(const vector& __x, const allocator_type& __a)
 576:c:\program files\daisytoolchain\arm-none-eabi\include\c++\10.2.1\bits\stl_vector.h ****       : _Base(__x.size(), __a)
 577:c:\program files\daisytoolchain\arm-none-eabi\include\c++\10.2.1\bits\stl_vector.h ****       {
 578:c:\program files\daisytoolchain\arm-none-eabi\include\c++\10.2.1\bits\stl_vector.h **** 	this->_M_impl._M_finish =
 579:c:\program files\daisytoolchain\arm-none-eabi\include\c++\10.2.1\bits\stl_vector.h **** 	  std::__uninitialized_copy_a(__x.begin(), __x.end(),
 580:c:\program files\daisytoolchain\arm-none-eabi\include\c++\10.2.1\bits\stl_vector.h **** 				      this->_M_impl._M_start,
 581:c:\program files\daisytoolchain\arm-none-eabi\include\c++\10.2.1\bits\stl_vector.h **** 				      _M_get_Tp_allocator());
 582:c:\program files\daisytoolchain\arm-none-eabi\include\c++\10.2.1\bits\stl_vector.h ****       }
 583:c:\program files\daisytoolchain\arm-none-eabi\include\c++\10.2.1\bits\stl_vector.h **** 
 584:c:\program files\daisytoolchain\arm-none-eabi\include\c++\10.2.1\bits\stl_vector.h ****     private:
 585:c:\program files\daisytoolchain\arm-none-eabi\include\c++\10.2.1\bits\stl_vector.h ****       vector(vector&& __rv, const allocator_type& __m, true_type) noexcept
 586:c:\program files\daisytoolchain\arm-none-eabi\include\c++\10.2.1\bits\stl_vector.h ****       : _Base(__m, std::move(__rv))
 587:c:\program files\daisytoolchain\arm-none-eabi\include\c++\10.2.1\bits\stl_vector.h ****       { }
 588:c:\program files\daisytoolchain\arm-none-eabi\include\c++\10.2.1\bits\stl_vector.h **** 
 589:c:\program files\daisytoolchain\arm-none-eabi\include\c++\10.2.1\bits\stl_vector.h ****       vector(vector&& __rv, const allocator_type& __m, false_type)
 590:c:\program files\daisytoolchain\arm-none-eabi\include\c++\10.2.1\bits\stl_vector.h ****       : _Base(__m)
 591:c:\program files\daisytoolchain\arm-none-eabi\include\c++\10.2.1\bits\stl_vector.h ****       {
 592:c:\program files\daisytoolchain\arm-none-eabi\include\c++\10.2.1\bits\stl_vector.h **** 	if (__rv.get_allocator() == __m)
 593:c:\program files\daisytoolchain\arm-none-eabi\include\c++\10.2.1\bits\stl_vector.h **** 	  this->_M_impl._M_swap_data(__rv._M_impl);
 594:c:\program files\daisytoolchain\arm-none-eabi\include\c++\10.2.1\bits\stl_vector.h **** 	else if (!__rv.empty())
 595:c:\program files\daisytoolchain\arm-none-eabi\include\c++\10.2.1\bits\stl_vector.h **** 	  {
 596:c:\program files\daisytoolchain\arm-none-eabi\include\c++\10.2.1\bits\stl_vector.h **** 	    this->_M_create_storage(__rv.size());
 597:c:\program files\daisytoolchain\arm-none-eabi\include\c++\10.2.1\bits\stl_vector.h **** 	    this->_M_impl._M_finish =
 598:c:\program files\daisytoolchain\arm-none-eabi\include\c++\10.2.1\bits\stl_vector.h **** 	      std::__uninitialized_move_a(__rv.begin(), __rv.end(),
 599:c:\program files\daisytoolchain\arm-none-eabi\include\c++\10.2.1\bits\stl_vector.h **** 					  this->_M_impl._M_start,
 600:c:\program files\daisytoolchain\arm-none-eabi\include\c++\10.2.1\bits\stl_vector.h **** 					  _M_get_Tp_allocator());
 601:c:\program files\daisytoolchain\arm-none-eabi\include\c++\10.2.1\bits\stl_vector.h **** 	    __rv.clear();
 602:c:\program files\daisytoolchain\arm-none-eabi\include\c++\10.2.1\bits\stl_vector.h **** 	  }
 603:c:\program files\daisytoolchain\arm-none-eabi\include\c++\10.2.1\bits\stl_vector.h ****       }
 604:c:\program files\daisytoolchain\arm-none-eabi\include\c++\10.2.1\bits\stl_vector.h **** 
 605:c:\program files\daisytoolchain\arm-none-eabi\include\c++\10.2.1\bits\stl_vector.h ****     public:
 606:c:\program files\daisytoolchain\arm-none-eabi\include\c++\10.2.1\bits\stl_vector.h ****       /// Move constructor with alternative allocator
 607:c:\program files\daisytoolchain\arm-none-eabi\include\c++\10.2.1\bits\stl_vector.h ****       vector(vector&& __rv, const allocator_type& __m)
 608:c:\program files\daisytoolchain\arm-none-eabi\include\c++\10.2.1\bits\stl_vector.h ****       noexcept( noexcept(
 609:c:\program files\daisytoolchain\arm-none-eabi\include\c++\10.2.1\bits\stl_vector.h **** 	vector(std::declval<vector&&>(), std::declval<const allocator_type&>(),
 610:c:\program files\daisytoolchain\arm-none-eabi\include\c++\10.2.1\bits\stl_vector.h **** 	       std::declval<typename _Alloc_traits::is_always_equal>())) )
 611:c:\program files\daisytoolchain\arm-none-eabi\include\c++\10.2.1\bits\stl_vector.h ****       : vector(std::move(__rv), __m, typename _Alloc_traits::is_always_equal{})
 612:c:\program files\daisytoolchain\arm-none-eabi\include\c++\10.2.1\bits\stl_vector.h ****       { }
 613:c:\program files\daisytoolchain\arm-none-eabi\include\c++\10.2.1\bits\stl_vector.h **** 
 614:c:\program files\daisytoolchain\arm-none-eabi\include\c++\10.2.1\bits\stl_vector.h ****       /**
 615:c:\program files\daisytoolchain\arm-none-eabi\include\c++\10.2.1\bits\stl_vector.h ****        *  @brief  Builds a %vector from an initializer list.
 616:c:\program files\daisytoolchain\arm-none-eabi\include\c++\10.2.1\bits\stl_vector.h ****        *  @param  __l  An initializer_list.
 617:c:\program files\daisytoolchain\arm-none-eabi\include\c++\10.2.1\bits\stl_vector.h ****        *  @param  __a  An allocator.
 618:c:\program files\daisytoolchain\arm-none-eabi\include\c++\10.2.1\bits\stl_vector.h ****        *
 619:c:\program files\daisytoolchain\arm-none-eabi\include\c++\10.2.1\bits\stl_vector.h ****        *  Create a %vector consisting of copies of the elements in the
 620:c:\program files\daisytoolchain\arm-none-eabi\include\c++\10.2.1\bits\stl_vector.h ****        *  initializer_list @a __l.
 621:c:\program files\daisytoolchain\arm-none-eabi\include\c++\10.2.1\bits\stl_vector.h ****        *
 622:c:\program files\daisytoolchain\arm-none-eabi\include\c++\10.2.1\bits\stl_vector.h ****        *  This will call the element type's copy constructor N times
 623:c:\program files\daisytoolchain\arm-none-eabi\include\c++\10.2.1\bits\stl_vector.h ****        *  (where N is @a __l.size()) and do no memory reallocation.
 624:c:\program files\daisytoolchain\arm-none-eabi\include\c++\10.2.1\bits\stl_vector.h ****        */
 625:c:\program files\daisytoolchain\arm-none-eabi\include\c++\10.2.1\bits\stl_vector.h ****       vector(initializer_list<value_type> __l,
ARM GAS  C:\Users\samue\AppData\Local\Temp\cci865ja.s 			page 57


 626:c:\program files\daisytoolchain\arm-none-eabi\include\c++\10.2.1\bits\stl_vector.h **** 	     const allocator_type& __a = allocator_type())
 627:c:\program files\daisytoolchain\arm-none-eabi\include\c++\10.2.1\bits\stl_vector.h ****       : _Base(__a)
 628:c:\program files\daisytoolchain\arm-none-eabi\include\c++\10.2.1\bits\stl_vector.h ****       {
 629:c:\program files\daisytoolchain\arm-none-eabi\include\c++\10.2.1\bits\stl_vector.h **** 	_M_range_initialize(__l.begin(), __l.end(),
 630:c:\program files\daisytoolchain\arm-none-eabi\include\c++\10.2.1\bits\stl_vector.h **** 			    random_access_iterator_tag());
 631:c:\program files\daisytoolchain\arm-none-eabi\include\c++\10.2.1\bits\stl_vector.h ****       }
 632:c:\program files\daisytoolchain\arm-none-eabi\include\c++\10.2.1\bits\stl_vector.h **** #endif
 633:c:\program files\daisytoolchain\arm-none-eabi\include\c++\10.2.1\bits\stl_vector.h **** 
 634:c:\program files\daisytoolchain\arm-none-eabi\include\c++\10.2.1\bits\stl_vector.h ****       /**
 635:c:\program files\daisytoolchain\arm-none-eabi\include\c++\10.2.1\bits\stl_vector.h ****        *  @brief  Builds a %vector from a range.
 636:c:\program files\daisytoolchain\arm-none-eabi\include\c++\10.2.1\bits\stl_vector.h ****        *  @param  __first  An input iterator.
 637:c:\program files\daisytoolchain\arm-none-eabi\include\c++\10.2.1\bits\stl_vector.h ****        *  @param  __last  An input iterator.
 638:c:\program files\daisytoolchain\arm-none-eabi\include\c++\10.2.1\bits\stl_vector.h ****        *  @param  __a  An allocator.
 639:c:\program files\daisytoolchain\arm-none-eabi\include\c++\10.2.1\bits\stl_vector.h ****        *
 640:c:\program files\daisytoolchain\arm-none-eabi\include\c++\10.2.1\bits\stl_vector.h ****        *  Create a %vector consisting of copies of the elements from
 641:c:\program files\daisytoolchain\arm-none-eabi\include\c++\10.2.1\bits\stl_vector.h ****        *  [first,last).
 642:c:\program files\daisytoolchain\arm-none-eabi\include\c++\10.2.1\bits\stl_vector.h ****        *
 643:c:\program files\daisytoolchain\arm-none-eabi\include\c++\10.2.1\bits\stl_vector.h ****        *  If the iterators are forward, bidirectional, or
 644:c:\program files\daisytoolchain\arm-none-eabi\include\c++\10.2.1\bits\stl_vector.h ****        *  random-access, then this will call the elements' copy
 645:c:\program files\daisytoolchain\arm-none-eabi\include\c++\10.2.1\bits\stl_vector.h ****        *  constructor N times (where N is distance(first,last)) and do
 646:c:\program files\daisytoolchain\arm-none-eabi\include\c++\10.2.1\bits\stl_vector.h ****        *  no memory reallocation.  But if only input iterators are
 647:c:\program files\daisytoolchain\arm-none-eabi\include\c++\10.2.1\bits\stl_vector.h ****        *  used, then this will do at most 2N calls to the copy
 648:c:\program files\daisytoolchain\arm-none-eabi\include\c++\10.2.1\bits\stl_vector.h ****        *  constructor, and logN memory reallocations.
 649:c:\program files\daisytoolchain\arm-none-eabi\include\c++\10.2.1\bits\stl_vector.h ****        */
 650:c:\program files\daisytoolchain\arm-none-eabi\include\c++\10.2.1\bits\stl_vector.h **** #if __cplusplus >= 201103L
 651:c:\program files\daisytoolchain\arm-none-eabi\include\c++\10.2.1\bits\stl_vector.h ****       template<typename _InputIterator,
 652:c:\program files\daisytoolchain\arm-none-eabi\include\c++\10.2.1\bits\stl_vector.h **** 	       typename = std::_RequireInputIter<_InputIterator>>
 653:c:\program files\daisytoolchain\arm-none-eabi\include\c++\10.2.1\bits\stl_vector.h **** 	vector(_InputIterator __first, _InputIterator __last,
 654:c:\program files\daisytoolchain\arm-none-eabi\include\c++\10.2.1\bits\stl_vector.h **** 	       const allocator_type& __a = allocator_type())
 655:c:\program files\daisytoolchain\arm-none-eabi\include\c++\10.2.1\bits\stl_vector.h **** 	: _Base(__a)
 656:c:\program files\daisytoolchain\arm-none-eabi\include\c++\10.2.1\bits\stl_vector.h **** 	{
 657:c:\program files\daisytoolchain\arm-none-eabi\include\c++\10.2.1\bits\stl_vector.h **** 	  _M_range_initialize(__first, __last,
 658:c:\program files\daisytoolchain\arm-none-eabi\include\c++\10.2.1\bits\stl_vector.h **** 			      std::__iterator_category(__first));
 659:c:\program files\daisytoolchain\arm-none-eabi\include\c++\10.2.1\bits\stl_vector.h **** 	}
 660:c:\program files\daisytoolchain\arm-none-eabi\include\c++\10.2.1\bits\stl_vector.h **** #else
 661:c:\program files\daisytoolchain\arm-none-eabi\include\c++\10.2.1\bits\stl_vector.h ****       template<typename _InputIterator>
 662:c:\program files\daisytoolchain\arm-none-eabi\include\c++\10.2.1\bits\stl_vector.h **** 	vector(_InputIterator __first, _InputIterator __last,
 663:c:\program files\daisytoolchain\arm-none-eabi\include\c++\10.2.1\bits\stl_vector.h **** 	       const allocator_type& __a = allocator_type())
 664:c:\program files\daisytoolchain\arm-none-eabi\include\c++\10.2.1\bits\stl_vector.h **** 	: _Base(__a)
 665:c:\program files\daisytoolchain\arm-none-eabi\include\c++\10.2.1\bits\stl_vector.h **** 	{
 666:c:\program files\daisytoolchain\arm-none-eabi\include\c++\10.2.1\bits\stl_vector.h **** 	  // Check whether it's an integral type.  If so, it's not an iterator.
 667:c:\program files\daisytoolchain\arm-none-eabi\include\c++\10.2.1\bits\stl_vector.h **** 	  typedef typename std::__is_integer<_InputIterator>::__type _Integral;
 668:c:\program files\daisytoolchain\arm-none-eabi\include\c++\10.2.1\bits\stl_vector.h **** 	  _M_initialize_dispatch(__first, __last, _Integral());
 669:c:\program files\daisytoolchain\arm-none-eabi\include\c++\10.2.1\bits\stl_vector.h **** 	}
 670:c:\program files\daisytoolchain\arm-none-eabi\include\c++\10.2.1\bits\stl_vector.h **** #endif
 671:c:\program files\daisytoolchain\arm-none-eabi\include\c++\10.2.1\bits\stl_vector.h **** 
 672:c:\program files\daisytoolchain\arm-none-eabi\include\c++\10.2.1\bits\stl_vector.h ****       /**
 673:c:\program files\daisytoolchain\arm-none-eabi\include\c++\10.2.1\bits\stl_vector.h ****        *  The dtor only erases the elements, and note that if the
 674:c:\program files\daisytoolchain\arm-none-eabi\include\c++\10.2.1\bits\stl_vector.h ****        *  elements themselves are pointers, the pointed-to memory is
 675:c:\program files\daisytoolchain\arm-none-eabi\include\c++\10.2.1\bits\stl_vector.h ****        *  not touched in any way.  Managing the pointer is the user's
 676:c:\program files\daisytoolchain\arm-none-eabi\include\c++\10.2.1\bits\stl_vector.h ****        *  responsibility.
 677:c:\program files\daisytoolchain\arm-none-eabi\include\c++\10.2.1\bits\stl_vector.h ****        */
 678:c:\program files\daisytoolchain\arm-none-eabi\include\c++\10.2.1\bits\stl_vector.h ****       ~vector() _GLIBCXX_NOEXCEPT
 679:c:\program files\daisytoolchain\arm-none-eabi\include\c++\10.2.1\bits\stl_vector.h ****       {
 680:c:\program files\daisytoolchain\arm-none-eabi\include\c++\10.2.1\bits\stl_vector.h **** 	std::_Destroy(this->_M_impl._M_start, this->_M_impl._M_finish,
 681:c:\program files\daisytoolchain\arm-none-eabi\include\c++\10.2.1\bits\stl_vector.h **** 		      _M_get_Tp_allocator());
 682:c:\program files\daisytoolchain\arm-none-eabi\include\c++\10.2.1\bits\stl_vector.h **** 	_GLIBCXX_ASAN_ANNOTATE_BEFORE_DEALLOC;
ARM GAS  C:\Users\samue\AppData\Local\Temp\cci865ja.s 			page 58


 683:c:\program files\daisytoolchain\arm-none-eabi\include\c++\10.2.1\bits\stl_vector.h ****       }
 684:c:\program files\daisytoolchain\arm-none-eabi\include\c++\10.2.1\bits\stl_vector.h **** 
 685:c:\program files\daisytoolchain\arm-none-eabi\include\c++\10.2.1\bits\stl_vector.h ****       /**
 686:c:\program files\daisytoolchain\arm-none-eabi\include\c++\10.2.1\bits\stl_vector.h ****        *  @brief  %Vector assignment operator.
 687:c:\program files\daisytoolchain\arm-none-eabi\include\c++\10.2.1\bits\stl_vector.h ****        *  @param  __x  A %vector of identical element and allocator types.
 688:c:\program files\daisytoolchain\arm-none-eabi\include\c++\10.2.1\bits\stl_vector.h ****        *
 689:c:\program files\daisytoolchain\arm-none-eabi\include\c++\10.2.1\bits\stl_vector.h ****        *  All the elements of @a __x are copied, but any unused capacity in
 690:c:\program files\daisytoolchain\arm-none-eabi\include\c++\10.2.1\bits\stl_vector.h ****        *  @a __x will not be copied.
 691:c:\program files\daisytoolchain\arm-none-eabi\include\c++\10.2.1\bits\stl_vector.h ****        *
 692:c:\program files\daisytoolchain\arm-none-eabi\include\c++\10.2.1\bits\stl_vector.h ****        *  Whether the allocator is copied depends on the allocator traits.
 693:c:\program files\daisytoolchain\arm-none-eabi\include\c++\10.2.1\bits\stl_vector.h ****        */
 694:c:\program files\daisytoolchain\arm-none-eabi\include\c++\10.2.1\bits\stl_vector.h ****       vector&
 695:c:\program files\daisytoolchain\arm-none-eabi\include\c++\10.2.1\bits\stl_vector.h ****       operator=(const vector& __x);
 696:c:\program files\daisytoolchain\arm-none-eabi\include\c++\10.2.1\bits\stl_vector.h **** 
 697:c:\program files\daisytoolchain\arm-none-eabi\include\c++\10.2.1\bits\stl_vector.h **** #if __cplusplus >= 201103L
 698:c:\program files\daisytoolchain\arm-none-eabi\include\c++\10.2.1\bits\stl_vector.h ****       /**
 699:c:\program files\daisytoolchain\arm-none-eabi\include\c++\10.2.1\bits\stl_vector.h ****        *  @brief  %Vector move assignment operator.
 700:c:\program files\daisytoolchain\arm-none-eabi\include\c++\10.2.1\bits\stl_vector.h ****        *  @param  __x  A %vector of identical element and allocator types.
 701:c:\program files\daisytoolchain\arm-none-eabi\include\c++\10.2.1\bits\stl_vector.h ****        *
 702:c:\program files\daisytoolchain\arm-none-eabi\include\c++\10.2.1\bits\stl_vector.h ****        *  The contents of @a __x are moved into this %vector (without copying,
 703:c:\program files\daisytoolchain\arm-none-eabi\include\c++\10.2.1\bits\stl_vector.h ****        *  if the allocators permit it).
 704:c:\program files\daisytoolchain\arm-none-eabi\include\c++\10.2.1\bits\stl_vector.h ****        *  Afterwards @a __x is a valid, but unspecified %vector.
 705:c:\program files\daisytoolchain\arm-none-eabi\include\c++\10.2.1\bits\stl_vector.h ****        *
 706:c:\program files\daisytoolchain\arm-none-eabi\include\c++\10.2.1\bits\stl_vector.h ****        *  Whether the allocator is moved depends on the allocator traits.
 707:c:\program files\daisytoolchain\arm-none-eabi\include\c++\10.2.1\bits\stl_vector.h ****        */
 708:c:\program files\daisytoolchain\arm-none-eabi\include\c++\10.2.1\bits\stl_vector.h ****       vector&
 709:c:\program files\daisytoolchain\arm-none-eabi\include\c++\10.2.1\bits\stl_vector.h ****       operator=(vector&& __x) noexcept(_Alloc_traits::_S_nothrow_move())
 710:c:\program files\daisytoolchain\arm-none-eabi\include\c++\10.2.1\bits\stl_vector.h ****       {
 711:c:\program files\daisytoolchain\arm-none-eabi\include\c++\10.2.1\bits\stl_vector.h **** 	constexpr bool __move_storage =
 712:c:\program files\daisytoolchain\arm-none-eabi\include\c++\10.2.1\bits\stl_vector.h **** 	  _Alloc_traits::_S_propagate_on_move_assign()
 713:c:\program files\daisytoolchain\arm-none-eabi\include\c++\10.2.1\bits\stl_vector.h **** 	  || _Alloc_traits::_S_always_equal();
 714:c:\program files\daisytoolchain\arm-none-eabi\include\c++\10.2.1\bits\stl_vector.h **** 	_M_move_assign(std::move(__x), __bool_constant<__move_storage>());
 715:c:\program files\daisytoolchain\arm-none-eabi\include\c++\10.2.1\bits\stl_vector.h **** 	return *this;
 716:c:\program files\daisytoolchain\arm-none-eabi\include\c++\10.2.1\bits\stl_vector.h ****       }
 717:c:\program files\daisytoolchain\arm-none-eabi\include\c++\10.2.1\bits\stl_vector.h **** 
 718:c:\program files\daisytoolchain\arm-none-eabi\include\c++\10.2.1\bits\stl_vector.h ****       /**
 719:c:\program files\daisytoolchain\arm-none-eabi\include\c++\10.2.1\bits\stl_vector.h ****        *  @brief  %Vector list assignment operator.
 720:c:\program files\daisytoolchain\arm-none-eabi\include\c++\10.2.1\bits\stl_vector.h ****        *  @param  __l  An initializer_list.
 721:c:\program files\daisytoolchain\arm-none-eabi\include\c++\10.2.1\bits\stl_vector.h ****        *
 722:c:\program files\daisytoolchain\arm-none-eabi\include\c++\10.2.1\bits\stl_vector.h ****        *  This function fills a %vector with copies of the elements in the
 723:c:\program files\daisytoolchain\arm-none-eabi\include\c++\10.2.1\bits\stl_vector.h ****        *  initializer list @a __l.
 724:c:\program files\daisytoolchain\arm-none-eabi\include\c++\10.2.1\bits\stl_vector.h ****        *
 725:c:\program files\daisytoolchain\arm-none-eabi\include\c++\10.2.1\bits\stl_vector.h ****        *  Note that the assignment completely changes the %vector and
 726:c:\program files\daisytoolchain\arm-none-eabi\include\c++\10.2.1\bits\stl_vector.h ****        *  that the resulting %vector's size is the same as the number
 727:c:\program files\daisytoolchain\arm-none-eabi\include\c++\10.2.1\bits\stl_vector.h ****        *  of elements assigned.
 728:c:\program files\daisytoolchain\arm-none-eabi\include\c++\10.2.1\bits\stl_vector.h ****        */
 729:c:\program files\daisytoolchain\arm-none-eabi\include\c++\10.2.1\bits\stl_vector.h ****       vector&
 730:c:\program files\daisytoolchain\arm-none-eabi\include\c++\10.2.1\bits\stl_vector.h ****       operator=(initializer_list<value_type> __l)
 731:c:\program files\daisytoolchain\arm-none-eabi\include\c++\10.2.1\bits\stl_vector.h ****       {
 732:c:\program files\daisytoolchain\arm-none-eabi\include\c++\10.2.1\bits\stl_vector.h **** 	this->_M_assign_aux(__l.begin(), __l.end(),
 733:c:\program files\daisytoolchain\arm-none-eabi\include\c++\10.2.1\bits\stl_vector.h **** 			    random_access_iterator_tag());
 734:c:\program files\daisytoolchain\arm-none-eabi\include\c++\10.2.1\bits\stl_vector.h **** 	return *this;
 735:c:\program files\daisytoolchain\arm-none-eabi\include\c++\10.2.1\bits\stl_vector.h ****       }
 736:c:\program files\daisytoolchain\arm-none-eabi\include\c++\10.2.1\bits\stl_vector.h **** #endif
 737:c:\program files\daisytoolchain\arm-none-eabi\include\c++\10.2.1\bits\stl_vector.h **** 
 738:c:\program files\daisytoolchain\arm-none-eabi\include\c++\10.2.1\bits\stl_vector.h ****       /**
 739:c:\program files\daisytoolchain\arm-none-eabi\include\c++\10.2.1\bits\stl_vector.h ****        *  @brief  Assigns a given value to a %vector.
ARM GAS  C:\Users\samue\AppData\Local\Temp\cci865ja.s 			page 59


 740:c:\program files\daisytoolchain\arm-none-eabi\include\c++\10.2.1\bits\stl_vector.h ****        *  @param  __n  Number of elements to be assigned.
 741:c:\program files\daisytoolchain\arm-none-eabi\include\c++\10.2.1\bits\stl_vector.h ****        *  @param  __val  Value to be assigned.
 742:c:\program files\daisytoolchain\arm-none-eabi\include\c++\10.2.1\bits\stl_vector.h ****        *
 743:c:\program files\daisytoolchain\arm-none-eabi\include\c++\10.2.1\bits\stl_vector.h ****        *  This function fills a %vector with @a __n copies of the given
 744:c:\program files\daisytoolchain\arm-none-eabi\include\c++\10.2.1\bits\stl_vector.h ****        *  value.  Note that the assignment completely changes the
 745:c:\program files\daisytoolchain\arm-none-eabi\include\c++\10.2.1\bits\stl_vector.h ****        *  %vector and that the resulting %vector's size is the same as
 746:c:\program files\daisytoolchain\arm-none-eabi\include\c++\10.2.1\bits\stl_vector.h ****        *  the number of elements assigned.
 747:c:\program files\daisytoolchain\arm-none-eabi\include\c++\10.2.1\bits\stl_vector.h ****        */
 748:c:\program files\daisytoolchain\arm-none-eabi\include\c++\10.2.1\bits\stl_vector.h ****       void
 749:c:\program files\daisytoolchain\arm-none-eabi\include\c++\10.2.1\bits\stl_vector.h ****       assign(size_type __n, const value_type& __val)
 750:c:\program files\daisytoolchain\arm-none-eabi\include\c++\10.2.1\bits\stl_vector.h ****       { _M_fill_assign(__n, __val); }
 751:c:\program files\daisytoolchain\arm-none-eabi\include\c++\10.2.1\bits\stl_vector.h **** 
 752:c:\program files\daisytoolchain\arm-none-eabi\include\c++\10.2.1\bits\stl_vector.h ****       /**
 753:c:\program files\daisytoolchain\arm-none-eabi\include\c++\10.2.1\bits\stl_vector.h ****        *  @brief  Assigns a range to a %vector.
 754:c:\program files\daisytoolchain\arm-none-eabi\include\c++\10.2.1\bits\stl_vector.h ****        *  @param  __first  An input iterator.
 755:c:\program files\daisytoolchain\arm-none-eabi\include\c++\10.2.1\bits\stl_vector.h ****        *  @param  __last   An input iterator.
 756:c:\program files\daisytoolchain\arm-none-eabi\include\c++\10.2.1\bits\stl_vector.h ****        *
 757:c:\program files\daisytoolchain\arm-none-eabi\include\c++\10.2.1\bits\stl_vector.h ****        *  This function fills a %vector with copies of the elements in the
 758:c:\program files\daisytoolchain\arm-none-eabi\include\c++\10.2.1\bits\stl_vector.h ****        *  range [__first,__last).
 759:c:\program files\daisytoolchain\arm-none-eabi\include\c++\10.2.1\bits\stl_vector.h ****        *
 760:c:\program files\daisytoolchain\arm-none-eabi\include\c++\10.2.1\bits\stl_vector.h ****        *  Note that the assignment completely changes the %vector and
 761:c:\program files\daisytoolchain\arm-none-eabi\include\c++\10.2.1\bits\stl_vector.h ****        *  that the resulting %vector's size is the same as the number
 762:c:\program files\daisytoolchain\arm-none-eabi\include\c++\10.2.1\bits\stl_vector.h ****        *  of elements assigned.
 763:c:\program files\daisytoolchain\arm-none-eabi\include\c++\10.2.1\bits\stl_vector.h ****        */
 764:c:\program files\daisytoolchain\arm-none-eabi\include\c++\10.2.1\bits\stl_vector.h **** #if __cplusplus >= 201103L
 765:c:\program files\daisytoolchain\arm-none-eabi\include\c++\10.2.1\bits\stl_vector.h ****       template<typename _InputIterator,
 766:c:\program files\daisytoolchain\arm-none-eabi\include\c++\10.2.1\bits\stl_vector.h **** 	       typename = std::_RequireInputIter<_InputIterator>>
 767:c:\program files\daisytoolchain\arm-none-eabi\include\c++\10.2.1\bits\stl_vector.h **** 	void
 768:c:\program files\daisytoolchain\arm-none-eabi\include\c++\10.2.1\bits\stl_vector.h **** 	assign(_InputIterator __first, _InputIterator __last)
 769:c:\program files\daisytoolchain\arm-none-eabi\include\c++\10.2.1\bits\stl_vector.h **** 	{ _M_assign_dispatch(__first, __last, __false_type()); }
 770:c:\program files\daisytoolchain\arm-none-eabi\include\c++\10.2.1\bits\stl_vector.h **** #else
 771:c:\program files\daisytoolchain\arm-none-eabi\include\c++\10.2.1\bits\stl_vector.h ****       template<typename _InputIterator>
 772:c:\program files\daisytoolchain\arm-none-eabi\include\c++\10.2.1\bits\stl_vector.h **** 	void
 773:c:\program files\daisytoolchain\arm-none-eabi\include\c++\10.2.1\bits\stl_vector.h **** 	assign(_InputIterator __first, _InputIterator __last)
 774:c:\program files\daisytoolchain\arm-none-eabi\include\c++\10.2.1\bits\stl_vector.h **** 	{
 775:c:\program files\daisytoolchain\arm-none-eabi\include\c++\10.2.1\bits\stl_vector.h **** 	  // Check whether it's an integral type.  If so, it's not an iterator.
 776:c:\program files\daisytoolchain\arm-none-eabi\include\c++\10.2.1\bits\stl_vector.h **** 	  typedef typename std::__is_integer<_InputIterator>::__type _Integral;
 777:c:\program files\daisytoolchain\arm-none-eabi\include\c++\10.2.1\bits\stl_vector.h **** 	  _M_assign_dispatch(__first, __last, _Integral());
 778:c:\program files\daisytoolchain\arm-none-eabi\include\c++\10.2.1\bits\stl_vector.h **** 	}
 779:c:\program files\daisytoolchain\arm-none-eabi\include\c++\10.2.1\bits\stl_vector.h **** #endif
 780:c:\program files\daisytoolchain\arm-none-eabi\include\c++\10.2.1\bits\stl_vector.h **** 
 781:c:\program files\daisytoolchain\arm-none-eabi\include\c++\10.2.1\bits\stl_vector.h **** #if __cplusplus >= 201103L
 782:c:\program files\daisytoolchain\arm-none-eabi\include\c++\10.2.1\bits\stl_vector.h ****       /**
 783:c:\program files\daisytoolchain\arm-none-eabi\include\c++\10.2.1\bits\stl_vector.h ****        *  @brief  Assigns an initializer list to a %vector.
 784:c:\program files\daisytoolchain\arm-none-eabi\include\c++\10.2.1\bits\stl_vector.h ****        *  @param  __l  An initializer_list.
 785:c:\program files\daisytoolchain\arm-none-eabi\include\c++\10.2.1\bits\stl_vector.h ****        *
 786:c:\program files\daisytoolchain\arm-none-eabi\include\c++\10.2.1\bits\stl_vector.h ****        *  This function fills a %vector with copies of the elements in the
 787:c:\program files\daisytoolchain\arm-none-eabi\include\c++\10.2.1\bits\stl_vector.h ****        *  initializer list @a __l.
 788:c:\program files\daisytoolchain\arm-none-eabi\include\c++\10.2.1\bits\stl_vector.h ****        *
 789:c:\program files\daisytoolchain\arm-none-eabi\include\c++\10.2.1\bits\stl_vector.h ****        *  Note that the assignment completely changes the %vector and
 790:c:\program files\daisytoolchain\arm-none-eabi\include\c++\10.2.1\bits\stl_vector.h ****        *  that the resulting %vector's size is the same as the number
 791:c:\program files\daisytoolchain\arm-none-eabi\include\c++\10.2.1\bits\stl_vector.h ****        *  of elements assigned.
 792:c:\program files\daisytoolchain\arm-none-eabi\include\c++\10.2.1\bits\stl_vector.h ****        */
 793:c:\program files\daisytoolchain\arm-none-eabi\include\c++\10.2.1\bits\stl_vector.h ****       void
 794:c:\program files\daisytoolchain\arm-none-eabi\include\c++\10.2.1\bits\stl_vector.h ****       assign(initializer_list<value_type> __l)
 795:c:\program files\daisytoolchain\arm-none-eabi\include\c++\10.2.1\bits\stl_vector.h ****       {
 796:c:\program files\daisytoolchain\arm-none-eabi\include\c++\10.2.1\bits\stl_vector.h **** 	this->_M_assign_aux(__l.begin(), __l.end(),
ARM GAS  C:\Users\samue\AppData\Local\Temp\cci865ja.s 			page 60


 797:c:\program files\daisytoolchain\arm-none-eabi\include\c++\10.2.1\bits\stl_vector.h **** 			    random_access_iterator_tag());
 798:c:\program files\daisytoolchain\arm-none-eabi\include\c++\10.2.1\bits\stl_vector.h ****       }
 799:c:\program files\daisytoolchain\arm-none-eabi\include\c++\10.2.1\bits\stl_vector.h **** #endif
 800:c:\program files\daisytoolchain\arm-none-eabi\include\c++\10.2.1\bits\stl_vector.h **** 
 801:c:\program files\daisytoolchain\arm-none-eabi\include\c++\10.2.1\bits\stl_vector.h ****       /// Get a copy of the memory allocation object.
 802:c:\program files\daisytoolchain\arm-none-eabi\include\c++\10.2.1\bits\stl_vector.h ****       using _Base::get_allocator;
 803:c:\program files\daisytoolchain\arm-none-eabi\include\c++\10.2.1\bits\stl_vector.h **** 
 804:c:\program files\daisytoolchain\arm-none-eabi\include\c++\10.2.1\bits\stl_vector.h ****       // iterators
 805:c:\program files\daisytoolchain\arm-none-eabi\include\c++\10.2.1\bits\stl_vector.h ****       /**
 806:c:\program files\daisytoolchain\arm-none-eabi\include\c++\10.2.1\bits\stl_vector.h ****        *  Returns a read/write iterator that points to the first
 807:c:\program files\daisytoolchain\arm-none-eabi\include\c++\10.2.1\bits\stl_vector.h ****        *  element in the %vector.  Iteration is done in ordinary
 808:c:\program files\daisytoolchain\arm-none-eabi\include\c++\10.2.1\bits\stl_vector.h ****        *  element order.
 809:c:\program files\daisytoolchain\arm-none-eabi\include\c++\10.2.1\bits\stl_vector.h ****        */
 810:c:\program files\daisytoolchain\arm-none-eabi\include\c++\10.2.1\bits\stl_vector.h ****       iterator
 811:c:\program files\daisytoolchain\arm-none-eabi\include\c++\10.2.1\bits\stl_vector.h ****       begin() _GLIBCXX_NOEXCEPT
 812:c:\program files\daisytoolchain\arm-none-eabi\include\c++\10.2.1\bits\stl_vector.h ****       { return iterator(this->_M_impl._M_start); }
 813:c:\program files\daisytoolchain\arm-none-eabi\include\c++\10.2.1\bits\stl_vector.h **** 
 814:c:\program files\daisytoolchain\arm-none-eabi\include\c++\10.2.1\bits\stl_vector.h ****       /**
 815:c:\program files\daisytoolchain\arm-none-eabi\include\c++\10.2.1\bits\stl_vector.h ****        *  Returns a read-only (constant) iterator that points to the
 816:c:\program files\daisytoolchain\arm-none-eabi\include\c++\10.2.1\bits\stl_vector.h ****        *  first element in the %vector.  Iteration is done in ordinary
 817:c:\program files\daisytoolchain\arm-none-eabi\include\c++\10.2.1\bits\stl_vector.h ****        *  element order.
 818:c:\program files\daisytoolchain\arm-none-eabi\include\c++\10.2.1\bits\stl_vector.h ****        */
 819:c:\program files\daisytoolchain\arm-none-eabi\include\c++\10.2.1\bits\stl_vector.h ****       const_iterator
 820:c:\program files\daisytoolchain\arm-none-eabi\include\c++\10.2.1\bits\stl_vector.h ****       begin() const _GLIBCXX_NOEXCEPT
 821:c:\program files\daisytoolchain\arm-none-eabi\include\c++\10.2.1\bits\stl_vector.h ****       { return const_iterator(this->_M_impl._M_start); }
 822:c:\program files\daisytoolchain\arm-none-eabi\include\c++\10.2.1\bits\stl_vector.h **** 
 823:c:\program files\daisytoolchain\arm-none-eabi\include\c++\10.2.1\bits\stl_vector.h ****       /**
 824:c:\program files\daisytoolchain\arm-none-eabi\include\c++\10.2.1\bits\stl_vector.h ****        *  Returns a read/write iterator that points one past the last
 825:c:\program files\daisytoolchain\arm-none-eabi\include\c++\10.2.1\bits\stl_vector.h ****        *  element in the %vector.  Iteration is done in ordinary
 826:c:\program files\daisytoolchain\arm-none-eabi\include\c++\10.2.1\bits\stl_vector.h ****        *  element order.
 827:c:\program files\daisytoolchain\arm-none-eabi\include\c++\10.2.1\bits\stl_vector.h ****        */
 828:c:\program files\daisytoolchain\arm-none-eabi\include\c++\10.2.1\bits\stl_vector.h ****       iterator
 829:c:\program files\daisytoolchain\arm-none-eabi\include\c++\10.2.1\bits\stl_vector.h ****       end() _GLIBCXX_NOEXCEPT
 830:c:\program files\daisytoolchain\arm-none-eabi\include\c++\10.2.1\bits\stl_vector.h ****       { return iterator(this->_M_impl._M_finish); }
 831:c:\program files\daisytoolchain\arm-none-eabi\include\c++\10.2.1\bits\stl_vector.h **** 
 832:c:\program files\daisytoolchain\arm-none-eabi\include\c++\10.2.1\bits\stl_vector.h ****       /**
 833:c:\program files\daisytoolchain\arm-none-eabi\include\c++\10.2.1\bits\stl_vector.h ****        *  Returns a read-only (constant) iterator that points one past
 834:c:\program files\daisytoolchain\arm-none-eabi\include\c++\10.2.1\bits\stl_vector.h ****        *  the last element in the %vector.  Iteration is done in
 835:c:\program files\daisytoolchain\arm-none-eabi\include\c++\10.2.1\bits\stl_vector.h ****        *  ordinary element order.
 836:c:\program files\daisytoolchain\arm-none-eabi\include\c++\10.2.1\bits\stl_vector.h ****        */
 837:c:\program files\daisytoolchain\arm-none-eabi\include\c++\10.2.1\bits\stl_vector.h ****       const_iterator
 838:c:\program files\daisytoolchain\arm-none-eabi\include\c++\10.2.1\bits\stl_vector.h ****       end() const _GLIBCXX_NOEXCEPT
 839:c:\program files\daisytoolchain\arm-none-eabi\include\c++\10.2.1\bits\stl_vector.h ****       { return const_iterator(this->_M_impl._M_finish); }
 840:c:\program files\daisytoolchain\arm-none-eabi\include\c++\10.2.1\bits\stl_vector.h **** 
 841:c:\program files\daisytoolchain\arm-none-eabi\include\c++\10.2.1\bits\stl_vector.h ****       /**
 842:c:\program files\daisytoolchain\arm-none-eabi\include\c++\10.2.1\bits\stl_vector.h ****        *  Returns a read/write reverse iterator that points to the
 843:c:\program files\daisytoolchain\arm-none-eabi\include\c++\10.2.1\bits\stl_vector.h ****        *  last element in the %vector.  Iteration is done in reverse
 844:c:\program files\daisytoolchain\arm-none-eabi\include\c++\10.2.1\bits\stl_vector.h ****        *  element order.
 845:c:\program files\daisytoolchain\arm-none-eabi\include\c++\10.2.1\bits\stl_vector.h ****        */
 846:c:\program files\daisytoolchain\arm-none-eabi\include\c++\10.2.1\bits\stl_vector.h ****       reverse_iterator
 847:c:\program files\daisytoolchain\arm-none-eabi\include\c++\10.2.1\bits\stl_vector.h ****       rbegin() _GLIBCXX_NOEXCEPT
 848:c:\program files\daisytoolchain\arm-none-eabi\include\c++\10.2.1\bits\stl_vector.h ****       { return reverse_iterator(end()); }
 849:c:\program files\daisytoolchain\arm-none-eabi\include\c++\10.2.1\bits\stl_vector.h **** 
 850:c:\program files\daisytoolchain\arm-none-eabi\include\c++\10.2.1\bits\stl_vector.h ****       /**
 851:c:\program files\daisytoolchain\arm-none-eabi\include\c++\10.2.1\bits\stl_vector.h ****        *  Returns a read-only (constant) reverse iterator that points
 852:c:\program files\daisytoolchain\arm-none-eabi\include\c++\10.2.1\bits\stl_vector.h ****        *  to the last element in the %vector.  Iteration is done in
 853:c:\program files\daisytoolchain\arm-none-eabi\include\c++\10.2.1\bits\stl_vector.h ****        *  reverse element order.
ARM GAS  C:\Users\samue\AppData\Local\Temp\cci865ja.s 			page 61


 854:c:\program files\daisytoolchain\arm-none-eabi\include\c++\10.2.1\bits\stl_vector.h ****        */
 855:c:\program files\daisytoolchain\arm-none-eabi\include\c++\10.2.1\bits\stl_vector.h ****       const_reverse_iterator
 856:c:\program files\daisytoolchain\arm-none-eabi\include\c++\10.2.1\bits\stl_vector.h ****       rbegin() const _GLIBCXX_NOEXCEPT
 857:c:\program files\daisytoolchain\arm-none-eabi\include\c++\10.2.1\bits\stl_vector.h ****       { return const_reverse_iterator(end()); }
 858:c:\program files\daisytoolchain\arm-none-eabi\include\c++\10.2.1\bits\stl_vector.h **** 
 859:c:\program files\daisytoolchain\arm-none-eabi\include\c++\10.2.1\bits\stl_vector.h ****       /**
 860:c:\program files\daisytoolchain\arm-none-eabi\include\c++\10.2.1\bits\stl_vector.h ****        *  Returns a read/write reverse iterator that points to one
 861:c:\program files\daisytoolchain\arm-none-eabi\include\c++\10.2.1\bits\stl_vector.h ****        *  before the first element in the %vector.  Iteration is done
 862:c:\program files\daisytoolchain\arm-none-eabi\include\c++\10.2.1\bits\stl_vector.h ****        *  in reverse element order.
 863:c:\program files\daisytoolchain\arm-none-eabi\include\c++\10.2.1\bits\stl_vector.h ****        */
 864:c:\program files\daisytoolchain\arm-none-eabi\include\c++\10.2.1\bits\stl_vector.h ****       reverse_iterator
 865:c:\program files\daisytoolchain\arm-none-eabi\include\c++\10.2.1\bits\stl_vector.h ****       rend() _GLIBCXX_NOEXCEPT
 866:c:\program files\daisytoolchain\arm-none-eabi\include\c++\10.2.1\bits\stl_vector.h ****       { return reverse_iterator(begin()); }
 867:c:\program files\daisytoolchain\arm-none-eabi\include\c++\10.2.1\bits\stl_vector.h **** 
 868:c:\program files\daisytoolchain\arm-none-eabi\include\c++\10.2.1\bits\stl_vector.h ****       /**
 869:c:\program files\daisytoolchain\arm-none-eabi\include\c++\10.2.1\bits\stl_vector.h ****        *  Returns a read-only (constant) reverse iterator that points
 870:c:\program files\daisytoolchain\arm-none-eabi\include\c++\10.2.1\bits\stl_vector.h ****        *  to one before the first element in the %vector.  Iteration
 871:c:\program files\daisytoolchain\arm-none-eabi\include\c++\10.2.1\bits\stl_vector.h ****        *  is done in reverse element order.
 872:c:\program files\daisytoolchain\arm-none-eabi\include\c++\10.2.1\bits\stl_vector.h ****        */
 873:c:\program files\daisytoolchain\arm-none-eabi\include\c++\10.2.1\bits\stl_vector.h ****       const_reverse_iterator
 874:c:\program files\daisytoolchain\arm-none-eabi\include\c++\10.2.1\bits\stl_vector.h ****       rend() const _GLIBCXX_NOEXCEPT
 875:c:\program files\daisytoolchain\arm-none-eabi\include\c++\10.2.1\bits\stl_vector.h ****       { return const_reverse_iterator(begin()); }
 876:c:\program files\daisytoolchain\arm-none-eabi\include\c++\10.2.1\bits\stl_vector.h **** 
 877:c:\program files\daisytoolchain\arm-none-eabi\include\c++\10.2.1\bits\stl_vector.h **** #if __cplusplus >= 201103L
 878:c:\program files\daisytoolchain\arm-none-eabi\include\c++\10.2.1\bits\stl_vector.h ****       /**
 879:c:\program files\daisytoolchain\arm-none-eabi\include\c++\10.2.1\bits\stl_vector.h ****        *  Returns a read-only (constant) iterator that points to the
 880:c:\program files\daisytoolchain\arm-none-eabi\include\c++\10.2.1\bits\stl_vector.h ****        *  first element in the %vector.  Iteration is done in ordinary
 881:c:\program files\daisytoolchain\arm-none-eabi\include\c++\10.2.1\bits\stl_vector.h ****        *  element order.
 882:c:\program files\daisytoolchain\arm-none-eabi\include\c++\10.2.1\bits\stl_vector.h ****        */
 883:c:\program files\daisytoolchain\arm-none-eabi\include\c++\10.2.1\bits\stl_vector.h ****       const_iterator
 884:c:\program files\daisytoolchain\arm-none-eabi\include\c++\10.2.1\bits\stl_vector.h ****       cbegin() const noexcept
 885:c:\program files\daisytoolchain\arm-none-eabi\include\c++\10.2.1\bits\stl_vector.h ****       { return const_iterator(this->_M_impl._M_start); }
 886:c:\program files\daisytoolchain\arm-none-eabi\include\c++\10.2.1\bits\stl_vector.h **** 
 887:c:\program files\daisytoolchain\arm-none-eabi\include\c++\10.2.1\bits\stl_vector.h ****       /**
 888:c:\program files\daisytoolchain\arm-none-eabi\include\c++\10.2.1\bits\stl_vector.h ****        *  Returns a read-only (constant) iterator that points one past
 889:c:\program files\daisytoolchain\arm-none-eabi\include\c++\10.2.1\bits\stl_vector.h ****        *  the last element in the %vector.  Iteration is done in
 890:c:\program files\daisytoolchain\arm-none-eabi\include\c++\10.2.1\bits\stl_vector.h ****        *  ordinary element order.
 891:c:\program files\daisytoolchain\arm-none-eabi\include\c++\10.2.1\bits\stl_vector.h ****        */
 892:c:\program files\daisytoolchain\arm-none-eabi\include\c++\10.2.1\bits\stl_vector.h ****       const_iterator
 893:c:\program files\daisytoolchain\arm-none-eabi\include\c++\10.2.1\bits\stl_vector.h ****       cend() const noexcept
 894:c:\program files\daisytoolchain\arm-none-eabi\include\c++\10.2.1\bits\stl_vector.h ****       { return const_iterator(this->_M_impl._M_finish); }
