ARM GAS  C:\Users\samue\AppData\Local\Temp\cci865ja.s 			page 1


   1              		.cpu cortex-m7
   2              		.eabi_attribute 28, 1
   3              		.eabi_attribute 20, 1
   4              		.eabi_attribute 21, 1
   5              		.eabi_attribute 23, 3
   6              		.eabi_attribute 24, 1
   7              		.eabi_attribute 25, 1
   8              		.eabi_attribute 26, 1
   9              		.eabi_attribute 30, 2
  10              		.eabi_attribute 34, 1
  11              		.eabi_attribute 18, 4
  12              		.file	"daisy_common.cpp"
  13              		.text
  14              	.Ltext0:
  15              		.cfi_sections	.debug_frame
  16              		.section	.rodata._ZN5daisy11daisyCommon10print_knobEv.str1.4,"aMS",%progbits,1
  17              		.align	2
  18              	.LC8:
  19 0000 6B6E6F62 		.ascii	"knob_1_user: %d\000"
  19      5F315F75 
  19      7365723A 
  19      20256400 
  20              		.align	2
  21              	.LC9:
  22 0010 6B6E6F62 		.ascii	"knob_2_user: %d\000"
  22      5F325F75 
  22      7365723A 
  22      20256400 
  23              		.align	2
  24              	.LC10:
  25 0020 6B6E6F62 		.ascii	"knob_3_user: %d\000"
  25      5F335F75 
  25      7365723A 
  25      20256400 
  26              		.align	2
  27              	.LC11:
  28 0030 6B6E6F62 		.ascii	"knob_4_user: %d\000"
  28      5F345F75 
  28      7365723A 
  28      20256400 
  29              		.align	2
  30              	.LC12:
  31 0040 6B6E6F62 		.ascii	"knob_5_user: %d\000"
  31      5F355F75 
  31      7365723A 
  31      20256400 
  32              		.align	2
  33              	.LC13:
  34 0050 6B6E6F62 		.ascii	"knob_6_user: %d\000"
  34      5F365F75 
  34      7365723A 
  34      20256400 
  35              		.align	2
  36              	.LC14:
  37 0060 6B6E6F62 		.ascii	"knob_7_user: %d\000"
  37      5F375F75 
  37      7365723A 
ARM GAS  C:\Users\samue\AppData\Local\Temp\cci865ja.s 			page 2


  37      20256400 
  38              		.align	2
  39              	.LC15:
  40 0070 6B6E6F62 		.ascii	"knob_8_user: %d\000"
  40      5F385F75 
  40      7365723A 
  40      20256400 
  41              		.section	.text._ZN5daisy11daisyCommon10print_knobEv,"ax",%progbits
  42              		.align	1
  43              		.p2align 2,,3
  44              		.global	_ZN5daisy11daisyCommon10print_knobEv
  45              		.arch armv7e-m
  46              		.syntax unified
  47              		.thumb
  48              		.thumb_func
  49              		.fpu fpv5-d16
  51              	_ZN5daisy11daisyCommon10print_knobEv:
  52              	.LVL0:
  53              	.LFB3058:
  54              		.file 1 "daisy_common.cpp"
   1:daisy_common.cpp **** #include "daisy_common.h"
   2:daisy_common.cpp **** 
   3:daisy_common.cpp **** 
   4:daisy_common.cpp **** using namespace daisy;
   5:daisy_common.cpp **** using namespace daisy::seed;
   6:daisy_common.cpp **** using namespace std;
   7:daisy_common.cpp **** 
   8:daisy_common.cpp **** constexpr Pin TOGGLE_LEFT_PIN_1 = seed::D9;
   9:daisy_common.cpp **** constexpr Pin TOGGLE_LEFT_PIN_2 = seed::D8;
  10:daisy_common.cpp **** constexpr Pin TOGGLE_RIGHT_PIN_1 = seed::D14;
  11:daisy_common.cpp **** constexpr Pin TOGGLE_RIGHT_PIN_2 = seed::D13;
  12:daisy_common.cpp **** constexpr Pin MUX_X_ADC_PIN = seed::A11;
  13:daisy_common.cpp **** constexpr Pin MUX_Y_ADC_PIN = seed::A10;
  14:daisy_common.cpp **** constexpr Pin IN_1_ADC_PIN = seed::A0;
  15:daisy_common.cpp **** constexpr Pin IN_2_ADC_PIN = seed::A4;
  16:daisy_common.cpp **** constexpr Pin IN_3_ADC_PIN = seed::A9;
  17:daisy_common.cpp **** constexpr Pin IN_4_ADC_PIN = seed::A6;
  18:daisy_common.cpp **** constexpr Pin IN_5_ADC_PIN = seed::A1;
  19:daisy_common.cpp **** constexpr Pin IN_6_ADC_PIN = seed::A5;
  20:daisy_common.cpp **** constexpr Pin IN_7_ADC_PIN = seed::A2;
  21:daisy_common.cpp **** constexpr Pin IN_8_ADC_PIN = seed::A8;
  22:daisy_common.cpp **** constexpr Pin GATE_1_IN_4_PIN = seed::D21;
  23:daisy_common.cpp **** constexpr Pin GATE_2_IN_8_PIN = seed::D23;
  24:daisy_common.cpp **** constexpr Pin IN_1_GPIO_PIN = seed::D15;
  25:daisy_common.cpp **** constexpr Pin IN_2_GPIO_PIN = seed::D19;
  26:daisy_common.cpp **** constexpr Pin IN_3_GPIO_PIN = seed::D24;
  27:daisy_common.cpp **** constexpr Pin IN_5_GPIO_PIN = seed::D16;
  28:daisy_common.cpp **** constexpr Pin IN_6_GPIO_PIN = seed::D20;
  29:daisy_common.cpp **** constexpr Pin IN_7_GPIO_PIN = seed::D17;
  30:daisy_common.cpp **** 
  31:daisy_common.cpp **** void daisyCommon::print_knob()
  32:daisy_common.cpp **** {
  55              		.loc 1 32 1 view -0
  56              		.cfi_startproc
  57              		@ args = 0, pretend = 0, frame = 0
  58              		@ frame_needed = 0, uses_anonymous_args = 0
  33:daisy_common.cpp ****     seed.PrintLine("knob_1_user: %d", knob_1_user_name);
ARM GAS  C:\Users\samue\AppData\Local\Temp\cci865ja.s 			page 3


  59              		.loc 1 33 5 view .LVU1
  32:daisy_common.cpp ****     seed.PrintLine("knob_1_user: %d", knob_1_user_name);
  60              		.loc 1 32 1 is_stmt 0 view .LVU2
  61 0000 10B5     		push	{r4, lr}
  62              		.cfi_def_cfa_offset 8
  63              		.cfi_offset 4, -8
  64              		.cfi_offset 14, -4
  32:daisy_common.cpp ****     seed.PrintLine("knob_1_user: %d", knob_1_user_name);
  65              		.loc 1 32 1 view .LVU3
  66 0002 0446     		mov	r4, r0
  67              	.LBB296:
  68              	.LBB297:
  69              		.file 2 "../../DaisyExamples/libDaisy//src/daisy_seed.h"
   1:../../DaisyExamples/libDaisy//src/daisy_seed.h **** #pragma once
   2:../../DaisyExamples/libDaisy//src/daisy_seed.h **** #ifndef DSY_SEED_H
   3:../../DaisyExamples/libDaisy//src/daisy_seed.h **** #define DSY_SEED_H
   4:../../DaisyExamples/libDaisy//src/daisy_seed.h **** 
   5:../../DaisyExamples/libDaisy//src/daisy_seed.h **** #include "daisy.h"
   6:../../DaisyExamples/libDaisy//src/daisy_seed.h **** 
   7:../../DaisyExamples/libDaisy//src/daisy_seed.h **** //Uncomment this out if you're still using the rev2 hardware
   8:../../DaisyExamples/libDaisy//src/daisy_seed.h **** //#define SEED_REV2
   9:../../DaisyExamples/libDaisy//src/daisy_seed.h **** 
  10:../../DaisyExamples/libDaisy//src/daisy_seed.h **** namespace daisy
  11:../../DaisyExamples/libDaisy//src/daisy_seed.h **** {
  12:../../DaisyExamples/libDaisy//src/daisy_seed.h **** /**
  13:../../DaisyExamples/libDaisy//src/daisy_seed.h ****    @brief This is the higher-level interface for the Daisy board. \n 
  14:../../DaisyExamples/libDaisy//src/daisy_seed.h ****     All basic peripheral configuration/initialization is setup here. \n
  15:../../DaisyExamples/libDaisy//src/daisy_seed.h **** 
  16:../../DaisyExamples/libDaisy//src/daisy_seed.h ****    @ingroup boards
  17:../../DaisyExamples/libDaisy//src/daisy_seed.h **** */
  18:../../DaisyExamples/libDaisy//src/daisy_seed.h **** class DaisySeed
  19:../../DaisyExamples/libDaisy//src/daisy_seed.h **** {
  20:../../DaisyExamples/libDaisy//src/daisy_seed.h ****   public:
  21:../../DaisyExamples/libDaisy//src/daisy_seed.h ****     DaisySeed() {}
  22:../../DaisyExamples/libDaisy//src/daisy_seed.h ****     ~DaisySeed() {}
  23:../../DaisyExamples/libDaisy//src/daisy_seed.h **** 
  24:../../DaisyExamples/libDaisy//src/daisy_seed.h ****     /** This function used to provide a pre-initialization configuraiton 
  25:../../DaisyExamples/libDaisy//src/daisy_seed.h ****      *  it has since been deprecated, and does nothing.
  26:../../DaisyExamples/libDaisy//src/daisy_seed.h ****      */
  27:../../DaisyExamples/libDaisy//src/daisy_seed.h ****     void Configure();
  28:../../DaisyExamples/libDaisy//src/daisy_seed.h **** 
  29:../../DaisyExamples/libDaisy//src/daisy_seed.h ****     /** 
  30:../../DaisyExamples/libDaisy//src/daisy_seed.h ****     Initializes the Daisy Seed and the following peripherals:
  31:../../DaisyExamples/libDaisy//src/daisy_seed.h ****     SDRAM, QSPI, 24-bit 48kHz Audio via AK4556, Internal USB,
  32:../../DaisyExamples/libDaisy//src/daisy_seed.h ****     as well as the built-in LED and Testpoint.
  33:../../DaisyExamples/libDaisy//src/daisy_seed.h **** 
  34:../../DaisyExamples/libDaisy//src/daisy_seed.h ****     ADCs, DACs, and other special peripherals (such as I2C, SPI, etc.)
  35:../../DaisyExamples/libDaisy//src/daisy_seed.h ****     can be initialized using their specific initializers within libdaisy
  36:../../DaisyExamples/libDaisy//src/daisy_seed.h ****     for a specific application.
  37:../../DaisyExamples/libDaisy//src/daisy_seed.h ****     */
  38:../../DaisyExamples/libDaisy//src/daisy_seed.h ****     void Init(bool boost = false);
  39:../../DaisyExamples/libDaisy//src/daisy_seed.h **** 
  40:../../DaisyExamples/libDaisy//src/daisy_seed.h ****     /** 
  41:../../DaisyExamples/libDaisy//src/daisy_seed.h ****     Deinitializes all peripherals automatically handled by `Init`.
  42:../../DaisyExamples/libDaisy//src/daisy_seed.h ****     */
  43:../../DaisyExamples/libDaisy//src/daisy_seed.h ****     void DeInit();
  44:../../DaisyExamples/libDaisy//src/daisy_seed.h **** 
ARM GAS  C:\Users\samue\AppData\Local\Temp\cci865ja.s 			page 4


  45:../../DaisyExamples/libDaisy//src/daisy_seed.h ****     /** 
  46:../../DaisyExamples/libDaisy//src/daisy_seed.h ****     Wait some ms before going on.
  47:../../DaisyExamples/libDaisy//src/daisy_seed.h ****     \param del Delay time in ms.
  48:../../DaisyExamples/libDaisy//src/daisy_seed.h ****     */
  49:../../DaisyExamples/libDaisy//src/daisy_seed.h ****     void DelayMs(size_t del);
  50:../../DaisyExamples/libDaisy//src/daisy_seed.h **** 
  51:../../DaisyExamples/libDaisy//src/daisy_seed.h ****     /** 
  52:../../DaisyExamples/libDaisy//src/daisy_seed.h ****     Returns the gpio_pin corresponding to the index 0-31.
  53:../../DaisyExamples/libDaisy//src/daisy_seed.h ****     For the given GPIO on the Daisy Seed (labeled 1-32 in docs).
  54:../../DaisyExamples/libDaisy//src/daisy_seed.h ****     */
  55:../../DaisyExamples/libDaisy//src/daisy_seed.h ****     static dsy_gpio_pin GetPin(uint8_t pin_idx);
  56:../../DaisyExamples/libDaisy//src/daisy_seed.h **** 
  57:../../DaisyExamples/libDaisy//src/daisy_seed.h ****     /** Begins the audio for the seeds builtin audio.
  58:../../DaisyExamples/libDaisy//src/daisy_seed.h ****     the specified callback will get called whenever
  59:../../DaisyExamples/libDaisy//src/daisy_seed.h ****     new data is ready to be prepared.
  60:../../DaisyExamples/libDaisy//src/daisy_seed.h ****     */
  61:../../DaisyExamples/libDaisy//src/daisy_seed.h ****     void StartAudio(AudioHandle::InterleavingAudioCallback cb);
  62:../../DaisyExamples/libDaisy//src/daisy_seed.h **** 
  63:../../DaisyExamples/libDaisy//src/daisy_seed.h ****     /** Begins the audio for the seeds builtin audio.
  64:../../DaisyExamples/libDaisy//src/daisy_seed.h ****     the specified callback will get called whenever
  65:../../DaisyExamples/libDaisy//src/daisy_seed.h ****     new data is ready to be prepared.
  66:../../DaisyExamples/libDaisy//src/daisy_seed.h ****     This will use the newer non-interleaved callback.
  67:../../DaisyExamples/libDaisy//src/daisy_seed.h ****     */
  68:../../DaisyExamples/libDaisy//src/daisy_seed.h ****     void StartAudio(AudioHandle::AudioCallback cb);
  69:../../DaisyExamples/libDaisy//src/daisy_seed.h **** 
  70:../../DaisyExamples/libDaisy//src/daisy_seed.h ****     /** Changes to a new interleaved callback
  71:../../DaisyExamples/libDaisy//src/daisy_seed.h ****      */
  72:../../DaisyExamples/libDaisy//src/daisy_seed.h ****     void ChangeAudioCallback(AudioHandle::InterleavingAudioCallback cb);
  73:../../DaisyExamples/libDaisy//src/daisy_seed.h **** 
  74:../../DaisyExamples/libDaisy//src/daisy_seed.h ****     /** Changes to a new multichannel callback
  75:../../DaisyExamples/libDaisy//src/daisy_seed.h ****      */
  76:../../DaisyExamples/libDaisy//src/daisy_seed.h ****     void ChangeAudioCallback(AudioHandle::AudioCallback cb);
  77:../../DaisyExamples/libDaisy//src/daisy_seed.h **** 
  78:../../DaisyExamples/libDaisy//src/daisy_seed.h ****     /** Stops the audio if it is running. */
  79:../../DaisyExamples/libDaisy//src/daisy_seed.h ****     void StopAudio();
  80:../../DaisyExamples/libDaisy//src/daisy_seed.h **** 
  81:../../DaisyExamples/libDaisy//src/daisy_seed.h ****     /** Updates the Audio Sample Rate, and reinitializes.
  82:../../DaisyExamples/libDaisy//src/daisy_seed.h ****      ** Audio must be stopped for this to work.
  83:../../DaisyExamples/libDaisy//src/daisy_seed.h ****      */
  84:../../DaisyExamples/libDaisy//src/daisy_seed.h ****     void SetAudioSampleRate(SaiHandle::Config::SampleRate samplerate);
  85:../../DaisyExamples/libDaisy//src/daisy_seed.h **** 
  86:../../DaisyExamples/libDaisy//src/daisy_seed.h ****     /** Returns the audio sample rate in Hz as a floating point number.
  87:../../DaisyExamples/libDaisy//src/daisy_seed.h ****      */
  88:../../DaisyExamples/libDaisy//src/daisy_seed.h ****     float AudioSampleRate();
  89:../../DaisyExamples/libDaisy//src/daisy_seed.h **** 
  90:../../DaisyExamples/libDaisy//src/daisy_seed.h ****     /** Sets the number of samples processed per channel by the audio callback.
  91:../../DaisyExamples/libDaisy//src/daisy_seed.h ****      */
  92:../../DaisyExamples/libDaisy//src/daisy_seed.h ****     void SetAudioBlockSize(size_t blocksize);
  93:../../DaisyExamples/libDaisy//src/daisy_seed.h **** 
  94:../../DaisyExamples/libDaisy//src/daisy_seed.h ****     /** Returns the number of samples per channel in a block of audio. */
  95:../../DaisyExamples/libDaisy//src/daisy_seed.h ****     size_t AudioBlockSize();
  96:../../DaisyExamples/libDaisy//src/daisy_seed.h **** 
  97:../../DaisyExamples/libDaisy//src/daisy_seed.h ****     /** Returns the rate in Hz that the Audio callback is called */
  98:../../DaisyExamples/libDaisy//src/daisy_seed.h ****     float AudioCallbackRate() const;
  99:../../DaisyExamples/libDaisy//src/daisy_seed.h **** 
 100:../../DaisyExamples/libDaisy//src/daisy_seed.h ****     /** Returns the SAI Handle for the Daisy Seed 
 101:../../DaisyExamples/libDaisy//src/daisy_seed.h ****      *  This can be useful when adding a secondary codec,
ARM GAS  C:\Users\samue\AppData\Local\Temp\cci865ja.s 			page 5


 102:../../DaisyExamples/libDaisy//src/daisy_seed.h ****      *  the result of this function can be passed to the audio reinit 
 103:../../DaisyExamples/libDaisy//src/daisy_seed.h ****      *  with an SAI2 configuration
 104:../../DaisyExamples/libDaisy//src/daisy_seed.h ****      */
 105:../../DaisyExamples/libDaisy//src/daisy_seed.h ****     const SaiHandle& AudioSaiHandle() const;
 106:../../DaisyExamples/libDaisy//src/daisy_seed.h **** 
 107:../../DaisyExamples/libDaisy//src/daisy_seed.h ****     /** Sets the state of the built in LED
 108:../../DaisyExamples/libDaisy//src/daisy_seed.h ****      */
 109:../../DaisyExamples/libDaisy//src/daisy_seed.h ****     void SetLed(bool state);
 110:../../DaisyExamples/libDaisy//src/daisy_seed.h **** 
 111:../../DaisyExamples/libDaisy//src/daisy_seed.h ****     /** Sets the state of the test point near pin 10
 112:../../DaisyExamples/libDaisy//src/daisy_seed.h ****      */
 113:../../DaisyExamples/libDaisy//src/daisy_seed.h ****     void SetTestPoint(bool state);
 114:../../DaisyExamples/libDaisy//src/daisy_seed.h **** 
 115:../../DaisyExamples/libDaisy//src/daisy_seed.h ****     /** Print formatted debug log message
 116:../../DaisyExamples/libDaisy//src/daisy_seed.h ****      */
 117:../../DaisyExamples/libDaisy//src/daisy_seed.h ****     template <typename... VA>
 118:../../DaisyExamples/libDaisy//src/daisy_seed.h ****     static void Print(const char* format, VA... va)
 119:../../DaisyExamples/libDaisy//src/daisy_seed.h ****     {
 120:../../DaisyExamples/libDaisy//src/daisy_seed.h ****         Log::Print(format, va...);
 121:../../DaisyExamples/libDaisy//src/daisy_seed.h ****     }
 122:../../DaisyExamples/libDaisy//src/daisy_seed.h **** 
 123:../../DaisyExamples/libDaisy//src/daisy_seed.h ****     /** Print formatted debug log message with automatic line termination
 124:../../DaisyExamples/libDaisy//src/daisy_seed.h ****     */
 125:../../DaisyExamples/libDaisy//src/daisy_seed.h ****     template <typename... VA>
 126:../../DaisyExamples/libDaisy//src/daisy_seed.h ****     static void PrintLine(const char* format, VA... va)
 127:../../DaisyExamples/libDaisy//src/daisy_seed.h ****     {
 128:../../DaisyExamples/libDaisy//src/daisy_seed.h ****         Log::PrintLine(format, va...);
  70              		.loc 2 128 23 view .LVU4
  71 0004 1448     		ldr	r0, .L4
  72              	.LVL1:
  73              		.loc 2 128 23 view .LVU5
  74              	.LBE297:
  75              	.LBI296:
 126:../../DaisyExamples/libDaisy//src/daisy_seed.h ****     {
  76              		.loc 2 126 17 is_stmt 1 view .LVU6
  77              	.LBB298:
  78              		.loc 2 128 23 is_stmt 0 view .LVU7
  79 0006 D4F8E811 		ldr	r1, [r4, #488]
  80 000a FFF7FEFF 		bl	_ZN5daisy6LoggerILNS_17LoggerDestinationE1EE9PrintLineEPKcz
  81              	.LVL2:
  82              		.loc 2 128 23 view .LVU8
  83              	.LBE298:
  84              	.LBE296:
  34:daisy_common.cpp ****     seed.PrintLine("knob_2_user: %d", knob_2_user_name);
  85              		.loc 1 34 5 is_stmt 1 view .LVU9
  86              	.LBB299:
  87              	.LBI299:
 126:../../DaisyExamples/libDaisy//src/daisy_seed.h ****     {
  88              		.loc 2 126 17 view .LVU10
  89              	.LBB300:
  90              		.loc 2 128 23 is_stmt 0 view .LVU11
  91 000e D4F8EC11 		ldr	r1, [r4, #492]
  92 0012 1248     		ldr	r0, .L4+4
  93 0014 FFF7FEFF 		bl	_ZN5daisy6LoggerILNS_17LoggerDestinationE1EE9PrintLineEPKcz
  94              	.LVL3:
  95              		.loc 2 128 23 view .LVU12
  96              	.LBE300:
ARM GAS  C:\Users\samue\AppData\Local\Temp\cci865ja.s 			page 6


  97              	.LBE299:
  35:daisy_common.cpp ****     seed.PrintLine("knob_3_user: %d", knob_3_user_name);
  98              		.loc 1 35 5 is_stmt 1 view .LVU13
  99              	.LBB301:
 100              	.LBI301:
 126:../../DaisyExamples/libDaisy//src/daisy_seed.h ****     {
 101              		.loc 2 126 17 view .LVU14
 102              	.LBB302:
 103              		.loc 2 128 23 is_stmt 0 view .LVU15
 104 0018 D4F8F011 		ldr	r1, [r4, #496]
 105 001c 1048     		ldr	r0, .L4+8
 106 001e FFF7FEFF 		bl	_ZN5daisy6LoggerILNS_17LoggerDestinationE1EE9PrintLineEPKcz
 107              	.LVL4:
 108              		.loc 2 128 23 view .LVU16
 109              	.LBE302:
 110              	.LBE301:
  36:daisy_common.cpp ****     seed.PrintLine("knob_4_user: %d", knob_4_user_name);
 111              		.loc 1 36 5 is_stmt 1 view .LVU17
 112              	.LBB303:
 113              	.LBI303:
 126:../../DaisyExamples/libDaisy//src/daisy_seed.h ****     {
 114              		.loc 2 126 17 view .LVU18
 115              	.LBB304:
 116              		.loc 2 128 23 is_stmt 0 view .LVU19
 117 0022 D4F8F411 		ldr	r1, [r4, #500]
 118 0026 0F48     		ldr	r0, .L4+12
 119 0028 FFF7FEFF 		bl	_ZN5daisy6LoggerILNS_17LoggerDestinationE1EE9PrintLineEPKcz
 120              	.LVL5:
 121              		.loc 2 128 23 view .LVU20
 122              	.LBE304:
 123              	.LBE303:
  37:daisy_common.cpp ****     seed.PrintLine("knob_5_user: %d", knob_5_user_name);
 124              		.loc 1 37 5 is_stmt 1 view .LVU21
 125              	.LBB305:
 126              	.LBI305:
 126:../../DaisyExamples/libDaisy//src/daisy_seed.h ****     {
 127              		.loc 2 126 17 view .LVU22
 128              	.LBB306:
 129              		.loc 2 128 23 is_stmt 0 view .LVU23
 130 002c D4F8F811 		ldr	r1, [r4, #504]
 131 0030 0D48     		ldr	r0, .L4+16
 132 0032 FFF7FEFF 		bl	_ZN5daisy6LoggerILNS_17LoggerDestinationE1EE9PrintLineEPKcz
 133              	.LVL6:
 134              		.loc 2 128 23 view .LVU24
 135              	.LBE306:
 136              	.LBE305:
  38:daisy_common.cpp ****     seed.PrintLine("knob_6_user: %d", knob_6_user_name);
 137              		.loc 1 38 5 is_stmt 1 view .LVU25
 138              	.LBB307:
 139              	.LBI307:
 126:../../DaisyExamples/libDaisy//src/daisy_seed.h ****     {
 140              		.loc 2 126 17 view .LVU26
 141              	.LBB308:
 142              		.loc 2 128 23 is_stmt 0 view .LVU27
 143 0036 D4F8FC11 		ldr	r1, [r4, #508]
 144 003a 0C48     		ldr	r0, .L4+20
 145 003c FFF7FEFF 		bl	_ZN5daisy6LoggerILNS_17LoggerDestinationE1EE9PrintLineEPKcz
ARM GAS  C:\Users\samue\AppData\Local\Temp\cci865ja.s 			page 7


 146              	.LVL7:
 147              		.loc 2 128 23 view .LVU28
 148              	.LBE308:
 149              	.LBE307:
  39:daisy_common.cpp ****     seed.PrintLine("knob_7_user: %d", knob_7_user_name);
 150              		.loc 1 39 5 is_stmt 1 view .LVU29
 151              	.LBB309:
 152              	.LBI309:
 126:../../DaisyExamples/libDaisy//src/daisy_seed.h ****     {
 153              		.loc 2 126 17 view .LVU30
 154              	.LBB310:
 155              		.loc 2 128 23 is_stmt 0 view .LVU31
 156 0040 D4F80012 		ldr	r1, [r4, #512]
 157 0044 0A48     		ldr	r0, .L4+24
 158 0046 FFF7FEFF 		bl	_ZN5daisy6LoggerILNS_17LoggerDestinationE1EE9PrintLineEPKcz
 159              	.LVL8:
 160              		.loc 2 128 23 view .LVU32
 161              	.LBE310:
 162              	.LBE309:
  40:daisy_common.cpp ****     seed.PrintLine("knob_8_user: %d", knob_8_user_name);
 163              		.loc 1 40 5 is_stmt 1 view .LVU33
 164              	.LBB311:
 165              	.LBI311:
 126:../../DaisyExamples/libDaisy//src/daisy_seed.h ****     {
 166              		.loc 2 126 17 view .LVU34
 167              	.LBB312:
 168              		.loc 2 128 23 is_stmt 0 view .LVU35
 169 004a D4F80412 		ldr	r1, [r4, #516]
 170 004e 0948     		ldr	r0, .L4+28
 171              	.LBE312:
 172              	.LBE311:
  41:daisy_common.cpp **** 
  42:daisy_common.cpp **** }
 173              		.loc 1 42 1 view .LVU36
 174 0050 BDE81040 		pop	{r4, lr}
 175              		.cfi_restore 14
 176              		.cfi_restore 4
 177              		.cfi_def_cfa_offset 0
 178              	.LVL9:
 179              	.LBB314:
 180              	.LBB313:
 181              		.loc 2 128 23 view .LVU37
 182 0054 FFF7FEBF 		b	_ZN5daisy6LoggerILNS_17LoggerDestinationE1EE9PrintLineEPKcz
 183              	.LVL10:
 184              	.L5:
 185              		.loc 2 128 23 view .LVU38
 186              		.align	2
 187              	.L4:
 188 0058 00000000 		.word	.LC8
 189 005c 10000000 		.word	.LC9
 190 0060 20000000 		.word	.LC10
 191 0064 30000000 		.word	.LC11
 192 0068 40000000 		.word	.LC12
 193 006c 50000000 		.word	.LC13
 194 0070 60000000 		.word	.LC14
 195 0074 70000000 		.word	.LC15
 196              	.LBE313:
ARM GAS  C:\Users\samue\AppData\Local\Temp\cci865ja.s 			page 8


 197              	.LBE314:
 198              		.cfi_endproc
 199              	.LFE3058:
 201              		.section	.text._ZN5daisy11daisyCommon8add_knobEii,"ax",%progbits
 202              		.align	1
 203              		.p2align 2,,3
 204              		.global	_ZN5daisy11daisyCommon8add_knobEii
 205              		.syntax unified
 206              		.thumb
 207              		.thumb_func
 208              		.fpu fpv5-d16
 210              	_ZN5daisy11daisyCommon8add_knobEii:
 211              	.LVL11:
 212              	.LFB3060:
  43:daisy_common.cpp **** 
  44:daisy_common.cpp **** float daisyCommon::get_knob_value(int user_name)
  45:daisy_common.cpp **** {
  46:daisy_common.cpp ****     return seed.adc.GetMuxFloat(get_mux(user_name), get_adc_chan(user_name));
  47:daisy_common.cpp **** }
  48:daisy_common.cpp **** void daisyCommon::add_knob(int user_name, int knob_num)
  49:daisy_common.cpp **** {
 213              		.loc 1 49 1 is_stmt 1 view -0
 214              		.cfi_startproc
 215              		@ args = 0, pretend = 0, frame = 0
 216              		@ frame_needed = 0, uses_anonymous_args = 0
 217              		@ link register save eliminated.
  50:daisy_common.cpp ****     if(knob_num == knob_1) knob_1_user_name = user_name;
 218              		.loc 1 50 5 view .LVU40
 219 0000 12B9     		cbnz	r2, .L7
 220              		.loc 1 50 28 discriminator 1 view .LVU41
 221              		.loc 1 50 45 is_stmt 0 discriminator 1 view .LVU42
 222 0002 C0F8E811 		str	r1, [r0, #488]
  51:daisy_common.cpp ****     if(knob_num == knob_2) knob_2_user_name = user_name;
 223              		.loc 1 51 5 is_stmt 1 discriminator 1 view .LVU43
  52:daisy_common.cpp ****     if(knob_num == knob_3) knob_3_user_name = user_name;
 224              		.loc 1 52 5 discriminator 1 view .LVU44
  53:daisy_common.cpp ****     if(knob_num == knob_4) knob_4_user_name = user_name;
 225              		.loc 1 53 5 discriminator 1 view .LVU45
  54:daisy_common.cpp ****     if(knob_num == knob_5) knob_5_user_name = user_name;
 226              		.loc 1 54 5 discriminator 1 view .LVU46
 227 0006 7047     		bx	lr
 228              	.L7:
  51:daisy_common.cpp ****     if(knob_num == knob_3) knob_3_user_name = user_name;
 229              		.loc 1 51 5 view .LVU47
 230 0008 012A     		cmp	r2, #1
 231 000a 02D1     		bne	.L27
  51:daisy_common.cpp ****     if(knob_num == knob_3) knob_3_user_name = user_name;
 232              		.loc 1 51 28 discriminator 1 view .LVU48
  51:daisy_common.cpp ****     if(knob_num == knob_3) knob_3_user_name = user_name;
 233              		.loc 1 51 45 is_stmt 0 discriminator 1 view .LVU49
 234 000c C0F8EC11 		str	r1, [r0, #492]
  52:daisy_common.cpp ****     if(knob_num == knob_4) knob_4_user_name = user_name;
 235              		.loc 1 52 5 is_stmt 1 discriminator 1 view .LVU50
  53:daisy_common.cpp ****     if(knob_num == knob_5) knob_5_user_name = user_name;
 236              		.loc 1 53 5 discriminator 1 view .LVU51
 237              		.loc 1 54 5 discriminator 1 view .LVU52
 238 0010 7047     		bx	lr
ARM GAS  C:\Users\samue\AppData\Local\Temp\cci865ja.s 			page 9


 239              	.L27:
  52:daisy_common.cpp ****     if(knob_num == knob_4) knob_4_user_name = user_name;
 240              		.loc 1 52 5 view .LVU53
 241 0012 022A     		cmp	r2, #2
 242 0014 02D1     		bne	.L28
  52:daisy_common.cpp ****     if(knob_num == knob_4) knob_4_user_name = user_name;
 243              		.loc 1 52 28 discriminator 1 view .LVU54
  52:daisy_common.cpp ****     if(knob_num == knob_4) knob_4_user_name = user_name;
 244              		.loc 1 52 45 is_stmt 0 discriminator 1 view .LVU55
 245 0016 C0F8F011 		str	r1, [r0, #496]
  53:daisy_common.cpp ****     if(knob_num == knob_5) knob_5_user_name = user_name;
 246              		.loc 1 53 5 is_stmt 1 discriminator 1 view .LVU56
 247              		.loc 1 54 5 discriminator 1 view .LVU57
  55:daisy_common.cpp ****     if(knob_num == knob_6) knob_6_user_name = user_name;
 248              		.loc 1 55 5 discriminator 1 view .LVU58
 249 001a 7047     		bx	lr
 250              	.L28:
  53:daisy_common.cpp ****     if(knob_num == knob_5) knob_5_user_name = user_name;
 251              		.loc 1 53 5 view .LVU59
 252 001c 032A     		cmp	r2, #3
 253 001e 02D1     		bne	.L29
  53:daisy_common.cpp ****     if(knob_num == knob_5) knob_5_user_name = user_name;
 254              		.loc 1 53 28 discriminator 1 view .LVU60
  53:daisy_common.cpp ****     if(knob_num == knob_5) knob_5_user_name = user_name;
 255              		.loc 1 53 45 is_stmt 0 discriminator 1 view .LVU61
 256 0020 C0F8F411 		str	r1, [r0, #500]
  54:daisy_common.cpp ****     if(knob_num == knob_6) knob_6_user_name = user_name;
 257              		.loc 1 54 5 is_stmt 1 discriminator 1 view .LVU62
 258              		.loc 1 55 5 discriminator 1 view .LVU63
  56:daisy_common.cpp ****     if(knob_num == knob_7) knob_7_user_name = user_name;
 259              		.loc 1 56 5 discriminator 1 view .LVU64
 260 0024 7047     		bx	lr
 261              	.L29:
  54:daisy_common.cpp ****     if(knob_num == knob_6) knob_6_user_name = user_name;
 262              		.loc 1 54 5 view .LVU65
 263 0026 042A     		cmp	r2, #4
 264 0028 02D1     		bne	.L30
  54:daisy_common.cpp ****     if(knob_num == knob_6) knob_6_user_name = user_name;
 265              		.loc 1 54 28 discriminator 1 view .LVU66
  54:daisy_common.cpp ****     if(knob_num == knob_6) knob_6_user_name = user_name;
 266              		.loc 1 54 45 is_stmt 0 discriminator 1 view .LVU67
 267 002a C0F8F811 		str	r1, [r0, #504]
  55:daisy_common.cpp ****     if(knob_num == knob_6) knob_6_user_name = user_name;
 268              		.loc 1 55 5 is_stmt 1 discriminator 1 view .LVU68
 269              		.loc 1 56 5 discriminator 1 view .LVU69
  57:daisy_common.cpp ****     if(knob_num == knob_8) knob_8_user_name = user_name;
 270              		.loc 1 57 5 discriminator 1 view .LVU70
 271 002e 7047     		bx	lr
 272              	.L30:
  55:daisy_common.cpp ****     if(knob_num == knob_7) knob_7_user_name = user_name;
 273              		.loc 1 55 5 view .LVU71
 274 0030 052A     		cmp	r2, #5
 275 0032 02D1     		bne	.L31
  55:daisy_common.cpp ****     if(knob_num == knob_7) knob_7_user_name = user_name;
 276              		.loc 1 55 28 discriminator 1 view .LVU72
  55:daisy_common.cpp ****     if(knob_num == knob_7) knob_7_user_name = user_name;
 277              		.loc 1 55 45 is_stmt 0 discriminator 1 view .LVU73
ARM GAS  C:\Users\samue\AppData\Local\Temp\cci865ja.s 			page 10


 278 0034 C0F8FC11 		str	r1, [r0, #508]
  56:daisy_common.cpp ****     if(knob_num == knob_7) knob_7_user_name = user_name;
 279              		.loc 1 56 5 is_stmt 1 discriminator 1 view .LVU74
 280              		.loc 1 57 5 discriminator 1 view .LVU75
 281 0038 7047     		bx	lr
 282              	.L31:
  56:daisy_common.cpp ****     if(knob_num == knob_7) knob_7_user_name = user_name;
 283              		.loc 1 56 5 view .LVU76
 284 003a 062A     		cmp	r2, #6
 285 003c 02D1     		bne	.L32
  56:daisy_common.cpp ****     if(knob_num == knob_7) knob_7_user_name = user_name;
 286              		.loc 1 56 28 discriminator 1 view .LVU77
  56:daisy_common.cpp ****     if(knob_num == knob_7) knob_7_user_name = user_name;
 287              		.loc 1 56 45 is_stmt 0 discriminator 1 view .LVU78
 288 003e C0F80012 		str	r1, [r0, #512]
 289              		.loc 1 57 5 is_stmt 1 discriminator 1 view .LVU79
 290 0042 7047     		bx	lr
 291              	.L32:
 292              		.loc 1 57 5 view .LVU80
 293 0044 072A     		cmp	r2, #7
 294 0046 02D1     		bne	.L33
 295              		.loc 1 57 28 discriminator 1 view .LVU81
 296              		.loc 1 57 45 is_stmt 0 discriminator 1 view .LVU82
 297 0048 C0F80412 		str	r1, [r0, #516]
  58:daisy_common.cpp **** }
 298              		.loc 1 58 1 discriminator 1 view .LVU83
 299 004c 7047     		bx	lr
 300              	.L33:
 301              		.loc 1 58 1 discriminator 1 view .LVU84
 302 004e 7047     		bx	lr
 303              		.cfi_endproc
 304              	.LFE3060:
 306              		.section	.text._ZN5daisy11daisyCommon7get_muxEi,"ax",%progbits
 307              		.align	1
 308              		.p2align 2,,3
 309              		.global	_ZN5daisy11daisyCommon7get_muxEi
 310              		.syntax unified
 311              		.thumb
 312              		.thumb_func
 313              		.fpu fpv5-d16
 315              	_ZN5daisy11daisyCommon7get_muxEi:
 316              	.LVL12:
 317              	.LFB3061:
  59:daisy_common.cpp **** int daisyCommon::get_mux(int knob_user_name)
  60:daisy_common.cpp **** {
 318              		.loc 1 60 1 is_stmt 1 view -0
 319              		.cfi_startproc
 320              		@ args = 0, pretend = 0, frame = 0
 321              		@ frame_needed = 0, uses_anonymous_args = 0
 322              		@ link register save eliminated.
  61:daisy_common.cpp ****     if(knob_user_name == knob_1_user_name) return mux_x;
 323              		.loc 1 61 5 view .LVU86
 324 0000 D0F8E831 		ldr	r3, [r0, #488]
 325 0004 8B42     		cmp	r3, r1
 326 0006 1FD0     		beq	.L39
  62:daisy_common.cpp ****     if(knob_user_name == knob_3_user_name) return mux_x;
 327              		.loc 1 62 5 view .LVU87
ARM GAS  C:\Users\samue\AppData\Local\Temp\cci865ja.s 			page 11


 328 0008 D0F8F031 		ldr	r3, [r0, #496]
 329 000c 8B42     		cmp	r3, r1
 330 000e 1BD0     		beq	.L39
  63:daisy_common.cpp ****     if(knob_user_name == knob_4_user_name) return mux_x;
 331              		.loc 1 63 5 view .LVU88
 332 0010 D0F8F431 		ldr	r3, [r0, #500]
 333 0014 8B42     		cmp	r3, r1
 334 0016 17D0     		beq	.L39
  64:daisy_common.cpp ****     if(knob_user_name == knob_5_user_name) return mux_x;
 335              		.loc 1 64 5 view .LVU89
 336 0018 D0F8F831 		ldr	r3, [r0, #504]
 337 001c 8B42     		cmp	r3, r1
 338 001e 13D0     		beq	.L39
  65:daisy_common.cpp ****     if(knob_user_name == knob_2_user_name) return mux_y;
 339              		.loc 1 65 5 view .LVU90
 340 0020 D0F8EC31 		ldr	r3, [r0, #492]
 341 0024 8B42     		cmp	r3, r1
 342 0026 11D0     		beq	.L42
  66:daisy_common.cpp ****     if(knob_user_name == knob_6_user_name) return mux_y;
 343              		.loc 1 66 5 view .LVU91
 344 0028 D0F8FC31 		ldr	r3, [r0, #508]
 345 002c 8B42     		cmp	r3, r1
 346 002e 0DD0     		beq	.L42
 347              	.LVL13:
 348              	.LBB317:
 349              	.LBI317:
  59:daisy_common.cpp **** {
 350              		.loc 1 59 5 view .LVU92
 351              	.LBB318:
  67:daisy_common.cpp ****     if(knob_user_name == knob_7_user_name) return mux_y;
 352              		.loc 1 67 5 view .LVU93
 353 0030 D0F80032 		ldr	r3, [r0, #512]
 354 0034 9942     		cmp	r1, r3
 355 0036 09D0     		beq	.L42
  68:daisy_common.cpp ****     if(knob_user_name == knob_8_user_name) return mux_y;
 356              		.loc 1 68 5 view .LVU94
 357 0038 D0F80402 		ldr	r0, [r0, #516]
 358              	.LVL14:
  69:daisy_common.cpp ****     return -1;
 359              		.loc 1 69 13 is_stmt 0 view .LVU95
 360 003c 8142     		cmp	r1, r0
 361 003e 0CBF     		ite	eq
 362 0040 0120     		moveq	r0, #1
 363 0042 4FF0FF30 		movne	r0, #-1
 364 0046 7047     		bx	lr
 365              	.LVL15:
 366              	.L39:
 367              		.loc 1 69 13 view .LVU96
 368              	.LBE318:
 369              	.LBE317:
  61:daisy_common.cpp ****     if(knob_user_name == knob_3_user_name) return mux_x;
 370              		.loc 1 61 51 view .LVU97
 371 0048 0020     		movs	r0, #0
 372              	.LVL16:
  61:daisy_common.cpp ****     if(knob_user_name == knob_3_user_name) return mux_x;
 373              		.loc 1 61 51 view .LVU98
 374 004a 7047     		bx	lr
ARM GAS  C:\Users\samue\AppData\Local\Temp\cci865ja.s 			page 12


 375              	.LVL17:
 376              	.L42:
 377              	.LBB320:
 378              	.LBB319:
  68:daisy_common.cpp ****     if(knob_user_name == knob_8_user_name) return mux_y;
 379              		.loc 1 68 51 view .LVU99
 380 004c 0120     		movs	r0, #1
 381              	.LVL18:
  68:daisy_common.cpp ****     if(knob_user_name == knob_8_user_name) return mux_y;
 382              		.loc 1 68 51 view .LVU100
 383              	.LBE319:
 384              	.LBE320:
  70:daisy_common.cpp **** }
 385              		.loc 1 70 1 view .LVU101
 386 004e 7047     		bx	lr
 387              		.cfi_endproc
 388              	.LFE3061:
 390              		.section	.text._ZN5daisy11daisyCommon12get_adc_chanEi,"ax",%progbits
 391              		.align	1
 392              		.p2align 2,,3
 393              		.global	_ZN5daisy11daisyCommon12get_adc_chanEi
 394              		.syntax unified
 395              		.thumb
 396              		.thumb_func
 397              		.fpu fpv5-d16
 399              	_ZN5daisy11daisyCommon12get_adc_chanEi:
 400              	.LVL19:
 401              	.LFB3062:
  71:daisy_common.cpp **** int daisyCommon::get_adc_chan(int knob_user_name)
  72:daisy_common.cpp **** {
 402              		.loc 1 72 1 is_stmt 1 view -0
 403              		.cfi_startproc
 404              		@ args = 0, pretend = 0, frame = 0
 405              		@ frame_needed = 0, uses_anonymous_args = 0
 406              		@ link register save eliminated.
  73:daisy_common.cpp ****     if(knob_user_name == knob_1_user_name) return knob_1_chan;
 407              		.loc 1 73 5 view .LVU103
 408 0000 D0F8E831 		ldr	r3, [r0, #488]
 409 0004 8B42     		cmp	r3, r1
 410 0006 1FD0     		beq	.L50
  74:daisy_common.cpp ****     if(knob_user_name == knob_3_user_name) return knob_3_chan;
 411              		.loc 1 74 5 view .LVU104
 412 0008 D0F8F031 		ldr	r3, [r0, #496]
 413 000c 8B42     		cmp	r3, r1
 414 000e 1FD0     		beq	.L47
  75:daisy_common.cpp ****     if(knob_user_name == knob_4_user_name) return knob_4_chan;
 415              		.loc 1 75 5 view .LVU105
 416 0010 D0F8F431 		ldr	r3, [r0, #500]
 417 0014 8B42     		cmp	r3, r1
 418 0016 1DD0     		beq	.L52
  76:daisy_common.cpp ****     if(knob_user_name == knob_5_user_name) return knob_5_chan;
 419              		.loc 1 76 5 view .LVU106
 420 0018 D0F8F831 		ldr	r3, [r0, #504]
 421 001c 8B42     		cmp	r3, r1
 422 001e 15D0     		beq	.L51
  77:daisy_common.cpp ****     if(knob_user_name == knob_2_user_name) return knob_2_chan;
 423              		.loc 1 77 5 view .LVU107
ARM GAS  C:\Users\samue\AppData\Local\Temp\cci865ja.s 			page 13


 424 0020 D0F8EC31 		ldr	r3, [r0, #492]
 425 0024 8B42     		cmp	r3, r1
 426 0026 0FD0     		beq	.L50
  78:daisy_common.cpp ****     if(knob_user_name == knob_6_user_name) return knob_6_chan;
 427              		.loc 1 78 5 view .LVU108
 428 0028 D0F8FC31 		ldr	r3, [r0, #508]
 429 002c 8B42     		cmp	r3, r1
 430 002e 0DD0     		beq	.L51
 431              	.LVL20:
 432              	.LBB323:
 433              	.LBI323:
  71:daisy_common.cpp **** {
 434              		.loc 1 71 5 view .LVU109
 435              	.LBB324:
  79:daisy_common.cpp ****     if(knob_user_name == knob_7_user_name) return knob_7_chan;
 436              		.loc 1 79 5 view .LVU110
 437 0030 D0F80032 		ldr	r3, [r0, #512]
 438 0034 9942     		cmp	r1, r3
 439 0036 0DD0     		beq	.L52
  80:daisy_common.cpp ****     if(knob_user_name == knob_8_user_name) return knob_8_chan;
 440              		.loc 1 80 5 view .LVU111
 441 0038 D0F80402 		ldr	r0, [r0, #516]
 442              	.LVL21:
  81:daisy_common.cpp ****     return -1;
 443              		.loc 1 81 13 is_stmt 0 view .LVU112
 444 003c 8142     		cmp	r1, r0
 445 003e 0CBF     		ite	eq
 446 0040 0120     		moveq	r0, #1
 447 0042 4FF0FF30 		movne	r0, #-1
 448 0046 7047     		bx	lr
 449              	.LVL22:
 450              	.L50:
 451              		.loc 1 81 13 view .LVU113
 452              	.LBE324:
 453              	.LBE323:
  73:daisy_common.cpp ****     if(knob_user_name == knob_3_user_name) return knob_3_chan;
 454              		.loc 1 73 51 view .LVU114
 455 0048 0020     		movs	r0, #0
 456              	.LVL23:
  73:daisy_common.cpp ****     if(knob_user_name == knob_3_user_name) return knob_3_chan;
 457              		.loc 1 73 51 view .LVU115
 458 004a 7047     		bx	lr
 459              	.LVL24:
 460              	.L51:
  76:daisy_common.cpp ****     if(knob_user_name == knob_2_user_name) return knob_2_chan;
 461              		.loc 1 76 51 view .LVU116
 462 004c 0220     		movs	r0, #2
 463              	.LVL25:
  76:daisy_common.cpp ****     if(knob_user_name == knob_2_user_name) return knob_2_chan;
 464              		.loc 1 76 51 view .LVU117
 465 004e 7047     		bx	lr
 466              	.LVL26:
 467              	.L47:
 468              	.LBB326:
 469              	.LBB325:
  80:daisy_common.cpp ****     return -1;
 470              		.loc 1 80 51 view .LVU118
ARM GAS  C:\Users\samue\AppData\Local\Temp\cci865ja.s 			page 14


 471 0050 0120     		movs	r0, #1
 472              	.LVL27:
  80:daisy_common.cpp ****     return -1;
 473              		.loc 1 80 51 view .LVU119
 474 0052 7047     		bx	lr
 475              	.LVL28:
 476              	.L52:
  80:daisy_common.cpp ****     return -1;
 477              		.loc 1 80 51 view .LVU120
 478              	.LBE325:
 479              	.LBE326:
  75:daisy_common.cpp ****     if(knob_user_name == knob_5_user_name) return knob_5_chan;
 480              		.loc 1 75 51 view .LVU121
 481 0054 0320     		movs	r0, #3
 482              	.LVL29:
  82:daisy_common.cpp **** }
 483              		.loc 1 82 1 view .LVU122
 484 0056 7047     		bx	lr
 485              		.cfi_endproc
 486              	.LFE3062:
 488              		.section	.text._ZN5daisy11daisyCommon14get_knob_valueEi,"ax",%progbits
 489              		.align	1
 490              		.p2align 2,,3
 491              		.global	_ZN5daisy11daisyCommon14get_knob_valueEi
 492              		.syntax unified
 493              		.thumb
 494              		.thumb_func
 495              		.fpu fpv5-d16
 497              	_ZN5daisy11daisyCommon14get_knob_valueEi:
 498              	.LVL30:
 499              	.LFB3059:
  45:daisy_common.cpp ****     return seed.adc.GetMuxFloat(get_mux(user_name), get_adc_chan(user_name));
 500              		.loc 1 45 1 is_stmt 1 view -0
 501              		.cfi_startproc
 502              		@ args = 0, pretend = 0, frame = 0
 503              		@ frame_needed = 0, uses_anonymous_args = 0
  46:daisy_common.cpp **** }
 504              		.loc 1 46 5 view .LVU124
  45:daisy_common.cpp ****     return seed.adc.GetMuxFloat(get_mux(user_name), get_adc_chan(user_name));
 505              		.loc 1 45 1 is_stmt 0 view .LVU125
 506 0000 38B5     		push	{r3, r4, r5, lr}
 507              		.cfi_def_cfa_offset 16
 508              		.cfi_offset 3, -16
 509              		.cfi_offset 4, -12
 510              		.cfi_offset 5, -8
 511              		.cfi_offset 14, -4
 512              	.LBB331:
 513              	.LBB332:
  61:daisy_common.cpp ****     if(knob_user_name == knob_3_user_name) return mux_x;
 514              		.loc 1 61 5 view .LVU126
 515 0002 D0F8E831 		ldr	r3, [r0, #488]
 516              	.LBE332:
 517              	.LBE331:
  46:daisy_common.cpp **** }
 518              		.loc 1 46 32 view .LVU127
 519 0006 00F5E075 		add	r5, r0, #448
 520              	.LVL31:
ARM GAS  C:\Users\samue\AppData\Local\Temp\cci865ja.s 			page 15


 521              	.LBB339:
 522              	.LBI331:
  59:daisy_common.cpp **** {
 523              		.loc 1 59 5 is_stmt 1 view .LVU128
 524              	.LBB337:
  61:daisy_common.cpp ****     if(knob_user_name == knob_3_user_name) return mux_x;
 525              		.loc 1 61 5 view .LVU129
 526 000a 9942     		cmp	r1, r3
 527 000c 1ED0     		beq	.L59
  62:daisy_common.cpp ****     if(knob_user_name == knob_4_user_name) return mux_x;
 528              		.loc 1 62 5 view .LVU130
 529 000e D0F8F031 		ldr	r3, [r0, #496]
 530 0012 9942     		cmp	r1, r3
 531 0014 1AD0     		beq	.L59
  63:daisy_common.cpp ****     if(knob_user_name == knob_5_user_name) return mux_x;
 532              		.loc 1 63 5 view .LVU131
 533 0016 D0F8F431 		ldr	r3, [r0, #500]
 534 001a 9942     		cmp	r1, r3
 535 001c 16D0     		beq	.L59
  64:daisy_common.cpp ****     if(knob_user_name == knob_2_user_name) return mux_y;
 536              		.loc 1 64 5 view .LVU132
 537 001e D0F8F831 		ldr	r3, [r0, #504]
 538 0022 9942     		cmp	r1, r3
 539 0024 12D0     		beq	.L59
  65:daisy_common.cpp ****     if(knob_user_name == knob_6_user_name) return mux_y;
 540              		.loc 1 65 5 view .LVU133
 541 0026 D0F8EC31 		ldr	r3, [r0, #492]
 542 002a 9942     		cmp	r1, r3
 543 002c 19D0     		beq	.L62
  66:daisy_common.cpp ****     if(knob_user_name == knob_7_user_name) return mux_y;
 544              		.loc 1 66 5 view .LVU134
 545 002e D0F8FC31 		ldr	r3, [r0, #508]
 546 0032 9942     		cmp	r1, r3
 547 0034 15D0     		beq	.L62
 548              	.LVL32:
 549              	.LBB333:
 550              	.LBI333:
  59:daisy_common.cpp **** {
 551              		.loc 1 59 5 view .LVU135
 552              	.LBB334:
  67:daisy_common.cpp ****     if(knob_user_name == knob_8_user_name) return mux_y;
 553              		.loc 1 67 5 view .LVU136
 554 0036 D0F80032 		ldr	r3, [r0, #512]
 555 003a 9942     		cmp	r1, r3
 556 003c 11D0     		beq	.L62
  68:daisy_common.cpp ****     return -1;
 557              		.loc 1 68 5 view .LVU137
 558 003e D0F80442 		ldr	r4, [r0, #516]
 559 0042 A142     		cmp	r1, r4
 560 0044 14BF     		ite	ne
 561 0046 FF24     		movne	r4, #255
 562 0048 0124     		moveq	r4, #1
 563 004a 00E0     		b	.L55
 564              	.LVL33:
 565              	.L59:
  68:daisy_common.cpp ****     return -1;
 566              		.loc 1 68 5 is_stmt 0 view .LVU138
ARM GAS  C:\Users\samue\AppData\Local\Temp\cci865ja.s 			page 16


 567              	.LBE334:
 568              	.LBE333:
 569 004c 0024     		movs	r4, #0
 570              	.L55:
 571              	.LVL34:
  68:daisy_common.cpp ****     return -1;
 572              		.loc 1 68 5 view .LVU139
 573              	.LBE337:
 574              	.LBE339:
  46:daisy_common.cpp **** }
 575              		.loc 1 46 65 view .LVU140
 576 004e FFF7FEFF 		bl	_ZN5daisy11daisyCommon12get_adc_chanEi
 577              	.LVL35:
  46:daisy_common.cpp **** }
 578              		.loc 1 46 65 view .LVU141
 579 0052 0246     		mov	r2, r0
  46:daisy_common.cpp **** }
 580              		.loc 1 46 32 view .LVU142
 581 0054 2146     		mov	r1, r4
 582              	.LVL36:
  46:daisy_common.cpp **** }
 583              		.loc 1 46 32 view .LVU143
 584 0056 2846     		mov	r0, r5
 585 0058 D2B2     		uxtb	r2, r2
  47:daisy_common.cpp **** void daisyCommon::add_knob(int user_name, int knob_num)
 586              		.loc 1 47 1 view .LVU144
 587 005a BDE83840 		pop	{r3, r4, r5, lr}
 588              		.cfi_remember_state
 589              		.cfi_restore 14
 590              		.cfi_restore 5
 591              		.cfi_restore 4
 592              		.cfi_restore 3
 593              		.cfi_def_cfa_offset 0
 594              	.LVL37:
  46:daisy_common.cpp **** }
 595              		.loc 1 46 32 view .LVU145
 596 005e FFF7FEBF 		b	_ZNK5daisy9AdcHandle11GetMuxFloatEhh
 597              	.LVL38:
 598              	.L62:
 599              		.cfi_restore_state
 600              	.LBB340:
 601              	.LBB338:
 602              	.LBB336:
 603              	.LBB335:
  46:daisy_common.cpp **** }
 604              		.loc 1 46 32 view .LVU146
 605 0062 0124     		movs	r4, #1
 606 0064 F3E7     		b	.L55
 607              	.LBE335:
 608              	.LBE336:
 609              	.LBE338:
 610              	.LBE340:
 611              		.cfi_endproc
 612              	.LFE3059:
 614 0066 00BF     		.section	.text._ZN5daisy11daisyCommon8getCVPinEi,"ax",%progbits
 615              		.align	1
 616              		.p2align 2,,3
ARM GAS  C:\Users\samue\AppData\Local\Temp\cci865ja.s 			page 17


 617              		.global	_ZN5daisy11daisyCommon8getCVPinEi
 618              		.syntax unified
 619              		.thumb
 620              		.thumb_func
 621              		.fpu fpv5-d16
 623              	_ZN5daisy11daisyCommon8getCVPinEi:
 624              	.LVL39:
 625              	.LFB3068:
  83:daisy_common.cpp **** 
  84:daisy_common.cpp **** void daisyCommon::Init(bool boost)
  85:daisy_common.cpp **** {
  86:daisy_common.cpp ****     //seed.Configure();
  87:daisy_common.cpp ****     seed.Init(boost);
  88:daisy_common.cpp ****     InitGPIO_MUX();
  89:daisy_common.cpp ****     InitToggle();
  90:daisy_common.cpp ****     InitButton();
  91:daisy_common.cpp ****     InitADC();
  92:daisy_common.cpp ****     
  93:daisy_common.cpp **** }
  94:daisy_common.cpp **** 
  95:daisy_common.cpp **** void daisyCommon::add_cv(int user_name, int jack)
  96:daisy_common.cpp **** {
  97:daisy_common.cpp ****     struct cv ctrl;
  98:daisy_common.cpp ****     ctrl.user_name = user_name;
  99:daisy_common.cpp ****     ctrl.jack = jack;
 100:daisy_common.cpp ****     ctrl.adc_channel_num = cvs.size();
 101:daisy_common.cpp ****     ctrl.pin = getCVPin(jack);
 102:daisy_common.cpp ****     cvs.push_back(ctrl);
 103:daisy_common.cpp **** }
 104:daisy_common.cpp **** 
 105:daisy_common.cpp **** Pin daisyCommon::getCVPin(int jack)
 106:daisy_common.cpp **** {
 626              		.loc 1 106 1 is_stmt 1 view -0
 627              		.cfi_startproc
 628              		@ args = 0, pretend = 0, frame = 8
 629              		@ frame_needed = 0, uses_anonymous_args = 0
 630              		@ link register save eliminated.
 107:daisy_common.cpp ****     Pin pin;
 631              		.loc 1 107 5 view .LVU148
 108:daisy_common.cpp ****     switch(jack)
 632              		.loc 1 108 5 view .LVU149
 107:daisy_common.cpp ****     Pin pin;
 633              		.loc 1 107 9 is_stmt 0 view .LVU150
 634 0000 0829     		cmp	r1, #8
 635              	.LVL40:
 109:daisy_common.cpp ****     {
 110:daisy_common.cpp ****         case in_1: pin = IN_1_ADC_PIN;
 111:daisy_common.cpp ****         case in_2: pin = IN_2_ADC_PIN;
 112:daisy_common.cpp ****         case in_3: pin = IN_3_ADC_PIN;
 113:daisy_common.cpp ****         case gate_1_in_4: pin = GATE_1_IN_4_PIN;
 114:daisy_common.cpp ****         case in_5: pin = IN_5_GPIO_PIN;
 115:daisy_common.cpp ****         case in_6: pin = IN_6_GPIO_PIN;
 116:daisy_common.cpp ****         case in_7: pin = IN_7_GPIO_PIN;
 117:daisy_common.cpp ****         case gate_2_in_8: pin = GATE_2_IN_8_PIN;
 118:daisy_common.cpp ****         default: break;
 636              		.loc 1 118 9 is_stmt 1 view .LVU151
 637              		.loc 1 118 18 view .LVU152
ARM GAS  C:\Users\samue\AppData\Local\Temp\cci865ja.s 			page 18


 119:daisy_common.cpp ****     }
 120:daisy_common.cpp ****     return pin;
 638              		.loc 1 120 5 view .LVU153
 639              		.loc 1 120 12 is_stmt 0 view .LVU154
 640 0002 4FF00000 		mov	r0, #0
 641              	.LVL41:
 106:daisy_common.cpp ****     Pin pin;
 642              		.loc 1 106 1 view .LVU155
 643 0006 82B0     		sub	sp, sp, #8
 644              		.cfi_def_cfa_offset 8
 645              		.loc 1 120 12 view .LVU156
 646 0008 2DBF     		iteet	cs
 647 000a 0B22     		movcs	r2, #11
 648 000c 0246     		movcc	r2, r0
 649 000e 0423     		movcc	r3, #4
 650 0010 FF23     		movcs	r3, #255
 651 0012 62F30700 		bfi	r0, r2, #0, #8
 652 0016 63F30F20 		bfi	r0, r3, #8, #8
 121:daisy_common.cpp **** }
 653              		.loc 1 121 1 view .LVU157
 654 001a 02B0     		add	sp, sp, #8
 655              		.cfi_def_cfa_offset 0
 656              		@ sp needed
 657 001c 7047     		bx	lr
 658              		.cfi_endproc
 659              	.LFE3068:
 661 001e 00BF     		.section	.text._ZN5daisy11daisyCommon7getGPIOEi,"ax",%progbits
 662              		.align	1
 663              		.p2align 2,,3
 664              		.global	_ZN5daisy11daisyCommon7getGPIOEi
 665              		.syntax unified
 666              		.thumb
 667              		.thumb_func
 668              		.fpu fpv5-d16
 670              	_ZN5daisy11daisyCommon7getGPIOEi:
 671              	.LVL42:
 672              	.LFB3073:
 122:daisy_common.cpp **** 
 123:daisy_common.cpp **** void daisyCommon::add_jack_gpio(int user_name, int jack, int direction)
 124:daisy_common.cpp **** {
 125:daisy_common.cpp ****     struct jack_gpio gpio;
 126:daisy_common.cpp ****     gpio.jack = jack;
 127:daisy_common.cpp ****     gpio.user_name = user_name;
 128:daisy_common.cpp ****     gpio.direction = direction;
 129:daisy_common.cpp ****     gpio.pin = getGPIOPin(jack);
 130:daisy_common.cpp ****     gpio.gpio = getGPIO(jack);
 131:daisy_common.cpp ****     if(direction == output)
 132:daisy_common.cpp ****     {
 133:daisy_common.cpp ****         gpio.gpio.Init(gpio.pin, GPIO::Mode::OUTPUT);
 134:daisy_common.cpp ****     }
 135:daisy_common.cpp ****     else
 136:daisy_common.cpp ****     {
 137:daisy_common.cpp ****         gpio.gpio.Init(gpio.pin, GPIO::Mode::INPUT);
 138:daisy_common.cpp ****     }
 139:daisy_common.cpp ****     
 140:daisy_common.cpp **** }
 141:daisy_common.cpp **** 
ARM GAS  C:\Users\samue\AppData\Local\Temp\cci865ja.s 			page 19


 142:daisy_common.cpp **** GPIO daisyCommon::getGPIO(int jack)
 143:daisy_common.cpp **** {
 673              		.loc 1 143 1 is_stmt 1 view -0
 674              		.cfi_startproc
 675              		@ args = 0, pretend = 0, frame = 0
 676              		@ frame_needed = 0, uses_anonymous_args = 0
 144:daisy_common.cpp ****     switch(jack)
 677              		.loc 1 144 5 view .LVU159
 678 0000 013A     		subs	r2, r2, #1
 679              	.LVL43:
 143:daisy_common.cpp ****     switch(jack)
 680              		.loc 1 143 1 is_stmt 0 view .LVU160
 681 0002 10B5     		push	{r4, lr}
 682              		.cfi_def_cfa_offset 8
 683              		.cfi_offset 4, -8
 684              		.cfi_offset 14, -4
 143:daisy_common.cpp ****     switch(jack)
 685              		.loc 1 143 1 view .LVU161
 686 0004 8646     		mov	lr, r0
 687 0006 062A     		cmp	r2, #6
 688 0008 22D8     		bhi	.L70
 689 000a DFE802F0 		tbb	[pc, r2]
 690              	.L72:
 691 000e 0F       		.byte	(.L78-.L72)/2
 692 000f 12       		.byte	(.L77-.L72)/2
 693 0010 15       		.byte	(.L76-.L72)/2
 694 0011 18       		.byte	(.L75-.L72)/2
 695 0012 1B       		.byte	(.L74-.L72)/2
 696 0013 1E       		.byte	(.L73-.L72)/2
 697 0014 04       		.byte	(.L71-.L72)/2
 698 0015 00       		.p2align 1
 699              	.L71:
 145:daisy_common.cpp ****     {
 146:daisy_common.cpp ****         case in_1: return IN_1;
 147:daisy_common.cpp ****         case in_2: return IN_2;
 148:daisy_common.cpp ****         case in_3: return IN_3;
 149:daisy_common.cpp ****         case gate_1_in_4: return GATE_1_IN_4;
 150:daisy_common.cpp ****         case in_5: return IN_5;
 151:daisy_common.cpp ****         case in_6: return IN_6;
 152:daisy_common.cpp ****         case in_7: return IN_7;
 153:daisy_common.cpp ****         case gate_2_in_8: return GATE_2_IN_8;
 700              		.loc 1 153 9 is_stmt 1 view .LVU162
 701              		.loc 1 153 27 view .LVU163
 702              		.loc 1 153 34 is_stmt 0 view .LVU164
 703 0016 01F5B87C 		add	ip, r1, #368
 704              	.L81:
 705              		.loc 1 153 34 view .LVU165
 706 001a 7446     		mov	r4, lr
 707 001c BCE80F00 		ldmia	ip!, {r0, r1, r2, r3}
 708              	.LVL44:
 709              		.loc 1 153 34 view .LVU166
 710 0020 0FC4     		stmia	r4!, {r0, r1, r2, r3}
 711 0022 DCF80030 		ldr	r3, [ip]
 154:daisy_common.cpp ****         default: break;
 155:daisy_common.cpp ****     }
 156:daisy_common.cpp ****     return IN_1;
 157:daisy_common.cpp **** }
ARM GAS  C:\Users\samue\AppData\Local\Temp\cci865ja.s 			page 20


 712              		.loc 1 157 1 view .LVU167
 713 0026 7046     		mov	r0, lr
 153:daisy_common.cpp ****         default: break;
 714              		.loc 1 153 34 view .LVU168
 715 0028 2360     		str	r3, [r4]
 716              		.loc 1 157 1 view .LVU169
 717 002a 10BD     		pop	{r4, pc}
 718              	.LVL45:
 719              	.L78:
 147:daisy_common.cpp ****         case in_3: return IN_3;
 720              		.loc 1 147 9 is_stmt 1 view .LVU170
 147:daisy_common.cpp ****         case in_3: return IN_3;
 721              		.loc 1 147 20 view .LVU171
 147:daisy_common.cpp ****         case in_3: return IN_3;
 722              		.loc 1 147 27 is_stmt 0 view .LVU172
 723 002c 01F1F80C 		add	ip, r1, #248
 724 0030 F3E7     		b	.L81
 725              	.L77:
 148:daisy_common.cpp ****         case gate_1_in_4: return GATE_1_IN_4;
 726              		.loc 1 148 9 is_stmt 1 view .LVU173
 148:daisy_common.cpp ****         case gate_1_in_4: return GATE_1_IN_4;
 727              		.loc 1 148 20 view .LVU174
 148:daisy_common.cpp ****         case gate_1_in_4: return GATE_1_IN_4;
 728              		.loc 1 148 27 is_stmt 0 view .LVU175
 729 0032 01F5867C 		add	ip, r1, #268
 730 0036 F0E7     		b	.L81
 731              	.L76:
 149:daisy_common.cpp ****         case in_5: return IN_5;
 732              		.loc 1 149 9 is_stmt 1 view .LVU176
 149:daisy_common.cpp ****         case in_5: return IN_5;
 733              		.loc 1 149 27 view .LVU177
 149:daisy_common.cpp ****         case in_5: return IN_5;
 734              		.loc 1 149 34 is_stmt 0 view .LVU178
 735 0038 01F5907C 		add	ip, r1, #288
 736 003c EDE7     		b	.L81
 737              	.L75:
 150:daisy_common.cpp ****         case in_6: return IN_6;
 738              		.loc 1 150 9 is_stmt 1 view .LVU179
 150:daisy_common.cpp ****         case in_6: return IN_6;
 739              		.loc 1 150 20 view .LVU180
 150:daisy_common.cpp ****         case in_6: return IN_6;
 740              		.loc 1 150 27 is_stmt 0 view .LVU181
 741 003e 01F59A7C 		add	ip, r1, #308
 742 0042 EAE7     		b	.L81
 743              	.L74:
 151:daisy_common.cpp ****         case in_7: return IN_7;
 744              		.loc 1 151 9 is_stmt 1 view .LVU182
 151:daisy_common.cpp ****         case in_7: return IN_7;
 745              		.loc 1 151 20 view .LVU183
 151:daisy_common.cpp ****         case in_7: return IN_7;
 746              		.loc 1 151 27 is_stmt 0 view .LVU184
 747 0044 01F5A47C 		add	ip, r1, #328
 748 0048 E7E7     		b	.L81
 749              	.L73:
 152:daisy_common.cpp ****         case gate_2_in_8: return GATE_2_IN_8;
 750              		.loc 1 152 9 is_stmt 1 view .LVU185
 152:daisy_common.cpp ****         case gate_2_in_8: return GATE_2_IN_8;
ARM GAS  C:\Users\samue\AppData\Local\Temp\cci865ja.s 			page 21


 751              		.loc 1 152 20 view .LVU186
 152:daisy_common.cpp ****         case gate_2_in_8: return GATE_2_IN_8;
 752              		.loc 1 152 27 is_stmt 0 view .LVU187
 753 004a 01F5AE7C 		add	ip, r1, #348
 754 004e E4E7     		b	.L81
 755              	.L70:
 146:daisy_common.cpp ****         case in_2: return IN_2;
 756              		.loc 1 146 9 is_stmt 1 view .LVU188
 146:daisy_common.cpp ****         case in_2: return IN_2;
 757              		.loc 1 146 20 view .LVU189
 146:daisy_common.cpp ****         case in_2: return IN_2;
 758              		.loc 1 146 27 is_stmt 0 view .LVU190
 759 0050 01F1E40C 		add	ip, r1, #228
 760 0054 E1E7     		b	.L81
 761              		.cfi_endproc
 762              	.LFE3073:
 764 0056 00BF     		.section	.text._ZN5daisy11daisyCommon13add_jack_gpioEiii,"ax",%progbits
 765              		.align	1
 766              		.p2align 2,,3
 767              		.global	_ZN5daisy11daisyCommon13add_jack_gpioEiii
 768              		.syntax unified
 769              		.thumb
 770              		.thumb_func
 771              		.fpu fpv5-d16
 773              	_ZN5daisy11daisyCommon13add_jack_gpioEiii:
 774              	.LVL46:
 775              	.LFB3069:
 124:daisy_common.cpp ****     struct jack_gpio gpio;
 776              		.loc 1 124 1 is_stmt 1 view -0
 777              		.cfi_startproc
 778              		@ args = 0, pretend = 0, frame = 64
 779              		@ frame_needed = 0, uses_anonymous_args = 0
 125:daisy_common.cpp ****     gpio.jack = jack;
 780              		.loc 1 125 5 view .LVU192
 124:daisy_common.cpp ****     struct jack_gpio gpio;
 781              		.loc 1 124 1 is_stmt 0 view .LVU193
 782 0000 30B5     		push	{r4, r5, lr}
 783              		.cfi_def_cfa_offset 12
 784              		.cfi_offset 4, -12
 785              		.cfi_offset 5, -8
 786              		.cfi_offset 14, -4
 787              	.LBB341:
 788              	.LBB342:
 158:daisy_common.cpp **** 
 159:daisy_common.cpp **** Pin daisyCommon::getGPIOPin(int jack)
 160:daisy_common.cpp **** {
 161:daisy_common.cpp ****     Pin pin;
 162:daisy_common.cpp ****     switch(jack)
 163:daisy_common.cpp ****     {
 164:daisy_common.cpp ****         case in_1: pin = IN_1_GPIO_PIN;
 165:daisy_common.cpp ****         case in_2: pin = IN_2_GPIO_PIN;
 166:daisy_common.cpp ****         case in_3: pin = IN_3_GPIO_PIN;
 167:daisy_common.cpp ****         case gate_1_in_4: pin = IN_4_ADC_PIN;
 168:daisy_common.cpp ****         case in_5: pin = IN_5_ADC_PIN;
 169:daisy_common.cpp ****         case in_6: pin = IN_6_ADC_PIN;
 170:daisy_common.cpp ****         case in_7: pin = IN_7_ADC_PIN;
 171:daisy_common.cpp ****         case gate_2_in_8: pin = IN_8_ADC_PIN;
ARM GAS  C:\Users\samue\AppData\Local\Temp\cci865ja.s 			page 22


 789              		.loc 1 171 31 view .LVU194
 790 0002 072A     		cmp	r2, #7
 791              	.LBE342:
 792              	.LBE341:
 124:daisy_common.cpp ****     struct jack_gpio gpio;
 793              		.loc 1 124 1 view .LVU195
 794 0004 93B0     		sub	sp, sp, #76
 795              		.cfi_def_cfa_offset 88
 796              	.LVL47:
 797              	.LBB346:
 798              	.LBI346:
 799              		.file 3 "daisy_common.h"
   1:daisy_common.h **** #include "daisy_seed.h"
   2:daisy_common.h **** #include <vector>
   3:daisy_common.h **** using namespace daisy::seed;
   4:daisy_common.h **** using namespace daisy;
   5:daisy_common.h **** 
   6:daisy_common.h **** struct cv
   7:daisy_common.h **** {
   8:daisy_common.h ****     int user_name;
   9:daisy_common.h ****     int jack;
  10:daisy_common.h ****     int adc_channel_num;
  11:daisy_common.h ****     Pin pin;
  12:daisy_common.h ****     float cv_value;
  13:daisy_common.h **** };
  14:daisy_common.h **** struct jack_gpio
 800              		.loc 3 14 8 is_stmt 1 view .LVU196
 801              	.LBB347:
 802              	.LBI347:
 803              		.file 4 "../../DaisyExamples/libDaisy//src/daisy_core.h"
   1:../../DaisyExamples/libDaisy//src/daisy_core.h **** #pragma once
   2:../../DaisyExamples/libDaisy//src/daisy_core.h **** #ifndef DSY_CORE_HW_H
   3:../../DaisyExamples/libDaisy//src/daisy_core.h **** #define DSY_CORE_HW_H /**< & */
   4:../../DaisyExamples/libDaisy//src/daisy_core.h **** #include <stdint.h>
   5:../../DaisyExamples/libDaisy//src/daisy_core.h **** #include <stdlib.h>
   6:../../DaisyExamples/libDaisy//src/daisy_core.h **** 
   7:../../DaisyExamples/libDaisy//src/daisy_core.h **** #if defined(_MSC_VER)
   8:../../DaisyExamples/libDaisy//src/daisy_core.h **** #define FORCE_INLINE __forceinline /**< & */
   9:../../DaisyExamples/libDaisy//src/daisy_core.h **** #elif defined(__clang__)
  10:../../DaisyExamples/libDaisy//src/daisy_core.h **** #define FORCE_INLINE inline __attribute__((always_inline)) /**< & */
  11:../../DaisyExamples/libDaisy//src/daisy_core.h **** #pragma clang diagnostic ignored "-Wduplicate-decl-specifier"
  12:../../DaisyExamples/libDaisy//src/daisy_core.h **** #elif defined(__GNUC__)
  13:../../DaisyExamples/libDaisy//src/daisy_core.h **** #define FORCE_INLINE inline __attribute__((always_inline)) /**< & */
  14:../../DaisyExamples/libDaisy//src/daisy_core.h **** #else
  15:../../DaisyExamples/libDaisy//src/daisy_core.h **** #error unknown compiler
  16:../../DaisyExamples/libDaisy//src/daisy_core.h **** #endif
  17:../../DaisyExamples/libDaisy//src/daisy_core.h **** 
  18:../../DaisyExamples/libDaisy//src/daisy_core.h **** /** @addtogroup utility
  19:../../DaisyExamples/libDaisy//src/daisy_core.h ****     @{
  20:../../DaisyExamples/libDaisy//src/daisy_core.h **** */
  21:../../DaisyExamples/libDaisy//src/daisy_core.h **** 
  22:../../DaisyExamples/libDaisy//src/daisy_core.h **** /** Macro for area of memory that is configured as cacheless
  23:../../DaisyExamples/libDaisy//src/daisy_core.h **** This should be used primarily for DMA buffers, and the like.
  24:../../DaisyExamples/libDaisy//src/daisy_core.h **** */
  25:../../DaisyExamples/libDaisy//src/daisy_core.h **** #define DMA_BUFFER_MEM_SECTION __attribute__((section(".sram1_bss")))
  26:../../DaisyExamples/libDaisy//src/daisy_core.h **** /** 
  27:../../DaisyExamples/libDaisy//src/daisy_core.h **** THE DTCM RAM section is also non-cached. However, is not suitable 
ARM GAS  C:\Users\samue\AppData\Local\Temp\cci865ja.s 			page 23


  28:../../DaisyExamples/libDaisy//src/daisy_core.h **** for DMA transfers. Performance is on par with internal SRAM w/ 
  29:../../DaisyExamples/libDaisy//src/daisy_core.h **** cache enabled.
  30:../../DaisyExamples/libDaisy//src/daisy_core.h **** */
  31:../../DaisyExamples/libDaisy//src/daisy_core.h **** #define DTCM_MEM_SECTION __attribute__((section(".dtcmram_bss")))
  32:../../DaisyExamples/libDaisy//src/daisy_core.h **** 
  33:../../DaisyExamples/libDaisy//src/daisy_core.h **** #define FBIPMAX 0.999985f             /**< close to 1.0f-LSB at 16 bit */
  34:../../DaisyExamples/libDaisy//src/daisy_core.h **** #define FBIPMIN (-FBIPMAX)            /**< - (1 - LSB) */
  35:../../DaisyExamples/libDaisy//src/daisy_core.h **** #define U82F_SCALE 0.0078740f         /**< 1 / 127 */
  36:../../DaisyExamples/libDaisy//src/daisy_core.h **** #define F2U8_SCALE 127.0f             /**< 128 - 1 */
  37:../../DaisyExamples/libDaisy//src/daisy_core.h **** #define S82F_SCALE 0.0078125f         /**< 1 / (2**7) */
  38:../../DaisyExamples/libDaisy//src/daisy_core.h **** #define F2S8_SCALE 127.0f             /**< (2 ** 7) - 1 */
  39:../../DaisyExamples/libDaisy//src/daisy_core.h **** #define S162F_SCALE 3.0517578125e-05f /**< 1 / (2** 15) */
  40:../../DaisyExamples/libDaisy//src/daisy_core.h **** #define F2S16_SCALE 32767.0f          /**< (2 ** 15) - 1 */
  41:../../DaisyExamples/libDaisy//src/daisy_core.h **** #define F2S24_SCALE 8388608.0f        /**< 2 ** 23 */
  42:../../DaisyExamples/libDaisy//src/daisy_core.h **** #define S242F_SCALE 1.192092896e-07f  /**< 1 / (2 ** 23) */
  43:../../DaisyExamples/libDaisy//src/daisy_core.h **** #define S24SIGN 0x800000              /**< 2 ** 23 */
  44:../../DaisyExamples/libDaisy//src/daisy_core.h **** #define S322F_SCALE 4.6566129e-10f    /**< 1 / (2** 31) */
  45:../../DaisyExamples/libDaisy//src/daisy_core.h **** #define F2S32_SCALE 2147483647.f      /**< (2 ** 31) - 1 */
  46:../../DaisyExamples/libDaisy//src/daisy_core.h **** 
  47:../../DaisyExamples/libDaisy//src/daisy_core.h **** 
  48:../../DaisyExamples/libDaisy//src/daisy_core.h **** /** shorthand macro for simplifying the reading of the left 
  49:../../DaisyExamples/libDaisy//src/daisy_core.h ****  *  channel of a non-interleaved output buffer named out */
  50:../../DaisyExamples/libDaisy//src/daisy_core.h **** #define OUT_L out[0]
  51:../../DaisyExamples/libDaisy//src/daisy_core.h **** 
  52:../../DaisyExamples/libDaisy//src/daisy_core.h **** /** shorthand macro for simplifying the reading of the right 
  53:../../DaisyExamples/libDaisy//src/daisy_core.h ****  *  channel of a non-interleaved output buffer named out */
  54:../../DaisyExamples/libDaisy//src/daisy_core.h **** #define OUT_R out[1]
  55:../../DaisyExamples/libDaisy//src/daisy_core.h **** 
  56:../../DaisyExamples/libDaisy//src/daisy_core.h **** /** shorthand macro for simplifying the reading of the left 
  57:../../DaisyExamples/libDaisy//src/daisy_core.h ****  *  channel of a non-interleaved input buffer named in */
  58:../../DaisyExamples/libDaisy//src/daisy_core.h **** #define IN_L in[0]
  59:../../DaisyExamples/libDaisy//src/daisy_core.h **** 
  60:../../DaisyExamples/libDaisy//src/daisy_core.h **** /** shorthand macro for simplifying the reading of the right 
  61:../../DaisyExamples/libDaisy//src/daisy_core.h ****  *  channel of a non-interleaved input buffer named in */
  62:../../DaisyExamples/libDaisy//src/daisy_core.h **** #define IN_R in[1]
  63:../../DaisyExamples/libDaisy//src/daisy_core.h **** 
  64:../../DaisyExamples/libDaisy//src/daisy_core.h **** /** 
  65:../../DaisyExamples/libDaisy//src/daisy_core.h ****     Computes cube.
  66:../../DaisyExamples/libDaisy//src/daisy_core.h ****     \param x Number to be cubed
  67:../../DaisyExamples/libDaisy//src/daisy_core.h ****     \return x ^ 3
  68:../../DaisyExamples/libDaisy//src/daisy_core.h **** */
  69:../../DaisyExamples/libDaisy//src/daisy_core.h **** FORCE_INLINE float cube(float x)
  70:../../DaisyExamples/libDaisy//src/daisy_core.h **** {
  71:../../DaisyExamples/libDaisy//src/daisy_core.h ****     return (x * x) * x;
  72:../../DaisyExamples/libDaisy//src/daisy_core.h **** }
  73:../../DaisyExamples/libDaisy//src/daisy_core.h **** 
  74:../../DaisyExamples/libDaisy//src/daisy_core.h **** /** 
  75:../../DaisyExamples/libDaisy//src/daisy_core.h ****     Converts unsigned 8-bit to float
  76:../../DaisyExamples/libDaisy//src/daisy_core.h ****     \param x Number to be scaled.
  77:../../DaisyExamples/libDaisy//src/daisy_core.h ****     \return Scaled number.
  78:../../DaisyExamples/libDaisy//src/daisy_core.h **** */
  79:../../DaisyExamples/libDaisy//src/daisy_core.h **** FORCE_INLINE float u82f(uint8_t x)
  80:../../DaisyExamples/libDaisy//src/daisy_core.h **** {
  81:../../DaisyExamples/libDaisy//src/daisy_core.h ****     return ((float)x - 127.f) * U82F_SCALE;
  82:../../DaisyExamples/libDaisy//src/daisy_core.h **** }
  83:../../DaisyExamples/libDaisy//src/daisy_core.h **** 
  84:../../DaisyExamples/libDaisy//src/daisy_core.h **** /**
ARM GAS  C:\Users\samue\AppData\Local\Temp\cci865ja.s 			page 24


  85:../../DaisyExamples/libDaisy//src/daisy_core.h ****     Converts float to unsigned 8-bit
  86:../../DaisyExamples/libDaisy//src/daisy_core.h **** */
  87:../../DaisyExamples/libDaisy//src/daisy_core.h **** FORCE_INLINE uint8_t f2u8(float x)
  88:../../DaisyExamples/libDaisy//src/daisy_core.h **** {
  89:../../DaisyExamples/libDaisy//src/daisy_core.h ****     x = x <= FBIPMIN ? FBIPMIN : x;
  90:../../DaisyExamples/libDaisy//src/daisy_core.h ****     x = x >= FBIPMAX ? FBIPMAX : x;
  91:../../DaisyExamples/libDaisy//src/daisy_core.h ****     return (uint8_t)((x * F2U8_SCALE) + F2U8_SCALE);
  92:../../DaisyExamples/libDaisy//src/daisy_core.h **** }
  93:../../DaisyExamples/libDaisy//src/daisy_core.h **** 
  94:../../DaisyExamples/libDaisy//src/daisy_core.h **** 
  95:../../DaisyExamples/libDaisy//src/daisy_core.h **** /** 
  96:../../DaisyExamples/libDaisy//src/daisy_core.h ****     Converts Signed 8-bit to float
  97:../../DaisyExamples/libDaisy//src/daisy_core.h ****     \param x Number to be scaled.
  98:../../DaisyExamples/libDaisy//src/daisy_core.h ****     \return Scaled number.
  99:../../DaisyExamples/libDaisy//src/daisy_core.h **** */
 100:../../DaisyExamples/libDaisy//src/daisy_core.h **** FORCE_INLINE float s82f(int8_t x)
 101:../../DaisyExamples/libDaisy//src/daisy_core.h **** {
 102:../../DaisyExamples/libDaisy//src/daisy_core.h ****     return (float)x * S82F_SCALE;
 103:../../DaisyExamples/libDaisy//src/daisy_core.h **** }
 104:../../DaisyExamples/libDaisy//src/daisy_core.h **** 
 105:../../DaisyExamples/libDaisy//src/daisy_core.h **** /**
 106:../../DaisyExamples/libDaisy//src/daisy_core.h ****     Converts float to Signed 8-bit
 107:../../DaisyExamples/libDaisy//src/daisy_core.h **** */
 108:../../DaisyExamples/libDaisy//src/daisy_core.h **** FORCE_INLINE int8_t f2s8(float x)
 109:../../DaisyExamples/libDaisy//src/daisy_core.h **** {
 110:../../DaisyExamples/libDaisy//src/daisy_core.h ****     x = x <= FBIPMIN ? FBIPMIN : x;
 111:../../DaisyExamples/libDaisy//src/daisy_core.h ****     x = x >= FBIPMAX ? FBIPMAX : x;
 112:../../DaisyExamples/libDaisy//src/daisy_core.h ****     return (int32_t)(x * F2S8_SCALE);
 113:../../DaisyExamples/libDaisy//src/daisy_core.h **** }
 114:../../DaisyExamples/libDaisy//src/daisy_core.h **** 
 115:../../DaisyExamples/libDaisy//src/daisy_core.h **** /** 
 116:../../DaisyExamples/libDaisy//src/daisy_core.h ****     Converts Signed 16-bit to float
 117:../../DaisyExamples/libDaisy//src/daisy_core.h ****     \param x Number to be scaled.
 118:../../DaisyExamples/libDaisy//src/daisy_core.h ****     \return Scaled number.
 119:../../DaisyExamples/libDaisy//src/daisy_core.h **** */
 120:../../DaisyExamples/libDaisy//src/daisy_core.h **** FORCE_INLINE float s162f(int16_t x)
 121:../../DaisyExamples/libDaisy//src/daisy_core.h **** {
 122:../../DaisyExamples/libDaisy//src/daisy_core.h ****     return (float)x * S162F_SCALE;
 123:../../DaisyExamples/libDaisy//src/daisy_core.h **** }
 124:../../DaisyExamples/libDaisy//src/daisy_core.h **** 
 125:../../DaisyExamples/libDaisy//src/daisy_core.h **** /**
 126:../../DaisyExamples/libDaisy//src/daisy_core.h ****     Converts float to Signed 16-bit
 127:../../DaisyExamples/libDaisy//src/daisy_core.h **** */
 128:../../DaisyExamples/libDaisy//src/daisy_core.h **** FORCE_INLINE int16_t f2s16(float x)
 129:../../DaisyExamples/libDaisy//src/daisy_core.h **** {
 130:../../DaisyExamples/libDaisy//src/daisy_core.h ****     x = x <= FBIPMIN ? FBIPMIN : x;
 131:../../DaisyExamples/libDaisy//src/daisy_core.h ****     x = x >= FBIPMAX ? FBIPMAX : x;
 132:../../DaisyExamples/libDaisy//src/daisy_core.h ****     return (int32_t)(x * F2S16_SCALE);
 133:../../DaisyExamples/libDaisy//src/daisy_core.h **** }
 134:../../DaisyExamples/libDaisy//src/daisy_core.h **** 
 135:../../DaisyExamples/libDaisy//src/daisy_core.h **** /**
 136:../../DaisyExamples/libDaisy//src/daisy_core.h ****     Converts Signed 24-bit to float
 137:../../DaisyExamples/libDaisy//src/daisy_core.h ****  */
 138:../../DaisyExamples/libDaisy//src/daisy_core.h **** FORCE_INLINE float s242f(int32_t x)
 139:../../DaisyExamples/libDaisy//src/daisy_core.h **** {
 140:../../DaisyExamples/libDaisy//src/daisy_core.h ****     x = (x ^ S24SIGN) - S24SIGN; //sign extend aka ((x<<8)>>8)
 141:../../DaisyExamples/libDaisy//src/daisy_core.h ****     return (float)x * S242F_SCALE;
ARM GAS  C:\Users\samue\AppData\Local\Temp\cci865ja.s 			page 25


 142:../../DaisyExamples/libDaisy//src/daisy_core.h **** }
 143:../../DaisyExamples/libDaisy//src/daisy_core.h **** /**
 144:../../DaisyExamples/libDaisy//src/daisy_core.h ****     Converts float to Signed 24-bit
 145:../../DaisyExamples/libDaisy//src/daisy_core.h ****  */
 146:../../DaisyExamples/libDaisy//src/daisy_core.h **** FORCE_INLINE int32_t f2s24(float x)
 147:../../DaisyExamples/libDaisy//src/daisy_core.h **** {
 148:../../DaisyExamples/libDaisy//src/daisy_core.h ****     x = x <= FBIPMIN ? FBIPMIN : x;
 149:../../DaisyExamples/libDaisy//src/daisy_core.h ****     x = x >= FBIPMAX ? FBIPMAX : x;
 150:../../DaisyExamples/libDaisy//src/daisy_core.h ****     return (int32_t)(x * F2S24_SCALE);
 151:../../DaisyExamples/libDaisy//src/daisy_core.h **** }
 152:../../DaisyExamples/libDaisy//src/daisy_core.h **** 
 153:../../DaisyExamples/libDaisy//src/daisy_core.h **** /**
 154:../../DaisyExamples/libDaisy//src/daisy_core.h ****     Converts Signed 32-bit to float
 155:../../DaisyExamples/libDaisy//src/daisy_core.h ****  */
 156:../../DaisyExamples/libDaisy//src/daisy_core.h **** FORCE_INLINE float s322f(int32_t x)
 157:../../DaisyExamples/libDaisy//src/daisy_core.h **** {
 158:../../DaisyExamples/libDaisy//src/daisy_core.h ****     return (float)x * S322F_SCALE;
 159:../../DaisyExamples/libDaisy//src/daisy_core.h **** }
 160:../../DaisyExamples/libDaisy//src/daisy_core.h **** /**
 161:../../DaisyExamples/libDaisy//src/daisy_core.h ****     Converts float to Signed 24-bit
 162:../../DaisyExamples/libDaisy//src/daisy_core.h ****  */
 163:../../DaisyExamples/libDaisy//src/daisy_core.h **** FORCE_INLINE int32_t f2s32(float x)
 164:../../DaisyExamples/libDaisy//src/daisy_core.h **** {
 165:../../DaisyExamples/libDaisy//src/daisy_core.h ****     x = x <= FBIPMIN ? FBIPMIN : x;
 166:../../DaisyExamples/libDaisy//src/daisy_core.h ****     x = x >= FBIPMAX ? FBIPMAX : x;
 167:../../DaisyExamples/libDaisy//src/daisy_core.h ****     return (int32_t)(x * F2S32_SCALE);
 168:../../DaisyExamples/libDaisy//src/daisy_core.h **** }
 169:../../DaisyExamples/libDaisy//src/daisy_core.h **** 
 170:../../DaisyExamples/libDaisy//src/daisy_core.h **** 
 171:../../DaisyExamples/libDaisy//src/daisy_core.h **** /** Enums and a simple struct for defining a hardware pin on the MCU
 172:../../DaisyExamples/libDaisy//src/daisy_core.h ****  *  These correlate with the stm32 datasheet, and are used to configure
 173:../../DaisyExamples/libDaisy//src/daisy_core.h ****  *  the hardware.
 174:../../DaisyExamples/libDaisy//src/daisy_core.h ****  * 
 175:../../DaisyExamples/libDaisy//src/daisy_core.h ****  *  This along with the dsy_gpio_pin class should no longer be used.
 176:../../DaisyExamples/libDaisy//src/daisy_core.h ****  *  They are available for backwards compatability. 
 177:../../DaisyExamples/libDaisy//src/daisy_core.h ****  * 
 178:../../DaisyExamples/libDaisy//src/daisy_core.h ****  *  Please use GPIOPort enum and the Pin struct instead.
 179:../../DaisyExamples/libDaisy//src/daisy_core.h ****  */
 180:../../DaisyExamples/libDaisy//src/daisy_core.h **** typedef enum
 181:../../DaisyExamples/libDaisy//src/daisy_core.h **** {
 182:../../DaisyExamples/libDaisy//src/daisy_core.h ****     DSY_GPIOA, /**< & */
 183:../../DaisyExamples/libDaisy//src/daisy_core.h ****     DSY_GPIOB, /**< & */
 184:../../DaisyExamples/libDaisy//src/daisy_core.h ****     DSY_GPIOC, /**< & */
 185:../../DaisyExamples/libDaisy//src/daisy_core.h ****     DSY_GPIOD, /**< & */
 186:../../DaisyExamples/libDaisy//src/daisy_core.h ****     DSY_GPIOE, /**< & */
 187:../../DaisyExamples/libDaisy//src/daisy_core.h ****     DSY_GPIOF, /**< & */
 188:../../DaisyExamples/libDaisy//src/daisy_core.h ****     DSY_GPIOG, /**< & */
 189:../../DaisyExamples/libDaisy//src/daisy_core.h ****     DSY_GPIOH, /**< & */
 190:../../DaisyExamples/libDaisy//src/daisy_core.h ****     DSY_GPIOI, /**< & */
 191:../../DaisyExamples/libDaisy//src/daisy_core.h ****     DSY_GPIOJ, /**< & */
 192:../../DaisyExamples/libDaisy//src/daisy_core.h ****     DSY_GPIOK, /**< & */
 193:../../DaisyExamples/libDaisy//src/daisy_core.h ****     DSY_GPIOX, /** This is a non-existant port for unsupported bits of hardware. */
 194:../../DaisyExamples/libDaisy//src/daisy_core.h ****     DSY_GPIO_LAST, /** Final enum member */
 195:../../DaisyExamples/libDaisy//src/daisy_core.h **** } dsy_gpio_port;
 196:../../DaisyExamples/libDaisy//src/daisy_core.h **** 
 197:../../DaisyExamples/libDaisy//src/daisy_core.h **** /** Hardware define pins 
 198:../../DaisyExamples/libDaisy//src/daisy_core.h ****  *  
ARM GAS  C:\Users\samue\AppData\Local\Temp\cci865ja.s 			page 26


 199:../../DaisyExamples/libDaisy//src/daisy_core.h ****  *  The dsy_gpio_pin struct should no longer be used, and is only available for
 200:../../DaisyExamples/libDaisy//src/daisy_core.h ****  *  backwards compatability.
 201:../../DaisyExamples/libDaisy//src/daisy_core.h ****  * 
 202:../../DaisyExamples/libDaisy//src/daisy_core.h ****  *  Please use Pin struct instead.
 203:../../DaisyExamples/libDaisy//src/daisy_core.h ****  */
 204:../../DaisyExamples/libDaisy//src/daisy_core.h **** typedef struct
 205:../../DaisyExamples/libDaisy//src/daisy_core.h **** {
 206:../../DaisyExamples/libDaisy//src/daisy_core.h ****     dsy_gpio_port port; /**< & */
 207:../../DaisyExamples/libDaisy//src/daisy_core.h ****     uint8_t       pin;  /**< number 0-15 */
 208:../../DaisyExamples/libDaisy//src/daisy_core.h **** } dsy_gpio_pin;
 209:../../DaisyExamples/libDaisy//src/daisy_core.h **** 
 210:../../DaisyExamples/libDaisy//src/daisy_core.h **** /** Helper for creating pins from port/pin combos easily
 211:../../DaisyExamples/libDaisy//src/daisy_core.h ****  * 
 212:../../DaisyExamples/libDaisy//src/daisy_core.h ****  *  The dsy_gpio_pin struct should no longer be used, and is only available for
 213:../../DaisyExamples/libDaisy//src/daisy_core.h ****  *  backwards compatability.
 214:../../DaisyExamples/libDaisy//src/daisy_core.h ****  * 
 215:../../DaisyExamples/libDaisy//src/daisy_core.h ****  *  Please use Pin struct instead.
 216:../../DaisyExamples/libDaisy//src/daisy_core.h **** */
 217:../../DaisyExamples/libDaisy//src/daisy_core.h **** FORCE_INLINE dsy_gpio_pin dsy_pin(dsy_gpio_port port, uint8_t pin)
 218:../../DaisyExamples/libDaisy//src/daisy_core.h **** {
 219:../../DaisyExamples/libDaisy//src/daisy_core.h ****     dsy_gpio_pin p;
 220:../../DaisyExamples/libDaisy//src/daisy_core.h ****     p.port = port;
 221:../../DaisyExamples/libDaisy//src/daisy_core.h ****     p.pin  = pin;
 222:../../DaisyExamples/libDaisy//src/daisy_core.h ****     return p;
 223:../../DaisyExamples/libDaisy//src/daisy_core.h **** }
 224:../../DaisyExamples/libDaisy//src/daisy_core.h **** 
 225:../../DaisyExamples/libDaisy//src/daisy_core.h **** /** Helper for testing sameness of two dsy_gpio_pins
 226:../../DaisyExamples/libDaisy//src/daisy_core.h ****  *  \return    1 if same, 0 if different
 227:../../DaisyExamples/libDaisy//src/daisy_core.h ****  * 
 228:../../DaisyExamples/libDaisy//src/daisy_core.h ****  *  The dsy_gpio_pin struct should no longer be used, and is only available for
 229:../../DaisyExamples/libDaisy//src/daisy_core.h ****  *  backwards compatability.
 230:../../DaisyExamples/libDaisy//src/daisy_core.h ****  * 
 231:../../DaisyExamples/libDaisy//src/daisy_core.h ****  *  Please use Pin struct instead.
 232:../../DaisyExamples/libDaisy//src/daisy_core.h ****  */
 233:../../DaisyExamples/libDaisy//src/daisy_core.h **** FORCE_INLINE uint8_t dsy_pin_cmp(dsy_gpio_pin *a, dsy_gpio_pin *b)
 234:../../DaisyExamples/libDaisy//src/daisy_core.h **** {
 235:../../DaisyExamples/libDaisy//src/daisy_core.h ****     return ((a->port == b->port) && (a->pin == b->pin));
 236:../../DaisyExamples/libDaisy//src/daisy_core.h **** }
 237:../../DaisyExamples/libDaisy//src/daisy_core.h **** 
 238:../../DaisyExamples/libDaisy//src/daisy_core.h **** #ifdef __cplusplus
 239:../../DaisyExamples/libDaisy//src/daisy_core.h **** 
 240:../../DaisyExamples/libDaisy//src/daisy_core.h **** namespace daisy
 241:../../DaisyExamples/libDaisy//src/daisy_core.h **** {
 242:../../DaisyExamples/libDaisy//src/daisy_core.h **** /** @brief GPIO Port names */
 243:../../DaisyExamples/libDaisy//src/daisy_core.h **** enum GPIOPort
 244:../../DaisyExamples/libDaisy//src/daisy_core.h **** {
 245:../../DaisyExamples/libDaisy//src/daisy_core.h ****     PORTA, /**< Port A */
 246:../../DaisyExamples/libDaisy//src/daisy_core.h ****     PORTB, /**< Port B */
 247:../../DaisyExamples/libDaisy//src/daisy_core.h ****     PORTC, /**< Port C */
 248:../../DaisyExamples/libDaisy//src/daisy_core.h ****     PORTD, /**< Port D */
 249:../../DaisyExamples/libDaisy//src/daisy_core.h ****     PORTE, /**< Port E */
 250:../../DaisyExamples/libDaisy//src/daisy_core.h ****     PORTF, /**< Port F */
 251:../../DaisyExamples/libDaisy//src/daisy_core.h ****     PORTG, /**< Port G */
 252:../../DaisyExamples/libDaisy//src/daisy_core.h ****     PORTH, /**< Port H */
 253:../../DaisyExamples/libDaisy//src/daisy_core.h ****     PORTI, /**< Port I */
 254:../../DaisyExamples/libDaisy//src/daisy_core.h ****     PORTJ, /**< Port J */
 255:../../DaisyExamples/libDaisy//src/daisy_core.h ****     PORTK, /**< Port K */
ARM GAS  C:\Users\samue\AppData\Local\Temp\cci865ja.s 			page 27


 256:../../DaisyExamples/libDaisy//src/daisy_core.h ****     PORTX, /**< Used as a dummy port to signal an invalid pin. */
 257:../../DaisyExamples/libDaisy//src/daisy_core.h **** };
 258:../../DaisyExamples/libDaisy//src/daisy_core.h **** 
 259:../../DaisyExamples/libDaisy//src/daisy_core.h **** /** @brief representation of hardware port/pin combination */
 260:../../DaisyExamples/libDaisy//src/daisy_core.h **** struct Pin
 261:../../DaisyExamples/libDaisy//src/daisy_core.h **** {
 262:../../DaisyExamples/libDaisy//src/daisy_core.h ****     GPIOPort port;
 263:../../DaisyExamples/libDaisy//src/daisy_core.h ****     uint8_t  pin;
 264:../../DaisyExamples/libDaisy//src/daisy_core.h **** 
 265:../../DaisyExamples/libDaisy//src/daisy_core.h ****     /** @brief Constructor creates a valid pin. 
 266:../../DaisyExamples/libDaisy//src/daisy_core.h ****      *  @param pt GPIOPort between PA, and PK corresponding to STM32 Port.
 267:../../DaisyExamples/libDaisy//src/daisy_core.h ****      *  @param pn pin number in range of 0-15
 268:../../DaisyExamples/libDaisy//src/daisy_core.h ****     */
 269:../../DaisyExamples/libDaisy//src/daisy_core.h ****     constexpr Pin(const GPIOPort pt, const uint8_t pn) : port(pt), pin(pn) {}
 270:../../DaisyExamples/libDaisy//src/daisy_core.h **** 
 271:../../DaisyExamples/libDaisy//src/daisy_core.h ****     /** @brief Basic Constructor creates an invalid Pin object */
 272:../../DaisyExamples/libDaisy//src/daisy_core.h ****     constexpr Pin() : port(PORTX), pin(255) {}
 804              		.loc 4 272 15 view .LVU197
 805              		.loc 4 272 15 is_stmt 0 view .LVU198
 806              	.LBE347:
 807              	.LBB348:
 808              	.LBI348:
 809              		.file 5 "../../DaisyExamples/libDaisy//src/per/gpio.h"
   1:../../DaisyExamples/libDaisy//src/per/gpio.h **** #pragma once
   2:../../DaisyExamples/libDaisy//src/per/gpio.h **** #ifndef DSY_GPIO_H
   3:../../DaisyExamples/libDaisy//src/per/gpio.h **** #define DSY_GPIO_H
   4:../../DaisyExamples/libDaisy//src/per/gpio.h **** #include "daisy_core.h"
   5:../../DaisyExamples/libDaisy//src/per/gpio.h **** 
   6:../../DaisyExamples/libDaisy//src/per/gpio.h **** #ifdef __cplusplus
   7:../../DaisyExamples/libDaisy//src/per/gpio.h **** 
   8:../../DaisyExamples/libDaisy//src/per/gpio.h **** namespace daisy
   9:../../DaisyExamples/libDaisy//src/per/gpio.h **** {
  10:../../DaisyExamples/libDaisy//src/per/gpio.h **** /** @brief General Purpose I/O control 
  11:../../DaisyExamples/libDaisy//src/per/gpio.h ****  *  @details peripheral control over a single GPIO
  12:../../DaisyExamples/libDaisy//src/per/gpio.h ****  *  @ingroup peripheral
  13:../../DaisyExamples/libDaisy//src/per/gpio.h ****  *   
  14:../../DaisyExamples/libDaisy//src/per/gpio.h ****  *  Button Input (with internal Pullup resistor)
  15:../../DaisyExamples/libDaisy//src/per/gpio.h ****  *  @include GPIO_Input.cpp 
  16:../../DaisyExamples/libDaisy//src/per/gpio.h ****  * 
  17:../../DaisyExamples/libDaisy//src/per/gpio.h ****  *  Output Example (perfect for blinking an LED)
  18:../../DaisyExamples/libDaisy//src/per/gpio.h ****  *  @include GPIO_Output.cpp
  19:../../DaisyExamples/libDaisy//src/per/gpio.h ****  * 
  20:../../DaisyExamples/libDaisy//src/per/gpio.h **** */
  21:../../DaisyExamples/libDaisy//src/per/gpio.h **** class GPIO
  22:../../DaisyExamples/libDaisy//src/per/gpio.h **** {
  23:../../DaisyExamples/libDaisy//src/per/gpio.h ****   public:
  24:../../DaisyExamples/libDaisy//src/per/gpio.h ****     /** @brief Mode of operation for the specified GPIO */
  25:../../DaisyExamples/libDaisy//src/per/gpio.h ****     enum class Mode
  26:../../DaisyExamples/libDaisy//src/per/gpio.h ****     {
  27:../../DaisyExamples/libDaisy//src/per/gpio.h ****         INPUT,     /**< Input for reading state of pin */
  28:../../DaisyExamples/libDaisy//src/per/gpio.h ****         OUTPUT,    /**< Output w/ push-pull configuration */
  29:../../DaisyExamples/libDaisy//src/per/gpio.h ****         OUTPUT_OD, /**< Output w/ open-drain configuration */
  30:../../DaisyExamples/libDaisy//src/per/gpio.h ****         ANALOG,    /**< Analog for connection to ADC or DAC peripheral */
  31:../../DaisyExamples/libDaisy//src/per/gpio.h ****     };
  32:../../DaisyExamples/libDaisy//src/per/gpio.h **** 
  33:../../DaisyExamples/libDaisy//src/per/gpio.h ****     /** @brief Configures whether an internal Pull up or Pull down resistor is used. 
  34:../../DaisyExamples/libDaisy//src/per/gpio.h ****      *  
ARM GAS  C:\Users\samue\AppData\Local\Temp\cci865ja.s 			page 28


  35:../../DaisyExamples/libDaisy//src/per/gpio.h ****      * Internal Pull up/down resistors are typically 40k ohms, and will be between
  36:../../DaisyExamples/libDaisy//src/per/gpio.h ****      * 30k and 50k
  37:../../DaisyExamples/libDaisy//src/per/gpio.h ****      * 
  38:../../DaisyExamples/libDaisy//src/per/gpio.h ****      * When the Pin is configured in Analog mode, the pull up/down resistors are
  39:../../DaisyExamples/libDaisy//src/per/gpio.h ****      * disabled by hardware. 
  40:../../DaisyExamples/libDaisy//src/per/gpio.h ****      */
  41:../../DaisyExamples/libDaisy//src/per/gpio.h ****     enum class Pull
  42:../../DaisyExamples/libDaisy//src/per/gpio.h ****     {
  43:../../DaisyExamples/libDaisy//src/per/gpio.h ****         NOPULL,   /**< No pull up resistor */
  44:../../DaisyExamples/libDaisy//src/per/gpio.h ****         PULLUP,   /**< Internal pull up enabled */
  45:../../DaisyExamples/libDaisy//src/per/gpio.h ****         PULLDOWN, /**< Internal pull down enabled*/
  46:../../DaisyExamples/libDaisy//src/per/gpio.h ****     };
  47:../../DaisyExamples/libDaisy//src/per/gpio.h **** 
  48:../../DaisyExamples/libDaisy//src/per/gpio.h ****     /** @brief Output speed controls the drive strength, and slew rate of the pin */
  49:../../DaisyExamples/libDaisy//src/per/gpio.h ****     enum class Speed
  50:../../DaisyExamples/libDaisy//src/per/gpio.h ****     {
  51:../../DaisyExamples/libDaisy//src/per/gpio.h ****         LOW,
  52:../../DaisyExamples/libDaisy//src/per/gpio.h ****         MEDIUM,
  53:../../DaisyExamples/libDaisy//src/per/gpio.h ****         HIGH,
  54:../../DaisyExamples/libDaisy//src/per/gpio.h ****         VERY_HIGH,
  55:../../DaisyExamples/libDaisy//src/per/gpio.h ****     };
  56:../../DaisyExamples/libDaisy//src/per/gpio.h **** 
  57:../../DaisyExamples/libDaisy//src/per/gpio.h ****     /** @brief Configuration for a given GPIO */
  58:../../DaisyExamples/libDaisy//src/per/gpio.h ****     struct Config
  59:../../DaisyExamples/libDaisy//src/per/gpio.h ****     {
  60:../../DaisyExamples/libDaisy//src/per/gpio.h ****         Pin   pin;
  61:../../DaisyExamples/libDaisy//src/per/gpio.h ****         Mode  mode;
  62:../../DaisyExamples/libDaisy//src/per/gpio.h ****         Pull  pull;
  63:../../DaisyExamples/libDaisy//src/per/gpio.h ****         Speed speed;
  64:../../DaisyExamples/libDaisy//src/per/gpio.h **** 
  65:../../DaisyExamples/libDaisy//src/per/gpio.h ****         /** Constructor with no arguments will prepare an invalid GPIO set as
  66:../../DaisyExamples/libDaisy//src/per/gpio.h ****          *  an input, with no pullup. 
  67:../../DaisyExamples/libDaisy//src/per/gpio.h ****          */
  68:../../DaisyExamples/libDaisy//src/per/gpio.h ****         Config()
  69:../../DaisyExamples/libDaisy//src/per/gpio.h ****         : pin(), mode(Mode::INPUT), pull(Pull::NOPULL), speed(Speed::LOW)
  70:../../DaisyExamples/libDaisy//src/per/gpio.h ****         {
  71:../../DaisyExamples/libDaisy//src/per/gpio.h ****         }
  72:../../DaisyExamples/libDaisy//src/per/gpio.h ****     };
  73:../../DaisyExamples/libDaisy//src/per/gpio.h **** 
  74:../../DaisyExamples/libDaisy//src/per/gpio.h ****     GPIO() {}
 810              		.loc 5 74 5 is_stmt 1 view .LVU199
 811              	.LBB349:
 812              	.LBB350:
 813              	.LBI350:
  68:../../DaisyExamples/libDaisy//src/per/gpio.h ****         : pin(), mode(Mode::INPUT), pull(Pull::NOPULL), speed(Speed::LOW)
 814              		.loc 5 68 9 view .LVU200
 815              	.LBB351:
 816              	.LBB352:
 817              	.LBB353:
 818              	.LBI353:
 819              		.loc 4 272 15 view .LVU201
 820              		.loc 4 272 15 is_stmt 0 view .LVU202
 821              	.LBE353:
 822              	.LBE352:
 823              	.LBE351:
 824              	.LBE350:
 825              	.LBE349:
ARM GAS  C:\Users\samue\AppData\Local\Temp\cci865ja.s 			page 29


 826              	.LBE348:
 827              	.LBE346:
 124:daisy_common.cpp ****     struct jack_gpio gpio;
 828              		.loc 1 124 1 view .LVU203
 829 0006 1D46     		mov	r5, r3
 830              	.LBB369:
 831              	.LBB366:
 832              	.LBB363:
 833              	.LBB360:
 834              	.LBB357:
 835              	.LBB354:
  69:../../DaisyExamples/libDaisy//src/per/gpio.h ****         {
 836              		.loc 5 69 73 view .LVU204
 837 0008 4FF00004 		mov	r4, #0
 838              	.LBE354:
 839              	.LBE357:
 840              	.LBE360:
 841              	.LBE363:
 842              	.LBE366:
 843              	.LBE369:
 127:daisy_common.cpp ****     gpio.direction = direction;
 844              		.loc 1 127 20 view .LVU205
 845 000c 0991     		str	r1, [sp, #36]
 130:daisy_common.cpp ****     if(direction == output)
 846              		.loc 1 130 29 view .LVU206
 847 000e 0146     		mov	r1, r0
 848              	.LVL48:
 849              	.LBB370:
 850              	.LBB343:
 851              		.loc 1 171 31 view .LVU207
 852 0010 8CBF     		ite	hi
 853 0012 FF20     		movhi	r0, #255
 854              	.LVL49:
 855              		.loc 1 171 31 view .LVU208
 856 0014 0420     		movls	r0, #4
 857              	.LBE343:
 858              	.LBE370:
 859              	.LBB371:
 860              	.LBB367:
 861              	.LBB364:
 862              	.LBB361:
 863              	.LBB358:
 864              	.LBB355:
  69:../../DaisyExamples/libDaisy//src/per/gpio.h ****         {
 865              		.loc 5 69 73 view .LVU209
 866 0016 1094     		str	r4, [sp, #64]
 867              	.LBE355:
 868              	.LBE358:
 869              	.LBE361:
 870              	.LBE364:
 871              	.LBE367:
 872              	.LBE371:
 129:daisy_common.cpp ****     gpio.gpio = getGPIO(jack);
 873              		.loc 1 129 31 view .LVU210
 874 0018 8DF83100 		strb	r0, [sp, #49]
 130:daisy_common.cpp ****     if(direction == output)
 875              		.loc 1 130 29 view .LVU211
ARM GAS  C:\Users\samue\AppData\Local\Temp\cci865ja.s 			page 30


 876 001c 02A8     		add	r0, sp, #8
 128:daisy_common.cpp ****     gpio.pin = getGPIOPin(jack);
 877              		.loc 1 128 20 view .LVU212
 878 001e CDE90A23 		strd	r2, r3, [sp, #40]
 879              	.LBB372:
 880              	.LBB344:
 881              		.loc 1 171 31 view .LVU213
 882 0022 8CBF     		ite	hi
 883 0024 0B23     		movhi	r3, #11
 884              	.LVL50:
 885              		.loc 1 171 31 view .LVU214
 886 0026 0023     		movls	r3, #0
 887              	.LVL51:
 888              		.loc 1 171 31 view .LVU215
 889              	.LBE344:
 890              	.LBE372:
 126:daisy_common.cpp ****     gpio.user_name = user_name;
 891              		.loc 1 126 5 is_stmt 1 view .LVU216
 127:daisy_common.cpp ****     gpio.direction = direction;
 892              		.loc 1 127 5 view .LVU217
 128:daisy_common.cpp ****     gpio.pin = getGPIOPin(jack);
 893              		.loc 1 128 5 view .LVU218
 129:daisy_common.cpp ****     gpio.gpio = getGPIO(jack);
 894              		.loc 1 129 5 view .LVU219
 895              	.LBB373:
 896              	.LBI341:
 159:daisy_common.cpp **** {
 897              		.loc 1 159 5 view .LVU220
 898              	.LBB345:
 161:daisy_common.cpp ****     switch(jack)
 899              		.loc 1 161 5 view .LVU221
 162:daisy_common.cpp ****     {
 900              		.loc 1 162 5 view .LVU222
 172:daisy_common.cpp ****         default: break;
 901              		.loc 1 172 9 view .LVU223
 902              		.loc 1 172 18 view .LVU224
 173:daisy_common.cpp ****     }
 174:daisy_common.cpp ****     return pin;
 903              		.loc 1 174 5 view .LVU225
 904              		.loc 1 174 5 is_stmt 0 view .LVU226
 905              	.LBE345:
 906              	.LBE373:
 130:daisy_common.cpp ****     if(direction == output)
 907              		.loc 1 130 5 is_stmt 1 view .LVU227
 129:daisy_common.cpp ****     gpio.gpio = getGPIO(jack);
 908              		.loc 1 129 31 is_stmt 0 view .LVU228
 909 0028 8DF83030 		strb	r3, [sp, #48]
 910              	.LBB374:
 911              	.LBB368:
 912              	.LBB365:
 913              		.loc 5 74 12 view .LVU229
 914 002c 4FF60B73 		movw	r3, #65291
 915              	.LBB362:
 916              	.LBB359:
 917              	.LBB356:
  69:../../DaisyExamples/libDaisy//src/per/gpio.h ****         {
 918              		.loc 5 69 73 view .LVU230
ARM GAS  C:\Users\samue\AppData\Local\Temp\cci865ja.s 			page 31


 919 0030 CDE90E44 		strd	r4, r4, [sp, #56]
 920              	.LBE356:
 921              	.LBE359:
 922              	.LBE362:
 923              		.loc 5 74 12 view .LVU231
 924 0034 0D93     		str	r3, [sp, #52]
 925              	.LBE365:
 926              	.LBE368:
 927              	.LBE374:
 130:daisy_common.cpp ****     if(direction == output)
 928              		.loc 1 130 29 view .LVU232
 929 0036 FFF7FEFF 		bl	_ZN5daisy11daisyCommon7getGPIOEi
 930              	.LVL52:
 130:daisy_common.cpp ****     if(direction == output)
 931              		.loc 1 130 29 view .LVU233
 932 003a 0DF1080C 		add	ip, sp, #8
 933 003e 0DF1340E 		add	lr, sp, #52
 131:daisy_common.cpp ****     {
 934              		.loc 1 131 5 view .LVU234
 935 0042 012D     		cmp	r5, #1
 130:daisy_common.cpp ****     if(direction == output)
 936              		.loc 1 130 29 view .LVU235
 937 0044 BCE80F00 		ldmia	ip!, {r0, r1, r2, r3}
 938 0048 AEE80F00 		stmia	lr!, {r0, r1, r2, r3}
 939 004c DCF80030 		ldr	r3, [ip]
 133:daisy_common.cpp ****     }
 940              		.loc 1 133 23 view .LVU236
 941 0050 0CBF     		ite	eq
 942 0052 2A46     		moveq	r2, r5
 137:daisy_common.cpp ****     }
 943              		.loc 1 137 23 view .LVU237
 944 0054 2246     		movne	r2, r4
 945 0056 0C99     		ldr	r1, [sp, #48]
 130:daisy_common.cpp ****     if(direction == output)
 946              		.loc 1 130 29 view .LVU238
 947 0058 CEF80030 		str	r3, [lr]
 131:daisy_common.cpp ****     {
 948              		.loc 1 131 5 is_stmt 1 view .LVU239
 133:daisy_common.cpp ****     }
 949              		.loc 1 133 9 view .LVU240
 137:daisy_common.cpp ****     }
 950              		.loc 1 137 9 view .LVU241
 137:daisy_common.cpp ****     }
 951              		.loc 1 137 23 is_stmt 0 view .LVU242
 952 005c 0DA8     		add	r0, sp, #52
 133:daisy_common.cpp ****     }
 953              		.loc 1 133 23 view .LVU243
 954 005e 2346     		mov	r3, r4
 137:daisy_common.cpp ****     }
 955              		.loc 1 137 23 view .LVU244
 956 0060 0094     		str	r4, [sp]
 957 0062 FFF7FEFF 		bl	_ZN5daisy4GPIO4InitENS_3PinENS0_4ModeENS0_4PullENS0_5SpeedE
 958              	.LVL53:
 140:daisy_common.cpp **** 
 959              		.loc 1 140 1 view .LVU245
 960 0066 13B0     		add	sp, sp, #76
 961              		.cfi_def_cfa_offset 12
ARM GAS  C:\Users\samue\AppData\Local\Temp\cci865ja.s 			page 32


 962              		@ sp needed
 963 0068 30BD     		pop	{r4, r5, pc}
 140:daisy_common.cpp **** 
 964              		.loc 1 140 1 view .LVU246
 965              		.cfi_endproc
 966              	.LFE3069:
 968 006a 00BF     		.section	.text._ZN5daisy11daisyCommon10getGPIOPinEi,"ax",%progbits
 969              		.align	1
 970              		.p2align 2,,3
 971              		.global	_ZN5daisy11daisyCommon10getGPIOPinEi
 972              		.syntax unified
 973              		.thumb
 974              		.thumb_func
 975              		.fpu fpv5-d16
 977              	_ZN5daisy11daisyCommon10getGPIOPinEi:
 978              	.LFB3229:
 979              		.cfi_startproc
 980              		@ args = 0, pretend = 0, frame = 8
 981              		@ frame_needed = 0, uses_anonymous_args = 0
 982              		@ link register save eliminated.
 983 0000 0829     		cmp	r1, #8
 984 0002 4FF00000 		mov	r0, #0
 985 0006 82B0     		sub	sp, sp, #8
 986              		.cfi_def_cfa_offset 8
 987 0008 2DBF     		iteet	cs
 988 000a 0B22     		movcs	r2, #11
 989 000c 0246     		movcc	r2, r0
 990 000e 0423     		movcc	r3, #4
 991 0010 FF23     		movcs	r3, #255
 992 0012 62F30700 		bfi	r0, r2, #0, #8
 993 0016 63F30F20 		bfi	r0, r3, #8, #8
 994 001a 02B0     		add	sp, sp, #8
 995              		.cfi_def_cfa_offset 0
 996              		@ sp needed
 997 001c 7047     		bx	lr
 998              		.cfi_endproc
 999              	.LFE3229:
 1001 001e 00BF     		.section	.text._ZN5daisy11daisyCommon12InitGPIO_MUXEv,"ax",%progbits
 1002              		.align	1
 1003              		.p2align 2,,3
 1004              		.global	_ZN5daisy11daisyCommon12InitGPIO_MUXEv
 1005              		.syntax unified
 1006              		.thumb
 1007              		.thumb_func
 1008              		.fpu fpv5-d16
 1010              	_ZN5daisy11daisyCommon12InitGPIO_MUXEv:
 1011              	.LVL54:
 1012              	.LFB3075:
 175:daisy_common.cpp **** }
 176:daisy_common.cpp **** 
 177:daisy_common.cpp **** 
 178:daisy_common.cpp **** 
 179:daisy_common.cpp **** void daisyCommon::InitGPIO_MUX()
 180:daisy_common.cpp **** {
 1013              		.loc 1 180 1 is_stmt 1 view -0
 1014              		.cfi_startproc
 1015              		@ args = 0, pretend = 0, frame = 8
ARM GAS  C:\Users\samue\AppData\Local\Temp\cci865ja.s 			page 33


 1016              		@ frame_needed = 0, uses_anonymous_args = 0
 181:daisy_common.cpp ****     OUT_1_AUDIO_EN.Init(D3, GPIO::Mode::OUTPUT);
 1017              		.loc 1 181 5 view .LVU248
 180:daisy_common.cpp ****     OUT_1_AUDIO_EN.Init(D3, GPIO::Mode::OUTPUT);
 1018              		.loc 1 180 1 is_stmt 0 view .LVU249
 1019 0000 2DE9F04F 		push	{r4, r5, r6, r7, r8, r9, r10, fp, lr}
 1020              		.cfi_def_cfa_offset 36
 1021              		.cfi_offset 4, -36
 1022              		.cfi_offset 5, -32
 1023              		.cfi_offset 6, -28
 1024              		.cfi_offset 7, -24
 1025              		.cfi_offset 8, -20
 1026              		.cfi_offset 9, -16
 1027              		.cfi_offset 10, -12
 1028              		.cfi_offset 11, -8
 1029              		.cfi_offset 14, -4
 1030              		.loc 1 181 24 view .LVU250
 1031 0004 5F49     		ldr	r1, .L112
 1032 0006 0025     		movs	r5, #0
 180:daisy_common.cpp ****     OUT_1_AUDIO_EN.Init(D3, GPIO::Mode::OUTPUT);
 1033              		.loc 1 180 1 view .LVU251
 1034 0008 0446     		mov	r4, r0
 1035              		.loc 1 181 24 view .LVU252
 1036 000a 00F14408 		add	r8, r0, #68
 182:daisy_common.cpp **** 	OUT_2_AUDIO_EN.Init(D5, GPIO::Mode::OUTPUT);
 1037              		.loc 1 182 21 view .LVU253
 1038 000e 00F15806 		add	r6, r0, #88
 183:daisy_common.cpp **** 	OUT_1_DAC_EN.Init(D2, GPIO::Mode::OUTPUT);
 1039              		.loc 1 183 19 view .LVU254
 1040 0012 00F16C07 		add	r7, r0, #108
 184:daisy_common.cpp **** 	OUT_2_DAC_EN.Init(D4, GPIO::Mode::OUTPUT);
 1041              		.loc 1 184 19 view .LVU255
 1042 0016 8030     		adds	r0, r0, #128
 1043              	.LVL55:
 181:daisy_common.cpp **** 	OUT_2_AUDIO_EN.Init(D5, GPIO::Mode::OUTPUT);
 1044              		.loc 1 181 24 view .LVU256
 1045 0018 0122     		movs	r2, #1
 1046 001a 2B46     		mov	r3, r5
 1047 001c 0968     		ldr	r1, [r1]
 185:daisy_common.cpp ****     
 186:daisy_common.cpp ****     GATE_1_EN.Init(D27, GPIO::Mode::OUTPUT);
 1048              		.loc 1 186 19 view .LVU257
 1049 001e 04F1940A 		add	r10, r4, #148
 187:daisy_common.cpp **** 	GATE_2_EN.Init(D30, GPIO::Mode::OUTPUT);
 188:daisy_common.cpp **** 	IN_4_EN.Init(D26, GPIO::Mode::OUTPUT);
 1050              		.loc 1 188 14 view .LVU258
 1051 0022 04F1BC0B 		add	fp, r4, #188
 189:daisy_common.cpp **** 	IN_8_EN.Init(D29, GPIO::Mode::OUTPUT);
 1052              		.loc 1 189 14 view .LVU259
 1053 0026 04F1D009 		add	r9, r4, #208
 180:daisy_common.cpp ****     OUT_1_AUDIO_EN.Init(D3, GPIO::Mode::OUTPUT);
 1054              		.loc 1 180 1 view .LVU260
 1055 002a 2DED028B 		vpush.64	{d8}
 1056              		.cfi_def_cfa_offset 44
 1057              		.cfi_offset 80, -44
 1058              		.cfi_offset 81, -40
 1059 002e 85B0     		sub	sp, sp, #20
ARM GAS  C:\Users\samue\AppData\Local\Temp\cci865ja.s 			page 34


 1060              		.cfi_def_cfa_offset 64
 184:daisy_common.cpp ****     
 1061              		.loc 1 184 19 view .LVU261
 1062 0030 0290     		str	r0, [sp, #8]
 181:daisy_common.cpp **** 	OUT_2_AUDIO_EN.Init(D5, GPIO::Mode::OUTPUT);
 1063              		.loc 1 181 24 view .LVU262
 1064 0032 4046     		mov	r0, r8
 1065 0034 0095     		str	r5, [sp]
 1066 0036 FFF7FEFF 		bl	_ZN5daisy4GPIO4InitENS_3PinENS0_4ModeENS0_4PullENS0_5SpeedE
 1067              	.LVL56:
 182:daisy_common.cpp **** 	OUT_1_DAC_EN.Init(D2, GPIO::Mode::OUTPUT);
 1068              		.loc 1 182 2 is_stmt 1 view .LVU263
 182:daisy_common.cpp **** 	OUT_1_DAC_EN.Init(D2, GPIO::Mode::OUTPUT);
 1069              		.loc 1 182 21 is_stmt 0 view .LVU264
 1070 003a 534A     		ldr	r2, .L112+4
 1071 003c 2B46     		mov	r3, r5
 1072 003e 3046     		mov	r0, r6
 1073 0040 1168     		ldr	r1, [r2]
 1074 0042 0122     		movs	r2, #1
 1075 0044 0095     		str	r5, [sp]
 1076 0046 FFF7FEFF 		bl	_ZN5daisy4GPIO4InitENS_3PinENS0_4ModeENS0_4PullENS0_5SpeedE
 1077              	.LVL57:
 183:daisy_common.cpp **** 	OUT_2_DAC_EN.Init(D4, GPIO::Mode::OUTPUT);
 1078              		.loc 1 183 2 is_stmt 1 view .LVU265
 183:daisy_common.cpp **** 	OUT_2_DAC_EN.Init(D4, GPIO::Mode::OUTPUT);
 1079              		.loc 1 183 19 is_stmt 0 view .LVU266
 1080 004a 504A     		ldr	r2, .L112+8
 1081 004c 2B46     		mov	r3, r5
 1082 004e 3846     		mov	r0, r7
 1083 0050 1168     		ldr	r1, [r2]
 1084 0052 0122     		movs	r2, #1
 1085 0054 0095     		str	r5, [sp]
 1086 0056 FFF7FEFF 		bl	_ZN5daisy4GPIO4InitENS_3PinENS0_4ModeENS0_4PullENS0_5SpeedE
 1087              	.LVL58:
 184:daisy_common.cpp ****     
 1088              		.loc 1 184 2 is_stmt 1 view .LVU267
 184:daisy_common.cpp ****     
 1089              		.loc 1 184 19 is_stmt 0 view .LVU268
 1090 005a 4D4A     		ldr	r2, .L112+12
 1091 005c 2B46     		mov	r3, r5
 1092 005e 0298     		ldr	r0, [sp, #8]
 1093 0060 1168     		ldr	r1, [r2]
 1094 0062 0122     		movs	r2, #1
 1095 0064 0095     		str	r5, [sp]
 1096 0066 FFF7FEFF 		bl	_ZN5daisy4GPIO4InitENS_3PinENS0_4ModeENS0_4PullENS0_5SpeedE
 1097              	.LVL59:
 186:daisy_common.cpp **** 	GATE_2_EN.Init(D30, GPIO::Mode::OUTPUT);
 1098              		.loc 1 186 5 is_stmt 1 view .LVU269
 186:daisy_common.cpp **** 	GATE_2_EN.Init(D30, GPIO::Mode::OUTPUT);
 1099              		.loc 1 186 19 is_stmt 0 view .LVU270
 1100 006a 4A4A     		ldr	r2, .L112+16
 1101 006c 2B46     		mov	r3, r5
 1102 006e 5046     		mov	r0, r10
 1103 0070 1168     		ldr	r1, [r2]
 1104 0072 0122     		movs	r2, #1
 1105 0074 0095     		str	r5, [sp]
 1106 0076 FFF7FEFF 		bl	_ZN5daisy4GPIO4InitENS_3PinENS0_4ModeENS0_4PullENS0_5SpeedE
ARM GAS  C:\Users\samue\AppData\Local\Temp\cci865ja.s 			page 35


 1107              	.LVL60:
 187:daisy_common.cpp **** 	IN_4_EN.Init(D26, GPIO::Mode::OUTPUT);
 1108              		.loc 1 187 2 is_stmt 1 view .LVU271
 187:daisy_common.cpp **** 	IN_4_EN.Init(D26, GPIO::Mode::OUTPUT);
 1109              		.loc 1 187 16 is_stmt 0 view .LVU272
 1110 007a 04F1A803 		add	r3, r4, #168
 1111 007e 464A     		ldr	r2, .L112+20
 1112 0080 1846     		mov	r0, r3
 1113 0082 08EE103A 		vmov	s16, r3	@ int
 1114 0086 1168     		ldr	r1, [r2]
 1115 0088 2B46     		mov	r3, r5
 1116 008a 0122     		movs	r2, #1
 1117 008c 0095     		str	r5, [sp]
 1118 008e FFF7FEFF 		bl	_ZN5daisy4GPIO4InitENS_3PinENS0_4ModeENS0_4PullENS0_5SpeedE
 1119              	.LVL61:
 188:daisy_common.cpp **** 	IN_8_EN.Init(D29, GPIO::Mode::OUTPUT);
 1120              		.loc 1 188 2 is_stmt 1 view .LVU273
 188:daisy_common.cpp **** 	IN_8_EN.Init(D29, GPIO::Mode::OUTPUT);
 1121              		.loc 1 188 14 is_stmt 0 view .LVU274
 1122 0092 424A     		ldr	r2, .L112+24
 1123 0094 2B46     		mov	r3, r5
 1124 0096 5846     		mov	r0, fp
 1125 0098 1168     		ldr	r1, [r2]
 1126 009a 0122     		movs	r2, #1
 1127 009c 0095     		str	r5, [sp]
 1128 009e FFF7FEFF 		bl	_ZN5daisy4GPIO4InitENS_3PinENS0_4ModeENS0_4PullENS0_5SpeedE
 1129              	.LVL62:
 1130              		.loc 1 189 2 is_stmt 1 view .LVU275
 1131              		.loc 1 189 14 is_stmt 0 view .LVU276
 1132 00a2 3F4A     		ldr	r2, .L112+28
 1133 00a4 2B46     		mov	r3, r5
 1134 00a6 4846     		mov	r0, r9
 1135 00a8 1168     		ldr	r1, [r2]
 1136 00aa 0122     		movs	r2, #1
 1137 00ac 0095     		str	r5, [sp]
 1138 00ae FFF7FEFF 		bl	_ZN5daisy4GPIO4InitENS_3PinENS0_4ModeENS0_4PullENS0_5SpeedE
 1139              	.LVL63:
 190:daisy_common.cpp **** 
 191:daisy_common.cpp ****     if(jack_config.out_1 == audio_enable)
 1140              		.loc 1 191 5 is_stmt 1 view .LVU277
 1141              		.loc 1 191 20 is_stmt 0 view .LVU278
 1142 00b2 A269     		ldr	r2, [r4, #24]
 1143              		.loc 1 191 5 view .LVU279
 1144 00b4 B2B1     		cbz	r2, .L104
 192:daisy_common.cpp ****     {
 193:daisy_common.cpp ****         OUT_1_AUDIO_EN.Write(true);
 194:daisy_common.cpp ****         OUT_1_DAC_EN.Write(false);
 195:daisy_common.cpp ****     } 
 196:daisy_common.cpp ****     else if(jack_config.out_1 == dac_enable)
 1145              		.loc 1 196 10 is_stmt 1 view .LVU280
 1146 00b6 012A     		cmp	r2, #1
 1147 00b8 56D0     		beq	.L105
 197:daisy_common.cpp ****     {
 198:daisy_common.cpp ****         OUT_1_AUDIO_EN.Write(false);
 199:daisy_common.cpp ****         OUT_1_DAC_EN.Write(true);
 200:daisy_common.cpp ****     }
 201:daisy_common.cpp **** 
ARM GAS  C:\Users\samue\AppData\Local\Temp\cci865ja.s 			page 36


 202:daisy_common.cpp ****     if(jack_config.out_2 == audio_enable)
 1148              		.loc 1 202 5 view .LVU281
 1149              		.loc 1 202 20 is_stmt 0 view .LVU282
 1150 00ba E769     		ldr	r7, [r4, #28]
 1151              		.loc 1 202 5 view .LVU283
 1152 00bc FFB1     		cbz	r7, .L106
 1153              	.L95:
 203:daisy_common.cpp ****     {
 204:daisy_common.cpp ****         OUT_2_AUDIO_EN.Write(true);
 205:daisy_common.cpp ****         OUT_2_DAC_EN.Write(false);
 206:daisy_common.cpp ****     } 
 207:daisy_common.cpp ****     else if(jack_config.out_2 == dac_enable)
 1154              		.loc 1 207 10 is_stmt 1 view .LVU284
 1155 00be 012F     		cmp	r7, #1
 1156 00c0 56D0     		beq	.L107
 1157              	.L96:
 208:daisy_common.cpp ****     {
 209:daisy_common.cpp ****         OUT_2_AUDIO_EN.Write(false);
 210:daisy_common.cpp ****         OUT_2_DAC_EN.Write(true);
 211:daisy_common.cpp ****     }
 212:daisy_common.cpp **** 
 213:daisy_common.cpp ****     if((jack_config.gate_1_in_4 == adc_enable) || (jack_config.gate_1_in_4 == gpio_enable))
 1158              		.loc 1 213 5 view .LVU285
 1159              		.loc 1 213 21 is_stmt 0 view .LVU286
 1160 00c2 236A     		ldr	r3, [r4, #32]
 1161              		.loc 1 213 48 view .LVU287
 1162 00c4 DA1E     		subs	r2, r3, #3
 1163              		.loc 1 213 5 view .LVU288
 1164 00c6 012A     		cmp	r2, #1
 1165 00c8 25D9     		bls	.L108
 1166              	.L97:
 214:daisy_common.cpp ****     {
 215:daisy_common.cpp ****         IN_4_EN.Write(true);
 216:daisy_common.cpp ****         GATE_1_EN.Write(false);
 217:daisy_common.cpp ****     }
 218:daisy_common.cpp ****     else if(jack_config.gate_1_in_4 == gate_enable)
 1167              		.loc 1 218 10 is_stmt 1 view .LVU289
 1168 00ca 022B     		cmp	r3, #2
 1169 00cc 3DD0     		beq	.L109
 1170              	.L98:
 219:daisy_common.cpp ****     {
 220:daisy_common.cpp ****         IN_4_EN.Write(false);
 221:daisy_common.cpp ****         GATE_1_EN.Write(true);       
 222:daisy_common.cpp ****     }
 223:daisy_common.cpp **** 
 224:daisy_common.cpp ****     if((jack_config.gate_2_in_8 == adc_enable) || (jack_config.gate_2_in_8 == gpio_enable))
 1171              		.loc 1 224 5 view .LVU290
 1172              		.loc 1 224 21 is_stmt 0 view .LVU291
 1173 00ce 636A     		ldr	r3, [r4, #36]
 1174              		.loc 1 224 48 view .LVU292
 1175 00d0 DA1E     		subs	r2, r3, #3
 1176              		.loc 1 224 5 view .LVU293
 1177 00d2 012A     		cmp	r2, #1
 1178 00d4 2BD9     		bls	.L110
 1179              	.L99:
 225:daisy_common.cpp ****     {
 226:daisy_common.cpp ****         IN_8_EN.Write(true);
ARM GAS  C:\Users\samue\AppData\Local\Temp\cci865ja.s 			page 37


 227:daisy_common.cpp ****         GATE_2_EN.Write(false);
 228:daisy_common.cpp ****     }
 229:daisy_common.cpp ****     else if(jack_config.gate_2_in_8 == gate_enable)
 1180              		.loc 1 229 10 is_stmt 1 view .LVU294
 1181 00d6 022B     		cmp	r3, #2
 1182 00d8 40D0     		beq	.L111
 230:daisy_common.cpp ****     {
 231:daisy_common.cpp ****         IN_8_EN.Write(false);
 232:daisy_common.cpp ****         GATE_2_EN.Write(true);       
 233:daisy_common.cpp ****     }
 234:daisy_common.cpp **** }
 1183              		.loc 1 234 1 is_stmt 0 view .LVU295
 1184 00da 05B0     		add	sp, sp, #20
 1185              		.cfi_remember_state
 1186              		.cfi_def_cfa_offset 44
 1187              		@ sp needed
 1188 00dc BDEC028B 		vldm	sp!, {d8}
 1189              		.cfi_restore 80
 1190              		.cfi_restore 81
 1191              		.cfi_def_cfa_offset 36
 1192 00e0 BDE8F08F 		pop	{r4, r5, r6, r7, r8, r9, r10, fp, pc}
 1193              	.LVL64:
 1194              	.L104:
 1195              		.cfi_restore_state
 193:daisy_common.cpp ****         OUT_1_DAC_EN.Write(false);
 1196              		.loc 1 193 29 view .LVU296
 1197 00e4 4046     		mov	r0, r8
 1198 00e6 0121     		movs	r1, #1
 1199 00e8 0392     		str	r2, [sp, #12]
 193:daisy_common.cpp ****         OUT_1_DAC_EN.Write(false);
 1200              		.loc 1 193 9 is_stmt 1 view .LVU297
 1201              	.L102:
 198:daisy_common.cpp ****         OUT_1_DAC_EN.Write(true);
 1202              		.loc 1 198 29 is_stmt 0 view .LVU298
 1203 00ea FFF7FEFF 		bl	_ZN5daisy4GPIO5WriteEb
 1204              	.LVL65:
 199:daisy_common.cpp ****     }
 1205              		.loc 1 199 9 is_stmt 1 view .LVU299
 199:daisy_common.cpp ****     }
 1206              		.loc 1 199 27 is_stmt 0 view .LVU300
 1207 00ee 039A     		ldr	r2, [sp, #12]
 1208 00f0 3846     		mov	r0, r7
 1209 00f2 1146     		mov	r1, r2
 1210 00f4 FFF7FEFF 		bl	_ZN5daisy4GPIO5WriteEb
 1211              	.LVL66:
 202:daisy_common.cpp ****     {
 1212              		.loc 1 202 5 is_stmt 1 view .LVU301
 202:daisy_common.cpp ****     {
 1213              		.loc 1 202 20 is_stmt 0 view .LVU302
 1214 00f8 E769     		ldr	r7, [r4, #28]
 202:daisy_common.cpp ****     {
 1215              		.loc 1 202 5 view .LVU303
 1216 00fa 002F     		cmp	r7, #0
 1217 00fc DFD1     		bne	.L95
 1218              	.L106:
 204:daisy_common.cpp ****         OUT_2_DAC_EN.Write(false);
 1219              		.loc 1 204 9 is_stmt 1 view .LVU304
ARM GAS  C:\Users\samue\AppData\Local\Temp\cci865ja.s 			page 38


 204:daisy_common.cpp ****         OUT_2_DAC_EN.Write(false);
 1220              		.loc 1 204 29 is_stmt 0 view .LVU305
 1221 00fe 3046     		mov	r0, r6
 1222 0100 0121     		movs	r1, #1
 1223 0102 FFF7FEFF 		bl	_ZN5daisy4GPIO5WriteEb
 1224              	.LVL67:
 205:daisy_common.cpp ****     } 
 1225              		.loc 1 205 9 is_stmt 1 view .LVU306
 205:daisy_common.cpp ****     } 
 1226              		.loc 1 205 27 is_stmt 0 view .LVU307
 1227 0106 3946     		mov	r1, r7
 1228 0108 0298     		ldr	r0, [sp, #8]
 1229 010a FFF7FEFF 		bl	_ZN5daisy4GPIO5WriteEb
 1230              	.LVL68:
 213:daisy_common.cpp ****     {
 1231              		.loc 1 213 5 is_stmt 1 view .LVU308
 213:daisy_common.cpp ****     {
 1232              		.loc 1 213 21 is_stmt 0 view .LVU309
 1233 010e 236A     		ldr	r3, [r4, #32]
 213:daisy_common.cpp ****     {
 1234              		.loc 1 213 48 view .LVU310
 1235 0110 DA1E     		subs	r2, r3, #3
 213:daisy_common.cpp ****     {
 1236              		.loc 1 213 5 view .LVU311
 1237 0112 012A     		cmp	r2, #1
 1238 0114 D9D8     		bhi	.L97
 1239              	.L108:
 215:daisy_common.cpp ****         GATE_1_EN.Write(false);
 1240              		.loc 1 215 9 is_stmt 1 view .LVU312
 215:daisy_common.cpp ****         GATE_1_EN.Write(false);
 1241              		.loc 1 215 22 is_stmt 0 view .LVU313
 1242 0116 5846     		mov	r0, fp
 1243 0118 0121     		movs	r1, #1
 1244 011a FFF7FEFF 		bl	_ZN5daisy4GPIO5WriteEb
 1245              	.LVL69:
 216:daisy_common.cpp ****     }
 1246              		.loc 1 216 9 is_stmt 1 view .LVU314
 216:daisy_common.cpp ****     }
 1247              		.loc 1 216 24 is_stmt 0 view .LVU315
 1248 011e 0021     		movs	r1, #0
 1249 0120 5046     		mov	r0, r10
 1250 0122 FFF7FEFF 		bl	_ZN5daisy4GPIO5WriteEb
 1251              	.LVL70:
 224:daisy_common.cpp ****     {
 1252              		.loc 1 224 5 is_stmt 1 view .LVU316
 224:daisy_common.cpp ****     {
 1253              		.loc 1 224 21 is_stmt 0 view .LVU317
 1254 0126 636A     		ldr	r3, [r4, #36]
 224:daisy_common.cpp ****     {
 1255              		.loc 1 224 48 view .LVU318
 1256 0128 DA1E     		subs	r2, r3, #3
 224:daisy_common.cpp ****     {
 1257              		.loc 1 224 5 view .LVU319
 1258 012a 012A     		cmp	r2, #1
 1259 012c D3D8     		bhi	.L99
 1260              	.L110:
 226:daisy_common.cpp ****         GATE_2_EN.Write(false);
ARM GAS  C:\Users\samue\AppData\Local\Temp\cci865ja.s 			page 39


 1261              		.loc 1 226 9 is_stmt 1 view .LVU320
 226:daisy_common.cpp ****         GATE_2_EN.Write(false);
 1262              		.loc 1 226 22 is_stmt 0 view .LVU321
 1263 012e 0121     		movs	r1, #1
 1264 0130 4846     		mov	r0, r9
 1265 0132 FFF7FEFF 		bl	_ZN5daisy4GPIO5WriteEb
 1266              	.LVL71:
 227:daisy_common.cpp ****     }
 1267              		.loc 1 227 9 is_stmt 1 view .LVU322
 227:daisy_common.cpp ****     }
 1268              		.loc 1 227 24 is_stmt 0 view .LVU323
 1269 0136 0021     		movs	r1, #0
 1270              	.L103:
 232:daisy_common.cpp ****     }
 1271              		.loc 1 232 24 view .LVU324
 1272 0138 18EE100A 		vmov	r0, s16	@ int
 1273              		.loc 1 234 1 view .LVU325
 1274 013c 05B0     		add	sp, sp, #20
 1275              		.cfi_remember_state
 1276              		.cfi_def_cfa_offset 44
 1277              		@ sp needed
 1278 013e BDEC028B 		vldm	sp!, {d8}
 1279              		.cfi_restore 80
 1280              		.cfi_restore 81
 1281              		.cfi_def_cfa_offset 36
 1282 0142 BDE8F04F 		pop	{r4, r5, r6, r7, r8, r9, r10, fp, lr}
 1283              		.cfi_restore 14
 1284              		.cfi_restore 11
 1285              		.cfi_restore 10
 1286              		.cfi_restore 9
 1287              		.cfi_restore 8
 1288              		.cfi_restore 7
 1289              		.cfi_restore 6
 1290              		.cfi_restore 5
 1291              		.cfi_restore 4
 1292              		.cfi_def_cfa_offset 0
 1293              	.LVL72:
 232:daisy_common.cpp ****     }
 1294              		.loc 1 232 24 view .LVU326
 1295 0146 FFF7FEBF 		b	_ZN5daisy4GPIO5WriteEb
 1296              	.LVL73:
 1297              	.L109:
 1298              		.cfi_restore_state
 220:daisy_common.cpp ****         GATE_1_EN.Write(true);       
 1299              		.loc 1 220 9 is_stmt 1 view .LVU327
 220:daisy_common.cpp ****         GATE_1_EN.Write(true);       
 1300              		.loc 1 220 22 is_stmt 0 view .LVU328
 1301 014a 5846     		mov	r0, fp
 1302 014c 0021     		movs	r1, #0
 1303 014e FFF7FEFF 		bl	_ZN5daisy4GPIO5WriteEb
 1304              	.LVL74:
 221:daisy_common.cpp ****     }
 1305              		.loc 1 221 9 is_stmt 1 view .LVU329
 221:daisy_common.cpp ****     }
 1306              		.loc 1 221 24 is_stmt 0 view .LVU330
 1307 0152 0121     		movs	r1, #1
 1308 0154 5046     		mov	r0, r10
ARM GAS  C:\Users\samue\AppData\Local\Temp\cci865ja.s 			page 40


 1309 0156 FFF7FEFF 		bl	_ZN5daisy4GPIO5WriteEb
 1310              	.LVL75:
 1311 015a B8E7     		b	.L98
 1312              	.L111:
 231:daisy_common.cpp ****         GATE_2_EN.Write(true);       
 1313              		.loc 1 231 9 is_stmt 1 view .LVU331
 231:daisy_common.cpp ****         GATE_2_EN.Write(true);       
 1314              		.loc 1 231 22 is_stmt 0 view .LVU332
 1315 015c 0021     		movs	r1, #0
 1316 015e 4846     		mov	r0, r9
 1317 0160 FFF7FEFF 		bl	_ZN5daisy4GPIO5WriteEb
 1318              	.LVL76:
 232:daisy_common.cpp ****     }
 1319              		.loc 1 232 9 is_stmt 1 view .LVU333
 232:daisy_common.cpp ****     }
 1320              		.loc 1 232 24 is_stmt 0 view .LVU334
 1321 0164 0121     		movs	r1, #1
 1322 0166 E7E7     		b	.L103
 1323              	.L105:
 198:daisy_common.cpp ****         OUT_1_DAC_EN.Write(true);
 1324              		.loc 1 198 29 view .LVU335
 1325 0168 2946     		mov	r1, r5
 1326 016a 4046     		mov	r0, r8
 1327 016c 0392     		str	r2, [sp, #12]
 198:daisy_common.cpp ****         OUT_1_DAC_EN.Write(true);
 1328              		.loc 1 198 9 is_stmt 1 view .LVU336
 1329 016e BCE7     		b	.L102
 1330              	.L107:
 209:daisy_common.cpp ****         OUT_2_DAC_EN.Write(true);
 1331              		.loc 1 209 9 view .LVU337
 209:daisy_common.cpp ****         OUT_2_DAC_EN.Write(true);
 1332              		.loc 1 209 29 is_stmt 0 view .LVU338
 1333 0170 3046     		mov	r0, r6
 1334 0172 0021     		movs	r1, #0
 1335 0174 FFF7FEFF 		bl	_ZN5daisy4GPIO5WriteEb
 1336              	.LVL77:
 210:daisy_common.cpp ****     }
 1337              		.loc 1 210 9 is_stmt 1 view .LVU339
 210:daisy_common.cpp ****     }
 1338              		.loc 1 210 27 is_stmt 0 view .LVU340
 1339 0178 3946     		mov	r1, r7
 1340 017a 0298     		ldr	r0, [sp, #8]
 1341 017c FFF7FEFF 		bl	_ZN5daisy4GPIO5WriteEb
 1342              	.LVL78:
 1343 0180 9FE7     		b	.L96
 1344              	.L113:
 1345 0182 00BF     		.align	2
 1346              	.L112:
 1347 0184 00000000 		.word	.LANCHOR0
 1348 0188 00000000 		.word	.LANCHOR1
 1349 018c 00000000 		.word	.LANCHOR2
 1350 0190 00000000 		.word	.LANCHOR3
 1351 0194 00000000 		.word	.LANCHOR4
 1352 0198 00000000 		.word	.LANCHOR5
 1353 019c 00000000 		.word	.LANCHOR6
 1354 01a0 00000000 		.word	.LANCHOR7
 1355              		.cfi_endproc
ARM GAS  C:\Users\samue\AppData\Local\Temp\cci865ja.s 			page 41


 1356              	.LFE3075:
 1358              		.section	.text._ZN5daisy11daisyCommon10InitToggleEv,"ax",%progbits
 1359              		.align	1
 1360              		.p2align 2,,3
 1361              		.global	_ZN5daisy11daisyCommon10InitToggleEv
 1362              		.syntax unified
 1363              		.thumb
 1364              		.thumb_func
 1365              		.fpu fpv5-d16
 1367              	_ZN5daisy11daisyCommon10InitToggleEv:
 1368              	.LVL79:
 1369              	.LFB3076:
 235:daisy_common.cpp **** 
 236:daisy_common.cpp **** void daisyCommon::InitToggle()
 237:daisy_common.cpp **** {
 1370              		.loc 1 237 1 is_stmt 1 view -0
 1371              		.cfi_startproc
 1372              		@ args = 0, pretend = 0, frame = 0
 1373              		@ frame_needed = 0, uses_anonymous_args = 0
 238:daisy_common.cpp ****     toggle_left.Init(TOGGLE_LEFT_PIN_1, TOGGLE_LEFT_PIN_2);
 1374              		.loc 1 238 5 view .LVU342
 237:daisy_common.cpp ****     toggle_left.Init(TOGGLE_LEFT_PIN_1, TOGGLE_LEFT_PIN_2);
 1375              		.loc 1 237 1 is_stmt 0 view .LVU343
 1376 0000 F8B5     		push	{r3, r4, r5, r6, r7, lr}
 1377              		.cfi_def_cfa_offset 24
 1378              		.cfi_offset 3, -24
 1379              		.cfi_offset 4, -20
 1380              		.cfi_offset 5, -16
 1381              		.cfi_offset 6, -12
 1382              		.cfi_offset 7, -8
 1383              		.cfi_offset 14, -4
 237:daisy_common.cpp ****     toggle_left.Init(TOGGLE_LEFT_PIN_1, TOGGLE_LEFT_PIN_2);
 1384              		.loc 1 237 1 view .LVU344
 1385 0002 0446     		mov	r4, r0
 1386              	.LVL80:
 1387              	.LBB379:
 1388              	.LBI379:
 1389              		.file 6 "../../DaisyExamples/libDaisy//src/hid/switch3.h"
   1:../../DaisyExamples/libDaisy//src/hid/switch3.h **** #pragma once
   2:../../DaisyExamples/libDaisy//src/hid/switch3.h **** #include "daisy_core.h"
   3:../../DaisyExamples/libDaisy//src/hid/switch3.h **** #include "per/gpio.h"
   4:../../DaisyExamples/libDaisy//src/hid/switch3.h **** 
   5:../../DaisyExamples/libDaisy//src/hid/switch3.h **** namespace daisy
   6:../../DaisyExamples/libDaisy//src/hid/switch3.h **** {
   7:../../DaisyExamples/libDaisy//src/hid/switch3.h **** class Switch3
   8:../../DaisyExamples/libDaisy//src/hid/switch3.h **** {
   9:../../DaisyExamples/libDaisy//src/hid/switch3.h ****   public:
  10:../../DaisyExamples/libDaisy//src/hid/switch3.h ****     enum
  11:../../DaisyExamples/libDaisy//src/hid/switch3.h ****     {
  12:../../DaisyExamples/libDaisy//src/hid/switch3.h ****         POS_CENTER = 0,
  13:../../DaisyExamples/libDaisy//src/hid/switch3.h ****         POS_LEFT   = 1,
  14:../../DaisyExamples/libDaisy//src/hid/switch3.h ****         POS_UP     = 1,
  15:../../DaisyExamples/libDaisy//src/hid/switch3.h ****         POS_RIGHT  = 2,
  16:../../DaisyExamples/libDaisy//src/hid/switch3.h ****         POS_DOWN   = 2,
  17:../../DaisyExamples/libDaisy//src/hid/switch3.h ****     };
  18:../../DaisyExamples/libDaisy//src/hid/switch3.h **** 
  19:../../DaisyExamples/libDaisy//src/hid/switch3.h **** 
ARM GAS  C:\Users\samue\AppData\Local\Temp\cci865ja.s 			page 42


  20:../../DaisyExamples/libDaisy//src/hid/switch3.h ****     Switch3() {}
  21:../../DaisyExamples/libDaisy//src/hid/switch3.h ****     ~Switch3() {}
  22:../../DaisyExamples/libDaisy//src/hid/switch3.h **** 
  23:../../DaisyExamples/libDaisy//src/hid/switch3.h ****     void Init(dsy_gpio_pin pina, dsy_gpio_pin pinb)
 1390              		.loc 6 23 10 is_stmt 1 view .LVU345
 1391              	.LBB380:
  24:../../DaisyExamples/libDaisy//src/hid/switch3.h ****     {
  25:../../DaisyExamples/libDaisy//src/hid/switch3.h ****         pina_gpio_.pin  = pina;
 1392              		.loc 6 25 9 view .LVU346
 1393              		.loc 6 25 25 is_stmt 0 view .LVU347
 1394 0004 0125     		movs	r5, #1
  26:../../DaisyExamples/libDaisy//src/hid/switch3.h ****         pina_gpio_.mode = DSY_GPIO_MODE_INPUT;
 1395              		.loc 6 26 25 view .LVU348
 1396 0006 0026     		movs	r6, #0
  25:../../DaisyExamples/libDaisy//src/hid/switch3.h ****         pina_gpio_.mode = DSY_GPIO_MODE_INPUT;
 1397              		.loc 6 25 25 view .LVU349
 1398 0008 0423     		movs	r3, #4
  27:../../DaisyExamples/libDaisy//src/hid/switch3.h ****         pina_gpio_.pull = DSY_GPIO_PULLUP;
  28:../../DaisyExamples/libDaisy//src/hid/switch3.h ****         dsy_gpio_init(&pina_gpio_);
 1399              		.loc 6 28 22 view .LVU350
 1400 000a 00F5C270 		add	r0, r0, #388
 1401              	.LVL81:
  25:../../DaisyExamples/libDaisy//src/hid/switch3.h ****         pina_gpio_.mode = DSY_GPIO_MODE_INPUT;
 1402              		.loc 6 25 25 view .LVU351
 1403 000e 84F88451 		strb	r5, [r4, #388]
 1404 0012 84F88531 		strb	r3, [r4, #389]
  26:../../DaisyExamples/libDaisy//src/hid/switch3.h ****         pina_gpio_.pull = DSY_GPIO_PULLUP;
 1405              		.loc 6 26 9 is_stmt 1 view .LVU352
  29:../../DaisyExamples/libDaisy//src/hid/switch3.h **** 
  30:../../DaisyExamples/libDaisy//src/hid/switch3.h ****         pinb_gpio_.pin  = pinb;
 1406              		.loc 6 30 25 is_stmt 0 view .LVU353
 1407 0016 0627     		movs	r7, #6
  26:../../DaisyExamples/libDaisy//src/hid/switch3.h ****         pina_gpio_.pull = DSY_GPIO_PULLUP;
 1408              		.loc 6 26 25 view .LVU354
 1409 0018 84F88661 		strb	r6, [r4, #390]
  27:../../DaisyExamples/libDaisy//src/hid/switch3.h ****         dsy_gpio_init(&pina_gpio_);
 1410              		.loc 6 27 9 is_stmt 1 view .LVU355
  27:../../DaisyExamples/libDaisy//src/hid/switch3.h ****         dsy_gpio_init(&pina_gpio_);
 1411              		.loc 6 27 25 is_stmt 0 view .LVU356
 1412 001c 84F88751 		strb	r5, [r4, #391]
  28:../../DaisyExamples/libDaisy//src/hid/switch3.h **** 
 1413              		.loc 6 28 9 is_stmt 1 view .LVU357
  28:../../DaisyExamples/libDaisy//src/hid/switch3.h **** 
 1414              		.loc 6 28 22 is_stmt 0 view .LVU358
 1415 0020 FFF7FEFF 		bl	dsy_gpio_init
 1416              	.LVL82:
 1417              		.loc 6 30 9 is_stmt 1 view .LVU359
 1418              		.loc 6 30 25 is_stmt 0 view .LVU360
 1419 0024 0B23     		movs	r3, #11
  31:../../DaisyExamples/libDaisy//src/hid/switch3.h ****         pinb_gpio_.mode = DSY_GPIO_MODE_INPUT;
  32:../../DaisyExamples/libDaisy//src/hid/switch3.h ****         pinb_gpio_.pull = DSY_GPIO_PULLUP;
  33:../../DaisyExamples/libDaisy//src/hid/switch3.h ****         dsy_gpio_init(&pinb_gpio_);
 1420              		.loc 6 33 22 view .LVU361
 1421 0026 04F5C470 		add	r0, r4, #392
  30:../../DaisyExamples/libDaisy//src/hid/switch3.h ****         pinb_gpio_.mode = DSY_GPIO_MODE_INPUT;
 1422              		.loc 6 30 25 view .LVU362
 1423 002a 84F88871 		strb	r7, [r4, #392]
ARM GAS  C:\Users\samue\AppData\Local\Temp\cci865ja.s 			page 43


 1424 002e 84F88931 		strb	r3, [r4, #393]
  31:../../DaisyExamples/libDaisy//src/hid/switch3.h ****         pinb_gpio_.mode = DSY_GPIO_MODE_INPUT;
 1425              		.loc 6 31 9 is_stmt 1 view .LVU363
  32:../../DaisyExamples/libDaisy//src/hid/switch3.h ****         dsy_gpio_init(&pinb_gpio_);
 1426              		.loc 6 32 9 view .LVU364
  31:../../DaisyExamples/libDaisy//src/hid/switch3.h ****         pinb_gpio_.mode = DSY_GPIO_MODE_INPUT;
 1427              		.loc 6 31 25 is_stmt 0 view .LVU365
 1428 0032 84F88A61 		strb	r6, [r4, #394]
  32:../../DaisyExamples/libDaisy//src/hid/switch3.h ****         dsy_gpio_init(&pinb_gpio_);
 1429              		.loc 6 32 25 view .LVU366
 1430 0036 84F88B51 		strb	r5, [r4, #395]
 1431              		.loc 6 33 9 is_stmt 1 view .LVU367
 1432              		.loc 6 33 22 is_stmt 0 view .LVU368
 1433 003a FFF7FEFF 		bl	dsy_gpio_init
 1434              	.LVL83:
 1435              		.loc 6 33 22 view .LVU369
 1436              	.LBE380:
 1437              	.LBE379:
 239:daisy_common.cpp **** 	toggle_right.Init(TOGGLE_RIGHT_PIN_1, TOGGLE_RIGHT_PIN_2);
 1438              		.loc 1 239 2 is_stmt 1 view .LVU370
 1439              	.LBB381:
 1440              	.LBI381:
  23:../../DaisyExamples/libDaisy//src/hid/switch3.h ****     {
 1441              		.loc 6 23 10 view .LVU371
 1442              	.LBB382:
  25:../../DaisyExamples/libDaisy//src/hid/switch3.h ****         pina_gpio_.mode = DSY_GPIO_MODE_INPUT;
 1443              		.loc 6 25 9 view .LVU372
  25:../../DaisyExamples/libDaisy//src/hid/switch3.h ****         pina_gpio_.mode = DSY_GPIO_MODE_INPUT;
 1444              		.loc 6 25 25 is_stmt 0 view .LVU373
 1445 003e 0723     		movs	r3, #7
  28:../../DaisyExamples/libDaisy//src/hid/switch3.h **** 
 1446              		.loc 6 28 22 view .LVU374
 1447 0040 04F5C670 		add	r0, r4, #396
 1448              	.LVL84:
  25:../../DaisyExamples/libDaisy//src/hid/switch3.h ****         pina_gpio_.mode = DSY_GPIO_MODE_INPUT;
 1449              		.loc 6 25 25 view .LVU375
 1450 0044 84F88C51 		strb	r5, [r4, #396]
  26:../../DaisyExamples/libDaisy//src/hid/switch3.h ****         pina_gpio_.pull = DSY_GPIO_PULLUP;
 1451              		.loc 6 26 25 view .LVU376
 1452 0048 84F88E61 		strb	r6, [r4, #398]
  25:../../DaisyExamples/libDaisy//src/hid/switch3.h ****         pina_gpio_.mode = DSY_GPIO_MODE_INPUT;
 1453              		.loc 6 25 25 view .LVU377
 1454 004c 84F88D31 		strb	r3, [r4, #397]
  26:../../DaisyExamples/libDaisy//src/hid/switch3.h ****         pina_gpio_.pull = DSY_GPIO_PULLUP;
 1455              		.loc 6 26 9 is_stmt 1 view .LVU378
  27:../../DaisyExamples/libDaisy//src/hid/switch3.h ****         dsy_gpio_init(&pina_gpio_);
 1456              		.loc 6 27 9 view .LVU379
  27:../../DaisyExamples/libDaisy//src/hid/switch3.h ****         dsy_gpio_init(&pina_gpio_);
 1457              		.loc 6 27 25 is_stmt 0 view .LVU380
 1458 0050 84F88F51 		strb	r5, [r4, #399]
  28:../../DaisyExamples/libDaisy//src/hid/switch3.h **** 
 1459              		.loc 6 28 9 is_stmt 1 view .LVU381
  28:../../DaisyExamples/libDaisy//src/hid/switch3.h **** 
 1460              		.loc 6 28 22 is_stmt 0 view .LVU382
 1461 0054 FFF7FEFF 		bl	dsy_gpio_init
 1462              	.LVL85:
  30:../../DaisyExamples/libDaisy//src/hid/switch3.h ****         pinb_gpio_.mode = DSY_GPIO_MODE_INPUT;
ARM GAS  C:\Users\samue\AppData\Local\Temp\cci865ja.s 			page 44


 1463              		.loc 6 30 9 is_stmt 1 view .LVU383
 1464              		.loc 6 33 22 is_stmt 0 view .LVU384
 1465 0058 04F5C870 		add	r0, r4, #400
  30:../../DaisyExamples/libDaisy//src/hid/switch3.h ****         pinb_gpio_.mode = DSY_GPIO_MODE_INPUT;
 1466              		.loc 6 30 25 view .LVU385
 1467 005c 84F89051 		strb	r5, [r4, #400]
 1468 0060 84F89171 		strb	r7, [r4, #401]
  31:../../DaisyExamples/libDaisy//src/hid/switch3.h ****         pinb_gpio_.pull = DSY_GPIO_PULLUP;
 1469              		.loc 6 31 9 is_stmt 1 view .LVU386
  31:../../DaisyExamples/libDaisy//src/hid/switch3.h ****         pinb_gpio_.pull = DSY_GPIO_PULLUP;
 1470              		.loc 6 31 25 is_stmt 0 view .LVU387
 1471 0064 84F89261 		strb	r6, [r4, #402]
  32:../../DaisyExamples/libDaisy//src/hid/switch3.h ****         dsy_gpio_init(&pinb_gpio_);
 1472              		.loc 6 32 9 is_stmt 1 view .LVU388
  32:../../DaisyExamples/libDaisy//src/hid/switch3.h ****         dsy_gpio_init(&pinb_gpio_);
 1473              		.loc 6 32 25 is_stmt 0 view .LVU389
 1474 0068 84F89351 		strb	r5, [r4, #403]
 1475              		.loc 6 33 9 is_stmt 1 view .LVU390
 1476              	.LBE382:
 1477              	.LBE381:
 240:daisy_common.cpp **** }
 1478              		.loc 1 240 1 is_stmt 0 view .LVU391
 1479 006c BDE8F840 		pop	{r3, r4, r5, r6, r7, lr}
 1480              		.cfi_restore 14
 1481              		.cfi_restore 7
 1482              		.cfi_restore 6
 1483              		.cfi_restore 5
 1484              		.cfi_restore 4
 1485              		.cfi_restore 3
 1486              		.cfi_def_cfa_offset 0
 1487              	.LVL86:
 1488              	.LBB384:
 1489              	.LBB383:
 1490              		.loc 6 33 22 view .LVU392
 1491 0070 FFF7FEBF 		b	dsy_gpio_init
 1492              	.LVL87:
 1493              		.loc 6 33 22 view .LVU393
 1494              	.LBE383:
 1495              	.LBE384:
 1496              		.cfi_endproc
 1497              	.LFE3076:
 1499              		.section	.text._ZN5daisy11daisyCommon10InitButtonEv,"ax",%progbits
 1500              		.align	1
 1501              		.p2align 2,,3
 1502              		.global	_ZN5daisy11daisyCommon10InitButtonEv
 1503              		.syntax unified
 1504              		.thumb
 1505              		.thumb_func
 1506              		.fpu fpv5-d16
 1508              	_ZN5daisy11daisyCommon10InitButtonEv:
 1509              	.LVL88:
 1510              	.LFB3077:
 241:daisy_common.cpp **** 
 242:daisy_common.cpp **** void daisyCommon::InitButton()
 243:daisy_common.cpp **** {
 1511              		.loc 1 243 1 is_stmt 1 view -0
 1512              		.cfi_startproc
ARM GAS  C:\Users\samue\AppData\Local\Temp\cci865ja.s 			page 45


 1513              		@ args = 0, pretend = 0, frame = 8
 1514              		@ frame_needed = 0, uses_anonymous_args = 0
 1515              		@ link register save eliminated.
 244:daisy_common.cpp ****     button.Init(D10);
 1516              		.loc 1 244 5 view .LVU395
 243:daisy_common.cpp ****     button.Init(D10);
 1517              		.loc 1 243 1 is_stmt 0 view .LVU396
 1518 0000 82B0     		sub	sp, sp, #8
 1519              		.cfi_def_cfa_offset 8
 1520              		.loc 1 244 16 view .LVU397
 1521 0002 0122     		movs	r2, #1
 1522 0004 0523     		movs	r3, #5
 1523 0006 9FED060A 		vldr.32	s0, .L118
 1524 000a 8DF80420 		strb	r2, [sp, #4]
 1525 000e 00F5CA70 		add	r0, r0, #404
 1526              	.LVL89:
 1527              		.loc 1 244 16 view .LVU398
 1528 0012 8DF80530 		strb	r3, [sp, #5]
 1529 0016 0199     		ldr	r1, [sp, #4]
 245:daisy_common.cpp **** }
 1530              		.loc 1 245 1 view .LVU399
 1531 0018 02B0     		add	sp, sp, #8
 1532              		.cfi_def_cfa_offset 0
 1533              		@ sp needed
 244:daisy_common.cpp ****     button.Init(D10);
 1534              		.loc 1 244 16 view .LVU400
 1535 001a FFF7FEBF 		b	_ZN5daisy6Switch4InitE12dsy_gpio_pinf
 1536              	.LVL90:
 1537              	.L119:
 244:daisy_common.cpp ****     button.Init(D10);
 1538              		.loc 1 244 16 view .LVU401
 1539 001e 00BF     		.align	2
 1540              	.L118:
 1541 0020 00000000 		.word	0
 1542              		.cfi_endproc
 1543              	.LFE3077:
 1545              		.section	.text._ZN5daisy11daisyCommon7InitADCEv,"ax",%progbits
 1546              		.align	1
 1547              		.p2align 2,,3
 1548              		.global	_ZN5daisy11daisyCommon7InitADCEv
 1549              		.syntax unified
 1550              		.thumb
 1551              		.thumb_func
 1552              		.fpu fpv5-d16
 1554              	_ZN5daisy11daisyCommon7InitADCEv:
 1555              	.LVL91:
 1556              	.LFB3078:
 246:daisy_common.cpp **** 
 247:daisy_common.cpp **** void daisyCommon::InitADC()
 248:daisy_common.cpp **** {
 1557              		.loc 1 248 1 is_stmt 1 view -0
 1558              		.cfi_startproc
 1559              		@ args = 0, pretend = 0, frame = 48
 1560              		@ frame_needed = 1, uses_anonymous_args = 0
 249:daisy_common.cpp ****     AdcChannelConfig adc_config[cvs.size()+2];
 1561              		.loc 1 249 5 view .LVU403
 1562              	.LBB385:
ARM GAS  C:\Users\samue\AppData\Local\Temp\cci865ja.s 			page 46


 1563              	.LBI385:
 1564              		.file 7 "c:\\program files\\daisytoolchain\\arm-none-eabi\\include\\c++\\10.2.1\\bits\\stl_vector.
   1:c:\program files\daisytoolchain\arm-none-eabi\include\c++\10.2.1\bits\stl_vector.h **** // Vector implementation -*- C++ -*-
   2:c:\program files\daisytoolchain\arm-none-eabi\include\c++\10.2.1\bits\stl_vector.h **** 
   3:c:\program files\daisytoolchain\arm-none-eabi\include\c++\10.2.1\bits\stl_vector.h **** // Copyright (C) 2001-2020 Free Software Foundation, Inc.
   4:c:\program files\daisytoolchain\arm-none-eabi\include\c++\10.2.1\bits\stl_vector.h **** //
   5:c:\program files\daisytoolchain\arm-none-eabi\include\c++\10.2.1\bits\stl_vector.h **** // This file is part of the GNU ISO C++ Library.  This library is free
   6:c:\program files\daisytoolchain\arm-none-eabi\include\c++\10.2.1\bits\stl_vector.h **** // software; you can redistribute it and/or modify it under the
   7:c:\program files\daisytoolchain\arm-none-eabi\include\c++\10.2.1\bits\stl_vector.h **** // terms of the GNU General Public License as published by the
   8:c:\program files\daisytoolchain\arm-none-eabi\include\c++\10.2.1\bits\stl_vector.h **** // Free Software Foundation; either version 3, or (at your option)
   9:c:\program files\daisytoolchain\arm-none-eabi\include\c++\10.2.1\bits\stl_vector.h **** // any later version.
  10:c:\program files\daisytoolchain\arm-none-eabi\include\c++\10.2.1\bits\stl_vector.h **** 
  11:c:\program files\daisytoolchain\arm-none-eabi\include\c++\10.2.1\bits\stl_vector.h **** // This library is distributed in the hope that it will be useful,
  12:c:\program files\daisytoolchain\arm-none-eabi\include\c++\10.2.1\bits\stl_vector.h **** // but WITHOUT ANY WARRANTY; without even the implied warranty of
  13:c:\program files\daisytoolchain\arm-none-eabi\include\c++\10.2.1\bits\stl_vector.h **** // MERCHANTABILITY or FITNESS FOR A PARTICULAR PURPOSE.  See the
  14:c:\program files\daisytoolchain\arm-none-eabi\include\c++\10.2.1\bits\stl_vector.h **** // GNU General Public License for more details.
  15:c:\program files\daisytoolchain\arm-none-eabi\include\c++\10.2.1\bits\stl_vector.h **** 
  16:c:\program files\daisytoolchain\arm-none-eabi\include\c++\10.2.1\bits\stl_vector.h **** // Under Section 7 of GPL version 3, you are granted additional
  17:c:\program files\daisytoolchain\arm-none-eabi\include\c++\10.2.1\bits\stl_vector.h **** // permissions described in the GCC Runtime Library Exception, version
  18:c:\program files\daisytoolchain\arm-none-eabi\include\c++\10.2.1\bits\stl_vector.h **** // 3.1, as published by the Free Software Foundation.
  19:c:\program files\daisytoolchain\arm-none-eabi\include\c++\10.2.1\bits\stl_vector.h **** 
  20:c:\program files\daisytoolchain\arm-none-eabi\include\c++\10.2.1\bits\stl_vector.h **** // You should have received a copy of the GNU General Public License and
  21:c:\program files\daisytoolchain\arm-none-eabi\include\c++\10.2.1\bits\stl_vector.h **** // a copy of the GCC Runtime Library Exception along with this program;
  22:c:\program files\daisytoolchain\arm-none-eabi\include\c++\10.2.1\bits\stl_vector.h **** // see the files COPYING3 and COPYING.RUNTIME respectively.  If not, see
  23:c:\program files\daisytoolchain\arm-none-eabi\include\c++\10.2.1\bits\stl_vector.h **** // <http://www.gnu.org/licenses/>.
  24:c:\program files\daisytoolchain\arm-none-eabi\include\c++\10.2.1\bits\stl_vector.h **** 
  25:c:\program files\daisytoolchain\arm-none-eabi\include\c++\10.2.1\bits\stl_vector.h **** /*
  26:c:\program files\daisytoolchain\arm-none-eabi\include\c++\10.2.1\bits\stl_vector.h ****  *
  27:c:\program files\daisytoolchain\arm-none-eabi\include\c++\10.2.1\bits\stl_vector.h ****  * Copyright (c) 1994
  28:c:\program files\daisytoolchain\arm-none-eabi\include\c++\10.2.1\bits\stl_vector.h ****  * Hewlett-Packard Company
  29:c:\program files\daisytoolchain\arm-none-eabi\include\c++\10.2.1\bits\stl_vector.h ****  *
  30:c:\program files\daisytoolchain\arm-none-eabi\include\c++\10.2.1\bits\stl_vector.h ****  * Permission to use, copy, modify, distribute and sell this software
  31:c:\program files\daisytoolchain\arm-none-eabi\include\c++\10.2.1\bits\stl_vector.h ****  * and its documentation for any purpose is hereby granted without fee,
  32:c:\program files\daisytoolchain\arm-none-eabi\include\c++\10.2.1\bits\stl_vector.h ****  * provided that the above copyright notice appear in all copies and
  33:c:\program files\daisytoolchain\arm-none-eabi\include\c++\10.2.1\bits\stl_vector.h ****  * that both that copyright notice and this permission notice appear
  34:c:\program files\daisytoolchain\arm-none-eabi\include\c++\10.2.1\bits\stl_vector.h ****  * in supporting documentation.  Hewlett-Packard Company makes no
  35:c:\program files\daisytoolchain\arm-none-eabi\include\c++\10.2.1\bits\stl_vector.h ****  * representations about the suitability of this software for any
  36:c:\program files\daisytoolchain\arm-none-eabi\include\c++\10.2.1\bits\stl_vector.h ****  * purpose.  It is provided "as is" without express or implied warranty.
  37:c:\program files\daisytoolchain\arm-none-eabi\include\c++\10.2.1\bits\stl_vector.h ****  *
  38:c:\program files\daisytoolchain\arm-none-eabi\include\c++\10.2.1\bits\stl_vector.h ****  *
  39:c:\program files\daisytoolchain\arm-none-eabi\include\c++\10.2.1\bits\stl_vector.h ****  * Copyright (c) 1996
  40:c:\program files\daisytoolchain\arm-none-eabi\include\c++\10.2.1\bits\stl_vector.h ****  * Silicon Graphics Computer Systems, Inc.
  41:c:\program files\daisytoolchain\arm-none-eabi\include\c++\10.2.1\bits\stl_vector.h ****  *
  42:c:\program files\daisytoolchain\arm-none-eabi\include\c++\10.2.1\bits\stl_vector.h ****  * Permission to use, copy, modify, distribute and sell this software
  43:c:\program files\daisytoolchain\arm-none-eabi\include\c++\10.2.1\bits\stl_vector.h ****  * and its documentation for any purpose is hereby granted without fee,
  44:c:\program files\daisytoolchain\arm-none-eabi\include\c++\10.2.1\bits\stl_vector.h ****  * provided that the above copyright notice appear in all copies and
  45:c:\program files\daisytoolchain\arm-none-eabi\include\c++\10.2.1\bits\stl_vector.h ****  * that both that copyright notice and this permission notice appear
  46:c:\program files\daisytoolchain\arm-none-eabi\include\c++\10.2.1\bits\stl_vector.h ****  * in supporting documentation.  Silicon Graphics makes no
  47:c:\program files\daisytoolchain\arm-none-eabi\include\c++\10.2.1\bits\stl_vector.h ****  * representations about the suitability of this  software for any
  48:c:\program files\daisytoolchain\arm-none-eabi\include\c++\10.2.1\bits\stl_vector.h ****  * purpose.  It is provided "as is" without express or implied warranty.
  49:c:\program files\daisytoolchain\arm-none-eabi\include\c++\10.2.1\bits\stl_vector.h ****  */
  50:c:\program files\daisytoolchain\arm-none-eabi\include\c++\10.2.1\bits\stl_vector.h **** 
  51:c:\program files\daisytoolchain\arm-none-eabi\include\c++\10.2.1\bits\stl_vector.h **** /** @file bits/stl_vector.h
  52:c:\program files\daisytoolchain\arm-none-eabi\include\c++\10.2.1\bits\stl_vector.h ****  *  This is an internal header file, included by other library headers.
  53:c:\program files\daisytoolchain\arm-none-eabi\include\c++\10.2.1\bits\stl_vector.h ****  *  Do not attempt to use it directly. @headername{vector}
  54:c:\program files\daisytoolchain\arm-none-eabi\include\c++\10.2.1\bits\stl_vector.h ****  */
  55:c:\program files\daisytoolchain\arm-none-eabi\include\c++\10.2.1\bits\stl_vector.h **** 
ARM GAS  C:\Users\samue\AppData\Local\Temp\cci865ja.s 			page 47


  56:c:\program files\daisytoolchain\arm-none-eabi\include\c++\10.2.1\bits\stl_vector.h **** #ifndef _STL_VECTOR_H
  57:c:\program files\daisytoolchain\arm-none-eabi\include\c++\10.2.1\bits\stl_vector.h **** #define _STL_VECTOR_H 1
  58:c:\program files\daisytoolchain\arm-none-eabi\include\c++\10.2.1\bits\stl_vector.h **** 
  59:c:\program files\daisytoolchain\arm-none-eabi\include\c++\10.2.1\bits\stl_vector.h **** #include <bits/stl_iterator_base_funcs.h>
  60:c:\program files\daisytoolchain\arm-none-eabi\include\c++\10.2.1\bits\stl_vector.h **** #include <bits/functexcept.h>
  61:c:\program files\daisytoolchain\arm-none-eabi\include\c++\10.2.1\bits\stl_vector.h **** #include <bits/concept_check.h>
  62:c:\program files\daisytoolchain\arm-none-eabi\include\c++\10.2.1\bits\stl_vector.h **** #if __cplusplus >= 201103L
  63:c:\program files\daisytoolchain\arm-none-eabi\include\c++\10.2.1\bits\stl_vector.h **** #include <initializer_list>
  64:c:\program files\daisytoolchain\arm-none-eabi\include\c++\10.2.1\bits\stl_vector.h **** #endif
  65:c:\program files\daisytoolchain\arm-none-eabi\include\c++\10.2.1\bits\stl_vector.h **** #if __cplusplus > 201703L
  66:c:\program files\daisytoolchain\arm-none-eabi\include\c++\10.2.1\bits\stl_vector.h **** # include <compare>
  67:c:\program files\daisytoolchain\arm-none-eabi\include\c++\10.2.1\bits\stl_vector.h **** #endif
  68:c:\program files\daisytoolchain\arm-none-eabi\include\c++\10.2.1\bits\stl_vector.h **** 
  69:c:\program files\daisytoolchain\arm-none-eabi\include\c++\10.2.1\bits\stl_vector.h **** #include <debug/assertions.h>
  70:c:\program files\daisytoolchain\arm-none-eabi\include\c++\10.2.1\bits\stl_vector.h **** 
  71:c:\program files\daisytoolchain\arm-none-eabi\include\c++\10.2.1\bits\stl_vector.h **** #if _GLIBCXX_SANITIZE_STD_ALLOCATOR && _GLIBCXX_SANITIZE_VECTOR
  72:c:\program files\daisytoolchain\arm-none-eabi\include\c++\10.2.1\bits\stl_vector.h **** extern "C" void
  73:c:\program files\daisytoolchain\arm-none-eabi\include\c++\10.2.1\bits\stl_vector.h **** __sanitizer_annotate_contiguous_container(const void*, const void*,
  74:c:\program files\daisytoolchain\arm-none-eabi\include\c++\10.2.1\bits\stl_vector.h **** 					  const void*, const void*);
  75:c:\program files\daisytoolchain\arm-none-eabi\include\c++\10.2.1\bits\stl_vector.h **** #endif
  76:c:\program files\daisytoolchain\arm-none-eabi\include\c++\10.2.1\bits\stl_vector.h **** 
  77:c:\program files\daisytoolchain\arm-none-eabi\include\c++\10.2.1\bits\stl_vector.h **** namespace std _GLIBCXX_VISIBILITY(default)
  78:c:\program files\daisytoolchain\arm-none-eabi\include\c++\10.2.1\bits\stl_vector.h **** {
  79:c:\program files\daisytoolchain\arm-none-eabi\include\c++\10.2.1\bits\stl_vector.h **** _GLIBCXX_BEGIN_NAMESPACE_VERSION
  80:c:\program files\daisytoolchain\arm-none-eabi\include\c++\10.2.1\bits\stl_vector.h **** _GLIBCXX_BEGIN_NAMESPACE_CONTAINER
  81:c:\program files\daisytoolchain\arm-none-eabi\include\c++\10.2.1\bits\stl_vector.h **** 
  82:c:\program files\daisytoolchain\arm-none-eabi\include\c++\10.2.1\bits\stl_vector.h ****   /// See bits/stl_deque.h's _Deque_base for an explanation.
  83:c:\program files\daisytoolchain\arm-none-eabi\include\c++\10.2.1\bits\stl_vector.h ****   template<typename _Tp, typename _Alloc>
  84:c:\program files\daisytoolchain\arm-none-eabi\include\c++\10.2.1\bits\stl_vector.h ****     struct _Vector_base
  85:c:\program files\daisytoolchain\arm-none-eabi\include\c++\10.2.1\bits\stl_vector.h ****     {
  86:c:\program files\daisytoolchain\arm-none-eabi\include\c++\10.2.1\bits\stl_vector.h ****       typedef typename __gnu_cxx::__alloc_traits<_Alloc>::template
  87:c:\program files\daisytoolchain\arm-none-eabi\include\c++\10.2.1\bits\stl_vector.h **** 	rebind<_Tp>::other _Tp_alloc_type;
  88:c:\program files\daisytoolchain\arm-none-eabi\include\c++\10.2.1\bits\stl_vector.h ****       typedef typename __gnu_cxx::__alloc_traits<_Tp_alloc_type>::pointer
  89:c:\program files\daisytoolchain\arm-none-eabi\include\c++\10.2.1\bits\stl_vector.h ****        	pointer;
  90:c:\program files\daisytoolchain\arm-none-eabi\include\c++\10.2.1\bits\stl_vector.h **** 
  91:c:\program files\daisytoolchain\arm-none-eabi\include\c++\10.2.1\bits\stl_vector.h ****       struct _Vector_impl_data
  92:c:\program files\daisytoolchain\arm-none-eabi\include\c++\10.2.1\bits\stl_vector.h ****       {
  93:c:\program files\daisytoolchain\arm-none-eabi\include\c++\10.2.1\bits\stl_vector.h **** 	pointer _M_start;
  94:c:\program files\daisytoolchain\arm-none-eabi\include\c++\10.2.1\bits\stl_vector.h **** 	pointer _M_finish;
  95:c:\program files\daisytoolchain\arm-none-eabi\include\c++\10.2.1\bits\stl_vector.h **** 	pointer _M_end_of_storage;
  96:c:\program files\daisytoolchain\arm-none-eabi\include\c++\10.2.1\bits\stl_vector.h **** 
  97:c:\program files\daisytoolchain\arm-none-eabi\include\c++\10.2.1\bits\stl_vector.h **** 	_Vector_impl_data() _GLIBCXX_NOEXCEPT
  98:c:\program files\daisytoolchain\arm-none-eabi\include\c++\10.2.1\bits\stl_vector.h **** 	: _M_start(), _M_finish(), _M_end_of_storage()
  99:c:\program files\daisytoolchain\arm-none-eabi\include\c++\10.2.1\bits\stl_vector.h **** 	{ }
 100:c:\program files\daisytoolchain\arm-none-eabi\include\c++\10.2.1\bits\stl_vector.h **** 
 101:c:\program files\daisytoolchain\arm-none-eabi\include\c++\10.2.1\bits\stl_vector.h **** #if __cplusplus >= 201103L
 102:c:\program files\daisytoolchain\arm-none-eabi\include\c++\10.2.1\bits\stl_vector.h **** 	_Vector_impl_data(_Vector_impl_data&& __x) noexcept
 103:c:\program files\daisytoolchain\arm-none-eabi\include\c++\10.2.1\bits\stl_vector.h **** 	: _M_start(__x._M_start), _M_finish(__x._M_finish),
 104:c:\program files\daisytoolchain\arm-none-eabi\include\c++\10.2.1\bits\stl_vector.h **** 	  _M_end_of_storage(__x._M_end_of_storage)
 105:c:\program files\daisytoolchain\arm-none-eabi\include\c++\10.2.1\bits\stl_vector.h **** 	{ __x._M_start = __x._M_finish = __x._M_end_of_storage = pointer(); }
 106:c:\program files\daisytoolchain\arm-none-eabi\include\c++\10.2.1\bits\stl_vector.h **** #endif
 107:c:\program files\daisytoolchain\arm-none-eabi\include\c++\10.2.1\bits\stl_vector.h **** 
 108:c:\program files\daisytoolchain\arm-none-eabi\include\c++\10.2.1\bits\stl_vector.h **** 	void
 109:c:\program files\daisytoolchain\arm-none-eabi\include\c++\10.2.1\bits\stl_vector.h **** 	_M_copy_data(_Vector_impl_data const& __x) _GLIBCXX_NOEXCEPT
 110:c:\program files\daisytoolchain\arm-none-eabi\include\c++\10.2.1\bits\stl_vector.h **** 	{
 111:c:\program files\daisytoolchain\arm-none-eabi\include\c++\10.2.1\bits\stl_vector.h **** 	  _M_start = __x._M_start;
 112:c:\program files\daisytoolchain\arm-none-eabi\include\c++\10.2.1\bits\stl_vector.h **** 	  _M_finish = __x._M_finish;
ARM GAS  C:\Users\samue\AppData\Local\Temp\cci865ja.s 			page 48


 113:c:\program files\daisytoolchain\arm-none-eabi\include\c++\10.2.1\bits\stl_vector.h **** 	  _M_end_of_storage = __x._M_end_of_storage;
 114:c:\program files\daisytoolchain\arm-none-eabi\include\c++\10.2.1\bits\stl_vector.h **** 	}
 115:c:\program files\daisytoolchain\arm-none-eabi\include\c++\10.2.1\bits\stl_vector.h **** 
 116:c:\program files\daisytoolchain\arm-none-eabi\include\c++\10.2.1\bits\stl_vector.h **** 	void
 117:c:\program files\daisytoolchain\arm-none-eabi\include\c++\10.2.1\bits\stl_vector.h **** 	_M_swap_data(_Vector_impl_data& __x) _GLIBCXX_NOEXCEPT
 118:c:\program files\daisytoolchain\arm-none-eabi\include\c++\10.2.1\bits\stl_vector.h **** 	{
 119:c:\program files\daisytoolchain\arm-none-eabi\include\c++\10.2.1\bits\stl_vector.h **** 	  // Do not use std::swap(_M_start, __x._M_start), etc as it loses
 120:c:\program files\daisytoolchain\arm-none-eabi\include\c++\10.2.1\bits\stl_vector.h **** 	  // information used by TBAA.
 121:c:\program files\daisytoolchain\arm-none-eabi\include\c++\10.2.1\bits\stl_vector.h **** 	  _Vector_impl_data __tmp;
 122:c:\program files\daisytoolchain\arm-none-eabi\include\c++\10.2.1\bits\stl_vector.h **** 	  __tmp._M_copy_data(*this);
 123:c:\program files\daisytoolchain\arm-none-eabi\include\c++\10.2.1\bits\stl_vector.h **** 	  _M_copy_data(__x);
 124:c:\program files\daisytoolchain\arm-none-eabi\include\c++\10.2.1\bits\stl_vector.h **** 	  __x._M_copy_data(__tmp);
 125:c:\program files\daisytoolchain\arm-none-eabi\include\c++\10.2.1\bits\stl_vector.h **** 	}
 126:c:\program files\daisytoolchain\arm-none-eabi\include\c++\10.2.1\bits\stl_vector.h ****       };
 127:c:\program files\daisytoolchain\arm-none-eabi\include\c++\10.2.1\bits\stl_vector.h **** 
 128:c:\program files\daisytoolchain\arm-none-eabi\include\c++\10.2.1\bits\stl_vector.h ****       struct _Vector_impl
 129:c:\program files\daisytoolchain\arm-none-eabi\include\c++\10.2.1\bits\stl_vector.h **** 	: public _Tp_alloc_type, public _Vector_impl_data
 130:c:\program files\daisytoolchain\arm-none-eabi\include\c++\10.2.1\bits\stl_vector.h ****       {
 131:c:\program files\daisytoolchain\arm-none-eabi\include\c++\10.2.1\bits\stl_vector.h **** 	_Vector_impl() _GLIBCXX_NOEXCEPT_IF(
 132:c:\program files\daisytoolchain\arm-none-eabi\include\c++\10.2.1\bits\stl_vector.h **** 	    is_nothrow_default_constructible<_Tp_alloc_type>::value)
 133:c:\program files\daisytoolchain\arm-none-eabi\include\c++\10.2.1\bits\stl_vector.h **** 	: _Tp_alloc_type()
 134:c:\program files\daisytoolchain\arm-none-eabi\include\c++\10.2.1\bits\stl_vector.h **** 	{ }
 135:c:\program files\daisytoolchain\arm-none-eabi\include\c++\10.2.1\bits\stl_vector.h **** 
 136:c:\program files\daisytoolchain\arm-none-eabi\include\c++\10.2.1\bits\stl_vector.h **** 	_Vector_impl(_Tp_alloc_type const& __a) _GLIBCXX_NOEXCEPT
 137:c:\program files\daisytoolchain\arm-none-eabi\include\c++\10.2.1\bits\stl_vector.h **** 	: _Tp_alloc_type(__a)
 138:c:\program files\daisytoolchain\arm-none-eabi\include\c++\10.2.1\bits\stl_vector.h **** 	{ }
 139:c:\program files\daisytoolchain\arm-none-eabi\include\c++\10.2.1\bits\stl_vector.h **** 
 140:c:\program files\daisytoolchain\arm-none-eabi\include\c++\10.2.1\bits\stl_vector.h **** #if __cplusplus >= 201103L
 141:c:\program files\daisytoolchain\arm-none-eabi\include\c++\10.2.1\bits\stl_vector.h **** 	// Not defaulted, to enforce noexcept(true) even when
 142:c:\program files\daisytoolchain\arm-none-eabi\include\c++\10.2.1\bits\stl_vector.h **** 	// !is_nothrow_move_constructible<_Tp_alloc_type>.
 143:c:\program files\daisytoolchain\arm-none-eabi\include\c++\10.2.1\bits\stl_vector.h **** 	_Vector_impl(_Vector_impl&& __x) noexcept
 144:c:\program files\daisytoolchain\arm-none-eabi\include\c++\10.2.1\bits\stl_vector.h **** 	: _Tp_alloc_type(std::move(__x)), _Vector_impl_data(std::move(__x))
 145:c:\program files\daisytoolchain\arm-none-eabi\include\c++\10.2.1\bits\stl_vector.h **** 	{ }
 146:c:\program files\daisytoolchain\arm-none-eabi\include\c++\10.2.1\bits\stl_vector.h **** 
 147:c:\program files\daisytoolchain\arm-none-eabi\include\c++\10.2.1\bits\stl_vector.h **** 	_Vector_impl(_Tp_alloc_type&& __a) noexcept
 148:c:\program files\daisytoolchain\arm-none-eabi\include\c++\10.2.1\bits\stl_vector.h **** 	: _Tp_alloc_type(std::move(__a))
 149:c:\program files\daisytoolchain\arm-none-eabi\include\c++\10.2.1\bits\stl_vector.h **** 	{ }
 150:c:\program files\daisytoolchain\arm-none-eabi\include\c++\10.2.1\bits\stl_vector.h **** 
 151:c:\program files\daisytoolchain\arm-none-eabi\include\c++\10.2.1\bits\stl_vector.h **** 	_Vector_impl(_Tp_alloc_type&& __a, _Vector_impl&& __rv) noexcept
 152:c:\program files\daisytoolchain\arm-none-eabi\include\c++\10.2.1\bits\stl_vector.h **** 	: _Tp_alloc_type(std::move(__a)), _Vector_impl_data(std::move(__rv))
 153:c:\program files\daisytoolchain\arm-none-eabi\include\c++\10.2.1\bits\stl_vector.h **** 	{ }
 154:c:\program files\daisytoolchain\arm-none-eabi\include\c++\10.2.1\bits\stl_vector.h **** #endif
 155:c:\program files\daisytoolchain\arm-none-eabi\include\c++\10.2.1\bits\stl_vector.h **** 
 156:c:\program files\daisytoolchain\arm-none-eabi\include\c++\10.2.1\bits\stl_vector.h **** #if _GLIBCXX_SANITIZE_STD_ALLOCATOR && _GLIBCXX_SANITIZE_VECTOR
 157:c:\program files\daisytoolchain\arm-none-eabi\include\c++\10.2.1\bits\stl_vector.h **** 	template<typename = _Tp_alloc_type>
 158:c:\program files\daisytoolchain\arm-none-eabi\include\c++\10.2.1\bits\stl_vector.h **** 	  struct _Asan
 159:c:\program files\daisytoolchain\arm-none-eabi\include\c++\10.2.1\bits\stl_vector.h **** 	  {
 160:c:\program files\daisytoolchain\arm-none-eabi\include\c++\10.2.1\bits\stl_vector.h **** 	    typedef typename __gnu_cxx::__alloc_traits<_Tp_alloc_type>
 161:c:\program files\daisytoolchain\arm-none-eabi\include\c++\10.2.1\bits\stl_vector.h **** 	      ::size_type size_type;
 162:c:\program files\daisytoolchain\arm-none-eabi\include\c++\10.2.1\bits\stl_vector.h **** 
 163:c:\program files\daisytoolchain\arm-none-eabi\include\c++\10.2.1\bits\stl_vector.h **** 	    static void _S_shrink(_Vector_impl&, size_type) { }
 164:c:\program files\daisytoolchain\arm-none-eabi\include\c++\10.2.1\bits\stl_vector.h **** 	    static void _S_on_dealloc(_Vector_impl&) { }
 165:c:\program files\daisytoolchain\arm-none-eabi\include\c++\10.2.1\bits\stl_vector.h **** 
 166:c:\program files\daisytoolchain\arm-none-eabi\include\c++\10.2.1\bits\stl_vector.h **** 	    typedef _Vector_impl& _Reinit;
 167:c:\program files\daisytoolchain\arm-none-eabi\include\c++\10.2.1\bits\stl_vector.h **** 
 168:c:\program files\daisytoolchain\arm-none-eabi\include\c++\10.2.1\bits\stl_vector.h **** 	    struct _Grow
 169:c:\program files\daisytoolchain\arm-none-eabi\include\c++\10.2.1\bits\stl_vector.h **** 	    {
ARM GAS  C:\Users\samue\AppData\Local\Temp\cci865ja.s 			page 49


 170:c:\program files\daisytoolchain\arm-none-eabi\include\c++\10.2.1\bits\stl_vector.h **** 	      _Grow(_Vector_impl&, size_type) { }
 171:c:\program files\daisytoolchain\arm-none-eabi\include\c++\10.2.1\bits\stl_vector.h **** 	      void _M_grew(size_type) { }
 172:c:\program files\daisytoolchain\arm-none-eabi\include\c++\10.2.1\bits\stl_vector.h **** 	    };
 173:c:\program files\daisytoolchain\arm-none-eabi\include\c++\10.2.1\bits\stl_vector.h **** 	  };
 174:c:\program files\daisytoolchain\arm-none-eabi\include\c++\10.2.1\bits\stl_vector.h **** 
 175:c:\program files\daisytoolchain\arm-none-eabi\include\c++\10.2.1\bits\stl_vector.h **** 	// Enable ASan annotations for memory obtained from std::allocator.
 176:c:\program files\daisytoolchain\arm-none-eabi\include\c++\10.2.1\bits\stl_vector.h **** 	template<typename _Up>
 177:c:\program files\daisytoolchain\arm-none-eabi\include\c++\10.2.1\bits\stl_vector.h **** 	  struct _Asan<allocator<_Up> >
 178:c:\program files\daisytoolchain\arm-none-eabi\include\c++\10.2.1\bits\stl_vector.h **** 	  {
 179:c:\program files\daisytoolchain\arm-none-eabi\include\c++\10.2.1\bits\stl_vector.h **** 	    typedef typename __gnu_cxx::__alloc_traits<_Tp_alloc_type>
 180:c:\program files\daisytoolchain\arm-none-eabi\include\c++\10.2.1\bits\stl_vector.h **** 	      ::size_type size_type;
 181:c:\program files\daisytoolchain\arm-none-eabi\include\c++\10.2.1\bits\stl_vector.h **** 
 182:c:\program files\daisytoolchain\arm-none-eabi\include\c++\10.2.1\bits\stl_vector.h **** 	    // Adjust ASan annotation for [_M_start, _M_end_of_storage) to
 183:c:\program files\daisytoolchain\arm-none-eabi\include\c++\10.2.1\bits\stl_vector.h **** 	    // mark end of valid region as __curr instead of __prev.
 184:c:\program files\daisytoolchain\arm-none-eabi\include\c++\10.2.1\bits\stl_vector.h **** 	    static void
 185:c:\program files\daisytoolchain\arm-none-eabi\include\c++\10.2.1\bits\stl_vector.h **** 	    _S_adjust(_Vector_impl& __impl, pointer __prev, pointer __curr)
 186:c:\program files\daisytoolchain\arm-none-eabi\include\c++\10.2.1\bits\stl_vector.h **** 	    {
 187:c:\program files\daisytoolchain\arm-none-eabi\include\c++\10.2.1\bits\stl_vector.h **** 	      __sanitizer_annotate_contiguous_container(__impl._M_start,
 188:c:\program files\daisytoolchain\arm-none-eabi\include\c++\10.2.1\bits\stl_vector.h **** 		  __impl._M_end_of_storage, __prev, __curr);
 189:c:\program files\daisytoolchain\arm-none-eabi\include\c++\10.2.1\bits\stl_vector.h **** 	    }
 190:c:\program files\daisytoolchain\arm-none-eabi\include\c++\10.2.1\bits\stl_vector.h **** 
 191:c:\program files\daisytoolchain\arm-none-eabi\include\c++\10.2.1\bits\stl_vector.h **** 	    static void
 192:c:\program files\daisytoolchain\arm-none-eabi\include\c++\10.2.1\bits\stl_vector.h **** 	    _S_grow(_Vector_impl& __impl, size_type __n)
 193:c:\program files\daisytoolchain\arm-none-eabi\include\c++\10.2.1\bits\stl_vector.h **** 	    { _S_adjust(__impl, __impl._M_finish, __impl._M_finish + __n); }
 194:c:\program files\daisytoolchain\arm-none-eabi\include\c++\10.2.1\bits\stl_vector.h **** 
 195:c:\program files\daisytoolchain\arm-none-eabi\include\c++\10.2.1\bits\stl_vector.h **** 	    static void
 196:c:\program files\daisytoolchain\arm-none-eabi\include\c++\10.2.1\bits\stl_vector.h **** 	    _S_shrink(_Vector_impl& __impl, size_type __n)
 197:c:\program files\daisytoolchain\arm-none-eabi\include\c++\10.2.1\bits\stl_vector.h **** 	    { _S_adjust(__impl, __impl._M_finish + __n, __impl._M_finish); }
 198:c:\program files\daisytoolchain\arm-none-eabi\include\c++\10.2.1\bits\stl_vector.h **** 
 199:c:\program files\daisytoolchain\arm-none-eabi\include\c++\10.2.1\bits\stl_vector.h **** 	    static void
 200:c:\program files\daisytoolchain\arm-none-eabi\include\c++\10.2.1\bits\stl_vector.h **** 	    _S_on_dealloc(_Vector_impl& __impl)
 201:c:\program files\daisytoolchain\arm-none-eabi\include\c++\10.2.1\bits\stl_vector.h **** 	    {
 202:c:\program files\daisytoolchain\arm-none-eabi\include\c++\10.2.1\bits\stl_vector.h **** 	      if (__impl._M_start)
 203:c:\program files\daisytoolchain\arm-none-eabi\include\c++\10.2.1\bits\stl_vector.h **** 		_S_adjust(__impl, __impl._M_finish, __impl._M_end_of_storage);
 204:c:\program files\daisytoolchain\arm-none-eabi\include\c++\10.2.1\bits\stl_vector.h **** 	    }
 205:c:\program files\daisytoolchain\arm-none-eabi\include\c++\10.2.1\bits\stl_vector.h **** 
 206:c:\program files\daisytoolchain\arm-none-eabi\include\c++\10.2.1\bits\stl_vector.h **** 	    // Used on reallocation to tell ASan unused capacity is invalid.
 207:c:\program files\daisytoolchain\arm-none-eabi\include\c++\10.2.1\bits\stl_vector.h **** 	    struct _Reinit
 208:c:\program files\daisytoolchain\arm-none-eabi\include\c++\10.2.1\bits\stl_vector.h **** 	    {
 209:c:\program files\daisytoolchain\arm-none-eabi\include\c++\10.2.1\bits\stl_vector.h **** 	      explicit _Reinit(_Vector_impl& __impl) : _M_impl(__impl)
 210:c:\program files\daisytoolchain\arm-none-eabi\include\c++\10.2.1\bits\stl_vector.h **** 	      {
 211:c:\program files\daisytoolchain\arm-none-eabi\include\c++\10.2.1\bits\stl_vector.h **** 		// Mark unused capacity as valid again before deallocating it.
 212:c:\program files\daisytoolchain\arm-none-eabi\include\c++\10.2.1\bits\stl_vector.h **** 		_S_on_dealloc(_M_impl);
 213:c:\program files\daisytoolchain\arm-none-eabi\include\c++\10.2.1\bits\stl_vector.h **** 	      }
 214:c:\program files\daisytoolchain\arm-none-eabi\include\c++\10.2.1\bits\stl_vector.h **** 
 215:c:\program files\daisytoolchain\arm-none-eabi\include\c++\10.2.1\bits\stl_vector.h **** 	      ~_Reinit()
 216:c:\program files\daisytoolchain\arm-none-eabi\include\c++\10.2.1\bits\stl_vector.h **** 	      {
 217:c:\program files\daisytoolchain\arm-none-eabi\include\c++\10.2.1\bits\stl_vector.h **** 		// Mark unused capacity as invalid after reallocation.
 218:c:\program files\daisytoolchain\arm-none-eabi\include\c++\10.2.1\bits\stl_vector.h **** 		if (_M_impl._M_start)
 219:c:\program files\daisytoolchain\arm-none-eabi\include\c++\10.2.1\bits\stl_vector.h **** 		  _S_adjust(_M_impl, _M_impl._M_end_of_storage,
 220:c:\program files\daisytoolchain\arm-none-eabi\include\c++\10.2.1\bits\stl_vector.h **** 			    _M_impl._M_finish);
 221:c:\program files\daisytoolchain\arm-none-eabi\include\c++\10.2.1\bits\stl_vector.h **** 	      }
 222:c:\program files\daisytoolchain\arm-none-eabi\include\c++\10.2.1\bits\stl_vector.h **** 
 223:c:\program files\daisytoolchain\arm-none-eabi\include\c++\10.2.1\bits\stl_vector.h **** 	      _Vector_impl& _M_impl;
 224:c:\program files\daisytoolchain\arm-none-eabi\include\c++\10.2.1\bits\stl_vector.h **** 
 225:c:\program files\daisytoolchain\arm-none-eabi\include\c++\10.2.1\bits\stl_vector.h **** #if __cplusplus >= 201103L
 226:c:\program files\daisytoolchain\arm-none-eabi\include\c++\10.2.1\bits\stl_vector.h **** 	      _Reinit(const _Reinit&) = delete;
ARM GAS  C:\Users\samue\AppData\Local\Temp\cci865ja.s 			page 50


 227:c:\program files\daisytoolchain\arm-none-eabi\include\c++\10.2.1\bits\stl_vector.h **** 	      _Reinit& operator=(const _Reinit&) = delete;
 228:c:\program files\daisytoolchain\arm-none-eabi\include\c++\10.2.1\bits\stl_vector.h **** #endif
 229:c:\program files\daisytoolchain\arm-none-eabi\include\c++\10.2.1\bits\stl_vector.h **** 	    };
 230:c:\program files\daisytoolchain\arm-none-eabi\include\c++\10.2.1\bits\stl_vector.h **** 
 231:c:\program files\daisytoolchain\arm-none-eabi\include\c++\10.2.1\bits\stl_vector.h **** 	    // Tell ASan when unused capacity is initialized to be valid.
 232:c:\program files\daisytoolchain\arm-none-eabi\include\c++\10.2.1\bits\stl_vector.h **** 	    struct _Grow
 233:c:\program files\daisytoolchain\arm-none-eabi\include\c++\10.2.1\bits\stl_vector.h **** 	    {
 234:c:\program files\daisytoolchain\arm-none-eabi\include\c++\10.2.1\bits\stl_vector.h **** 	      _Grow(_Vector_impl& __impl, size_type __n)
 235:c:\program files\daisytoolchain\arm-none-eabi\include\c++\10.2.1\bits\stl_vector.h **** 	      : _M_impl(__impl), _M_n(__n)
 236:c:\program files\daisytoolchain\arm-none-eabi\include\c++\10.2.1\bits\stl_vector.h **** 	      { _S_grow(_M_impl, __n); }
 237:c:\program files\daisytoolchain\arm-none-eabi\include\c++\10.2.1\bits\stl_vector.h **** 
 238:c:\program files\daisytoolchain\arm-none-eabi\include\c++\10.2.1\bits\stl_vector.h **** 	      ~_Grow() { if (_M_n) _S_shrink(_M_impl, _M_n); }
 239:c:\program files\daisytoolchain\arm-none-eabi\include\c++\10.2.1\bits\stl_vector.h **** 
 240:c:\program files\daisytoolchain\arm-none-eabi\include\c++\10.2.1\bits\stl_vector.h **** 	      void _M_grew(size_type __n) { _M_n -= __n; }
 241:c:\program files\daisytoolchain\arm-none-eabi\include\c++\10.2.1\bits\stl_vector.h **** 
 242:c:\program files\daisytoolchain\arm-none-eabi\include\c++\10.2.1\bits\stl_vector.h **** #if __cplusplus >= 201103L
 243:c:\program files\daisytoolchain\arm-none-eabi\include\c++\10.2.1\bits\stl_vector.h **** 	      _Grow(const _Grow&) = delete;
 244:c:\program files\daisytoolchain\arm-none-eabi\include\c++\10.2.1\bits\stl_vector.h **** 	      _Grow& operator=(const _Grow&) = delete;
 245:c:\program files\daisytoolchain\arm-none-eabi\include\c++\10.2.1\bits\stl_vector.h **** #endif
 246:c:\program files\daisytoolchain\arm-none-eabi\include\c++\10.2.1\bits\stl_vector.h **** 	    private:
 247:c:\program files\daisytoolchain\arm-none-eabi\include\c++\10.2.1\bits\stl_vector.h **** 	      _Vector_impl& _M_impl;
 248:c:\program files\daisytoolchain\arm-none-eabi\include\c++\10.2.1\bits\stl_vector.h **** 	      size_type _M_n;
 249:c:\program files\daisytoolchain\arm-none-eabi\include\c++\10.2.1\bits\stl_vector.h **** 	    };
 250:c:\program files\daisytoolchain\arm-none-eabi\include\c++\10.2.1\bits\stl_vector.h **** 	  };
 251:c:\program files\daisytoolchain\arm-none-eabi\include\c++\10.2.1\bits\stl_vector.h **** 
 252:c:\program files\daisytoolchain\arm-none-eabi\include\c++\10.2.1\bits\stl_vector.h **** #define _GLIBCXX_ASAN_ANNOTATE_REINIT \
 253:c:\program files\daisytoolchain\arm-none-eabi\include\c++\10.2.1\bits\stl_vector.h ****   typename _Base::_Vector_impl::template _Asan<>::_Reinit const \
 254:c:\program files\daisytoolchain\arm-none-eabi\include\c++\10.2.1\bits\stl_vector.h **** 	__attribute__((__unused__)) __reinit_guard(this->_M_impl)
 255:c:\program files\daisytoolchain\arm-none-eabi\include\c++\10.2.1\bits\stl_vector.h **** #define _GLIBCXX_ASAN_ANNOTATE_GROW(n) \
 256:c:\program files\daisytoolchain\arm-none-eabi\include\c++\10.2.1\bits\stl_vector.h ****   typename _Base::_Vector_impl::template _Asan<>::_Grow \
 257:c:\program files\daisytoolchain\arm-none-eabi\include\c++\10.2.1\bits\stl_vector.h **** 	__attribute__((__unused__)) __grow_guard(this->_M_impl, (n))
 258:c:\program files\daisytoolchain\arm-none-eabi\include\c++\10.2.1\bits\stl_vector.h **** #define _GLIBCXX_ASAN_ANNOTATE_GREW(n) __grow_guard._M_grew(n)
 259:c:\program files\daisytoolchain\arm-none-eabi\include\c++\10.2.1\bits\stl_vector.h **** #define _GLIBCXX_ASAN_ANNOTATE_SHRINK(n) \
 260:c:\program files\daisytoolchain\arm-none-eabi\include\c++\10.2.1\bits\stl_vector.h ****   _Base::_Vector_impl::template _Asan<>::_S_shrink(this->_M_impl, n)
 261:c:\program files\daisytoolchain\arm-none-eabi\include\c++\10.2.1\bits\stl_vector.h **** #define _GLIBCXX_ASAN_ANNOTATE_BEFORE_DEALLOC \
 262:c:\program files\daisytoolchain\arm-none-eabi\include\c++\10.2.1\bits\stl_vector.h ****   _Base::_Vector_impl::template _Asan<>::_S_on_dealloc(this->_M_impl)
 263:c:\program files\daisytoolchain\arm-none-eabi\include\c++\10.2.1\bits\stl_vector.h **** #else // ! (_GLIBCXX_SANITIZE_STD_ALLOCATOR && _GLIBCXX_SANITIZE_VECTOR)
 264:c:\program files\daisytoolchain\arm-none-eabi\include\c++\10.2.1\bits\stl_vector.h **** #define _GLIBCXX_ASAN_ANNOTATE_REINIT
 265:c:\program files\daisytoolchain\arm-none-eabi\include\c++\10.2.1\bits\stl_vector.h **** #define _GLIBCXX_ASAN_ANNOTATE_GROW(n)
 266:c:\program files\daisytoolchain\arm-none-eabi\include\c++\10.2.1\bits\stl_vector.h **** #define _GLIBCXX_ASAN_ANNOTATE_GREW(n)
 267:c:\program files\daisytoolchain\arm-none-eabi\include\c++\10.2.1\bits\stl_vector.h **** #define _GLIBCXX_ASAN_ANNOTATE_SHRINK(n)
 268:c:\program files\daisytoolchain\arm-none-eabi\include\c++\10.2.1\bits\stl_vector.h **** #define _GLIBCXX_ASAN_ANNOTATE_BEFORE_DEALLOC
 269:c:\program files\daisytoolchain\arm-none-eabi\include\c++\10.2.1\bits\stl_vector.h **** #endif // _GLIBCXX_SANITIZE_STD_ALLOCATOR && _GLIBCXX_SANITIZE_VECTOR
 270:c:\program files\daisytoolchain\arm-none-eabi\include\c++\10.2.1\bits\stl_vector.h ****       };
 271:c:\program files\daisytoolchain\arm-none-eabi\include\c++\10.2.1\bits\stl_vector.h **** 
 272:c:\program files\daisytoolchain\arm-none-eabi\include\c++\10.2.1\bits\stl_vector.h ****     public:
 273:c:\program files\daisytoolchain\arm-none-eabi\include\c++\10.2.1\bits\stl_vector.h ****       typedef _Alloc allocator_type;
 274:c:\program files\daisytoolchain\arm-none-eabi\include\c++\10.2.1\bits\stl_vector.h **** 
 275:c:\program files\daisytoolchain\arm-none-eabi\include\c++\10.2.1\bits\stl_vector.h ****       _Tp_alloc_type&
 276:c:\program files\daisytoolchain\arm-none-eabi\include\c++\10.2.1\bits\stl_vector.h ****       _M_get_Tp_allocator() _GLIBCXX_NOEXCEPT
 277:c:\program files\daisytoolchain\arm-none-eabi\include\c++\10.2.1\bits\stl_vector.h ****       { return this->_M_impl; }
 278:c:\program files\daisytoolchain\arm-none-eabi\include\c++\10.2.1\bits\stl_vector.h **** 
 279:c:\program files\daisytoolchain\arm-none-eabi\include\c++\10.2.1\bits\stl_vector.h ****       const _Tp_alloc_type&
 280:c:\program files\daisytoolchain\arm-none-eabi\include\c++\10.2.1\bits\stl_vector.h ****       _M_get_Tp_allocator() const _GLIBCXX_NOEXCEPT
 281:c:\program files\daisytoolchain\arm-none-eabi\include\c++\10.2.1\bits\stl_vector.h ****       { return this->_M_impl; }
 282:c:\program files\daisytoolchain\arm-none-eabi\include\c++\10.2.1\bits\stl_vector.h **** 
 283:c:\program files\daisytoolchain\arm-none-eabi\include\c++\10.2.1\bits\stl_vector.h ****       allocator_type
ARM GAS  C:\Users\samue\AppData\Local\Temp\cci865ja.s 			page 51


 284:c:\program files\daisytoolchain\arm-none-eabi\include\c++\10.2.1\bits\stl_vector.h ****       get_allocator() const _GLIBCXX_NOEXCEPT
 285:c:\program files\daisytoolchain\arm-none-eabi\include\c++\10.2.1\bits\stl_vector.h ****       { return allocator_type(_M_get_Tp_allocator()); }
 286:c:\program files\daisytoolchain\arm-none-eabi\include\c++\10.2.1\bits\stl_vector.h **** 
 287:c:\program files\daisytoolchain\arm-none-eabi\include\c++\10.2.1\bits\stl_vector.h **** #if __cplusplus >= 201103L
 288:c:\program files\daisytoolchain\arm-none-eabi\include\c++\10.2.1\bits\stl_vector.h ****       _Vector_base() = default;
 289:c:\program files\daisytoolchain\arm-none-eabi\include\c++\10.2.1\bits\stl_vector.h **** #else
 290:c:\program files\daisytoolchain\arm-none-eabi\include\c++\10.2.1\bits\stl_vector.h ****       _Vector_base() { }
 291:c:\program files\daisytoolchain\arm-none-eabi\include\c++\10.2.1\bits\stl_vector.h **** #endif
 292:c:\program files\daisytoolchain\arm-none-eabi\include\c++\10.2.1\bits\stl_vector.h **** 
 293:c:\program files\daisytoolchain\arm-none-eabi\include\c++\10.2.1\bits\stl_vector.h ****       _Vector_base(const allocator_type& __a) _GLIBCXX_NOEXCEPT
 294:c:\program files\daisytoolchain\arm-none-eabi\include\c++\10.2.1\bits\stl_vector.h ****       : _M_impl(__a) { }
 295:c:\program files\daisytoolchain\arm-none-eabi\include\c++\10.2.1\bits\stl_vector.h **** 
 296:c:\program files\daisytoolchain\arm-none-eabi\include\c++\10.2.1\bits\stl_vector.h ****       // Kept for ABI compatibility.
 297:c:\program files\daisytoolchain\arm-none-eabi\include\c++\10.2.1\bits\stl_vector.h **** #if !_GLIBCXX_INLINE_VERSION
 298:c:\program files\daisytoolchain\arm-none-eabi\include\c++\10.2.1\bits\stl_vector.h ****       _Vector_base(size_t __n)
 299:c:\program files\daisytoolchain\arm-none-eabi\include\c++\10.2.1\bits\stl_vector.h ****       : _M_impl()
 300:c:\program files\daisytoolchain\arm-none-eabi\include\c++\10.2.1\bits\stl_vector.h ****       { _M_create_storage(__n); }
 301:c:\program files\daisytoolchain\arm-none-eabi\include\c++\10.2.1\bits\stl_vector.h **** #endif
 302:c:\program files\daisytoolchain\arm-none-eabi\include\c++\10.2.1\bits\stl_vector.h **** 
 303:c:\program files\daisytoolchain\arm-none-eabi\include\c++\10.2.1\bits\stl_vector.h ****       _Vector_base(size_t __n, const allocator_type& __a)
 304:c:\program files\daisytoolchain\arm-none-eabi\include\c++\10.2.1\bits\stl_vector.h ****       : _M_impl(__a)
 305:c:\program files\daisytoolchain\arm-none-eabi\include\c++\10.2.1\bits\stl_vector.h ****       { _M_create_storage(__n); }
 306:c:\program files\daisytoolchain\arm-none-eabi\include\c++\10.2.1\bits\stl_vector.h **** 
 307:c:\program files\daisytoolchain\arm-none-eabi\include\c++\10.2.1\bits\stl_vector.h **** #if __cplusplus >= 201103L
 308:c:\program files\daisytoolchain\arm-none-eabi\include\c++\10.2.1\bits\stl_vector.h ****       _Vector_base(_Vector_base&&) = default;
 309:c:\program files\daisytoolchain\arm-none-eabi\include\c++\10.2.1\bits\stl_vector.h **** 
 310:c:\program files\daisytoolchain\arm-none-eabi\include\c++\10.2.1\bits\stl_vector.h ****       // Kept for ABI compatibility.
 311:c:\program files\daisytoolchain\arm-none-eabi\include\c++\10.2.1\bits\stl_vector.h **** # if !_GLIBCXX_INLINE_VERSION
 312:c:\program files\daisytoolchain\arm-none-eabi\include\c++\10.2.1\bits\stl_vector.h ****       _Vector_base(_Tp_alloc_type&& __a) noexcept
 313:c:\program files\daisytoolchain\arm-none-eabi\include\c++\10.2.1\bits\stl_vector.h ****       : _M_impl(std::move(__a)) { }
 314:c:\program files\daisytoolchain\arm-none-eabi\include\c++\10.2.1\bits\stl_vector.h **** 
 315:c:\program files\daisytoolchain\arm-none-eabi\include\c++\10.2.1\bits\stl_vector.h ****       _Vector_base(_Vector_base&& __x, const allocator_type& __a)
 316:c:\program files\daisytoolchain\arm-none-eabi\include\c++\10.2.1\bits\stl_vector.h ****       : _M_impl(__a)
 317:c:\program files\daisytoolchain\arm-none-eabi\include\c++\10.2.1\bits\stl_vector.h ****       {
 318:c:\program files\daisytoolchain\arm-none-eabi\include\c++\10.2.1\bits\stl_vector.h **** 	if (__x.get_allocator() == __a)
 319:c:\program files\daisytoolchain\arm-none-eabi\include\c++\10.2.1\bits\stl_vector.h **** 	  this->_M_impl._M_swap_data(__x._M_impl);
 320:c:\program files\daisytoolchain\arm-none-eabi\include\c++\10.2.1\bits\stl_vector.h **** 	else
 321:c:\program files\daisytoolchain\arm-none-eabi\include\c++\10.2.1\bits\stl_vector.h **** 	  {
 322:c:\program files\daisytoolchain\arm-none-eabi\include\c++\10.2.1\bits\stl_vector.h **** 	    size_t __n = __x._M_impl._M_finish - __x._M_impl._M_start;
 323:c:\program files\daisytoolchain\arm-none-eabi\include\c++\10.2.1\bits\stl_vector.h **** 	    _M_create_storage(__n);
 324:c:\program files\daisytoolchain\arm-none-eabi\include\c++\10.2.1\bits\stl_vector.h **** 	  }
 325:c:\program files\daisytoolchain\arm-none-eabi\include\c++\10.2.1\bits\stl_vector.h ****       }
 326:c:\program files\daisytoolchain\arm-none-eabi\include\c++\10.2.1\bits\stl_vector.h **** # endif
 327:c:\program files\daisytoolchain\arm-none-eabi\include\c++\10.2.1\bits\stl_vector.h **** 
 328:c:\program files\daisytoolchain\arm-none-eabi\include\c++\10.2.1\bits\stl_vector.h ****       _Vector_base(const allocator_type& __a, _Vector_base&& __x)
 329:c:\program files\daisytoolchain\arm-none-eabi\include\c++\10.2.1\bits\stl_vector.h ****       : _M_impl(_Tp_alloc_type(__a), std::move(__x._M_impl))
 330:c:\program files\daisytoolchain\arm-none-eabi\include\c++\10.2.1\bits\stl_vector.h ****       { }
 331:c:\program files\daisytoolchain\arm-none-eabi\include\c++\10.2.1\bits\stl_vector.h **** #endif
 332:c:\program files\daisytoolchain\arm-none-eabi\include\c++\10.2.1\bits\stl_vector.h **** 
 333:c:\program files\daisytoolchain\arm-none-eabi\include\c++\10.2.1\bits\stl_vector.h ****       ~_Vector_base() _GLIBCXX_NOEXCEPT
 334:c:\program files\daisytoolchain\arm-none-eabi\include\c++\10.2.1\bits\stl_vector.h ****       {
 335:c:\program files\daisytoolchain\arm-none-eabi\include\c++\10.2.1\bits\stl_vector.h **** 	_M_deallocate(_M_impl._M_start,
 336:c:\program files\daisytoolchain\arm-none-eabi\include\c++\10.2.1\bits\stl_vector.h **** 		      _M_impl._M_end_of_storage - _M_impl._M_start);
 337:c:\program files\daisytoolchain\arm-none-eabi\include\c++\10.2.1\bits\stl_vector.h ****       }
 338:c:\program files\daisytoolchain\arm-none-eabi\include\c++\10.2.1\bits\stl_vector.h **** 
 339:c:\program files\daisytoolchain\arm-none-eabi\include\c++\10.2.1\bits\stl_vector.h ****     public:
 340:c:\program files\daisytoolchain\arm-none-eabi\include\c++\10.2.1\bits\stl_vector.h ****       _Vector_impl _M_impl;
ARM GAS  C:\Users\samue\AppData\Local\Temp\cci865ja.s 			page 52


 341:c:\program files\daisytoolchain\arm-none-eabi\include\c++\10.2.1\bits\stl_vector.h **** 
 342:c:\program files\daisytoolchain\arm-none-eabi\include\c++\10.2.1\bits\stl_vector.h ****       pointer
 343:c:\program files\daisytoolchain\arm-none-eabi\include\c++\10.2.1\bits\stl_vector.h ****       _M_allocate(size_t __n)
 344:c:\program files\daisytoolchain\arm-none-eabi\include\c++\10.2.1\bits\stl_vector.h ****       {
 345:c:\program files\daisytoolchain\arm-none-eabi\include\c++\10.2.1\bits\stl_vector.h **** 	typedef __gnu_cxx::__alloc_traits<_Tp_alloc_type> _Tr;
 346:c:\program files\daisytoolchain\arm-none-eabi\include\c++\10.2.1\bits\stl_vector.h **** 	return __n != 0 ? _Tr::allocate(_M_impl, __n) : pointer();
 347:c:\program files\daisytoolchain\arm-none-eabi\include\c++\10.2.1\bits\stl_vector.h ****       }
 348:c:\program files\daisytoolchain\arm-none-eabi\include\c++\10.2.1\bits\stl_vector.h **** 
 349:c:\program files\daisytoolchain\arm-none-eabi\include\c++\10.2.1\bits\stl_vector.h ****       void
 350:c:\program files\daisytoolchain\arm-none-eabi\include\c++\10.2.1\bits\stl_vector.h ****       _M_deallocate(pointer __p, size_t __n)
 351:c:\program files\daisytoolchain\arm-none-eabi\include\c++\10.2.1\bits\stl_vector.h ****       {
 352:c:\program files\daisytoolchain\arm-none-eabi\include\c++\10.2.1\bits\stl_vector.h **** 	typedef __gnu_cxx::__alloc_traits<_Tp_alloc_type> _Tr;
 353:c:\program files\daisytoolchain\arm-none-eabi\include\c++\10.2.1\bits\stl_vector.h **** 	if (__p)
 354:c:\program files\daisytoolchain\arm-none-eabi\include\c++\10.2.1\bits\stl_vector.h **** 	  _Tr::deallocate(_M_impl, __p, __n);
 355:c:\program files\daisytoolchain\arm-none-eabi\include\c++\10.2.1\bits\stl_vector.h ****       }
 356:c:\program files\daisytoolchain\arm-none-eabi\include\c++\10.2.1\bits\stl_vector.h **** 
 357:c:\program files\daisytoolchain\arm-none-eabi\include\c++\10.2.1\bits\stl_vector.h ****     protected:
 358:c:\program files\daisytoolchain\arm-none-eabi\include\c++\10.2.1\bits\stl_vector.h ****       void
 359:c:\program files\daisytoolchain\arm-none-eabi\include\c++\10.2.1\bits\stl_vector.h ****       _M_create_storage(size_t __n)
 360:c:\program files\daisytoolchain\arm-none-eabi\include\c++\10.2.1\bits\stl_vector.h ****       {
 361:c:\program files\daisytoolchain\arm-none-eabi\include\c++\10.2.1\bits\stl_vector.h **** 	this->_M_impl._M_start = this->_M_allocate(__n);
 362:c:\program files\daisytoolchain\arm-none-eabi\include\c++\10.2.1\bits\stl_vector.h **** 	this->_M_impl._M_finish = this->_M_impl._M_start;
 363:c:\program files\daisytoolchain\arm-none-eabi\include\c++\10.2.1\bits\stl_vector.h **** 	this->_M_impl._M_end_of_storage = this->_M_impl._M_start + __n;
 364:c:\program files\daisytoolchain\arm-none-eabi\include\c++\10.2.1\bits\stl_vector.h ****       }
 365:c:\program files\daisytoolchain\arm-none-eabi\include\c++\10.2.1\bits\stl_vector.h ****     };
 366:c:\program files\daisytoolchain\arm-none-eabi\include\c++\10.2.1\bits\stl_vector.h **** 
 367:c:\program files\daisytoolchain\arm-none-eabi\include\c++\10.2.1\bits\stl_vector.h ****   /**
 368:c:\program files\daisytoolchain\arm-none-eabi\include\c++\10.2.1\bits\stl_vector.h ****    *  @brief A standard container which offers fixed time access to
 369:c:\program files\daisytoolchain\arm-none-eabi\include\c++\10.2.1\bits\stl_vector.h ****    *  individual elements in any order.
 370:c:\program files\daisytoolchain\arm-none-eabi\include\c++\10.2.1\bits\stl_vector.h ****    *
 371:c:\program files\daisytoolchain\arm-none-eabi\include\c++\10.2.1\bits\stl_vector.h ****    *  @ingroup sequences
 372:c:\program files\daisytoolchain\arm-none-eabi\include\c++\10.2.1\bits\stl_vector.h ****    *
 373:c:\program files\daisytoolchain\arm-none-eabi\include\c++\10.2.1\bits\stl_vector.h ****    *  @tparam _Tp  Type of element.
 374:c:\program files\daisytoolchain\arm-none-eabi\include\c++\10.2.1\bits\stl_vector.h ****    *  @tparam _Alloc  Allocator type, defaults to allocator<_Tp>.
 375:c:\program files\daisytoolchain\arm-none-eabi\include\c++\10.2.1\bits\stl_vector.h ****    *
 376:c:\program files\daisytoolchain\arm-none-eabi\include\c++\10.2.1\bits\stl_vector.h ****    *  Meets the requirements of a <a href="tables.html#65">container</a>, a
 377:c:\program files\daisytoolchain\arm-none-eabi\include\c++\10.2.1\bits\stl_vector.h ****    *  <a href="tables.html#66">reversible container</a>, and a
 378:c:\program files\daisytoolchain\arm-none-eabi\include\c++\10.2.1\bits\stl_vector.h ****    *  <a href="tables.html#67">sequence</a>, including the
 379:c:\program files\daisytoolchain\arm-none-eabi\include\c++\10.2.1\bits\stl_vector.h ****    *  <a href="tables.html#68">optional sequence requirements</a> with the
 380:c:\program files\daisytoolchain\arm-none-eabi\include\c++\10.2.1\bits\stl_vector.h ****    *  %exception of @c push_front and @c pop_front.
 381:c:\program files\daisytoolchain\arm-none-eabi\include\c++\10.2.1\bits\stl_vector.h ****    *
 382:c:\program files\daisytoolchain\arm-none-eabi\include\c++\10.2.1\bits\stl_vector.h ****    *  In some terminology a %vector can be described as a dynamic
 383:c:\program files\daisytoolchain\arm-none-eabi\include\c++\10.2.1\bits\stl_vector.h ****    *  C-style array, it offers fast and efficient access to individual
 384:c:\program files\daisytoolchain\arm-none-eabi\include\c++\10.2.1\bits\stl_vector.h ****    *  elements in any order and saves the user from worrying about
 385:c:\program files\daisytoolchain\arm-none-eabi\include\c++\10.2.1\bits\stl_vector.h ****    *  memory and size allocation.  Subscripting ( @c [] ) access is
 386:c:\program files\daisytoolchain\arm-none-eabi\include\c++\10.2.1\bits\stl_vector.h ****    *  also provided as with C-style arrays.
 387:c:\program files\daisytoolchain\arm-none-eabi\include\c++\10.2.1\bits\stl_vector.h ****   */
 388:c:\program files\daisytoolchain\arm-none-eabi\include\c++\10.2.1\bits\stl_vector.h ****   template<typename _Tp, typename _Alloc = std::allocator<_Tp> >
 389:c:\program files\daisytoolchain\arm-none-eabi\include\c++\10.2.1\bits\stl_vector.h ****     class vector : protected _Vector_base<_Tp, _Alloc>
 390:c:\program files\daisytoolchain\arm-none-eabi\include\c++\10.2.1\bits\stl_vector.h ****     {
 391:c:\program files\daisytoolchain\arm-none-eabi\include\c++\10.2.1\bits\stl_vector.h **** #ifdef _GLIBCXX_CONCEPT_CHECKS
 392:c:\program files\daisytoolchain\arm-none-eabi\include\c++\10.2.1\bits\stl_vector.h ****       // Concept requirements.
 393:c:\program files\daisytoolchain\arm-none-eabi\include\c++\10.2.1\bits\stl_vector.h ****       typedef typename _Alloc::value_type		_Alloc_value_type;
 394:c:\program files\daisytoolchain\arm-none-eabi\include\c++\10.2.1\bits\stl_vector.h **** # if __cplusplus < 201103L
 395:c:\program files\daisytoolchain\arm-none-eabi\include\c++\10.2.1\bits\stl_vector.h ****       __glibcxx_class_requires(_Tp, _SGIAssignableConcept)
 396:c:\program files\daisytoolchain\arm-none-eabi\include\c++\10.2.1\bits\stl_vector.h **** # endif
 397:c:\program files\daisytoolchain\arm-none-eabi\include\c++\10.2.1\bits\stl_vector.h ****       __glibcxx_class_requires2(_Tp, _Alloc_value_type, _SameTypeConcept)
ARM GAS  C:\Users\samue\AppData\Local\Temp\cci865ja.s 			page 53


 398:c:\program files\daisytoolchain\arm-none-eabi\include\c++\10.2.1\bits\stl_vector.h **** #endif
 399:c:\program files\daisytoolchain\arm-none-eabi\include\c++\10.2.1\bits\stl_vector.h **** 
 400:c:\program files\daisytoolchain\arm-none-eabi\include\c++\10.2.1\bits\stl_vector.h **** #if __cplusplus >= 201103L
 401:c:\program files\daisytoolchain\arm-none-eabi\include\c++\10.2.1\bits\stl_vector.h ****       static_assert(is_same<typename remove_cv<_Tp>::type, _Tp>::value,
 402:c:\program files\daisytoolchain\arm-none-eabi\include\c++\10.2.1\bits\stl_vector.h **** 	  "std::vector must have a non-const, non-volatile value_type");
 403:c:\program files\daisytoolchain\arm-none-eabi\include\c++\10.2.1\bits\stl_vector.h **** # if __cplusplus > 201703L || defined __STRICT_ANSI__
 404:c:\program files\daisytoolchain\arm-none-eabi\include\c++\10.2.1\bits\stl_vector.h ****       static_assert(is_same<typename _Alloc::value_type, _Tp>::value,
 405:c:\program files\daisytoolchain\arm-none-eabi\include\c++\10.2.1\bits\stl_vector.h **** 	  "std::vector must have the same value_type as its allocator");
 406:c:\program files\daisytoolchain\arm-none-eabi\include\c++\10.2.1\bits\stl_vector.h **** # endif
 407:c:\program files\daisytoolchain\arm-none-eabi\include\c++\10.2.1\bits\stl_vector.h **** #endif
 408:c:\program files\daisytoolchain\arm-none-eabi\include\c++\10.2.1\bits\stl_vector.h **** 
 409:c:\program files\daisytoolchain\arm-none-eabi\include\c++\10.2.1\bits\stl_vector.h ****       typedef _Vector_base<_Tp, _Alloc>			_Base;
 410:c:\program files\daisytoolchain\arm-none-eabi\include\c++\10.2.1\bits\stl_vector.h ****       typedef typename _Base::_Tp_alloc_type		_Tp_alloc_type;
 411:c:\program files\daisytoolchain\arm-none-eabi\include\c++\10.2.1\bits\stl_vector.h ****       typedef __gnu_cxx::__alloc_traits<_Tp_alloc_type>	_Alloc_traits;
 412:c:\program files\daisytoolchain\arm-none-eabi\include\c++\10.2.1\bits\stl_vector.h **** 
 413:c:\program files\daisytoolchain\arm-none-eabi\include\c++\10.2.1\bits\stl_vector.h ****     public:
 414:c:\program files\daisytoolchain\arm-none-eabi\include\c++\10.2.1\bits\stl_vector.h ****       typedef _Tp					value_type;
 415:c:\program files\daisytoolchain\arm-none-eabi\include\c++\10.2.1\bits\stl_vector.h ****       typedef typename _Base::pointer			pointer;
 416:c:\program files\daisytoolchain\arm-none-eabi\include\c++\10.2.1\bits\stl_vector.h ****       typedef typename _Alloc_traits::const_pointer	const_pointer;
 417:c:\program files\daisytoolchain\arm-none-eabi\include\c++\10.2.1\bits\stl_vector.h ****       typedef typename _Alloc_traits::reference		reference;
 418:c:\program files\daisytoolchain\arm-none-eabi\include\c++\10.2.1\bits\stl_vector.h ****       typedef typename _Alloc_traits::const_reference	const_reference;
 419:c:\program files\daisytoolchain\arm-none-eabi\include\c++\10.2.1\bits\stl_vector.h ****       typedef __gnu_cxx::__normal_iterator<pointer, vector> iterator;
 420:c:\program files\daisytoolchain\arm-none-eabi\include\c++\10.2.1\bits\stl_vector.h ****       typedef __gnu_cxx::__normal_iterator<const_pointer, vector>
 421:c:\program files\daisytoolchain\arm-none-eabi\include\c++\10.2.1\bits\stl_vector.h ****       const_iterator;
 422:c:\program files\daisytoolchain\arm-none-eabi\include\c++\10.2.1\bits\stl_vector.h ****       typedef std::reverse_iterator<const_iterator>	const_reverse_iterator;
 423:c:\program files\daisytoolchain\arm-none-eabi\include\c++\10.2.1\bits\stl_vector.h ****       typedef std::reverse_iterator<iterator>		reverse_iterator;
 424:c:\program files\daisytoolchain\arm-none-eabi\include\c++\10.2.1\bits\stl_vector.h ****       typedef size_t					size_type;
 425:c:\program files\daisytoolchain\arm-none-eabi\include\c++\10.2.1\bits\stl_vector.h ****       typedef ptrdiff_t					difference_type;
 426:c:\program files\daisytoolchain\arm-none-eabi\include\c++\10.2.1\bits\stl_vector.h ****       typedef _Alloc					allocator_type;
 427:c:\program files\daisytoolchain\arm-none-eabi\include\c++\10.2.1\bits\stl_vector.h **** 
 428:c:\program files\daisytoolchain\arm-none-eabi\include\c++\10.2.1\bits\stl_vector.h ****     private:
 429:c:\program files\daisytoolchain\arm-none-eabi\include\c++\10.2.1\bits\stl_vector.h **** #if __cplusplus >= 201103L
 430:c:\program files\daisytoolchain\arm-none-eabi\include\c++\10.2.1\bits\stl_vector.h ****       static constexpr bool
 431:c:\program files\daisytoolchain\arm-none-eabi\include\c++\10.2.1\bits\stl_vector.h ****       _S_nothrow_relocate(true_type)
 432:c:\program files\daisytoolchain\arm-none-eabi\include\c++\10.2.1\bits\stl_vector.h ****       {
 433:c:\program files\daisytoolchain\arm-none-eabi\include\c++\10.2.1\bits\stl_vector.h **** 	return noexcept(std::__relocate_a(std::declval<pointer>(),
 434:c:\program files\daisytoolchain\arm-none-eabi\include\c++\10.2.1\bits\stl_vector.h **** 					  std::declval<pointer>(),
 435:c:\program files\daisytoolchain\arm-none-eabi\include\c++\10.2.1\bits\stl_vector.h **** 					  std::declval<pointer>(),
 436:c:\program files\daisytoolchain\arm-none-eabi\include\c++\10.2.1\bits\stl_vector.h **** 					  std::declval<_Tp_alloc_type&>()));
 437:c:\program files\daisytoolchain\arm-none-eabi\include\c++\10.2.1\bits\stl_vector.h ****       }
 438:c:\program files\daisytoolchain\arm-none-eabi\include\c++\10.2.1\bits\stl_vector.h **** 
 439:c:\program files\daisytoolchain\arm-none-eabi\include\c++\10.2.1\bits\stl_vector.h ****       static constexpr bool
 440:c:\program files\daisytoolchain\arm-none-eabi\include\c++\10.2.1\bits\stl_vector.h ****       _S_nothrow_relocate(false_type)
 441:c:\program files\daisytoolchain\arm-none-eabi\include\c++\10.2.1\bits\stl_vector.h ****       { return false; }
 442:c:\program files\daisytoolchain\arm-none-eabi\include\c++\10.2.1\bits\stl_vector.h **** 
 443:c:\program files\daisytoolchain\arm-none-eabi\include\c++\10.2.1\bits\stl_vector.h ****       static constexpr bool
 444:c:\program files\daisytoolchain\arm-none-eabi\include\c++\10.2.1\bits\stl_vector.h ****       _S_use_relocate()
 445:c:\program files\daisytoolchain\arm-none-eabi\include\c++\10.2.1\bits\stl_vector.h ****       {
 446:c:\program files\daisytoolchain\arm-none-eabi\include\c++\10.2.1\bits\stl_vector.h **** 	// Instantiating std::__relocate_a might cause an error outside the
 447:c:\program files\daisytoolchain\arm-none-eabi\include\c++\10.2.1\bits\stl_vector.h **** 	// immediate context (in __relocate_object_a's noexcept-specifier),
 448:c:\program files\daisytoolchain\arm-none-eabi\include\c++\10.2.1\bits\stl_vector.h **** 	// so only do it if we know the type can be move-inserted into *this.
 449:c:\program files\daisytoolchain\arm-none-eabi\include\c++\10.2.1\bits\stl_vector.h **** 	return _S_nothrow_relocate(__is_move_insertable<_Tp_alloc_type>{});
 450:c:\program files\daisytoolchain\arm-none-eabi\include\c++\10.2.1\bits\stl_vector.h ****       }
 451:c:\program files\daisytoolchain\arm-none-eabi\include\c++\10.2.1\bits\stl_vector.h **** 
 452:c:\program files\daisytoolchain\arm-none-eabi\include\c++\10.2.1\bits\stl_vector.h ****       static pointer
 453:c:\program files\daisytoolchain\arm-none-eabi\include\c++\10.2.1\bits\stl_vector.h ****       _S_do_relocate(pointer __first, pointer __last, pointer __result,
 454:c:\program files\daisytoolchain\arm-none-eabi\include\c++\10.2.1\bits\stl_vector.h **** 		     _Tp_alloc_type& __alloc, true_type) noexcept
ARM GAS  C:\Users\samue\AppData\Local\Temp\cci865ja.s 			page 54


 455:c:\program files\daisytoolchain\arm-none-eabi\include\c++\10.2.1\bits\stl_vector.h ****       {
 456:c:\program files\daisytoolchain\arm-none-eabi\include\c++\10.2.1\bits\stl_vector.h **** 	return std::__relocate_a(__first, __last, __result, __alloc);
 457:c:\program files\daisytoolchain\arm-none-eabi\include\c++\10.2.1\bits\stl_vector.h ****       }
 458:c:\program files\daisytoolchain\arm-none-eabi\include\c++\10.2.1\bits\stl_vector.h **** 
 459:c:\program files\daisytoolchain\arm-none-eabi\include\c++\10.2.1\bits\stl_vector.h ****       static pointer
 460:c:\program files\daisytoolchain\arm-none-eabi\include\c++\10.2.1\bits\stl_vector.h ****       _S_do_relocate(pointer, pointer, pointer __result,
 461:c:\program files\daisytoolchain\arm-none-eabi\include\c++\10.2.1\bits\stl_vector.h **** 		     _Tp_alloc_type&, false_type) noexcept
 462:c:\program files\daisytoolchain\arm-none-eabi\include\c++\10.2.1\bits\stl_vector.h ****       { return __result; }
 463:c:\program files\daisytoolchain\arm-none-eabi\include\c++\10.2.1\bits\stl_vector.h **** 
 464:c:\program files\daisytoolchain\arm-none-eabi\include\c++\10.2.1\bits\stl_vector.h ****       static pointer
 465:c:\program files\daisytoolchain\arm-none-eabi\include\c++\10.2.1\bits\stl_vector.h ****       _S_relocate(pointer __first, pointer __last, pointer __result,
 466:c:\program files\daisytoolchain\arm-none-eabi\include\c++\10.2.1\bits\stl_vector.h **** 		  _Tp_alloc_type& __alloc) noexcept
 467:c:\program files\daisytoolchain\arm-none-eabi\include\c++\10.2.1\bits\stl_vector.h ****       {
 468:c:\program files\daisytoolchain\arm-none-eabi\include\c++\10.2.1\bits\stl_vector.h **** 	using __do_it = __bool_constant<_S_use_relocate()>;
 469:c:\program files\daisytoolchain\arm-none-eabi\include\c++\10.2.1\bits\stl_vector.h **** 	return _S_do_relocate(__first, __last, __result, __alloc, __do_it{});
 470:c:\program files\daisytoolchain\arm-none-eabi\include\c++\10.2.1\bits\stl_vector.h ****       }
 471:c:\program files\daisytoolchain\arm-none-eabi\include\c++\10.2.1\bits\stl_vector.h **** #endif // C++11
 472:c:\program files\daisytoolchain\arm-none-eabi\include\c++\10.2.1\bits\stl_vector.h **** 
 473:c:\program files\daisytoolchain\arm-none-eabi\include\c++\10.2.1\bits\stl_vector.h ****     protected:
 474:c:\program files\daisytoolchain\arm-none-eabi\include\c++\10.2.1\bits\stl_vector.h ****       using _Base::_M_allocate;
 475:c:\program files\daisytoolchain\arm-none-eabi\include\c++\10.2.1\bits\stl_vector.h ****       using _Base::_M_deallocate;
 476:c:\program files\daisytoolchain\arm-none-eabi\include\c++\10.2.1\bits\stl_vector.h ****       using _Base::_M_impl;
 477:c:\program files\daisytoolchain\arm-none-eabi\include\c++\10.2.1\bits\stl_vector.h ****       using _Base::_M_get_Tp_allocator;
 478:c:\program files\daisytoolchain\arm-none-eabi\include\c++\10.2.1\bits\stl_vector.h **** 
 479:c:\program files\daisytoolchain\arm-none-eabi\include\c++\10.2.1\bits\stl_vector.h ****     public:
 480:c:\program files\daisytoolchain\arm-none-eabi\include\c++\10.2.1\bits\stl_vector.h ****       // [23.2.4.1] construct/copy/destroy
 481:c:\program files\daisytoolchain\arm-none-eabi\include\c++\10.2.1\bits\stl_vector.h ****       // (assign() and get_allocator() are also listed in this section)
 482:c:\program files\daisytoolchain\arm-none-eabi\include\c++\10.2.1\bits\stl_vector.h **** 
 483:c:\program files\daisytoolchain\arm-none-eabi\include\c++\10.2.1\bits\stl_vector.h ****       /**
 484:c:\program files\daisytoolchain\arm-none-eabi\include\c++\10.2.1\bits\stl_vector.h ****        *  @brief  Creates a %vector with no elements.
 485:c:\program files\daisytoolchain\arm-none-eabi\include\c++\10.2.1\bits\stl_vector.h ****        */
 486:c:\program files\daisytoolchain\arm-none-eabi\include\c++\10.2.1\bits\stl_vector.h **** #if __cplusplus >= 201103L
 487:c:\program files\daisytoolchain\arm-none-eabi\include\c++\10.2.1\bits\stl_vector.h ****       vector() = default;
 488:c:\program files\daisytoolchain\arm-none-eabi\include\c++\10.2.1\bits\stl_vector.h **** #else
 489:c:\program files\daisytoolchain\arm-none-eabi\include\c++\10.2.1\bits\stl_vector.h ****       vector() { }
 490:c:\program files\daisytoolchain\arm-none-eabi\include\c++\10.2.1\bits\stl_vector.h **** #endif
 491:c:\program files\daisytoolchain\arm-none-eabi\include\c++\10.2.1\bits\stl_vector.h **** 
 492:c:\program files\daisytoolchain\arm-none-eabi\include\c++\10.2.1\bits\stl_vector.h ****       /**
 493:c:\program files\daisytoolchain\arm-none-eabi\include\c++\10.2.1\bits\stl_vector.h ****        *  @brief  Creates a %vector with no elements.
 494:c:\program files\daisytoolchain\arm-none-eabi\include\c++\10.2.1\bits\stl_vector.h ****        *  @param  __a  An allocator object.
 495:c:\program files\daisytoolchain\arm-none-eabi\include\c++\10.2.1\bits\stl_vector.h ****        */
 496:c:\program files\daisytoolchain\arm-none-eabi\include\c++\10.2.1\bits\stl_vector.h ****       explicit
 497:c:\program files\daisytoolchain\arm-none-eabi\include\c++\10.2.1\bits\stl_vector.h ****       vector(const allocator_type& __a) _GLIBCXX_NOEXCEPT
 498:c:\program files\daisytoolchain\arm-none-eabi\include\c++\10.2.1\bits\stl_vector.h ****       : _Base(__a) { }
 499:c:\program files\daisytoolchain\arm-none-eabi\include\c++\10.2.1\bits\stl_vector.h **** 
 500:c:\program files\daisytoolchain\arm-none-eabi\include\c++\10.2.1\bits\stl_vector.h **** #if __cplusplus >= 201103L
 501:c:\program files\daisytoolchain\arm-none-eabi\include\c++\10.2.1\bits\stl_vector.h ****       /**
 502:c:\program files\daisytoolchain\arm-none-eabi\include\c++\10.2.1\bits\stl_vector.h ****        *  @brief  Creates a %vector with default constructed elements.
 503:c:\program files\daisytoolchain\arm-none-eabi\include\c++\10.2.1\bits\stl_vector.h ****        *  @param  __n  The number of elements to initially create.
 504:c:\program files\daisytoolchain\arm-none-eabi\include\c++\10.2.1\bits\stl_vector.h ****        *  @param  __a  An allocator.
 505:c:\program files\daisytoolchain\arm-none-eabi\include\c++\10.2.1\bits\stl_vector.h ****        *
 506:c:\program files\daisytoolchain\arm-none-eabi\include\c++\10.2.1\bits\stl_vector.h ****        *  This constructor fills the %vector with @a __n default
 507:c:\program files\daisytoolchain\arm-none-eabi\include\c++\10.2.1\bits\stl_vector.h ****        *  constructed elements.
 508:c:\program files\daisytoolchain\arm-none-eabi\include\c++\10.2.1\bits\stl_vector.h ****        */
 509:c:\program files\daisytoolchain\arm-none-eabi\include\c++\10.2.1\bits\stl_vector.h ****       explicit
 510:c:\program files\daisytoolchain\arm-none-eabi\include\c++\10.2.1\bits\stl_vector.h ****       vector(size_type __n, const allocator_type& __a = allocator_type())
 511:c:\program files\daisytoolchain\arm-none-eabi\include\c++\10.2.1\bits\stl_vector.h ****       : _Base(_S_check_init_len(__n, __a), __a)
ARM GAS  C:\Users\samue\AppData\Local\Temp\cci865ja.s 			page 55


 512:c:\program files\daisytoolchain\arm-none-eabi\include\c++\10.2.1\bits\stl_vector.h ****       { _M_default_initialize(__n); }
 513:c:\program files\daisytoolchain\arm-none-eabi\include\c++\10.2.1\bits\stl_vector.h **** 
 514:c:\program files\daisytoolchain\arm-none-eabi\include\c++\10.2.1\bits\stl_vector.h ****       /**
 515:c:\program files\daisytoolchain\arm-none-eabi\include\c++\10.2.1\bits\stl_vector.h ****        *  @brief  Creates a %vector with copies of an exemplar element.
 516:c:\program files\daisytoolchain\arm-none-eabi\include\c++\10.2.1\bits\stl_vector.h ****        *  @param  __n  The number of elements to initially create.
 517:c:\program files\daisytoolchain\arm-none-eabi\include\c++\10.2.1\bits\stl_vector.h ****        *  @param  __value  An element to copy.
 518:c:\program files\daisytoolchain\arm-none-eabi\include\c++\10.2.1\bits\stl_vector.h ****        *  @param  __a  An allocator.
 519:c:\program files\daisytoolchain\arm-none-eabi\include\c++\10.2.1\bits\stl_vector.h ****        *
 520:c:\program files\daisytoolchain\arm-none-eabi\include\c++\10.2.1\bits\stl_vector.h ****        *  This constructor fills the %vector with @a __n copies of @a __value.
 521:c:\program files\daisytoolchain\arm-none-eabi\include\c++\10.2.1\bits\stl_vector.h ****        */
 522:c:\program files\daisytoolchain\arm-none-eabi\include\c++\10.2.1\bits\stl_vector.h ****       vector(size_type __n, const value_type& __value,
 523:c:\program files\daisytoolchain\arm-none-eabi\include\c++\10.2.1\bits\stl_vector.h **** 	     const allocator_type& __a = allocator_type())
 524:c:\program files\daisytoolchain\arm-none-eabi\include\c++\10.2.1\bits\stl_vector.h ****       : _Base(_S_check_init_len(__n, __a), __a)
 525:c:\program files\daisytoolchain\arm-none-eabi\include\c++\10.2.1\bits\stl_vector.h ****       { _M_fill_initialize(__n, __value); }
 526:c:\program files\daisytoolchain\arm-none-eabi\include\c++\10.2.1\bits\stl_vector.h **** #else
 527:c:\program files\daisytoolchain\arm-none-eabi\include\c++\10.2.1\bits\stl_vector.h ****       /**
 528:c:\program files\daisytoolchain\arm-none-eabi\include\c++\10.2.1\bits\stl_vector.h ****        *  @brief  Creates a %vector with copies of an exemplar element.
 529:c:\program files\daisytoolchain\arm-none-eabi\include\c++\10.2.1\bits\stl_vector.h ****        *  @param  __n  The number of elements to initially create.
 530:c:\program files\daisytoolchain\arm-none-eabi\include\c++\10.2.1\bits\stl_vector.h ****        *  @param  __value  An element to copy.
 531:c:\program files\daisytoolchain\arm-none-eabi\include\c++\10.2.1\bits\stl_vector.h ****        *  @param  __a  An allocator.
 532:c:\program files\daisytoolchain\arm-none-eabi\include\c++\10.2.1\bits\stl_vector.h ****        *
 533:c:\program files\daisytoolchain\arm-none-eabi\include\c++\10.2.1\bits\stl_vector.h ****        *  This constructor fills the %vector with @a __n copies of @a __value.
 534:c:\program files\daisytoolchain\arm-none-eabi\include\c++\10.2.1\bits\stl_vector.h ****        */
 535:c:\program files\daisytoolchain\arm-none-eabi\include\c++\10.2.1\bits\stl_vector.h ****       explicit
 536:c:\program files\daisytoolchain\arm-none-eabi\include\c++\10.2.1\bits\stl_vector.h ****       vector(size_type __n, const value_type& __value = value_type(),
 537:c:\program files\daisytoolchain\arm-none-eabi\include\c++\10.2.1\bits\stl_vector.h **** 	     const allocator_type& __a = allocator_type())
 538:c:\program files\daisytoolchain\arm-none-eabi\include\c++\10.2.1\bits\stl_vector.h ****       : _Base(_S_check_init_len(__n, __a), __a)
 539:c:\program files\daisytoolchain\arm-none-eabi\include\c++\10.2.1\bits\stl_vector.h ****       { _M_fill_initialize(__n, __value); }
 540:c:\program files\daisytoolchain\arm-none-eabi\include\c++\10.2.1\bits\stl_vector.h **** #endif
 541:c:\program files\daisytoolchain\arm-none-eabi\include\c++\10.2.1\bits\stl_vector.h **** 
 542:c:\program files\daisytoolchain\arm-none-eabi\include\c++\10.2.1\bits\stl_vector.h ****       /**
 543:c:\program files\daisytoolchain\arm-none-eabi\include\c++\10.2.1\bits\stl_vector.h ****        *  @brief  %Vector copy constructor.
 544:c:\program files\daisytoolchain\arm-none-eabi\include\c++\10.2.1\bits\stl_vector.h ****        *  @param  __x  A %vector of identical element and allocator types.
 545:c:\program files\daisytoolchain\arm-none-eabi\include\c++\10.2.1\bits\stl_vector.h ****        *
 546:c:\program files\daisytoolchain\arm-none-eabi\include\c++\10.2.1\bits\stl_vector.h ****        *  All the elements of @a __x are copied, but any unused capacity in
 547:c:\program files\daisytoolchain\arm-none-eabi\include\c++\10.2.1\bits\stl_vector.h ****        *  @a __x  will not be copied
 548:c:\program files\daisytoolchain\arm-none-eabi\include\c++\10.2.1\bits\stl_vector.h ****        *  (i.e. capacity() == size() in the new %vector).
 549:c:\program files\daisytoolchain\arm-none-eabi\include\c++\10.2.1\bits\stl_vector.h ****        *
 550:c:\program files\daisytoolchain\arm-none-eabi\include\c++\10.2.1\bits\stl_vector.h ****        *  The newly-created %vector uses a copy of the allocator object used
 551:c:\program files\daisytoolchain\arm-none-eabi\include\c++\10.2.1\bits\stl_vector.h ****        *  by @a __x (unless the allocator traits dictate a different object).
 552:c:\program files\daisytoolchain\arm-none-eabi\include\c++\10.2.1\bits\stl_vector.h ****        */
 553:c:\program files\daisytoolchain\arm-none-eabi\include\c++\10.2.1\bits\stl_vector.h ****       vector(const vector& __x)
 554:c:\program files\daisytoolchain\arm-none-eabi\include\c++\10.2.1\bits\stl_vector.h ****       : _Base(__x.size(),
 555:c:\program files\daisytoolchain\arm-none-eabi\include\c++\10.2.1\bits\stl_vector.h **** 	_Alloc_traits::_S_select_on_copy(__x._M_get_Tp_allocator()))
 556:c:\program files\daisytoolchain\arm-none-eabi\include\c++\10.2.1\bits\stl_vector.h ****       {
 557:c:\program files\daisytoolchain\arm-none-eabi\include\c++\10.2.1\bits\stl_vector.h **** 	this->_M_impl._M_finish =
 558:c:\program files\daisytoolchain\arm-none-eabi\include\c++\10.2.1\bits\stl_vector.h **** 	  std::__uninitialized_copy_a(__x.begin(), __x.end(),
 559:c:\program files\daisytoolchain\arm-none-eabi\include\c++\10.2.1\bits\stl_vector.h **** 				      this->_M_impl._M_start,
 560:c:\program files\daisytoolchain\arm-none-eabi\include\c++\10.2.1\bits\stl_vector.h **** 				      _M_get_Tp_allocator());
 561:c:\program files\daisytoolchain\arm-none-eabi\include\c++\10.2.1\bits\stl_vector.h ****       }
 562:c:\program files\daisytoolchain\arm-none-eabi\include\c++\10.2.1\bits\stl_vector.h **** 
 563:c:\program files\daisytoolchain\arm-none-eabi\include\c++\10.2.1\bits\stl_vector.h **** #if __cplusplus >= 201103L
 564:c:\program files\daisytoolchain\arm-none-eabi\include\c++\10.2.1\bits\stl_vector.h ****       /**
 565:c:\program files\daisytoolchain\arm-none-eabi\include\c++\10.2.1\bits\stl_vector.h ****        *  @brief  %Vector move constructor.
 566:c:\program files\daisytoolchain\arm-none-eabi\include\c++\10.2.1\bits\stl_vector.h ****        *
 567:c:\program files\daisytoolchain\arm-none-eabi\include\c++\10.2.1\bits\stl_vector.h ****        *  The newly-created %vector contains the exact contents of the
 568:c:\program files\daisytoolchain\arm-none-eabi\include\c++\10.2.1\bits\stl_vector.h ****        *  moved instance.
ARM GAS  C:\Users\samue\AppData\Local\Temp\cci865ja.s 			page 56


 569:c:\program files\daisytoolchain\arm-none-eabi\include\c++\10.2.1\bits\stl_vector.h ****        *  The contents of the moved instance are a valid, but unspecified
 570:c:\program files\daisytoolchain\arm-none-eabi\include\c++\10.2.1\bits\stl_vector.h ****        *  %vector.
 571:c:\program files\daisytoolchain\arm-none-eabi\include\c++\10.2.1\bits\stl_vector.h ****        */
 572:c:\program files\daisytoolchain\arm-none-eabi\include\c++\10.2.1\bits\stl_vector.h ****       vector(vector&&) noexcept = default;
 573:c:\program files\daisytoolchain\arm-none-eabi\include\c++\10.2.1\bits\stl_vector.h **** 
 574:c:\program files\daisytoolchain\arm-none-eabi\include\c++\10.2.1\bits\stl_vector.h ****       /// Copy constructor with alternative allocator
 575:c:\program files\daisytoolchain\arm-none-eabi\include\c++\10.2.1\bits\stl_vector.h ****       vector(const vector& __x, const allocator_type& __a)
 576:c:\program files\daisytoolchain\arm-none-eabi\include\c++\10.2.1\bits\stl_vector.h ****       : _Base(__x.size(), __a)
 577:c:\program files\daisytoolchain\arm-none-eabi\include\c++\10.2.1\bits\stl_vector.h ****       {
 578:c:\program files\daisytoolchain\arm-none-eabi\include\c++\10.2.1\bits\stl_vector.h **** 	this->_M_impl._M_finish =
 579:c:\program files\daisytoolchain\arm-none-eabi\include\c++\10.2.1\bits\stl_vector.h **** 	  std::__uninitialized_copy_a(__x.begin(), __x.end(),
 580:c:\program files\daisytoolchain\arm-none-eabi\include\c++\10.2.1\bits\stl_vector.h **** 				      this->_M_impl._M_start,
 581:c:\program files\daisytoolchain\arm-none-eabi\include\c++\10.2.1\bits\stl_vector.h **** 				      _M_get_Tp_allocator());
 582:c:\program files\daisytoolchain\arm-none-eabi\include\c++\10.2.1\bits\stl_vector.h ****       }
 583:c:\program files\daisytoolchain\arm-none-eabi\include\c++\10.2.1\bits\stl_vector.h **** 
 584:c:\program files\daisytoolchain\arm-none-eabi\include\c++\10.2.1\bits\stl_vector.h ****     private:
 585:c:\program files\daisytoolchain\arm-none-eabi\include\c++\10.2.1\bits\stl_vector.h ****       vector(vector&& __rv, const allocator_type& __m, true_type) noexcept
 586:c:\program files\daisytoolchain\arm-none-eabi\include\c++\10.2.1\bits\stl_vector.h ****       : _Base(__m, std::move(__rv))
 587:c:\program files\daisytoolchain\arm-none-eabi\include\c++\10.2.1\bits\stl_vector.h ****       { }
 588:c:\program files\daisytoolchain\arm-none-eabi\include\c++\10.2.1\bits\stl_vector.h **** 
 589:c:\program files\daisytoolchain\arm-none-eabi\include\c++\10.2.1\bits\stl_vector.h ****       vector(vector&& __rv, const allocator_type& __m, false_type)
 590:c:\program files\daisytoolchain\arm-none-eabi\include\c++\10.2.1\bits\stl_vector.h ****       : _Base(__m)
 591:c:\program files\daisytoolchain\arm-none-eabi\include\c++\10.2.1\bits\stl_vector.h ****       {
 592:c:\program files\daisytoolchain\arm-none-eabi\include\c++\10.2.1\bits\stl_vector.h **** 	if (__rv.get_allocator() == __m)
 593:c:\program files\daisytoolchain\arm-none-eabi\include\c++\10.2.1\bits\stl_vector.h **** 	  this->_M_impl._M_swap_data(__rv._M_impl);
 594:c:\program files\daisytoolchain\arm-none-eabi\include\c++\10.2.1\bits\stl_vector.h **** 	else if (!__rv.empty())
 595:c:\program files\daisytoolchain\arm-none-eabi\include\c++\10.2.1\bits\stl_vector.h **** 	  {
 596:c:\program files\daisytoolchain\arm-none-eabi\include\c++\10.2.1\bits\stl_vector.h **** 	    this->_M_create_storage(__rv.size());
 597:c:\program files\daisytoolchain\arm-none-eabi\include\c++\10.2.1\bits\stl_vector.h **** 	    this->_M_impl._M_finish =
 598:c:\program files\daisytoolchain\arm-none-eabi\include\c++\10.2.1\bits\stl_vector.h **** 	      std::__uninitialized_move_a(__rv.begin(), __rv.end(),
 599:c:\program files\daisytoolchain\arm-none-eabi\include\c++\10.2.1\bits\stl_vector.h **** 					  this->_M_impl._M_start,
 600:c:\program files\daisytoolchain\arm-none-eabi\include\c++\10.2.1\bits\stl_vector.h **** 					  _M_get_Tp_allocator());
 601:c:\program files\daisytoolchain\arm-none-eabi\include\c++\10.2.1\bits\stl_vector.h **** 	    __rv.clear();
 602:c:\program files\daisytoolchain\arm-none-eabi\include\c++\10.2.1\bits\stl_vector.h **** 	  }
 603:c:\program files\daisytoolchain\arm-none-eabi\include\c++\10.2.1\bits\stl_vector.h ****       }
 604:c:\program files\daisytoolchain\arm-none-eabi\include\c++\10.2.1\bits\stl_vector.h **** 
 605:c:\program files\daisytoolchain\arm-none-eabi\include\c++\10.2.1\bits\stl_vector.h ****     public:
 606:c:\program files\daisytoolchain\arm-none-eabi\include\c++\10.2.1\bits\stl_vector.h ****       /// Move constructor with alternative allocator
 607:c:\program files\daisytoolchain\arm-none-eabi\include\c++\10.2.1\bits\stl_vector.h ****       vector(vector&& __rv, const allocator_type& __m)
 608:c:\program files\daisytoolchain\arm-none-eabi\include\c++\10.2.1\bits\stl_vector.h ****       noexcept( noexcept(
 609:c:\program files\daisytoolchain\arm-none-eabi\include\c++\10.2.1\bits\stl_vector.h **** 	vector(std::declval<vector&&>(), std::declval<const allocator_type&>(),
 610:c:\program files\daisytoolchain\arm-none-eabi\include\c++\10.2.1\bits\stl_vector.h **** 	       std::declval<typename _Alloc_traits::is_always_equal>())) )
 611:c:\program files\daisytoolchain\arm-none-eabi\include\c++\10.2.1\bits\stl_vector.h ****       : vector(std::move(__rv), __m, typename _Alloc_traits::is_always_equal{})
 612:c:\program files\daisytoolchain\arm-none-eabi\include\c++\10.2.1\bits\stl_vector.h ****       { }
 613:c:\program files\daisytoolchain\arm-none-eabi\include\c++\10.2.1\bits\stl_vector.h **** 
 614:c:\program files\daisytoolchain\arm-none-eabi\include\c++\10.2.1\bits\stl_vector.h ****       /**
 615:c:\program files\daisytoolchain\arm-none-eabi\include\c++\10.2.1\bits\stl_vector.h ****        *  @brief  Builds a %vector from an initializer list.
 616:c:\program files\daisytoolchain\arm-none-eabi\include\c++\10.2.1\bits\stl_vector.h ****        *  @param  __l  An initializer_list.
 617:c:\program files\daisytoolchain\arm-none-eabi\include\c++\10.2.1\bits\stl_vector.h ****        *  @param  __a  An allocator.
 618:c:\program files\daisytoolchain\arm-none-eabi\include\c++\10.2.1\bits\stl_vector.h ****        *
 619:c:\program files\daisytoolchain\arm-none-eabi\include\c++\10.2.1\bits\stl_vector.h ****        *  Create a %vector consisting of copies of the elements in the
 620:c:\program files\daisytoolchain\arm-none-eabi\include\c++\10.2.1\bits\stl_vector.h ****        *  initializer_list @a __l.
 621:c:\program files\daisytoolchain\arm-none-eabi\include\c++\10.2.1\bits\stl_vector.h ****        *
 622:c:\program files\daisytoolchain\arm-none-eabi\include\c++\10.2.1\bits\stl_vector.h ****        *  This will call the element type's copy constructor N times
 623:c:\program files\daisytoolchain\arm-none-eabi\include\c++\10.2.1\bits\stl_vector.h ****        *  (where N is @a __l.size()) and do no memory reallocation.
 624:c:\program files\daisytoolchain\arm-none-eabi\include\c++\10.2.1\bits\stl_vector.h ****        */
 625:c:\program files\daisytoolchain\arm-none-eabi\include\c++\10.2.1\bits\stl_vector.h ****       vector(initializer_list<value_type> __l,
ARM GAS  C:\Users\samue\AppData\Local\Temp\cci865ja.s 			page 57


 626:c:\program files\daisytoolchain\arm-none-eabi\include\c++\10.2.1\bits\stl_vector.h **** 	     const allocator_type& __a = allocator_type())
 627:c:\program files\daisytoolchain\arm-none-eabi\include\c++\10.2.1\bits\stl_vector.h ****       : _Base(__a)
 628:c:\program files\daisytoolchain\arm-none-eabi\include\c++\10.2.1\bits\stl_vector.h ****       {
 629:c:\program files\daisytoolchain\arm-none-eabi\include\c++\10.2.1\bits\stl_vector.h **** 	_M_range_initialize(__l.begin(), __l.end(),
 630:c:\program files\daisytoolchain\arm-none-eabi\include\c++\10.2.1\bits\stl_vector.h **** 			    random_access_iterator_tag());
 631:c:\program files\daisytoolchain\arm-none-eabi\include\c++\10.2.1\bits\stl_vector.h ****       }
 632:c:\program files\daisytoolchain\arm-none-eabi\include\c++\10.2.1\bits\stl_vector.h **** #endif
 633:c:\program files\daisytoolchain\arm-none-eabi\include\c++\10.2.1\bits\stl_vector.h **** 
 634:c:\program files\daisytoolchain\arm-none-eabi\include\c++\10.2.1\bits\stl_vector.h ****       /**
 635:c:\program files\daisytoolchain\arm-none-eabi\include\c++\10.2.1\bits\stl_vector.h ****        *  @brief  Builds a %vector from a range.
 636:c:\program files\daisytoolchain\arm-none-eabi\include\c++\10.2.1\bits\stl_vector.h ****        *  @param  __first  An input iterator.
 637:c:\program files\daisytoolchain\arm-none-eabi\include\c++\10.2.1\bits\stl_vector.h ****        *  @param  __last  An input iterator.
 638:c:\program files\daisytoolchain\arm-none-eabi\include\c++\10.2.1\bits\stl_vector.h ****        *  @param  __a  An allocator.
 639:c:\program files\daisytoolchain\arm-none-eabi\include\c++\10.2.1\bits\stl_vector.h ****        *
 640:c:\program files\daisytoolchain\arm-none-eabi\include\c++\10.2.1\bits\stl_vector.h ****        *  Create a %vector consisting of copies of the elements from
 641:c:\program files\daisytoolchain\arm-none-eabi\include\c++\10.2.1\bits\stl_vector.h ****        *  [first,last).
 642:c:\program files\daisytoolchain\arm-none-eabi\include\c++\10.2.1\bits\stl_vector.h ****        *
 643:c:\program files\daisytoolchain\arm-none-eabi\include\c++\10.2.1\bits\stl_vector.h ****        *  If the iterators are forward, bidirectional, or
 644:c:\program files\daisytoolchain\arm-none-eabi\include\c++\10.2.1\bits\stl_vector.h ****        *  random-access, then this will call the elements' copy
 645:c:\program files\daisytoolchain\arm-none-eabi\include\c++\10.2.1\bits\stl_vector.h ****        *  constructor N times (where N is distance(first,last)) and do
 646:c:\program files\daisytoolchain\arm-none-eabi\include\c++\10.2.1\bits\stl_vector.h ****        *  no memory reallocation.  But if only input iterators are
 647:c:\program files\daisytoolchain\arm-none-eabi\include\c++\10.2.1\bits\stl_vector.h ****        *  used, then this will do at most 2N calls to the copy
 648:c:\program files\daisytoolchain\arm-none-eabi\include\c++\10.2.1\bits\stl_vector.h ****        *  constructor, and logN memory reallocations.
 649:c:\program files\daisytoolchain\arm-none-eabi\include\c++\10.2.1\bits\stl_vector.h ****        */
 650:c:\program files\daisytoolchain\arm-none-eabi\include\c++\10.2.1\bits\stl_vector.h **** #if __cplusplus >= 201103L
 651:c:\program files\daisytoolchain\arm-none-eabi\include\c++\10.2.1\bits\stl_vector.h ****       template<typename _InputIterator,
 652:c:\program files\daisytoolchain\arm-none-eabi\include\c++\10.2.1\bits\stl_vector.h **** 	       typename = std::_RequireInputIter<_InputIterator>>
 653:c:\program files\daisytoolchain\arm-none-eabi\include\c++\10.2.1\bits\stl_vector.h **** 	vector(_InputIterator __first, _InputIterator __last,
 654:c:\program files\daisytoolchain\arm-none-eabi\include\c++\10.2.1\bits\stl_vector.h **** 	       const allocator_type& __a = allocator_type())
 655:c:\program files\daisytoolchain\arm-none-eabi\include\c++\10.2.1\bits\stl_vector.h **** 	: _Base(__a)
 656:c:\program files\daisytoolchain\arm-none-eabi\include\c++\10.2.1\bits\stl_vector.h **** 	{
 657:c:\program files\daisytoolchain\arm-none-eabi\include\c++\10.2.1\bits\stl_vector.h **** 	  _M_range_initialize(__first, __last,
 658:c:\program files\daisytoolchain\arm-none-eabi\include\c++\10.2.1\bits\stl_vector.h **** 			      std::__iterator_category(__first));
 659:c:\program files\daisytoolchain\arm-none-eabi\include\c++\10.2.1\bits\stl_vector.h **** 	}
 660:c:\program files\daisytoolchain\arm-none-eabi\include\c++\10.2.1\bits\stl_vector.h **** #else
 661:c:\program files\daisytoolchain\arm-none-eabi\include\c++\10.2.1\bits\stl_vector.h ****       template<typename _InputIterator>
 662:c:\program files\daisytoolchain\arm-none-eabi\include\c++\10.2.1\bits\stl_vector.h **** 	vector(_InputIterator __first, _InputIterator __last,
 663:c:\program files\daisytoolchain\arm-none-eabi\include\c++\10.2.1\bits\stl_vector.h **** 	       const allocator_type& __a = allocator_type())
 664:c:\program files\daisytoolchain\arm-none-eabi\include\c++\10.2.1\bits\stl_vector.h **** 	: _Base(__a)
 665:c:\program files\daisytoolchain\arm-none-eabi\include\c++\10.2.1\bits\stl_vector.h **** 	{
 666:c:\program files\daisytoolchain\arm-none-eabi\include\c++\10.2.1\bits\stl_vector.h **** 	  // Check whether it's an integral type.  If so, it's not an iterator.
 667:c:\program files\daisytoolchain\arm-none-eabi\include\c++\10.2.1\bits\stl_vector.h **** 	  typedef typename std::__is_integer<_InputIterator>::__type _Integral;
 668:c:\program files\daisytoolchain\arm-none-eabi\include\c++\10.2.1\bits\stl_vector.h **** 	  _M_initialize_dispatch(__first, __last, _Integral());
 669:c:\program files\daisytoolchain\arm-none-eabi\include\c++\10.2.1\bits\stl_vector.h **** 	}
 670:c:\program files\daisytoolchain\arm-none-eabi\include\c++\10.2.1\bits\stl_vector.h **** #endif
 671:c:\program files\daisytoolchain\arm-none-eabi\include\c++\10.2.1\bits\stl_vector.h **** 
 672:c:\program files\daisytoolchain\arm-none-eabi\include\c++\10.2.1\bits\stl_vector.h ****       /**
 673:c:\program files\daisytoolchain\arm-none-eabi\include\c++\10.2.1\bits\stl_vector.h ****        *  The dtor only erases the elements, and note that if the
 674:c:\program files\daisytoolchain\arm-none-eabi\include\c++\10.2.1\bits\stl_vector.h ****        *  elements themselves are pointers, the pointed-to memory is
 675:c:\program files\daisytoolchain\arm-none-eabi\include\c++\10.2.1\bits\stl_vector.h ****        *  not touched in any way.  Managing the pointer is the user's
 676:c:\program files\daisytoolchain\arm-none-eabi\include\c++\10.2.1\bits\stl_vector.h ****        *  responsibility.
 677:c:\program files\daisytoolchain\arm-none-eabi\include\c++\10.2.1\bits\stl_vector.h ****        */
 678:c:\program files\daisytoolchain\arm-none-eabi\include\c++\10.2.1\bits\stl_vector.h ****       ~vector() _GLIBCXX_NOEXCEPT
 679:c:\program files\daisytoolchain\arm-none-eabi\include\c++\10.2.1\bits\stl_vector.h ****       {
 680:c:\program files\daisytoolchain\arm-none-eabi\include\c++\10.2.1\bits\stl_vector.h **** 	std::_Destroy(this->_M_impl._M_start, this->_M_impl._M_finish,
 681:c:\program files\daisytoolchain\arm-none-eabi\include\c++\10.2.1\bits\stl_vector.h **** 		      _M_get_Tp_allocator());
 682:c:\program files\daisytoolchain\arm-none-eabi\include\c++\10.2.1\bits\stl_vector.h **** 	_GLIBCXX_ASAN_ANNOTATE_BEFORE_DEALLOC;
ARM GAS  C:\Users\samue\AppData\Local\Temp\cci865ja.s 			page 58


 683:c:\program files\daisytoolchain\arm-none-eabi\include\c++\10.2.1\bits\stl_vector.h ****       }
 684:c:\program files\daisytoolchain\arm-none-eabi\include\c++\10.2.1\bits\stl_vector.h **** 
 685:c:\program files\daisytoolchain\arm-none-eabi\include\c++\10.2.1\bits\stl_vector.h ****       /**
 686:c:\program files\daisytoolchain\arm-none-eabi\include\c++\10.2.1\bits\stl_vector.h ****        *  @brief  %Vector assignment operator.
 687:c:\program files\daisytoolchain\arm-none-eabi\include\c++\10.2.1\bits\stl_vector.h ****        *  @param  __x  A %vector of identical element and allocator types.
 688:c:\program files\daisytoolchain\arm-none-eabi\include\c++\10.2.1\bits\stl_vector.h ****        *
 689:c:\program files\daisytoolchain\arm-none-eabi\include\c++\10.2.1\bits\stl_vector.h ****        *  All the elements of @a __x are copied, but any unused capacity in
 690:c:\program files\daisytoolchain\arm-none-eabi\include\c++\10.2.1\bits\stl_vector.h ****        *  @a __x will not be copied.
 691:c:\program files\daisytoolchain\arm-none-eabi\include\c++\10.2.1\bits\stl_vector.h ****        *
 692:c:\program files\daisytoolchain\arm-none-eabi\include\c++\10.2.1\bits\stl_vector.h ****        *  Whether the allocator is copied depends on the allocator traits.
 693:c:\program files\daisytoolchain\arm-none-eabi\include\c++\10.2.1\bits\stl_vector.h ****        */
 694:c:\program files\daisytoolchain\arm-none-eabi\include\c++\10.2.1\bits\stl_vector.h ****       vector&
 695:c:\program files\daisytoolchain\arm-none-eabi\include\c++\10.2.1\bits\stl_vector.h ****       operator=(const vector& __x);
 696:c:\program files\daisytoolchain\arm-none-eabi\include\c++\10.2.1\bits\stl_vector.h **** 
 697:c:\program files\daisytoolchain\arm-none-eabi\include\c++\10.2.1\bits\stl_vector.h **** #if __cplusplus >= 201103L
 698:c:\program files\daisytoolchain\arm-none-eabi\include\c++\10.2.1\bits\stl_vector.h ****       /**
 699:c:\program files\daisytoolchain\arm-none-eabi\include\c++\10.2.1\bits\stl_vector.h ****        *  @brief  %Vector move assignment operator.
 700:c:\program files\daisytoolchain\arm-none-eabi\include\c++\10.2.1\bits\stl_vector.h ****        *  @param  __x  A %vector of identical element and allocator types.
 701:c:\program files\daisytoolchain\arm-none-eabi\include\c++\10.2.1\bits\stl_vector.h ****        *
 702:c:\program files\daisytoolchain\arm-none-eabi\include\c++\10.2.1\bits\stl_vector.h ****        *  The contents of @a __x are moved into this %vector (without copying,
 703:c:\program files\daisytoolchain\arm-none-eabi\include\c++\10.2.1\bits\stl_vector.h ****        *  if the allocators permit it).
 704:c:\program files\daisytoolchain\arm-none-eabi\include\c++\10.2.1\bits\stl_vector.h ****        *  Afterwards @a __x is a valid, but unspecified %vector.
 705:c:\program files\daisytoolchain\arm-none-eabi\include\c++\10.2.1\bits\stl_vector.h ****        *
 706:c:\program files\daisytoolchain\arm-none-eabi\include\c++\10.2.1\bits\stl_vector.h ****        *  Whether the allocator is moved depends on the allocator traits.
 707:c:\program files\daisytoolchain\arm-none-eabi\include\c++\10.2.1\bits\stl_vector.h ****        */
 708:c:\program files\daisytoolchain\arm-none-eabi\include\c++\10.2.1\bits\stl_vector.h ****       vector&
 709:c:\program files\daisytoolchain\arm-none-eabi\include\c++\10.2.1\bits\stl_vector.h ****       operator=(vector&& __x) noexcept(_Alloc_traits::_S_nothrow_move())
 710:c:\program files\daisytoolchain\arm-none-eabi\include\c++\10.2.1\bits\stl_vector.h ****       {
 711:c:\program files\daisytoolchain\arm-none-eabi\include\c++\10.2.1\bits\stl_vector.h **** 	constexpr bool __move_storage =
 712:c:\program files\daisytoolchain\arm-none-eabi\include\c++\10.2.1\bits\stl_vector.h **** 	  _Alloc_traits::_S_propagate_on_move_assign()
 713:c:\program files\daisytoolchain\arm-none-eabi\include\c++\10.2.1\bits\stl_vector.h **** 	  || _Alloc_traits::_S_always_equal();
 714:c:\program files\daisytoolchain\arm-none-eabi\include\c++\10.2.1\bits\stl_vector.h **** 	_M_move_assign(std::move(__x), __bool_constant<__move_storage>());
 715:c:\program files\daisytoolchain\arm-none-eabi\include\c++\10.2.1\bits\stl_vector.h **** 	return *this;
 716:c:\program files\daisytoolchain\arm-none-eabi\include\c++\10.2.1\bits\stl_vector.h ****       }
 717:c:\program files\daisytoolchain\arm-none-eabi\include\c++\10.2.1\bits\stl_vector.h **** 
 718:c:\program files\daisytoolchain\arm-none-eabi\include\c++\10.2.1\bits\stl_vector.h ****       /**
 719:c:\program files\daisytoolchain\arm-none-eabi\include\c++\10.2.1\bits\stl_vector.h ****        *  @brief  %Vector list assignment operator.
 720:c:\program files\daisytoolchain\arm-none-eabi\include\c++\10.2.1\bits\stl_vector.h ****        *  @param  __l  An initializer_list.
 721:c:\program files\daisytoolchain\arm-none-eabi\include\c++\10.2.1\bits\stl_vector.h ****        *
 722:c:\program files\daisytoolchain\arm-none-eabi\include\c++\10.2.1\bits\stl_vector.h ****        *  This function fills a %vector with copies of the elements in the
 723:c:\program files\daisytoolchain\arm-none-eabi\include\c++\10.2.1\bits\stl_vector.h ****        *  initializer list @a __l.
 724:c:\program files\daisytoolchain\arm-none-eabi\include\c++\10.2.1\bits\stl_vector.h ****        *
 725:c:\program files\daisytoolchain\arm-none-eabi\include\c++\10.2.1\bits\stl_vector.h ****        *  Note that the assignment completely changes the %vector and
 726:c:\program files\daisytoolchain\arm-none-eabi\include\c++\10.2.1\bits\stl_vector.h ****        *  that the resulting %vector's size is the same as the number
 727:c:\program files\daisytoolchain\arm-none-eabi\include\c++\10.2.1\bits\stl_vector.h ****        *  of elements assigned.
 728:c:\program files\daisytoolchain\arm-none-eabi\include\c++\10.2.1\bits\stl_vector.h ****        */
 729:c:\program files\daisytoolchain\arm-none-eabi\include\c++\10.2.1\bits\stl_vector.h ****       vector&
 730:c:\program files\daisytoolchain\arm-none-eabi\include\c++\10.2.1\bits\stl_vector.h ****       operator=(initializer_list<value_type> __l)
 731:c:\program files\daisytoolchain\arm-none-eabi\include\c++\10.2.1\bits\stl_vector.h ****       {
 732:c:\program files\daisytoolchain\arm-none-eabi\include\c++\10.2.1\bits\stl_vector.h **** 	this->_M_assign_aux(__l.begin(), __l.end(),
 733:c:\program files\daisytoolchain\arm-none-eabi\include\c++\10.2.1\bits\stl_vector.h **** 			    random_access_iterator_tag());
 734:c:\program files\daisytoolchain\arm-none-eabi\include\c++\10.2.1\bits\stl_vector.h **** 	return *this;
 735:c:\program files\daisytoolchain\arm-none-eabi\include\c++\10.2.1\bits\stl_vector.h ****       }
 736:c:\program files\daisytoolchain\arm-none-eabi\include\c++\10.2.1\bits\stl_vector.h **** #endif
 737:c:\program files\daisytoolchain\arm-none-eabi\include\c++\10.2.1\bits\stl_vector.h **** 
 738:c:\program files\daisytoolchain\arm-none-eabi\include\c++\10.2.1\bits\stl_vector.h ****       /**
 739:c:\program files\daisytoolchain\arm-none-eabi\include\c++\10.2.1\bits\stl_vector.h ****        *  @brief  Assigns a given value to a %vector.
ARM GAS  C:\Users\samue\AppData\Local\Temp\cci865ja.s 			page 59


 740:c:\program files\daisytoolchain\arm-none-eabi\include\c++\10.2.1\bits\stl_vector.h ****        *  @param  __n  Number of elements to be assigned.
 741:c:\program files\daisytoolchain\arm-none-eabi\include\c++\10.2.1\bits\stl_vector.h ****        *  @param  __val  Value to be assigned.
 742:c:\program files\daisytoolchain\arm-none-eabi\include\c++\10.2.1\bits\stl_vector.h ****        *
 743:c:\program files\daisytoolchain\arm-none-eabi\include\c++\10.2.1\bits\stl_vector.h ****        *  This function fills a %vector with @a __n copies of the given
 744:c:\program files\daisytoolchain\arm-none-eabi\include\c++\10.2.1\bits\stl_vector.h ****        *  value.  Note that the assignment completely changes the
 745:c:\program files\daisytoolchain\arm-none-eabi\include\c++\10.2.1\bits\stl_vector.h ****        *  %vector and that the resulting %vector's size is the same as
 746:c:\program files\daisytoolchain\arm-none-eabi\include\c++\10.2.1\bits\stl_vector.h ****        *  the number of elements assigned.
 747:c:\program files\daisytoolchain\arm-none-eabi\include\c++\10.2.1\bits\stl_vector.h ****        */
 748:c:\program files\daisytoolchain\arm-none-eabi\include\c++\10.2.1\bits\stl_vector.h ****       void
 749:c:\program files\daisytoolchain\arm-none-eabi\include\c++\10.2.1\bits\stl_vector.h ****       assign(size_type __n, const value_type& __val)
 750:c:\program files\daisytoolchain\arm-none-eabi\include\c++\10.2.1\bits\stl_vector.h ****       { _M_fill_assign(__n, __val); }
 751:c:\program files\daisytoolchain\arm-none-eabi\include\c++\10.2.1\bits\stl_vector.h **** 
 752:c:\program files\daisytoolchain\arm-none-eabi\include\c++\10.2.1\bits\stl_vector.h ****       /**
 753:c:\program files\daisytoolchain\arm-none-eabi\include\c++\10.2.1\bits\stl_vector.h ****        *  @brief  Assigns a range to a %vector.
 754:c:\program files\daisytoolchain\arm-none-eabi\include\c++\10.2.1\bits\stl_vector.h ****        *  @param  __first  An input iterator.
 755:c:\program files\daisytoolchain\arm-none-eabi\include\c++\10.2.1\bits\stl_vector.h ****        *  @param  __last   An input iterator.
 756:c:\program files\daisytoolchain\arm-none-eabi\include\c++\10.2.1\bits\stl_vector.h ****        *
 757:c:\program files\daisytoolchain\arm-none-eabi\include\c++\10.2.1\bits\stl_vector.h ****        *  This function fills a %vector with copies of the elements in the
 758:c:\program files\daisytoolchain\arm-none-eabi\include\c++\10.2.1\bits\stl_vector.h ****        *  range [__first,__last).
 759:c:\program files\daisytoolchain\arm-none-eabi\include\c++\10.2.1\bits\stl_vector.h ****        *
 760:c:\program files\daisytoolchain\arm-none-eabi\include\c++\10.2.1\bits\stl_vector.h ****        *  Note that the assignment completely changes the %vector and
 761:c:\program files\daisytoolchain\arm-none-eabi\include\c++\10.2.1\bits\stl_vector.h ****        *  that the resulting %vector's size is the same as the number
 762:c:\program files\daisytoolchain\arm-none-eabi\include\c++\10.2.1\bits\stl_vector.h ****        *  of elements assigned.
 763:c:\program files\daisytoolchain\arm-none-eabi\include\c++\10.2.1\bits\stl_vector.h ****        */
 764:c:\program files\daisytoolchain\arm-none-eabi\include\c++\10.2.1\bits\stl_vector.h **** #if __cplusplus >= 201103L
 765:c:\program files\daisytoolchain\arm-none-eabi\include\c++\10.2.1\bits\stl_vector.h ****       template<typename _InputIterator,
 766:c:\program files\daisytoolchain\arm-none-eabi\include\c++\10.2.1\bits\stl_vector.h **** 	       typename = std::_RequireInputIter<_InputIterator>>
 767:c:\program files\daisytoolchain\arm-none-eabi\include\c++\10.2.1\bits\stl_vector.h **** 	void
 768:c:\program files\daisytoolchain\arm-none-eabi\include\c++\10.2.1\bits\stl_vector.h **** 	assign(_InputIterator __first, _InputIterator __last)
 769:c:\program files\daisytoolchain\arm-none-eabi\include\c++\10.2.1\bits\stl_vector.h **** 	{ _M_assign_dispatch(__first, __last, __false_type()); }
 770:c:\program files\daisytoolchain\arm-none-eabi\include\c++\10.2.1\bits\stl_vector.h **** #else
 771:c:\program files\daisytoolchain\arm-none-eabi\include\c++\10.2.1\bits\stl_vector.h ****       template<typename _InputIterator>
 772:c:\program files\daisytoolchain\arm-none-eabi\include\c++\10.2.1\bits\stl_vector.h **** 	void
 773:c:\program files\daisytoolchain\arm-none-eabi\include\c++\10.2.1\bits\stl_vector.h **** 	assign(_InputIterator __first, _InputIterator __last)
 774:c:\program files\daisytoolchain\arm-none-eabi\include\c++\10.2.1\bits\stl_vector.h **** 	{
 775:c:\program files\daisytoolchain\arm-none-eabi\include\c++\10.2.1\bits\stl_vector.h **** 	  // Check whether it's an integral type.  If so, it's not an iterator.
 776:c:\program files\daisytoolchain\arm-none-eabi\include\c++\10.2.1\bits\stl_vector.h **** 	  typedef typename std::__is_integer<_InputIterator>::__type _Integral;
 777:c:\program files\daisytoolchain\arm-none-eabi\include\c++\10.2.1\bits\stl_vector.h **** 	  _M_assign_dispatch(__first, __last, _Integral());
 778:c:\program files\daisytoolchain\arm-none-eabi\include\c++\10.2.1\bits\stl_vector.h **** 	}
 779:c:\program files\daisytoolchain\arm-none-eabi\include\c++\10.2.1\bits\stl_vector.h **** #endif
 780:c:\program files\daisytoolchain\arm-none-eabi\include\c++\10.2.1\bits\stl_vector.h **** 
 781:c:\program files\daisytoolchain\arm-none-eabi\include\c++\10.2.1\bits\stl_vector.h **** #if __cplusplus >= 201103L
 782:c:\program files\daisytoolchain\arm-none-eabi\include\c++\10.2.1\bits\stl_vector.h ****       /**
 783:c:\program files\daisytoolchain\arm-none-eabi\include\c++\10.2.1\bits\stl_vector.h ****        *  @brief  Assigns an initializer list to a %vector.
 784:c:\program files\daisytoolchain\arm-none-eabi\include\c++\10.2.1\bits\stl_vector.h ****        *  @param  __l  An initializer_list.
 785:c:\program files\daisytoolchain\arm-none-eabi\include\c++\10.2.1\bits\stl_vector.h ****        *
 786:c:\program files\daisytoolchain\arm-none-eabi\include\c++\10.2.1\bits\stl_vector.h ****        *  This function fills a %vector with copies of the elements in the
 787:c:\program files\daisytoolchain\arm-none-eabi\include\c++\10.2.1\bits\stl_vector.h ****        *  initializer list @a __l.
 788:c:\program files\daisytoolchain\arm-none-eabi\include\c++\10.2.1\bits\stl_vector.h ****        *
 789:c:\program files\daisytoolchain\arm-none-eabi\include\c++\10.2.1\bits\stl_vector.h ****        *  Note that the assignment completely changes the %vector and
 790:c:\program files\daisytoolchain\arm-none-eabi\include\c++\10.2.1\bits\stl_vector.h ****        *  that the resulting %vector's size is the same as the number
 791:c:\program files\daisytoolchain\arm-none-eabi\include\c++\10.2.1\bits\stl_vector.h ****        *  of elements assigned.
 792:c:\program files\daisytoolchain\arm-none-eabi\include\c++\10.2.1\bits\stl_vector.h ****        */
 793:c:\program files\daisytoolchain\arm-none-eabi\include\c++\10.2.1\bits\stl_vector.h ****       void
 794:c:\program files\daisytoolchain\arm-none-eabi\include\c++\10.2.1\bits\stl_vector.h ****       assign(initializer_list<value_type> __l)
 795:c:\program files\daisytoolchain\arm-none-eabi\include\c++\10.2.1\bits\stl_vector.h ****       {
 796:c:\program files\daisytoolchain\arm-none-eabi\include\c++\10.2.1\bits\stl_vector.h **** 	this->_M_assign_aux(__l.begin(), __l.end(),
ARM GAS  C:\Users\samue\AppData\Local\Temp\cci865ja.s 			page 60


 797:c:\program files\daisytoolchain\arm-none-eabi\include\c++\10.2.1\bits\stl_vector.h **** 			    random_access_iterator_tag());
 798:c:\program files\daisytoolchain\arm-none-eabi\include\c++\10.2.1\bits\stl_vector.h ****       }
 799:c:\program files\daisytoolchain\arm-none-eabi\include\c++\10.2.1\bits\stl_vector.h **** #endif
 800:c:\program files\daisytoolchain\arm-none-eabi\include\c++\10.2.1\bits\stl_vector.h **** 
 801:c:\program files\daisytoolchain\arm-none-eabi\include\c++\10.2.1\bits\stl_vector.h ****       /// Get a copy of the memory allocation object.
 802:c:\program files\daisytoolchain\arm-none-eabi\include\c++\10.2.1\bits\stl_vector.h ****       using _Base::get_allocator;
 803:c:\program files\daisytoolchain\arm-none-eabi\include\c++\10.2.1\bits\stl_vector.h **** 
 804:c:\program files\daisytoolchain\arm-none-eabi\include\c++\10.2.1\bits\stl_vector.h ****       // iterators
 805:c:\program files\daisytoolchain\arm-none-eabi\include\c++\10.2.1\bits\stl_vector.h ****       /**
 806:c:\program files\daisytoolchain\arm-none-eabi\include\c++\10.2.1\bits\stl_vector.h ****        *  Returns a read/write iterator that points to the first
 807:c:\program files\daisytoolchain\arm-none-eabi\include\c++\10.2.1\bits\stl_vector.h ****        *  element in the %vector.  Iteration is done in ordinary
 808:c:\program files\daisytoolchain\arm-none-eabi\include\c++\10.2.1\bits\stl_vector.h ****        *  element order.
 809:c:\program files\daisytoolchain\arm-none-eabi\include\c++\10.2.1\bits\stl_vector.h ****        */
 810:c:\program files\daisytoolchain\arm-none-eabi\include\c++\10.2.1\bits\stl_vector.h ****       iterator
 811:c:\program files\daisytoolchain\arm-none-eabi\include\c++\10.2.1\bits\stl_vector.h ****       begin() _GLIBCXX_NOEXCEPT
 812:c:\program files\daisytoolchain\arm-none-eabi\include\c++\10.2.1\bits\stl_vector.h ****       { return iterator(this->_M_impl._M_start); }
 813:c:\program files\daisytoolchain\arm-none-eabi\include\c++\10.2.1\bits\stl_vector.h **** 
 814:c:\program files\daisytoolchain\arm-none-eabi\include\c++\10.2.1\bits\stl_vector.h ****       /**
 815:c:\program files\daisytoolchain\arm-none-eabi\include\c++\10.2.1\bits\stl_vector.h ****        *  Returns a read-only (constant) iterator that points to the
 816:c:\program files\daisytoolchain\arm-none-eabi\include\c++\10.2.1\bits\stl_vector.h ****        *  first element in the %vector.  Iteration is done in ordinary
 817:c:\program files\daisytoolchain\arm-none-eabi\include\c++\10.2.1\bits\stl_vector.h ****        *  element order.
 818:c:\program files\daisytoolchain\arm-none-eabi\include\c++\10.2.1\bits\stl_vector.h ****        */
 819:c:\program files\daisytoolchain\arm-none-eabi\include\c++\10.2.1\bits\stl_vector.h ****       const_iterator
 820:c:\program files\daisytoolchain\arm-none-eabi\include\c++\10.2.1\bits\stl_vector.h ****       begin() const _GLIBCXX_NOEXCEPT
 821:c:\program files\daisytoolchain\arm-none-eabi\include\c++\10.2.1\bits\stl_vector.h ****       { return const_iterator(this->_M_impl._M_start); }
 822:c:\program files\daisytoolchain\arm-none-eabi\include\c++\10.2.1\bits\stl_vector.h **** 
 823:c:\program files\daisytoolchain\arm-none-eabi\include\c++\10.2.1\bits\stl_vector.h ****       /**
 824:c:\program files\daisytoolchain\arm-none-eabi\include\c++\10.2.1\bits\stl_vector.h ****        *  Returns a read/write iterator that points one past the last
 825:c:\program files\daisytoolchain\arm-none-eabi\include\c++\10.2.1\bits\stl_vector.h ****        *  element in the %vector.  Iteration is done in ordinary
 826:c:\program files\daisytoolchain\arm-none-eabi\include\c++\10.2.1\bits\stl_vector.h ****        *  element order.
 827:c:\program files\daisytoolchain\arm-none-eabi\include\c++\10.2.1\bits\stl_vector.h ****        */
 828:c:\program files\daisytoolchain\arm-none-eabi\include\c++\10.2.1\bits\stl_vector.h ****       iterator
 829:c:\program files\daisytoolchain\arm-none-eabi\include\c++\10.2.1\bits\stl_vector.h ****       end() _GLIBCXX_NOEXCEPT
 830:c:\program files\daisytoolchain\arm-none-eabi\include\c++\10.2.1\bits\stl_vector.h ****       { return iterator(this->_M_impl._M_finish); }
 831:c:\program files\daisytoolchain\arm-none-eabi\include\c++\10.2.1\bits\stl_vector.h **** 
 832:c:\program files\daisytoolchain\arm-none-eabi\include\c++\10.2.1\bits\stl_vector.h ****       /**
 833:c:\program files\daisytoolchain\arm-none-eabi\include\c++\10.2.1\bits\stl_vector.h ****        *  Returns a read-only (constant) iterator that points one past
 834:c:\program files\daisytoolchain\arm-none-eabi\include\c++\10.2.1\bits\stl_vector.h ****        *  the last element in the %vector.  Iteration is done in
 835:c:\program files\daisytoolchain\arm-none-eabi\include\c++\10.2.1\bits\stl_vector.h ****        *  ordinary element order.
 836:c:\program files\daisytoolchain\arm-none-eabi\include\c++\10.2.1\bits\stl_vector.h ****        */
 837:c:\program files\daisytoolchain\arm-none-eabi\include\c++\10.2.1\bits\stl_vector.h ****       const_iterator
 838:c:\program files\daisytoolchain\arm-none-eabi\include\c++\10.2.1\bits\stl_vector.h ****       end() const _GLIBCXX_NOEXCEPT
 839:c:\program files\daisytoolchain\arm-none-eabi\include\c++\10.2.1\bits\stl_vector.h ****       { return const_iterator(this->_M_impl._M_finish); }
 840:c:\program files\daisytoolchain\arm-none-eabi\include\c++\10.2.1\bits\stl_vector.h **** 
 841:c:\program files\daisytoolchain\arm-none-eabi\include\c++\10.2.1\bits\stl_vector.h ****       /**
 842:c:\program files\daisytoolchain\arm-none-eabi\include\c++\10.2.1\bits\stl_vector.h ****        *  Returns a read/write reverse iterator that points to the
 843:c:\program files\daisytoolchain\arm-none-eabi\include\c++\10.2.1\bits\stl_vector.h ****        *  last element in the %vector.  Iteration is done in reverse
 844:c:\program files\daisytoolchain\arm-none-eabi\include\c++\10.2.1\bits\stl_vector.h ****        *  element order.
 845:c:\program files\daisytoolchain\arm-none-eabi\include\c++\10.2.1\bits\stl_vector.h ****        */
 846:c:\program files\daisytoolchain\arm-none-eabi\include\c++\10.2.1\bits\stl_vector.h ****       reverse_iterator
 847:c:\program files\daisytoolchain\arm-none-eabi\include\c++\10.2.1\bits\stl_vector.h ****       rbegin() _GLIBCXX_NOEXCEPT
 848:c:\program files\daisytoolchain\arm-none-eabi\include\c++\10.2.1\bits\stl_vector.h ****       { return reverse_iterator(end()); }
 849:c:\program files\daisytoolchain\arm-none-eabi\include\c++\10.2.1\bits\stl_vector.h **** 
 850:c:\program files\daisytoolchain\arm-none-eabi\include\c++\10.2.1\bits\stl_vector.h ****       /**
 851:c:\program files\daisytoolchain\arm-none-eabi\include\c++\10.2.1\bits\stl_vector.h ****        *  Returns a read-only (constant) reverse iterator that points
 852:c:\program files\daisytoolchain\arm-none-eabi\include\c++\10.2.1\bits\stl_vector.h ****        *  to the last element in the %vector.  Iteration is done in
 853:c:\program files\daisytoolchain\arm-none-eabi\include\c++\10.2.1\bits\stl_vector.h ****        *  reverse element order.
ARM GAS  C:\Users\samue\AppData\Local\Temp\cci865ja.s 			page 61


 854:c:\program files\daisytoolchain\arm-none-eabi\include\c++\10.2.1\bits\stl_vector.h ****        */
 855:c:\program files\daisytoolchain\arm-none-eabi\include\c++\10.2.1\bits\stl_vector.h ****       const_reverse_iterator
 856:c:\program files\daisytoolchain\arm-none-eabi\include\c++\10.2.1\bits\stl_vector.h ****       rbegin() const _GLIBCXX_NOEXCEPT
 857:c:\program files\daisytoolchain\arm-none-eabi\include\c++\10.2.1\bits\stl_vector.h ****       { return const_reverse_iterator(end()); }
 858:c:\program files\daisytoolchain\arm-none-eabi\include\c++\10.2.1\bits\stl_vector.h **** 
 859:c:\program files\daisytoolchain\arm-none-eabi\include\c++\10.2.1\bits\stl_vector.h ****       /**
 860:c:\program files\daisytoolchain\arm-none-eabi\include\c++\10.2.1\bits\stl_vector.h ****        *  Returns a read/write reverse iterator that points to one
 861:c:\program files\daisytoolchain\arm-none-eabi\include\c++\10.2.1\bits\stl_vector.h ****        *  before the first element in the %vector.  Iteration is done
 862:c:\program files\daisytoolchain\arm-none-eabi\include\c++\10.2.1\bits\stl_vector.h ****        *  in reverse element order.
 863:c:\program files\daisytoolchain\arm-none-eabi\include\c++\10.2.1\bits\stl_vector.h ****        */
 864:c:\program files\daisytoolchain\arm-none-eabi\include\c++\10.2.1\bits\stl_vector.h ****       reverse_iterator
 865:c:\program files\daisytoolchain\arm-none-eabi\include\c++\10.2.1\bits\stl_vector.h ****       rend() _GLIBCXX_NOEXCEPT
 866:c:\program files\daisytoolchain\arm-none-eabi\include\c++\10.2.1\bits\stl_vector.h ****       { return reverse_iterator(begin()); }
 867:c:\program files\daisytoolchain\arm-none-eabi\include\c++\10.2.1\bits\stl_vector.h **** 
 868:c:\program files\daisytoolchain\arm-none-eabi\include\c++\10.2.1\bits\stl_vector.h ****       /**
 869:c:\program files\daisytoolchain\arm-none-eabi\include\c++\10.2.1\bits\stl_vector.h ****        *  Returns a read-only (constant) reverse iterator that points
 870:c:\program files\daisytoolchain\arm-none-eabi\include\c++\10.2.1\bits\stl_vector.h ****        *  to one before the first element in the %vector.  Iteration
 871:c:\program files\daisytoolchain\arm-none-eabi\include\c++\10.2.1\bits\stl_vector.h ****        *  is done in reverse element order.
 872:c:\program files\daisytoolchain\arm-none-eabi\include\c++\10.2.1\bits\stl_vector.h ****        */
 873:c:\program files\daisytoolchain\arm-none-eabi\include\c++\10.2.1\bits\stl_vector.h ****       const_reverse_iterator
 874:c:\program files\daisytoolchain\arm-none-eabi\include\c++\10.2.1\bits\stl_vector.h ****       rend() const _GLIBCXX_NOEXCEPT
 875:c:\program files\daisytoolchain\arm-none-eabi\include\c++\10.2.1\bits\stl_vector.h ****       { return const_reverse_iterator(begin()); }
 876:c:\program files\daisytoolchain\arm-none-eabi\include\c++\10.2.1\bits\stl_vector.h **** 
 877:c:\program files\daisytoolchain\arm-none-eabi\include\c++\10.2.1\bits\stl_vector.h **** #if __cplusplus >= 201103L
 878:c:\program files\daisytoolchain\arm-none-eabi\include\c++\10.2.1\bits\stl_vector.h ****       /**
 879:c:\program files\daisytoolchain\arm-none-eabi\include\c++\10.2.1\bits\stl_vector.h ****        *  Returns a read-only (constant) iterator that points to the
 880:c:\program files\daisytoolchain\arm-none-eabi\include\c++\10.2.1\bits\stl_vector.h ****        *  first element in the %vector.  Iteration is done in ordinary
 881:c:\program files\daisytoolchain\arm-none-eabi\include\c++\10.2.1\bits\stl_vector.h ****        *  element order.
 882:c:\program files\daisytoolchain\arm-none-eabi\include\c++\10.2.1\bits\stl_vector.h ****        */
 883:c:\program files\daisytoolchain\arm-none-eabi\include\c++\10.2.1\bits\stl_vector.h ****       const_iterator
 884:c:\program files\daisytoolchain\arm-none-eabi\include\c++\10.2.1\bits\stl_vector.h ****       cbegin() const noexcept
 885:c:\program files\daisytoolchain\arm-none-eabi\include\c++\10.2.1\bits\stl_vector.h ****       { return const_iterator(this->_M_impl._M_start); }
 886:c:\program files\daisytoolchain\arm-none-eabi\include\c++\10.2.1\bits\stl_vector.h **** 
 887:c:\program files\daisytoolchain\arm-none-eabi\include\c++\10.2.1\bits\stl_vector.h ****       /**
 888:c:\program files\daisytoolchain\arm-none-eabi\include\c++\10.2.1\bits\stl_vector.h ****        *  Returns a read-only (constant) iterator that points one past
 889:c:\program files\daisytoolchain\arm-none-eabi\include\c++\10.2.1\bits\stl_vector.h ****        *  the last element in the %vector.  Iteration is done in
 890:c:\program files\daisytoolchain\arm-none-eabi\include\c++\10.2.1\bits\stl_vector.h ****        *  ordinary element order.
 891:c:\program files\daisytoolchain\arm-none-eabi\include\c++\10.2.1\bits\stl_vector.h ****        */
 892:c:\program files\daisytoolchain\arm-none-eabi\include\c++\10.2.1\bits\stl_vector.h ****       const_iterator
 893:c:\program files\daisytoolchain\arm-none-eabi\include\c++\10.2.1\bits\stl_vector.h ****       cend() const noexcept
 894:c:\program files\daisytoolchain\arm-none-eabi\include\c++\10.2.1\bits\stl_vector.h ****       { return const_iterator(this->_M_impl._M_finish); }
 895:c:\program files\daisytoolchain\arm-none-eabi\include\c++\10.2.1\bits\stl_vector.h **** 
 896:c:\program files\daisytoolchain\arm-none-eabi\include\c++\10.2.1\bits\stl_vector.h ****       /**
 897:c:\program files\daisytoolchain\arm-none-eabi\include\c++\10.2.1\bits\stl_vector.h ****        *  Returns a read-only (constant) reverse iterator that points
 898:c:\program files\daisytoolchain\arm-none-eabi\include\c++\10.2.1\bits\stl_vector.h ****        *  to the last element in the %vector.  Iteration is done in
 899:c:\program files\daisytoolchain\arm-none-eabi\include\c++\10.2.1\bits\stl_vector.h ****        *  reverse element order.
 900:c:\program files\daisytoolchain\arm-none-eabi\include\c++\10.2.1\bits\stl_vector.h ****        */
 901:c:\program files\daisytoolchain\arm-none-eabi\include\c++\10.2.1\bits\stl_vector.h ****       const_reverse_iterator
 902:c:\program files\daisytoolchain\arm-none-eabi\include\c++\10.2.1\bits\stl_vector.h ****       crbegin() const noexcept
 903:c:\program files\daisytoolchain\arm-none-eabi\include\c++\10.2.1\bits\stl_vector.h ****       { return const_reverse_iterator(end()); }
 904:c:\program files\daisytoolchain\arm-none-eabi\include\c++\10.2.1\bits\stl_vector.h **** 
 905:c:\program files\daisytoolchain\arm-none-eabi\include\c++\10.2.1\bits\stl_vector.h ****       /**
 906:c:\program files\daisytoolchain\arm-none-eabi\include\c++\10.2.1\bits\stl_vector.h ****        *  Returns a read-only (constant) reverse iterator that points
 907:c:\program files\daisytoolchain\arm-none-eabi\include\c++\10.2.1\bits\stl_vector.h ****        *  to one before the first element in the %vector.  Iteration
 908:c:\program files\daisytoolchain\arm-none-eabi\include\c++\10.2.1\bits\stl_vector.h ****        *  is done in reverse element order.
 909:c:\program files\daisytoolchain\arm-none-eabi\include\c++\10.2.1\bits\stl_vector.h ****        */
 910:c:\program files\daisytoolchain\arm-none-eabi\include\c++\10.2.1\bits\stl_vector.h ****       const_reverse_iterator
ARM GAS  C:\Users\samue\AppData\Local\Temp\cci865ja.s 			page 62


 911:c:\program files\daisytoolchain\arm-none-eabi\include\c++\10.2.1\bits\stl_vector.h ****       crend() const noexcept
 912:c:\program files\daisytoolchain\arm-none-eabi\include\c++\10.2.1\bits\stl_vector.h ****       { return const_reverse_iterator(begin()); }
 913:c:\program files\daisytoolchain\arm-none-eabi\include\c++\10.2.1\bits\stl_vector.h **** #endif
 914:c:\program files\daisytoolchain\arm-none-eabi\include\c++\10.2.1\bits\stl_vector.h **** 
 915:c:\program files\daisytoolchain\arm-none-eabi\include\c++\10.2.1\bits\stl_vector.h ****       // [23.2.4.2] capacity
 916:c:\program files\daisytoolchain\arm-none-eabi\include\c++\10.2.1\bits\stl_vector.h ****       /**  Returns the number of elements in the %vector.  */
 917:c:\program files\daisytoolchain\arm-none-eabi\include\c++\10.2.1\bits\stl_vector.h ****       size_type
 918:c:\program files\daisytoolchain\arm-none-eabi\include\c++\10.2.1\bits\stl_vector.h ****       size() const _GLIBCXX_NOEXCEPT
 1565              		.loc 7 918 7 view .LVU404
 1566              		.loc 7 918 7 is_stmt 0 view .LVU405
 1567              	.LBE385:
 248:daisy_common.cpp ****     AdcChannelConfig adc_config[cvs.size()+2];
 1568              		.loc 1 248 1 view .LVU406
 1569 0000 2DE9F04F 		push	{r4, r5, r6, r7, r8, r9, r10, fp, lr}
 1570              		.cfi_def_cfa_offset 36
 1571              		.cfi_offset 4, -36
 1572              		.cfi_offset 5, -32
 1573              		.cfi_offset 6, -28
 1574              		.cfi_offset 7, -24
 1575              		.cfi_offset 8, -20
 1576              		.cfi_offset 9, -16
 1577              		.cfi_offset 10, -12
 1578              		.cfi_offset 11, -8
 1579              		.cfi_offset 14, -4
 1580 0004 91B0     		sub	sp, sp, #68
 1581              		.cfi_def_cfa_offset 104
 250:daisy_common.cpp ****     adc_config[mux_x].InitMux(MUX_X_ADC_PIN, 4, D6, D7);
 1582              		.loc 1 250 30 view .LVU407
 1583 0006 4FF00B03 		mov	r3, #11
 1584 000a 0226     		movs	r6, #2
 1585              	.LBB392:
 1586              	.LBB386:
 919:c:\program files\daisytoolchain\arm-none-eabi\include\c++\10.2.1\bits\stl_vector.h ****       { return size_type(this->_M_impl._M_finish - this->_M_impl._M_start); }
 1587              		.loc 7 919 50 view .LVU408
 1588 000c 4149     		ldr	r1, .L126
 1589              	.LBE386:
 1590              	.LBE392:
 248:daisy_common.cpp ****     AdcChannelConfig adc_config[cvs.size()+2];
 1591              		.loc 1 248 1 view .LVU409
 1592 000e 04AF     		add	r7, sp, #16
 1593              		.cfi_def_cfa 7, 88
 1594              	.LBB393:
 1595              	.LBB387:
 1596              		.loc 7 919 50 view .LVU410
 1597 0010 4268     		ldr	r2, [r0, #4]
 1598              	.LBE387:
 1599              	.LBE393:
 1600              		.loc 1 250 30 view .LVU411
 1601 0012 4FF00008 		mov	r8, #0
 1602 0016 87F82430 		strb	r3, [r7, #36]
 1603 001a 4FF0060B 		mov	fp, #6
 1604              	.LBB394:
 1605              	.LBB388:
 1606              		.loc 7 919 50 view .LVU412
 1607 001e 0368     		ldr	r3, [r0]
 1608              	.LBE388:
 1609              	.LBE394:
ARM GAS  C:\Users\samue\AppData\Local\Temp\cci865ja.s 			page 63


 1610              		.loc 1 250 30 view .LVU413
 1611 0020 4FF00A0A 		mov	r10, #10
 1612 0024 87F82580 		strb	r8, [r7, #37]
 1613 0028 4FF00C09 		mov	r9, #12
 1614              	.LBB395:
 1615              	.LBB389:
 1616              		.loc 7 919 50 view .LVU414
 1617 002c D31A     		subs	r3, r2, r3
 1618              	.LBE389:
 1619              	.LBE395:
 1620              		.loc 1 250 30 view .LVU415
 1621 002e 87F814B0 		strb	fp, [r7, #20]
 1622 0032 87F815A0 		strb	r10, [r7, #21]
 248:daisy_common.cpp ****     AdcChannelConfig adc_config[cvs.size()+2];
 1623              		.loc 1 248 1 view .LVU416
 1624 0036 0446     		mov	r4, r0
 1625              	.LBB396:
 1626              	.LBB390:
 1627              		.loc 7 919 50 view .LVU417
 1628 0038 3341     		asrs	r3, r3, r6
 1629              	.LBE390:
 1630              	.LBE396:
 1631              		.loc 1 250 30 view .LVU418
 1632 003a 7E73     		strb	r6, [r7, #13]
 1633 003c 3E74     		strb	r6, [r7, #16]
 1634 003e 0422     		movs	r2, #4
 1635              	.LBB397:
 1636              	.LBB391:
 1637              		.loc 7 919 50 view .LVU419
 1638 0040 01FB03F3 		mul	r3, r1, r3
 1639              	.LBE391:
 1640              	.LBE397:
 1641              		.loc 1 250 30 view .LVU420
 1642 0044 87F80C80 		strb	r8, [r7, #12]
 249:daisy_common.cpp ****     adc_config[mux_x].InitMux(MUX_X_ADC_PIN, 4, D6, D7);
 1643              		.loc 1 249 22 view .LVU421
 1644 0048 3344     		add	r3, r3, r6
 1645              		.loc 1 250 30 view .LVU422
 1646 004a 87F81190 		strb	r9, [r7, #17]
 1647 004e F968     		ldr	r1, [r7, #12]
 249:daisy_common.cpp ****     adc_config[mux_x].InitMux(MUX_X_ADC_PIN, 4, D6, D7);
 1648              		.loc 1 249 22 view .LVU423
 1649 0050 03EBC303 		add	r3, r3, r3, lsl #3
 1650 0054 5B00     		lsls	r3, r3, #1
 1651 0056 0733     		adds	r3, r3, #7
 1652 0058 23F00703 		bic	r3, r3, #7
 1653 005c ADEB030D 		sub	sp, sp, r3
 1654              		.loc 1 250 30 view .LVU424
 1655 0060 BB8C     		ldrh	r3, [r7, #36]
 249:daisy_common.cpp ****     adc_config[mux_x].InitMux(MUX_X_ADC_PIN, 4, D6, D7);
 1656              		.loc 1 249 22 view .LVU425
 1657 0062 04AD     		add	r5, sp, #16
 1658              	.LVL92:
 1659              		.loc 1 250 5 is_stmt 1 view .LVU426
 1660              		.loc 1 250 30 is_stmt 0 view .LVU427
 1661 0064 ADF80430 		strh	r3, [sp, #4]	@ movhi
 1662              	.LVL93:
ARM GAS  C:\Users\samue\AppData\Local\Temp\cci865ja.s 			page 64


 1663              		.loc 1 250 30 view .LVU428
 1664 0068 BB8A     		ldrh	r3, [r7, #20]
 1665 006a 2846     		mov	r0, r5
 1666              	.LVL94:
 1667              		.loc 1 250 30 view .LVU429
 1668 006c 0296     		str	r6, [sp, #8]
 1669 006e ADF80030 		strh	r3, [sp]	@ movhi
 1670 0072 3B69     		ldr	r3, [r7, #16]
 1671 0074 FFF7FEFF 		bl	_ZN5daisy16AdcChannelConfig7InitMuxE12dsy_gpio_pinjS1_S1_S1_NS0_15ConversionSpeedE
 1672              	.LVL95:
 251:daisy_common.cpp **** 	adc_config[mux_y].InitMux(MUX_Y_ADC_PIN, 4, D6, D7);
 1673              		.loc 1 251 2 is_stmt 1 view .LVU430
 1674              		.loc 1 251 27 is_stmt 0 view .LVU431
 1675 0078 4FF00B03 		mov	r3, #11
 1676 007c 87F820B0 		strb	fp, [r7, #32]
 1677 0080 0422     		movs	r2, #4
 1678 0082 87F821A0 		strb	r10, [r7, #33]
 1679 0086 87F82830 		strb	r3, [r7, #40]
 1680 008a 388C     		ldrh	r0, [r7, #32]
 1681 008c 87F82980 		strb	r8, [r7, #41]
 1682 0090 3B8D     		ldrh	r3, [r7, #40]
 1683 0092 3E77     		strb	r6, [r7, #28]
 1684 0094 87F81D90 		strb	r9, [r7, #29]
 1685 0098 87F81880 		strb	r8, [r7, #24]
 1686 009c 87F81980 		strb	r8, [r7, #25]
 1687 00a0 0296     		str	r6, [sp, #8]
 1688 00a2 ADF80430 		strh	r3, [sp, #4]	@ movhi
 1689 00a6 ADF80000 		strh	r0, [sp]	@ movhi
 1690 00aa 0DF12200 		add	r0, sp, #34
 1691 00ae FB69     		ldr	r3, [r7, #28]
 1692 00b0 B969     		ldr	r1, [r7, #24]
 1693 00b2 FFF7FEFF 		bl	_ZN5daisy16AdcChannelConfig7InitMuxE12dsy_gpio_pinjS1_S1_S1_NS0_15ConversionSpeedE
 1694              	.LVL96:
 252:daisy_common.cpp ****     
 253:daisy_common.cpp ****     vector<struct cv>::iterator iter;
 1695              		.loc 1 253 5 is_stmt 1 view .LVU432
 254:daisy_common.cpp **** 
 255:daisy_common.cpp ****     for(iter = cvs.begin(); iter != cvs.end(); ++iter)
 1696              		.loc 1 255 5 view .LVU433
 1697              	.LBB398:
 1698              	.LBI398:
 811:c:\program files\daisytoolchain\arm-none-eabi\include\c++\10.2.1\bits\stl_vector.h ****       { return iterator(this->_M_impl._M_start); }
 1699              		.loc 7 811 7 view .LVU434
 1700              	.LBB399:
 1701              	.LBI399:
 1702              		.file 8 "c:\\program files\\daisytoolchain\\arm-none-eabi\\include\\c++\\10.2.1\\bits\\stl_iterato
   1:c:\program files\daisytoolchain\arm-none-eabi\include\c++\10.2.1\bits\stl_iterator.h **** // Iterators -*- C++ -*-
   2:c:\program files\daisytoolchain\arm-none-eabi\include\c++\10.2.1\bits\stl_iterator.h **** 
   3:c:\program files\daisytoolchain\arm-none-eabi\include\c++\10.2.1\bits\stl_iterator.h **** // Copyright (C) 2001-2020 Free Software Foundation, Inc.
   4:c:\program files\daisytoolchain\arm-none-eabi\include\c++\10.2.1\bits\stl_iterator.h **** //
   5:c:\program files\daisytoolchain\arm-none-eabi\include\c++\10.2.1\bits\stl_iterator.h **** // This file is part of the GNU ISO C++ Library.  This library is free
   6:c:\program files\daisytoolchain\arm-none-eabi\include\c++\10.2.1\bits\stl_iterator.h **** // software; you can redistribute it and/or modify it under the
   7:c:\program files\daisytoolchain\arm-none-eabi\include\c++\10.2.1\bits\stl_iterator.h **** // terms of the GNU General Public License as published by the
   8:c:\program files\daisytoolchain\arm-none-eabi\include\c++\10.2.1\bits\stl_iterator.h **** // Free Software Foundation; either version 3, or (at your option)
   9:c:\program files\daisytoolchain\arm-none-eabi\include\c++\10.2.1\bits\stl_iterator.h **** // any later version.
  10:c:\program files\daisytoolchain\arm-none-eabi\include\c++\10.2.1\bits\stl_iterator.h **** 
  11:c:\program files\daisytoolchain\arm-none-eabi\include\c++\10.2.1\bits\stl_iterator.h **** // This library is distributed in the hope that it will be useful,
ARM GAS  C:\Users\samue\AppData\Local\Temp\cci865ja.s 			page 65


  12:c:\program files\daisytoolchain\arm-none-eabi\include\c++\10.2.1\bits\stl_iterator.h **** // but WITHOUT ANY WARRANTY; without even the implied warranty of
  13:c:\program files\daisytoolchain\arm-none-eabi\include\c++\10.2.1\bits\stl_iterator.h **** // MERCHANTABILITY or FITNESS FOR A PARTICULAR PURPOSE.  See the
  14:c:\program files\daisytoolchain\arm-none-eabi\include\c++\10.2.1\bits\stl_iterator.h **** // GNU General Public License for more details.
  15:c:\program files\daisytoolchain\arm-none-eabi\include\c++\10.2.1\bits\stl_iterator.h **** 
  16:c:\program files\daisytoolchain\arm-none-eabi\include\c++\10.2.1\bits\stl_iterator.h **** // Under Section 7 of GPL version 3, you are granted additional
  17:c:\program files\daisytoolchain\arm-none-eabi\include\c++\10.2.1\bits\stl_iterator.h **** // permissions described in the GCC Runtime Library Exception, version
  18:c:\program files\daisytoolchain\arm-none-eabi\include\c++\10.2.1\bits\stl_iterator.h **** // 3.1, as published by the Free Software Foundation.
  19:c:\program files\daisytoolchain\arm-none-eabi\include\c++\10.2.1\bits\stl_iterator.h **** 
  20:c:\program files\daisytoolchain\arm-none-eabi\include\c++\10.2.1\bits\stl_iterator.h **** // You should have received a copy of the GNU General Public License and
  21:c:\program files\daisytoolchain\arm-none-eabi\include\c++\10.2.1\bits\stl_iterator.h **** // a copy of the GCC Runtime Library Exception along with this program;
  22:c:\program files\daisytoolchain\arm-none-eabi\include\c++\10.2.1\bits\stl_iterator.h **** // see the files COPYING3 and COPYING.RUNTIME respectively.  If not, see
  23:c:\program files\daisytoolchain\arm-none-eabi\include\c++\10.2.1\bits\stl_iterator.h **** // <http://www.gnu.org/licenses/>.
  24:c:\program files\daisytoolchain\arm-none-eabi\include\c++\10.2.1\bits\stl_iterator.h **** 
  25:c:\program files\daisytoolchain\arm-none-eabi\include\c++\10.2.1\bits\stl_iterator.h **** /*
  26:c:\program files\daisytoolchain\arm-none-eabi\include\c++\10.2.1\bits\stl_iterator.h ****  *
  27:c:\program files\daisytoolchain\arm-none-eabi\include\c++\10.2.1\bits\stl_iterator.h ****  * Copyright (c) 1994
  28:c:\program files\daisytoolchain\arm-none-eabi\include\c++\10.2.1\bits\stl_iterator.h ****  * Hewlett-Packard Company
  29:c:\program files\daisytoolchain\arm-none-eabi\include\c++\10.2.1\bits\stl_iterator.h ****  *
  30:c:\program files\daisytoolchain\arm-none-eabi\include\c++\10.2.1\bits\stl_iterator.h ****  * Permission to use, copy, modify, distribute and sell this software
  31:c:\program files\daisytoolchain\arm-none-eabi\include\c++\10.2.1\bits\stl_iterator.h ****  * and its documentation for any purpose is hereby granted without fee,
  32:c:\program files\daisytoolchain\arm-none-eabi\include\c++\10.2.1\bits\stl_iterator.h ****  * provided that the above copyright notice appear in all copies and
  33:c:\program files\daisytoolchain\arm-none-eabi\include\c++\10.2.1\bits\stl_iterator.h ****  * that both that copyright notice and this permission notice appear
  34:c:\program files\daisytoolchain\arm-none-eabi\include\c++\10.2.1\bits\stl_iterator.h ****  * in supporting documentation.  Hewlett-Packard Company makes no
  35:c:\program files\daisytoolchain\arm-none-eabi\include\c++\10.2.1\bits\stl_iterator.h ****  * representations about the suitability of this software for any
  36:c:\program files\daisytoolchain\arm-none-eabi\include\c++\10.2.1\bits\stl_iterator.h ****  * purpose.  It is provided "as is" without express or implied warranty.
  37:c:\program files\daisytoolchain\arm-none-eabi\include\c++\10.2.1\bits\stl_iterator.h ****  *
  38:c:\program files\daisytoolchain\arm-none-eabi\include\c++\10.2.1\bits\stl_iterator.h ****  *
  39:c:\program files\daisytoolchain\arm-none-eabi\include\c++\10.2.1\bits\stl_iterator.h ****  * Copyright (c) 1996-1998
  40:c:\program files\daisytoolchain\arm-none-eabi\include\c++\10.2.1\bits\stl_iterator.h ****  * Silicon Graphics Computer Systems, Inc.
  41:c:\program files\daisytoolchain\arm-none-eabi\include\c++\10.2.1\bits\stl_iterator.h ****  *
  42:c:\program files\daisytoolchain\arm-none-eabi\include\c++\10.2.1\bits\stl_iterator.h ****  * Permission to use, copy, modify, distribute and sell this software
  43:c:\program files\daisytoolchain\arm-none-eabi\include\c++\10.2.1\bits\stl_iterator.h ****  * and its documentation for any purpose is hereby granted without fee,
  44:c:\program files\daisytoolchain\arm-none-eabi\include\c++\10.2.1\bits\stl_iterator.h ****  * provided that the above copyright notice appear in all copies and
  45:c:\program files\daisytoolchain\arm-none-eabi\include\c++\10.2.1\bits\stl_iterator.h ****  * that both that copyright notice and this permission notice appear
  46:c:\program files\daisytoolchain\arm-none-eabi\include\c++\10.2.1\bits\stl_iterator.h ****  * in supporting documentation.  Silicon Graphics makes no
  47:c:\program files\daisytoolchain\arm-none-eabi\include\c++\10.2.1\bits\stl_iterator.h ****  * representations about the suitability of this software for any
  48:c:\program files\daisytoolchain\arm-none-eabi\include\c++\10.2.1\bits\stl_iterator.h ****  * purpose.  It is provided "as is" without express or implied warranty.
  49:c:\program files\daisytoolchain\arm-none-eabi\include\c++\10.2.1\bits\stl_iterator.h ****  */
  50:c:\program files\daisytoolchain\arm-none-eabi\include\c++\10.2.1\bits\stl_iterator.h **** 
  51:c:\program files\daisytoolchain\arm-none-eabi\include\c++\10.2.1\bits\stl_iterator.h **** /** @file bits/stl_iterator.h
  52:c:\program files\daisytoolchain\arm-none-eabi\include\c++\10.2.1\bits\stl_iterator.h ****  *  This is an internal header file, included by other library headers.
  53:c:\program files\daisytoolchain\arm-none-eabi\include\c++\10.2.1\bits\stl_iterator.h ****  *  Do not attempt to use it directly. @headername{iterator}
  54:c:\program files\daisytoolchain\arm-none-eabi\include\c++\10.2.1\bits\stl_iterator.h ****  *
  55:c:\program files\daisytoolchain\arm-none-eabi\include\c++\10.2.1\bits\stl_iterator.h ****  *  This file implements reverse_iterator, back_insert_iterator,
  56:c:\program files\daisytoolchain\arm-none-eabi\include\c++\10.2.1\bits\stl_iterator.h ****  *  front_insert_iterator, insert_iterator, __normal_iterator, and their
  57:c:\program files\daisytoolchain\arm-none-eabi\include\c++\10.2.1\bits\stl_iterator.h ****  *  supporting functions and overloaded operators.
  58:c:\program files\daisytoolchain\arm-none-eabi\include\c++\10.2.1\bits\stl_iterator.h ****  */
  59:c:\program files\daisytoolchain\arm-none-eabi\include\c++\10.2.1\bits\stl_iterator.h **** 
  60:c:\program files\daisytoolchain\arm-none-eabi\include\c++\10.2.1\bits\stl_iterator.h **** #ifndef _STL_ITERATOR_H
  61:c:\program files\daisytoolchain\arm-none-eabi\include\c++\10.2.1\bits\stl_iterator.h **** #define _STL_ITERATOR_H 1
  62:c:\program files\daisytoolchain\arm-none-eabi\include\c++\10.2.1\bits\stl_iterator.h **** 
  63:c:\program files\daisytoolchain\arm-none-eabi\include\c++\10.2.1\bits\stl_iterator.h **** #include <bits/cpp_type_traits.h>
  64:c:\program files\daisytoolchain\arm-none-eabi\include\c++\10.2.1\bits\stl_iterator.h **** #include <ext/type_traits.h>
  65:c:\program files\daisytoolchain\arm-none-eabi\include\c++\10.2.1\bits\stl_iterator.h **** #include <bits/move.h>
  66:c:\program files\daisytoolchain\arm-none-eabi\include\c++\10.2.1\bits\stl_iterator.h **** #include <bits/ptr_traits.h>
  67:c:\program files\daisytoolchain\arm-none-eabi\include\c++\10.2.1\bits\stl_iterator.h **** 
  68:c:\program files\daisytoolchain\arm-none-eabi\include\c++\10.2.1\bits\stl_iterator.h **** #if __cplusplus >= 201103L
ARM GAS  C:\Users\samue\AppData\Local\Temp\cci865ja.s 			page 66


  69:c:\program files\daisytoolchain\arm-none-eabi\include\c++\10.2.1\bits\stl_iterator.h **** # include <type_traits>
  70:c:\program files\daisytoolchain\arm-none-eabi\include\c++\10.2.1\bits\stl_iterator.h **** #endif
  71:c:\program files\daisytoolchain\arm-none-eabi\include\c++\10.2.1\bits\stl_iterator.h **** 
  72:c:\program files\daisytoolchain\arm-none-eabi\include\c++\10.2.1\bits\stl_iterator.h **** #if __cplusplus > 201703L
  73:c:\program files\daisytoolchain\arm-none-eabi\include\c++\10.2.1\bits\stl_iterator.h **** # define __cpp_lib_array_constexpr 201811L
  74:c:\program files\daisytoolchain\arm-none-eabi\include\c++\10.2.1\bits\stl_iterator.h **** # define __cpp_lib_constexpr_iterator 201811L
  75:c:\program files\daisytoolchain\arm-none-eabi\include\c++\10.2.1\bits\stl_iterator.h **** #elif __cplusplus == 201703L
  76:c:\program files\daisytoolchain\arm-none-eabi\include\c++\10.2.1\bits\stl_iterator.h **** # define __cpp_lib_array_constexpr 201803L
  77:c:\program files\daisytoolchain\arm-none-eabi\include\c++\10.2.1\bits\stl_iterator.h **** #endif
  78:c:\program files\daisytoolchain\arm-none-eabi\include\c++\10.2.1\bits\stl_iterator.h **** 
  79:c:\program files\daisytoolchain\arm-none-eabi\include\c++\10.2.1\bits\stl_iterator.h **** #if __cplusplus > 201703L
  80:c:\program files\daisytoolchain\arm-none-eabi\include\c++\10.2.1\bits\stl_iterator.h **** # include <compare>
  81:c:\program files\daisytoolchain\arm-none-eabi\include\c++\10.2.1\bits\stl_iterator.h **** # include <new>
  82:c:\program files\daisytoolchain\arm-none-eabi\include\c++\10.2.1\bits\stl_iterator.h **** # include <bits/iterator_concepts.h>
  83:c:\program files\daisytoolchain\arm-none-eabi\include\c++\10.2.1\bits\stl_iterator.h **** #endif
  84:c:\program files\daisytoolchain\arm-none-eabi\include\c++\10.2.1\bits\stl_iterator.h **** 
  85:c:\program files\daisytoolchain\arm-none-eabi\include\c++\10.2.1\bits\stl_iterator.h **** namespace std _GLIBCXX_VISIBILITY(default)
  86:c:\program files\daisytoolchain\arm-none-eabi\include\c++\10.2.1\bits\stl_iterator.h **** {
  87:c:\program files\daisytoolchain\arm-none-eabi\include\c++\10.2.1\bits\stl_iterator.h **** _GLIBCXX_BEGIN_NAMESPACE_VERSION
  88:c:\program files\daisytoolchain\arm-none-eabi\include\c++\10.2.1\bits\stl_iterator.h **** 
  89:c:\program files\daisytoolchain\arm-none-eabi\include\c++\10.2.1\bits\stl_iterator.h ****   /**
  90:c:\program files\daisytoolchain\arm-none-eabi\include\c++\10.2.1\bits\stl_iterator.h ****    * @addtogroup iterators
  91:c:\program files\daisytoolchain\arm-none-eabi\include\c++\10.2.1\bits\stl_iterator.h ****    * @{
  92:c:\program files\daisytoolchain\arm-none-eabi\include\c++\10.2.1\bits\stl_iterator.h ****    */
  93:c:\program files\daisytoolchain\arm-none-eabi\include\c++\10.2.1\bits\stl_iterator.h **** 
  94:c:\program files\daisytoolchain\arm-none-eabi\include\c++\10.2.1\bits\stl_iterator.h **** #if __cplusplus > 201703L && __cpp_lib_concepts
  95:c:\program files\daisytoolchain\arm-none-eabi\include\c++\10.2.1\bits\stl_iterator.h ****   namespace __detail
  96:c:\program files\daisytoolchain\arm-none-eabi\include\c++\10.2.1\bits\stl_iterator.h ****   {
  97:c:\program files\daisytoolchain\arm-none-eabi\include\c++\10.2.1\bits\stl_iterator.h ****     // Weaken iterator_category _Cat to _Limit if it is derived from that,
  98:c:\program files\daisytoolchain\arm-none-eabi\include\c++\10.2.1\bits\stl_iterator.h ****     // otherwise use _Otherwise.
  99:c:\program files\daisytoolchain\arm-none-eabi\include\c++\10.2.1\bits\stl_iterator.h ****     template<typename _Cat, typename _Limit, typename _Otherwise = _Cat>
 100:c:\program files\daisytoolchain\arm-none-eabi\include\c++\10.2.1\bits\stl_iterator.h ****       using __clamp_iter_cat
 101:c:\program files\daisytoolchain\arm-none-eabi\include\c++\10.2.1\bits\stl_iterator.h **** 	= conditional_t<derived_from<_Cat, _Limit>, _Limit, _Otherwise>;
 102:c:\program files\daisytoolchain\arm-none-eabi\include\c++\10.2.1\bits\stl_iterator.h ****   }
 103:c:\program files\daisytoolchain\arm-none-eabi\include\c++\10.2.1\bits\stl_iterator.h **** #endif
 104:c:\program files\daisytoolchain\arm-none-eabi\include\c++\10.2.1\bits\stl_iterator.h **** 
 105:c:\program files\daisytoolchain\arm-none-eabi\include\c++\10.2.1\bits\stl_iterator.h ****   // 24.4.1 Reverse iterators
 106:c:\program files\daisytoolchain\arm-none-eabi\include\c++\10.2.1\bits\stl_iterator.h ****   /**
 107:c:\program files\daisytoolchain\arm-none-eabi\include\c++\10.2.1\bits\stl_iterator.h ****    *  Bidirectional and random access iterators have corresponding reverse
 108:c:\program files\daisytoolchain\arm-none-eabi\include\c++\10.2.1\bits\stl_iterator.h ****    *  %iterator adaptors that iterate through the data structure in the
 109:c:\program files\daisytoolchain\arm-none-eabi\include\c++\10.2.1\bits\stl_iterator.h ****    *  opposite direction.  They have the same signatures as the corresponding
 110:c:\program files\daisytoolchain\arm-none-eabi\include\c++\10.2.1\bits\stl_iterator.h ****    *  iterators.  The fundamental relation between a reverse %iterator and its
 111:c:\program files\daisytoolchain\arm-none-eabi\include\c++\10.2.1\bits\stl_iterator.h ****    *  corresponding %iterator @c i is established by the identity:
 112:c:\program files\daisytoolchain\arm-none-eabi\include\c++\10.2.1\bits\stl_iterator.h ****    *  @code
 113:c:\program files\daisytoolchain\arm-none-eabi\include\c++\10.2.1\bits\stl_iterator.h ****    *      &*(reverse_iterator(i)) == &*(i - 1)
 114:c:\program files\daisytoolchain\arm-none-eabi\include\c++\10.2.1\bits\stl_iterator.h ****    *  @endcode
 115:c:\program files\daisytoolchain\arm-none-eabi\include\c++\10.2.1\bits\stl_iterator.h ****    *
 116:c:\program files\daisytoolchain\arm-none-eabi\include\c++\10.2.1\bits\stl_iterator.h ****    *  <em>This mapping is dictated by the fact that while there is always a
 117:c:\program files\daisytoolchain\arm-none-eabi\include\c++\10.2.1\bits\stl_iterator.h ****    *  pointer past the end of an array, there might not be a valid pointer
 118:c:\program files\daisytoolchain\arm-none-eabi\include\c++\10.2.1\bits\stl_iterator.h ****    *  before the beginning of an array.</em> [24.4.1]/1,2
 119:c:\program files\daisytoolchain\arm-none-eabi\include\c++\10.2.1\bits\stl_iterator.h ****    *
 120:c:\program files\daisytoolchain\arm-none-eabi\include\c++\10.2.1\bits\stl_iterator.h ****    *  Reverse iterators can be tricky and surprising at first.  Their
 121:c:\program files\daisytoolchain\arm-none-eabi\include\c++\10.2.1\bits\stl_iterator.h ****    *  semantics make sense, however, and the trickiness is a side effect of
 122:c:\program files\daisytoolchain\arm-none-eabi\include\c++\10.2.1\bits\stl_iterator.h ****    *  the requirement that the iterators must be safe.
 123:c:\program files\daisytoolchain\arm-none-eabi\include\c++\10.2.1\bits\stl_iterator.h ****   */
 124:c:\program files\daisytoolchain\arm-none-eabi\include\c++\10.2.1\bits\stl_iterator.h ****   template<typename _Iterator>
 125:c:\program files\daisytoolchain\arm-none-eabi\include\c++\10.2.1\bits\stl_iterator.h ****     class reverse_iterator
ARM GAS  C:\Users\samue\AppData\Local\Temp\cci865ja.s 			page 67


 126:c:\program files\daisytoolchain\arm-none-eabi\include\c++\10.2.1\bits\stl_iterator.h ****     : public iterator<typename iterator_traits<_Iterator>::iterator_category,
 127:c:\program files\daisytoolchain\arm-none-eabi\include\c++\10.2.1\bits\stl_iterator.h **** 		      typename iterator_traits<_Iterator>::value_type,
 128:c:\program files\daisytoolchain\arm-none-eabi\include\c++\10.2.1\bits\stl_iterator.h **** 		      typename iterator_traits<_Iterator>::difference_type,
 129:c:\program files\daisytoolchain\arm-none-eabi\include\c++\10.2.1\bits\stl_iterator.h **** 		      typename iterator_traits<_Iterator>::pointer,
 130:c:\program files\daisytoolchain\arm-none-eabi\include\c++\10.2.1\bits\stl_iterator.h ****                       typename iterator_traits<_Iterator>::reference>
 131:c:\program files\daisytoolchain\arm-none-eabi\include\c++\10.2.1\bits\stl_iterator.h ****     {
 132:c:\program files\daisytoolchain\arm-none-eabi\include\c++\10.2.1\bits\stl_iterator.h ****     protected:
 133:c:\program files\daisytoolchain\arm-none-eabi\include\c++\10.2.1\bits\stl_iterator.h ****       _Iterator current;
 134:c:\program files\daisytoolchain\arm-none-eabi\include\c++\10.2.1\bits\stl_iterator.h **** 
 135:c:\program files\daisytoolchain\arm-none-eabi\include\c++\10.2.1\bits\stl_iterator.h ****       typedef iterator_traits<_Iterator>		__traits_type;
 136:c:\program files\daisytoolchain\arm-none-eabi\include\c++\10.2.1\bits\stl_iterator.h **** 
 137:c:\program files\daisytoolchain\arm-none-eabi\include\c++\10.2.1\bits\stl_iterator.h ****     public:
 138:c:\program files\daisytoolchain\arm-none-eabi\include\c++\10.2.1\bits\stl_iterator.h ****       typedef _Iterator					iterator_type;
 139:c:\program files\daisytoolchain\arm-none-eabi\include\c++\10.2.1\bits\stl_iterator.h ****       typedef typename __traits_type::difference_type	difference_type;
 140:c:\program files\daisytoolchain\arm-none-eabi\include\c++\10.2.1\bits\stl_iterator.h ****       typedef typename __traits_type::pointer		pointer;
 141:c:\program files\daisytoolchain\arm-none-eabi\include\c++\10.2.1\bits\stl_iterator.h ****       typedef typename __traits_type::reference		reference;
 142:c:\program files\daisytoolchain\arm-none-eabi\include\c++\10.2.1\bits\stl_iterator.h **** 
 143:c:\program files\daisytoolchain\arm-none-eabi\include\c++\10.2.1\bits\stl_iterator.h **** #if __cplusplus > 201703L && __cpp_lib_concepts
 144:c:\program files\daisytoolchain\arm-none-eabi\include\c++\10.2.1\bits\stl_iterator.h ****       using iterator_concept
 145:c:\program files\daisytoolchain\arm-none-eabi\include\c++\10.2.1\bits\stl_iterator.h **** 	= conditional_t<random_access_iterator<_Iterator>,
 146:c:\program files\daisytoolchain\arm-none-eabi\include\c++\10.2.1\bits\stl_iterator.h **** 			random_access_iterator_tag,
 147:c:\program files\daisytoolchain\arm-none-eabi\include\c++\10.2.1\bits\stl_iterator.h **** 			bidirectional_iterator_tag>;
 148:c:\program files\daisytoolchain\arm-none-eabi\include\c++\10.2.1\bits\stl_iterator.h ****       using iterator_category
 149:c:\program files\daisytoolchain\arm-none-eabi\include\c++\10.2.1\bits\stl_iterator.h **** 	= __detail::__clamp_iter_cat<typename __traits_type::iterator_category,
 150:c:\program files\daisytoolchain\arm-none-eabi\include\c++\10.2.1\bits\stl_iterator.h **** 				     random_access_iterator_tag>;
 151:c:\program files\daisytoolchain\arm-none-eabi\include\c++\10.2.1\bits\stl_iterator.h **** #endif
 152:c:\program files\daisytoolchain\arm-none-eabi\include\c++\10.2.1\bits\stl_iterator.h **** 
 153:c:\program files\daisytoolchain\arm-none-eabi\include\c++\10.2.1\bits\stl_iterator.h ****       /**
 154:c:\program files\daisytoolchain\arm-none-eabi\include\c++\10.2.1\bits\stl_iterator.h ****        *  The default constructor value-initializes member @p current.
 155:c:\program files\daisytoolchain\arm-none-eabi\include\c++\10.2.1\bits\stl_iterator.h ****        *  If it is a pointer, that means it is zero-initialized.
 156:c:\program files\daisytoolchain\arm-none-eabi\include\c++\10.2.1\bits\stl_iterator.h ****       */
 157:c:\program files\daisytoolchain\arm-none-eabi\include\c++\10.2.1\bits\stl_iterator.h ****       // _GLIBCXX_RESOLVE_LIB_DEFECTS
 158:c:\program files\daisytoolchain\arm-none-eabi\include\c++\10.2.1\bits\stl_iterator.h ****       // 235 No specification of default ctor for reverse_iterator
 159:c:\program files\daisytoolchain\arm-none-eabi\include\c++\10.2.1\bits\stl_iterator.h ****       // 1012. reverse_iterator default ctor should value initialize
 160:c:\program files\daisytoolchain\arm-none-eabi\include\c++\10.2.1\bits\stl_iterator.h ****       _GLIBCXX17_CONSTEXPR
 161:c:\program files\daisytoolchain\arm-none-eabi\include\c++\10.2.1\bits\stl_iterator.h ****       reverse_iterator() : current() { }
 162:c:\program files\daisytoolchain\arm-none-eabi\include\c++\10.2.1\bits\stl_iterator.h **** 
 163:c:\program files\daisytoolchain\arm-none-eabi\include\c++\10.2.1\bits\stl_iterator.h ****       /**
 164:c:\program files\daisytoolchain\arm-none-eabi\include\c++\10.2.1\bits\stl_iterator.h ****        *  This %iterator will move in the opposite direction that @p x does.
 165:c:\program files\daisytoolchain\arm-none-eabi\include\c++\10.2.1\bits\stl_iterator.h ****       */
 166:c:\program files\daisytoolchain\arm-none-eabi\include\c++\10.2.1\bits\stl_iterator.h ****       explicit _GLIBCXX17_CONSTEXPR
 167:c:\program files\daisytoolchain\arm-none-eabi\include\c++\10.2.1\bits\stl_iterator.h ****       reverse_iterator(iterator_type __x) : current(__x) { }
 168:c:\program files\daisytoolchain\arm-none-eabi\include\c++\10.2.1\bits\stl_iterator.h **** 
 169:c:\program files\daisytoolchain\arm-none-eabi\include\c++\10.2.1\bits\stl_iterator.h ****       /**
 170:c:\program files\daisytoolchain\arm-none-eabi\include\c++\10.2.1\bits\stl_iterator.h ****        *  The copy constructor is normal.
 171:c:\program files\daisytoolchain\arm-none-eabi\include\c++\10.2.1\bits\stl_iterator.h ****       */
 172:c:\program files\daisytoolchain\arm-none-eabi\include\c++\10.2.1\bits\stl_iterator.h ****       _GLIBCXX17_CONSTEXPR
 173:c:\program files\daisytoolchain\arm-none-eabi\include\c++\10.2.1\bits\stl_iterator.h ****       reverse_iterator(const reverse_iterator& __x)
 174:c:\program files\daisytoolchain\arm-none-eabi\include\c++\10.2.1\bits\stl_iterator.h ****       : current(__x.current) { }
 175:c:\program files\daisytoolchain\arm-none-eabi\include\c++\10.2.1\bits\stl_iterator.h **** 
 176:c:\program files\daisytoolchain\arm-none-eabi\include\c++\10.2.1\bits\stl_iterator.h **** #if __cplusplus >= 201103L
 177:c:\program files\daisytoolchain\arm-none-eabi\include\c++\10.2.1\bits\stl_iterator.h ****       reverse_iterator& operator=(const reverse_iterator&) = default;
 178:c:\program files\daisytoolchain\arm-none-eabi\include\c++\10.2.1\bits\stl_iterator.h **** #endif
 179:c:\program files\daisytoolchain\arm-none-eabi\include\c++\10.2.1\bits\stl_iterator.h **** 
 180:c:\program files\daisytoolchain\arm-none-eabi\include\c++\10.2.1\bits\stl_iterator.h ****       /**
 181:c:\program files\daisytoolchain\arm-none-eabi\include\c++\10.2.1\bits\stl_iterator.h ****        *  A %reverse_iterator across other types can be copied if the
 182:c:\program files\daisytoolchain\arm-none-eabi\include\c++\10.2.1\bits\stl_iterator.h ****        *  underlying %iterator can be converted to the type of @c current.
ARM GAS  C:\Users\samue\AppData\Local\Temp\cci865ja.s 			page 68


 183:c:\program files\daisytoolchain\arm-none-eabi\include\c++\10.2.1\bits\stl_iterator.h ****       */
 184:c:\program files\daisytoolchain\arm-none-eabi\include\c++\10.2.1\bits\stl_iterator.h ****       template<typename _Iter>
 185:c:\program files\daisytoolchain\arm-none-eabi\include\c++\10.2.1\bits\stl_iterator.h **** 	_GLIBCXX17_CONSTEXPR
 186:c:\program files\daisytoolchain\arm-none-eabi\include\c++\10.2.1\bits\stl_iterator.h ****         reverse_iterator(const reverse_iterator<_Iter>& __x)
 187:c:\program files\daisytoolchain\arm-none-eabi\include\c++\10.2.1\bits\stl_iterator.h **** 	: current(__x.base()) { }
 188:c:\program files\daisytoolchain\arm-none-eabi\include\c++\10.2.1\bits\stl_iterator.h **** 
 189:c:\program files\daisytoolchain\arm-none-eabi\include\c++\10.2.1\bits\stl_iterator.h ****       /**
 190:c:\program files\daisytoolchain\arm-none-eabi\include\c++\10.2.1\bits\stl_iterator.h ****        *  @return  @c current, the %iterator used for underlying work.
 191:c:\program files\daisytoolchain\arm-none-eabi\include\c++\10.2.1\bits\stl_iterator.h ****       */
 192:c:\program files\daisytoolchain\arm-none-eabi\include\c++\10.2.1\bits\stl_iterator.h ****       _GLIBCXX17_CONSTEXPR iterator_type
 193:c:\program files\daisytoolchain\arm-none-eabi\include\c++\10.2.1\bits\stl_iterator.h ****       base() const
 194:c:\program files\daisytoolchain\arm-none-eabi\include\c++\10.2.1\bits\stl_iterator.h ****       { return current; }
 195:c:\program files\daisytoolchain\arm-none-eabi\include\c++\10.2.1\bits\stl_iterator.h **** 
 196:c:\program files\daisytoolchain\arm-none-eabi\include\c++\10.2.1\bits\stl_iterator.h ****       /**
 197:c:\program files\daisytoolchain\arm-none-eabi\include\c++\10.2.1\bits\stl_iterator.h ****        *  @return  A reference to the value at @c --current
 198:c:\program files\daisytoolchain\arm-none-eabi\include\c++\10.2.1\bits\stl_iterator.h ****        *
 199:c:\program files\daisytoolchain\arm-none-eabi\include\c++\10.2.1\bits\stl_iterator.h ****        *  This requires that @c --current is dereferenceable.
 200:c:\program files\daisytoolchain\arm-none-eabi\include\c++\10.2.1\bits\stl_iterator.h ****        *
 201:c:\program files\daisytoolchain\arm-none-eabi\include\c++\10.2.1\bits\stl_iterator.h ****        *  @warning This implementation requires that for an iterator of the
 202:c:\program files\daisytoolchain\arm-none-eabi\include\c++\10.2.1\bits\stl_iterator.h ****        *           underlying iterator type, @c x, a reference obtained by
 203:c:\program files\daisytoolchain\arm-none-eabi\include\c++\10.2.1\bits\stl_iterator.h ****        *           @c *x remains valid after @c x has been modified or
 204:c:\program files\daisytoolchain\arm-none-eabi\include\c++\10.2.1\bits\stl_iterator.h ****        *           destroyed. This is a bug: http://gcc.gnu.org/PR51823
 205:c:\program files\daisytoolchain\arm-none-eabi\include\c++\10.2.1\bits\stl_iterator.h ****       */
 206:c:\program files\daisytoolchain\arm-none-eabi\include\c++\10.2.1\bits\stl_iterator.h ****       _GLIBCXX17_CONSTEXPR reference
 207:c:\program files\daisytoolchain\arm-none-eabi\include\c++\10.2.1\bits\stl_iterator.h ****       operator*() const
 208:c:\program files\daisytoolchain\arm-none-eabi\include\c++\10.2.1\bits\stl_iterator.h ****       {
 209:c:\program files\daisytoolchain\arm-none-eabi\include\c++\10.2.1\bits\stl_iterator.h **** 	_Iterator __tmp = current;
 210:c:\program files\daisytoolchain\arm-none-eabi\include\c++\10.2.1\bits\stl_iterator.h **** 	return *--__tmp;
 211:c:\program files\daisytoolchain\arm-none-eabi\include\c++\10.2.1\bits\stl_iterator.h ****       }
 212:c:\program files\daisytoolchain\arm-none-eabi\include\c++\10.2.1\bits\stl_iterator.h **** 
 213:c:\program files\daisytoolchain\arm-none-eabi\include\c++\10.2.1\bits\stl_iterator.h ****       /**
 214:c:\program files\daisytoolchain\arm-none-eabi\include\c++\10.2.1\bits\stl_iterator.h ****        *  @return  A pointer to the value at @c --current
 215:c:\program files\daisytoolchain\arm-none-eabi\include\c++\10.2.1\bits\stl_iterator.h ****        *
 216:c:\program files\daisytoolchain\arm-none-eabi\include\c++\10.2.1\bits\stl_iterator.h ****        *  This requires that @c --current is dereferenceable.
 217:c:\program files\daisytoolchain\arm-none-eabi\include\c++\10.2.1\bits\stl_iterator.h ****       */
 218:c:\program files\daisytoolchain\arm-none-eabi\include\c++\10.2.1\bits\stl_iterator.h ****       _GLIBCXX17_CONSTEXPR pointer
 219:c:\program files\daisytoolchain\arm-none-eabi\include\c++\10.2.1\bits\stl_iterator.h ****       operator->() const
 220:c:\program files\daisytoolchain\arm-none-eabi\include\c++\10.2.1\bits\stl_iterator.h **** #if __cplusplus > 201703L && __cpp_concepts >= 201907L
 221:c:\program files\daisytoolchain\arm-none-eabi\include\c++\10.2.1\bits\stl_iterator.h ****       requires is_pointer_v<_Iterator>
 222:c:\program files\daisytoolchain\arm-none-eabi\include\c++\10.2.1\bits\stl_iterator.h **** 	|| requires(const _Iterator __i) { __i.operator->(); }
 223:c:\program files\daisytoolchain\arm-none-eabi\include\c++\10.2.1\bits\stl_iterator.h **** #endif
 224:c:\program files\daisytoolchain\arm-none-eabi\include\c++\10.2.1\bits\stl_iterator.h ****       {
 225:c:\program files\daisytoolchain\arm-none-eabi\include\c++\10.2.1\bits\stl_iterator.h **** 	// _GLIBCXX_RESOLVE_LIB_DEFECTS
 226:c:\program files\daisytoolchain\arm-none-eabi\include\c++\10.2.1\bits\stl_iterator.h **** 	// 1052. operator-> should also support smart pointers
 227:c:\program files\daisytoolchain\arm-none-eabi\include\c++\10.2.1\bits\stl_iterator.h **** 	_Iterator __tmp = current;
 228:c:\program files\daisytoolchain\arm-none-eabi\include\c++\10.2.1\bits\stl_iterator.h **** 	--__tmp;
 229:c:\program files\daisytoolchain\arm-none-eabi\include\c++\10.2.1\bits\stl_iterator.h **** 	return _S_to_pointer(__tmp);
 230:c:\program files\daisytoolchain\arm-none-eabi\include\c++\10.2.1\bits\stl_iterator.h ****       }
 231:c:\program files\daisytoolchain\arm-none-eabi\include\c++\10.2.1\bits\stl_iterator.h **** 
 232:c:\program files\daisytoolchain\arm-none-eabi\include\c++\10.2.1\bits\stl_iterator.h ****       /**
 233:c:\program files\daisytoolchain\arm-none-eabi\include\c++\10.2.1\bits\stl_iterator.h ****        *  @return  @c *this
 234:c:\program files\daisytoolchain\arm-none-eabi\include\c++\10.2.1\bits\stl_iterator.h ****        *
 235:c:\program files\daisytoolchain\arm-none-eabi\include\c++\10.2.1\bits\stl_iterator.h ****        *  Decrements the underlying iterator.
 236:c:\program files\daisytoolchain\arm-none-eabi\include\c++\10.2.1\bits\stl_iterator.h ****       */
 237:c:\program files\daisytoolchain\arm-none-eabi\include\c++\10.2.1\bits\stl_iterator.h ****       _GLIBCXX17_CONSTEXPR reverse_iterator&
 238:c:\program files\daisytoolchain\arm-none-eabi\include\c++\10.2.1\bits\stl_iterator.h ****       operator++()
 239:c:\program files\daisytoolchain\arm-none-eabi\include\c++\10.2.1\bits\stl_iterator.h ****       {
ARM GAS  C:\Users\samue\AppData\Local\Temp\cci865ja.s 			page 69


 240:c:\program files\daisytoolchain\arm-none-eabi\include\c++\10.2.1\bits\stl_iterator.h **** 	--current;
 241:c:\program files\daisytoolchain\arm-none-eabi\include\c++\10.2.1\bits\stl_iterator.h **** 	return *this;
 242:c:\program files\daisytoolchain\arm-none-eabi\include\c++\10.2.1\bits\stl_iterator.h ****       }
 243:c:\program files\daisytoolchain\arm-none-eabi\include\c++\10.2.1\bits\stl_iterator.h **** 
 244:c:\program files\daisytoolchain\arm-none-eabi\include\c++\10.2.1\bits\stl_iterator.h ****       /**
 245:c:\program files\daisytoolchain\arm-none-eabi\include\c++\10.2.1\bits\stl_iterator.h ****        *  @return  The original value of @c *this
 246:c:\program files\daisytoolchain\arm-none-eabi\include\c++\10.2.1\bits\stl_iterator.h ****        *
 247:c:\program files\daisytoolchain\arm-none-eabi\include\c++\10.2.1\bits\stl_iterator.h ****        *  Decrements the underlying iterator.
 248:c:\program files\daisytoolchain\arm-none-eabi\include\c++\10.2.1\bits\stl_iterator.h ****       */
 249:c:\program files\daisytoolchain\arm-none-eabi\include\c++\10.2.1\bits\stl_iterator.h ****       _GLIBCXX17_CONSTEXPR reverse_iterator
 250:c:\program files\daisytoolchain\arm-none-eabi\include\c++\10.2.1\bits\stl_iterator.h ****       operator++(int)
 251:c:\program files\daisytoolchain\arm-none-eabi\include\c++\10.2.1\bits\stl_iterator.h ****       {
 252:c:\program files\daisytoolchain\arm-none-eabi\include\c++\10.2.1\bits\stl_iterator.h **** 	reverse_iterator __tmp = *this;
 253:c:\program files\daisytoolchain\arm-none-eabi\include\c++\10.2.1\bits\stl_iterator.h **** 	--current;
 254:c:\program files\daisytoolchain\arm-none-eabi\include\c++\10.2.1\bits\stl_iterator.h **** 	return __tmp;
 255:c:\program files\daisytoolchain\arm-none-eabi\include\c++\10.2.1\bits\stl_iterator.h ****       }
 256:c:\program files\daisytoolchain\arm-none-eabi\include\c++\10.2.1\bits\stl_iterator.h **** 
 257:c:\program files\daisytoolchain\arm-none-eabi\include\c++\10.2.1\bits\stl_iterator.h ****       /**
 258:c:\program files\daisytoolchain\arm-none-eabi\include\c++\10.2.1\bits\stl_iterator.h ****        *  @return  @c *this
 259:c:\program files\daisytoolchain\arm-none-eabi\include\c++\10.2.1\bits\stl_iterator.h ****        *
 260:c:\program files\daisytoolchain\arm-none-eabi\include\c++\10.2.1\bits\stl_iterator.h ****        *  Increments the underlying iterator.
 261:c:\program files\daisytoolchain\arm-none-eabi\include\c++\10.2.1\bits\stl_iterator.h ****       */
 262:c:\program files\daisytoolchain\arm-none-eabi\include\c++\10.2.1\bits\stl_iterator.h ****       _GLIBCXX17_CONSTEXPR reverse_iterator&
 263:c:\program files\daisytoolchain\arm-none-eabi\include\c++\10.2.1\bits\stl_iterator.h ****       operator--()
 264:c:\program files\daisytoolchain\arm-none-eabi\include\c++\10.2.1\bits\stl_iterator.h ****       {
 265:c:\program files\daisytoolchain\arm-none-eabi\include\c++\10.2.1\bits\stl_iterator.h **** 	++current;
 266:c:\program files\daisytoolchain\arm-none-eabi\include\c++\10.2.1\bits\stl_iterator.h **** 	return *this;
 267:c:\program files\daisytoolchain\arm-none-eabi\include\c++\10.2.1\bits\stl_iterator.h ****       }
 268:c:\program files\daisytoolchain\arm-none-eabi\include\c++\10.2.1\bits\stl_iterator.h **** 
 269:c:\program files\daisytoolchain\arm-none-eabi\include\c++\10.2.1\bits\stl_iterator.h ****       /**
 270:c:\program files\daisytoolchain\arm-none-eabi\include\c++\10.2.1\bits\stl_iterator.h ****        *  @return  A reverse_iterator with the previous value of @c *this
 271:c:\program files\daisytoolchain\arm-none-eabi\include\c++\10.2.1\bits\stl_iterator.h ****        *
 272:c:\program files\daisytoolchain\arm-none-eabi\include\c++\10.2.1\bits\stl_iterator.h ****        *  Increments the underlying iterator.
 273:c:\program files\daisytoolchain\arm-none-eabi\include\c++\10.2.1\bits\stl_iterator.h ****       */
 274:c:\program files\daisytoolchain\arm-none-eabi\include\c++\10.2.1\bits\stl_iterator.h ****       _GLIBCXX17_CONSTEXPR reverse_iterator
 275:c:\program files\daisytoolchain\arm-none-eabi\include\c++\10.2.1\bits\stl_iterator.h ****       operator--(int)
 276:c:\program files\daisytoolchain\arm-none-eabi\include\c++\10.2.1\bits\stl_iterator.h ****       {
 277:c:\program files\daisytoolchain\arm-none-eabi\include\c++\10.2.1\bits\stl_iterator.h **** 	reverse_iterator __tmp = *this;
 278:c:\program files\daisytoolchain\arm-none-eabi\include\c++\10.2.1\bits\stl_iterator.h **** 	++current;
 279:c:\program files\daisytoolchain\arm-none-eabi\include\c++\10.2.1\bits\stl_iterator.h **** 	return __tmp;
 280:c:\program files\daisytoolchain\arm-none-eabi\include\c++\10.2.1\bits\stl_iterator.h ****       }
 281:c:\program files\daisytoolchain\arm-none-eabi\include\c++\10.2.1\bits\stl_iterator.h **** 
 282:c:\program files\daisytoolchain\arm-none-eabi\include\c++\10.2.1\bits\stl_iterator.h ****       /**
 283:c:\program files\daisytoolchain\arm-none-eabi\include\c++\10.2.1\bits\stl_iterator.h ****        *  @return  A reverse_iterator that refers to @c current - @a __n
 284:c:\program files\daisytoolchain\arm-none-eabi\include\c++\10.2.1\bits\stl_iterator.h ****        *
 285:c:\program files\daisytoolchain\arm-none-eabi\include\c++\10.2.1\bits\stl_iterator.h ****        *  The underlying iterator must be a Random Access Iterator.
 286:c:\program files\daisytoolchain\arm-none-eabi\include\c++\10.2.1\bits\stl_iterator.h ****       */
 287:c:\program files\daisytoolchain\arm-none-eabi\include\c++\10.2.1\bits\stl_iterator.h ****       _GLIBCXX17_CONSTEXPR reverse_iterator
 288:c:\program files\daisytoolchain\arm-none-eabi\include\c++\10.2.1\bits\stl_iterator.h ****       operator+(difference_type __n) const
 289:c:\program files\daisytoolchain\arm-none-eabi\include\c++\10.2.1\bits\stl_iterator.h ****       { return reverse_iterator(current - __n); }
 290:c:\program files\daisytoolchain\arm-none-eabi\include\c++\10.2.1\bits\stl_iterator.h **** 
 291:c:\program files\daisytoolchain\arm-none-eabi\include\c++\10.2.1\bits\stl_iterator.h ****       /**
 292:c:\program files\daisytoolchain\arm-none-eabi\include\c++\10.2.1\bits\stl_iterator.h ****        *  @return  *this
 293:c:\program files\daisytoolchain\arm-none-eabi\include\c++\10.2.1\bits\stl_iterator.h ****        *
 294:c:\program files\daisytoolchain\arm-none-eabi\include\c++\10.2.1\bits\stl_iterator.h ****        *  Moves the underlying iterator backwards @a __n steps.
 295:c:\program files\daisytoolchain\arm-none-eabi\include\c++\10.2.1\bits\stl_iterator.h ****        *  The underlying iterator must be a Random Access Iterator.
 296:c:\program files\daisytoolchain\arm-none-eabi\include\c++\10.2.1\bits\stl_iterator.h ****       */
ARM GAS  C:\Users\samue\AppData\Local\Temp\cci865ja.s 			page 70


 297:c:\program files\daisytoolchain\arm-none-eabi\include\c++\10.2.1\bits\stl_iterator.h ****       _GLIBCXX17_CONSTEXPR reverse_iterator&
 298:c:\program files\daisytoolchain\arm-none-eabi\include\c++\10.2.1\bits\stl_iterator.h ****       operator+=(difference_type __n)
 299:c:\program files\daisytoolchain\arm-none-eabi\include\c++\10.2.1\bits\stl_iterator.h ****       {
 300:c:\program files\daisytoolchain\arm-none-eabi\include\c++\10.2.1\bits\stl_iterator.h **** 	current -= __n;
 301:c:\program files\daisytoolchain\arm-none-eabi\include\c++\10.2.1\bits\stl_iterator.h **** 	return *this;
 302:c:\program files\daisytoolchain\arm-none-eabi\include\c++\10.2.1\bits\stl_iterator.h ****       }
 303:c:\program files\daisytoolchain\arm-none-eabi\include\c++\10.2.1\bits\stl_iterator.h **** 
 304:c:\program files\daisytoolchain\arm-none-eabi\include\c++\10.2.1\bits\stl_iterator.h ****       /**
 305:c:\program files\daisytoolchain\arm-none-eabi\include\c++\10.2.1\bits\stl_iterator.h ****        *  @return  A reverse_iterator that refers to @c current - @a __n
 306:c:\program files\daisytoolchain\arm-none-eabi\include\c++\10.2.1\bits\stl_iterator.h ****        *
 307:c:\program files\daisytoolchain\arm-none-eabi\include\c++\10.2.1\bits\stl_iterator.h ****        *  The underlying iterator must be a Random Access Iterator.
 308:c:\program files\daisytoolchain\arm-none-eabi\include\c++\10.2.1\bits\stl_iterator.h ****       */
 309:c:\program files\daisytoolchain\arm-none-eabi\include\c++\10.2.1\bits\stl_iterator.h ****       _GLIBCXX17_CONSTEXPR reverse_iterator
 310:c:\program files\daisytoolchain\arm-none-eabi\include\c++\10.2.1\bits\stl_iterator.h ****       operator-(difference_type __n) const
 311:c:\program files\daisytoolchain\arm-none-eabi\include\c++\10.2.1\bits\stl_iterator.h ****       { return reverse_iterator(current + __n); }
 312:c:\program files\daisytoolchain\arm-none-eabi\include\c++\10.2.1\bits\stl_iterator.h **** 
 313:c:\program files\daisytoolchain\arm-none-eabi\include\c++\10.2.1\bits\stl_iterator.h ****       /**
 314:c:\program files\daisytoolchain\arm-none-eabi\include\c++\10.2.1\bits\stl_iterator.h ****        *  @return  *this
 315:c:\program files\daisytoolchain\arm-none-eabi\include\c++\10.2.1\bits\stl_iterator.h ****        *
 316:c:\program files\daisytoolchain\arm-none-eabi\include\c++\10.2.1\bits\stl_iterator.h ****        *  Moves the underlying iterator forwards @a __n steps.
 317:c:\program files\daisytoolchain\arm-none-eabi\include\c++\10.2.1\bits\stl_iterator.h ****        *  The underlying iterator must be a Random Access Iterator.
 318:c:\program files\daisytoolchain\arm-none-eabi\include\c++\10.2.1\bits\stl_iterator.h ****       */
 319:c:\program files\daisytoolchain\arm-none-eabi\include\c++\10.2.1\bits\stl_iterator.h ****       _GLIBCXX17_CONSTEXPR reverse_iterator&
 320:c:\program files\daisytoolchain\arm-none-eabi\include\c++\10.2.1\bits\stl_iterator.h ****       operator-=(difference_type __n)
 321:c:\program files\daisytoolchain\arm-none-eabi\include\c++\10.2.1\bits\stl_iterator.h ****       {
 322:c:\program files\daisytoolchain\arm-none-eabi\include\c++\10.2.1\bits\stl_iterator.h **** 	current += __n;
 323:c:\program files\daisytoolchain\arm-none-eabi\include\c++\10.2.1\bits\stl_iterator.h **** 	return *this;
 324:c:\program files\daisytoolchain\arm-none-eabi\include\c++\10.2.1\bits\stl_iterator.h ****       }
 325:c:\program files\daisytoolchain\arm-none-eabi\include\c++\10.2.1\bits\stl_iterator.h **** 
 326:c:\program files\daisytoolchain\arm-none-eabi\include\c++\10.2.1\bits\stl_iterator.h ****       /**
 327:c:\program files\daisytoolchain\arm-none-eabi\include\c++\10.2.1\bits\stl_iterator.h ****        *  @return  The value at @c current - @a __n - 1
 328:c:\program files\daisytoolchain\arm-none-eabi\include\c++\10.2.1\bits\stl_iterator.h ****        *
 329:c:\program files\daisytoolchain\arm-none-eabi\include\c++\10.2.1\bits\stl_iterator.h ****        *  The underlying iterator must be a Random Access Iterator.
 330:c:\program files\daisytoolchain\arm-none-eabi\include\c++\10.2.1\bits\stl_iterator.h ****       */
 331:c:\program files\daisytoolchain\arm-none-eabi\include\c++\10.2.1\bits\stl_iterator.h ****       _GLIBCXX17_CONSTEXPR reference
 332:c:\program files\daisytoolchain\arm-none-eabi\include\c++\10.2.1\bits\stl_iterator.h ****       operator[](difference_type __n) const
 333:c:\program files\daisytoolchain\arm-none-eabi\include\c++\10.2.1\bits\stl_iterator.h ****       { return *(*this + __n); }
 334:c:\program files\daisytoolchain\arm-none-eabi\include\c++\10.2.1\bits\stl_iterator.h **** 
 335:c:\program files\daisytoolchain\arm-none-eabi\include\c++\10.2.1\bits\stl_iterator.h **** #if __cplusplus > 201703L && __cpp_lib_concepts
 336:c:\program files\daisytoolchain\arm-none-eabi\include\c++\10.2.1\bits\stl_iterator.h ****       friend constexpr iter_rvalue_reference_t<_Iterator>
 337:c:\program files\daisytoolchain\arm-none-eabi\include\c++\10.2.1\bits\stl_iterator.h ****       iter_move(const reverse_iterator& __i)
 338:c:\program files\daisytoolchain\arm-none-eabi\include\c++\10.2.1\bits\stl_iterator.h ****       noexcept(is_nothrow_copy_constructible_v<_Iterator>
 339:c:\program files\daisytoolchain\arm-none-eabi\include\c++\10.2.1\bits\stl_iterator.h **** 	       && noexcept(ranges::iter_move(--std::declval<_Iterator&>())))
 340:c:\program files\daisytoolchain\arm-none-eabi\include\c++\10.2.1\bits\stl_iterator.h ****       {
 341:c:\program files\daisytoolchain\arm-none-eabi\include\c++\10.2.1\bits\stl_iterator.h **** 	auto __tmp = __i.base();
 342:c:\program files\daisytoolchain\arm-none-eabi\include\c++\10.2.1\bits\stl_iterator.h **** 	return ranges::iter_move(--__tmp);
 343:c:\program files\daisytoolchain\arm-none-eabi\include\c++\10.2.1\bits\stl_iterator.h ****       }
 344:c:\program files\daisytoolchain\arm-none-eabi\include\c++\10.2.1\bits\stl_iterator.h **** 
 345:c:\program files\daisytoolchain\arm-none-eabi\include\c++\10.2.1\bits\stl_iterator.h ****       template<indirectly_swappable<_Iterator> _Iter2>
 346:c:\program files\daisytoolchain\arm-none-eabi\include\c++\10.2.1\bits\stl_iterator.h **** 	friend constexpr void
 347:c:\program files\daisytoolchain\arm-none-eabi\include\c++\10.2.1\bits\stl_iterator.h **** 	iter_swap(const reverse_iterator& __x,
 348:c:\program files\daisytoolchain\arm-none-eabi\include\c++\10.2.1\bits\stl_iterator.h **** 		  const reverse_iterator<_Iter2>& __y)
 349:c:\program files\daisytoolchain\arm-none-eabi\include\c++\10.2.1\bits\stl_iterator.h **** 	noexcept(is_nothrow_copy_constructible_v<_Iterator>
 350:c:\program files\daisytoolchain\arm-none-eabi\include\c++\10.2.1\bits\stl_iterator.h **** 		 && is_nothrow_copy_constructible_v<_Iter2>
 351:c:\program files\daisytoolchain\arm-none-eabi\include\c++\10.2.1\bits\stl_iterator.h **** 		 && noexcept(ranges::iter_swap(--std::declval<_Iterator&>(),
 352:c:\program files\daisytoolchain\arm-none-eabi\include\c++\10.2.1\bits\stl_iterator.h **** 					       --std::declval<_Iter2&>())))
 353:c:\program files\daisytoolchain\arm-none-eabi\include\c++\10.2.1\bits\stl_iterator.h **** 	{
ARM GAS  C:\Users\samue\AppData\Local\Temp\cci865ja.s 			page 71


 354:c:\program files\daisytoolchain\arm-none-eabi\include\c++\10.2.1\bits\stl_iterator.h **** 	  auto __xtmp = __x.base();
 355:c:\program files\daisytoolchain\arm-none-eabi\include\c++\10.2.1\bits\stl_iterator.h **** 	  auto __ytmp = __y.base();
 356:c:\program files\daisytoolchain\arm-none-eabi\include\c++\10.2.1\bits\stl_iterator.h **** 	  ranges::iter_swap(--__xtmp, --__ytmp);
 357:c:\program files\daisytoolchain\arm-none-eabi\include\c++\10.2.1\bits\stl_iterator.h **** 	}
 358:c:\program files\daisytoolchain\arm-none-eabi\include\c++\10.2.1\bits\stl_iterator.h **** #endif
 359:c:\program files\daisytoolchain\arm-none-eabi\include\c++\10.2.1\bits\stl_iterator.h **** 
 360:c:\program files\daisytoolchain\arm-none-eabi\include\c++\10.2.1\bits\stl_iterator.h ****     private:
 361:c:\program files\daisytoolchain\arm-none-eabi\include\c++\10.2.1\bits\stl_iterator.h ****       template<typename _Tp>
 362:c:\program files\daisytoolchain\arm-none-eabi\include\c++\10.2.1\bits\stl_iterator.h **** 	static _GLIBCXX17_CONSTEXPR _Tp*
 363:c:\program files\daisytoolchain\arm-none-eabi\include\c++\10.2.1\bits\stl_iterator.h **** 	_S_to_pointer(_Tp* __p)
 364:c:\program files\daisytoolchain\arm-none-eabi\include\c++\10.2.1\bits\stl_iterator.h ****         { return __p; }
 365:c:\program files\daisytoolchain\arm-none-eabi\include\c++\10.2.1\bits\stl_iterator.h **** 
 366:c:\program files\daisytoolchain\arm-none-eabi\include\c++\10.2.1\bits\stl_iterator.h ****       template<typename _Tp>
 367:c:\program files\daisytoolchain\arm-none-eabi\include\c++\10.2.1\bits\stl_iterator.h **** 	static _GLIBCXX17_CONSTEXPR pointer
 368:c:\program files\daisytoolchain\arm-none-eabi\include\c++\10.2.1\bits\stl_iterator.h **** 	_S_to_pointer(_Tp __t)
 369:c:\program files\daisytoolchain\arm-none-eabi\include\c++\10.2.1\bits\stl_iterator.h ****         { return __t.operator->(); }
 370:c:\program files\daisytoolchain\arm-none-eabi\include\c++\10.2.1\bits\stl_iterator.h ****     };
 371:c:\program files\daisytoolchain\arm-none-eabi\include\c++\10.2.1\bits\stl_iterator.h **** 
 372:c:\program files\daisytoolchain\arm-none-eabi\include\c++\10.2.1\bits\stl_iterator.h ****   //@{
 373:c:\program files\daisytoolchain\arm-none-eabi\include\c++\10.2.1\bits\stl_iterator.h ****   /**
 374:c:\program files\daisytoolchain\arm-none-eabi\include\c++\10.2.1\bits\stl_iterator.h ****    *  @param  __x  A %reverse_iterator.
 375:c:\program files\daisytoolchain\arm-none-eabi\include\c++\10.2.1\bits\stl_iterator.h ****    *  @param  __y  A %reverse_iterator.
 376:c:\program files\daisytoolchain\arm-none-eabi\include\c++\10.2.1\bits\stl_iterator.h ****    *  @return  A simple bool.
 377:c:\program files\daisytoolchain\arm-none-eabi\include\c++\10.2.1\bits\stl_iterator.h ****    *
 378:c:\program files\daisytoolchain\arm-none-eabi\include\c++\10.2.1\bits\stl_iterator.h ****    *  Reverse iterators forward comparisons to their underlying base()
 379:c:\program files\daisytoolchain\arm-none-eabi\include\c++\10.2.1\bits\stl_iterator.h ****    *  iterators.
 380:c:\program files\daisytoolchain\arm-none-eabi\include\c++\10.2.1\bits\stl_iterator.h ****    *
 381:c:\program files\daisytoolchain\arm-none-eabi\include\c++\10.2.1\bits\stl_iterator.h ****   */
 382:c:\program files\daisytoolchain\arm-none-eabi\include\c++\10.2.1\bits\stl_iterator.h **** #if __cplusplus <= 201703L || ! defined __cpp_lib_concepts
 383:c:\program files\daisytoolchain\arm-none-eabi\include\c++\10.2.1\bits\stl_iterator.h ****   template<typename _Iterator>
 384:c:\program files\daisytoolchain\arm-none-eabi\include\c++\10.2.1\bits\stl_iterator.h ****     inline _GLIBCXX17_CONSTEXPR bool
 385:c:\program files\daisytoolchain\arm-none-eabi\include\c++\10.2.1\bits\stl_iterator.h ****     operator==(const reverse_iterator<_Iterator>& __x,
 386:c:\program files\daisytoolchain\arm-none-eabi\include\c++\10.2.1\bits\stl_iterator.h **** 	       const reverse_iterator<_Iterator>& __y)
 387:c:\program files\daisytoolchain\arm-none-eabi\include\c++\10.2.1\bits\stl_iterator.h ****     { return __x.base() == __y.base(); }
 388:c:\program files\daisytoolchain\arm-none-eabi\include\c++\10.2.1\bits\stl_iterator.h **** 
 389:c:\program files\daisytoolchain\arm-none-eabi\include\c++\10.2.1\bits\stl_iterator.h ****   template<typename _Iterator>
 390:c:\program files\daisytoolchain\arm-none-eabi\include\c++\10.2.1\bits\stl_iterator.h ****     inline _GLIBCXX17_CONSTEXPR bool
 391:c:\program files\daisytoolchain\arm-none-eabi\include\c++\10.2.1\bits\stl_iterator.h ****     operator<(const reverse_iterator<_Iterator>& __x,
 392:c:\program files\daisytoolchain\arm-none-eabi\include\c++\10.2.1\bits\stl_iterator.h **** 	      const reverse_iterator<_Iterator>& __y)
 393:c:\program files\daisytoolchain\arm-none-eabi\include\c++\10.2.1\bits\stl_iterator.h ****     { return __y.base() < __x.base(); }
 394:c:\program files\daisytoolchain\arm-none-eabi\include\c++\10.2.1\bits\stl_iterator.h **** 
 395:c:\program files\daisytoolchain\arm-none-eabi\include\c++\10.2.1\bits\stl_iterator.h ****   template<typename _Iterator>
 396:c:\program files\daisytoolchain\arm-none-eabi\include\c++\10.2.1\bits\stl_iterator.h ****     inline _GLIBCXX17_CONSTEXPR bool
 397:c:\program files\daisytoolchain\arm-none-eabi\include\c++\10.2.1\bits\stl_iterator.h ****     operator!=(const reverse_iterator<_Iterator>& __x,
 398:c:\program files\daisytoolchain\arm-none-eabi\include\c++\10.2.1\bits\stl_iterator.h **** 	       const reverse_iterator<_Iterator>& __y)
 399:c:\program files\daisytoolchain\arm-none-eabi\include\c++\10.2.1\bits\stl_iterator.h ****     { return !(__x == __y); }
 400:c:\program files\daisytoolchain\arm-none-eabi\include\c++\10.2.1\bits\stl_iterator.h **** 
 401:c:\program files\daisytoolchain\arm-none-eabi\include\c++\10.2.1\bits\stl_iterator.h ****   template<typename _Iterator>
 402:c:\program files\daisytoolchain\arm-none-eabi\include\c++\10.2.1\bits\stl_iterator.h ****     inline _GLIBCXX17_CONSTEXPR bool
 403:c:\program files\daisytoolchain\arm-none-eabi\include\c++\10.2.1\bits\stl_iterator.h ****     operator>(const reverse_iterator<_Iterator>& __x,
 404:c:\program files\daisytoolchain\arm-none-eabi\include\c++\10.2.1\bits\stl_iterator.h **** 	      const reverse_iterator<_Iterator>& __y)
 405:c:\program files\daisytoolchain\arm-none-eabi\include\c++\10.2.1\bits\stl_iterator.h ****     { return __y < __x; }
 406:c:\program files\daisytoolchain\arm-none-eabi\include\c++\10.2.1\bits\stl_iterator.h **** 
 407:c:\program files\daisytoolchain\arm-none-eabi\include\c++\10.2.1\bits\stl_iterator.h ****   template<typename _Iterator>
 408:c:\program files\daisytoolchain\arm-none-eabi\include\c++\10.2.1\bits\stl_iterator.h ****     inline _GLIBCXX17_CONSTEXPR bool
 409:c:\program files\daisytoolchain\arm-none-eabi\include\c++\10.2.1\bits\stl_iterator.h ****     operator<=(const reverse_iterator<_Iterator>& __x,
 410:c:\program files\daisytoolchain\arm-none-eabi\include\c++\10.2.1\bits\stl_iterator.h **** 	       const reverse_iterator<_Iterator>& __y)
ARM GAS  C:\Users\samue\AppData\Local\Temp\cci865ja.s 			page 72


 411:c:\program files\daisytoolchain\arm-none-eabi\include\c++\10.2.1\bits\stl_iterator.h ****     { return !(__y < __x); }
 412:c:\program files\daisytoolchain\arm-none-eabi\include\c++\10.2.1\bits\stl_iterator.h **** 
 413:c:\program files\daisytoolchain\arm-none-eabi\include\c++\10.2.1\bits\stl_iterator.h ****   template<typename _Iterator>
 414:c:\program files\daisytoolchain\arm-none-eabi\include\c++\10.2.1\bits\stl_iterator.h ****     inline _GLIBCXX17_CONSTEXPR bool
 415:c:\program files\daisytoolchain\arm-none-eabi\include\c++\10.2.1\bits\stl_iterator.h ****     operator>=(const reverse_iterator<_Iterator>& __x,
 416:c:\program files\daisytoolchain\arm-none-eabi\include\c++\10.2.1\bits\stl_iterator.h **** 	       const reverse_iterator<_Iterator>& __y)
 417:c:\program files\daisytoolchain\arm-none-eabi\include\c++\10.2.1\bits\stl_iterator.h ****     { return !(__x < __y); }
 418:c:\program files\daisytoolchain\arm-none-eabi\include\c++\10.2.1\bits\stl_iterator.h **** 
 419:c:\program files\daisytoolchain\arm-none-eabi\include\c++\10.2.1\bits\stl_iterator.h ****   // _GLIBCXX_RESOLVE_LIB_DEFECTS
 420:c:\program files\daisytoolchain\arm-none-eabi\include\c++\10.2.1\bits\stl_iterator.h ****   // DR 280. Comparison of reverse_iterator to const reverse_iterator.
 421:c:\program files\daisytoolchain\arm-none-eabi\include\c++\10.2.1\bits\stl_iterator.h ****   template<typename _IteratorL, typename _IteratorR>
 422:c:\program files\daisytoolchain\arm-none-eabi\include\c++\10.2.1\bits\stl_iterator.h ****     inline _GLIBCXX17_CONSTEXPR bool
 423:c:\program files\daisytoolchain\arm-none-eabi\include\c++\10.2.1\bits\stl_iterator.h ****     operator==(const reverse_iterator<_IteratorL>& __x,
 424:c:\program files\daisytoolchain\arm-none-eabi\include\c++\10.2.1\bits\stl_iterator.h **** 	       const reverse_iterator<_IteratorR>& __y)
 425:c:\program files\daisytoolchain\arm-none-eabi\include\c++\10.2.1\bits\stl_iterator.h ****     { return __x.base() == __y.base(); }
 426:c:\program files\daisytoolchain\arm-none-eabi\include\c++\10.2.1\bits\stl_iterator.h **** 
 427:c:\program files\daisytoolchain\arm-none-eabi\include\c++\10.2.1\bits\stl_iterator.h ****   template<typename _IteratorL, typename _IteratorR>
 428:c:\program files\daisytoolchain\arm-none-eabi\include\c++\10.2.1\bits\stl_iterator.h ****     inline _GLIBCXX17_CONSTEXPR bool
 429:c:\program files\daisytoolchain\arm-none-eabi\include\c++\10.2.1\bits\stl_iterator.h ****     operator<(const reverse_iterator<_IteratorL>& __x,
 430:c:\program files\daisytoolchain\arm-none-eabi\include\c++\10.2.1\bits\stl_iterator.h **** 	      const reverse_iterator<_IteratorR>& __y)
 431:c:\program files\daisytoolchain\arm-none-eabi\include\c++\10.2.1\bits\stl_iterator.h ****     { return __y.base() < __x.base(); }
 432:c:\program files\daisytoolchain\arm-none-eabi\include\c++\10.2.1\bits\stl_iterator.h **** 
 433:c:\program files\daisytoolchain\arm-none-eabi\include\c++\10.2.1\bits\stl_iterator.h ****   template<typename _IteratorL, typename _IteratorR>
 434:c:\program files\daisytoolchain\arm-none-eabi\include\c++\10.2.1\bits\stl_iterator.h ****     inline _GLIBCXX17_CONSTEXPR bool
 435:c:\program files\daisytoolchain\arm-none-eabi\include\c++\10.2.1\bits\stl_iterator.h ****     operator!=(const reverse_iterator<_IteratorL>& __x,
 436:c:\program files\daisytoolchain\arm-none-eabi\include\c++\10.2.1\bits\stl_iterator.h **** 	       const reverse_iterator<_IteratorR>& __y)
 437:c:\program files\daisytoolchain\arm-none-eabi\include\c++\10.2.1\bits\stl_iterator.h ****     { return !(__x == __y); }
 438:c:\program files\daisytoolchain\arm-none-eabi\include\c++\10.2.1\bits\stl_iterator.h **** 
 439:c:\program files\daisytoolchain\arm-none-eabi\include\c++\10.2.1\bits\stl_iterator.h ****   template<typename _IteratorL, typename _IteratorR>
 440:c:\program files\daisytoolchain\arm-none-eabi\include\c++\10.2.1\bits\stl_iterator.h ****     inline _GLIBCXX17_CONSTEXPR bool
 441:c:\program files\daisytoolchain\arm-none-eabi\include\c++\10.2.1\bits\stl_iterator.h ****     operator>(const reverse_iterator<_IteratorL>& __x,
 442:c:\program files\daisytoolchain\arm-none-eabi\include\c++\10.2.1\bits\stl_iterator.h **** 	      const reverse_iterator<_IteratorR>& __y)
 443:c:\program files\daisytoolchain\arm-none-eabi\include\c++\10.2.1\bits\stl_iterator.h ****     { return __y < __x; }
 444:c:\program files\daisytoolchain\arm-none-eabi\include\c++\10.2.1\bits\stl_iterator.h **** 
 445:c:\program files\daisytoolchain\arm-none-eabi\include\c++\10.2.1\bits\stl_iterator.h ****   template<typename _IteratorL, typename _IteratorR>
 446:c:\program files\daisytoolchain\arm-none-eabi\include\c++\10.2.1\bits\stl_iterator.h ****     inline _GLIBCXX17_CONSTEXPR bool
 447:c:\program files\daisytoolchain\arm-none-eabi\include\c++\10.2.1\bits\stl_iterator.h ****     operator<=(const reverse_iterator<_IteratorL>& __x,
 448:c:\program files\daisytoolchain\arm-none-eabi\include\c++\10.2.1\bits\stl_iterator.h **** 	       const reverse_iterator<_IteratorR>& __y)
 449:c:\program files\daisytoolchain\arm-none-eabi\include\c++\10.2.1\bits\stl_iterator.h ****     { return !(__y < __x); }
 450:c:\program files\daisytoolchain\arm-none-eabi\include\c++\10.2.1\bits\stl_iterator.h **** 
 451:c:\program files\daisytoolchain\arm-none-eabi\include\c++\10.2.1\bits\stl_iterator.h ****   template<typename _IteratorL, typename _IteratorR>
 452:c:\program files\daisytoolchain\arm-none-eabi\include\c++\10.2.1\bits\stl_iterator.h ****     inline _GLIBCXX17_CONSTEXPR bool
 453:c:\program files\daisytoolchain\arm-none-eabi\include\c++\10.2.1\bits\stl_iterator.h ****     operator>=(const reverse_iterator<_IteratorL>& __x,
 454:c:\program files\daisytoolchain\arm-none-eabi\include\c++\10.2.1\bits\stl_iterator.h **** 	       const reverse_iterator<_IteratorR>& __y)
 455:c:\program files\daisytoolchain\arm-none-eabi\include\c++\10.2.1\bits\stl_iterator.h ****     { return !(__x < __y); }
 456:c:\program files\daisytoolchain\arm-none-eabi\include\c++\10.2.1\bits\stl_iterator.h **** #else // C++20
 457:c:\program files\daisytoolchain\arm-none-eabi\include\c++\10.2.1\bits\stl_iterator.h ****   template<typename _IteratorL, typename _IteratorR>
 458:c:\program files\daisytoolchain\arm-none-eabi\include\c++\10.2.1\bits\stl_iterator.h ****     constexpr bool
 459:c:\program files\daisytoolchain\arm-none-eabi\include\c++\10.2.1\bits\stl_iterator.h ****     operator==(const reverse_iterator<_IteratorL>& __x,
 460:c:\program files\daisytoolchain\arm-none-eabi\include\c++\10.2.1\bits\stl_iterator.h **** 	       const reverse_iterator<_IteratorR>& __y)
 461:c:\program files\daisytoolchain\arm-none-eabi\include\c++\10.2.1\bits\stl_iterator.h ****     requires requires { { __x.base() == __y.base() } -> convertible_to<bool>; }
 462:c:\program files\daisytoolchain\arm-none-eabi\include\c++\10.2.1\bits\stl_iterator.h ****     { return __x.base() == __y.base(); }
 463:c:\program files\daisytoolchain\arm-none-eabi\include\c++\10.2.1\bits\stl_iterator.h **** 
 464:c:\program files\daisytoolchain\arm-none-eabi\include\c++\10.2.1\bits\stl_iterator.h ****   template<typename _IteratorL, typename _IteratorR>
 465:c:\program files\daisytoolchain\arm-none-eabi\include\c++\10.2.1\bits\stl_iterator.h ****     constexpr bool
 466:c:\program files\daisytoolchain\arm-none-eabi\include\c++\10.2.1\bits\stl_iterator.h ****     operator!=(const reverse_iterator<_IteratorL>& __x,
 467:c:\program files\daisytoolchain\arm-none-eabi\include\c++\10.2.1\bits\stl_iterator.h **** 	       const reverse_iterator<_IteratorR>& __y)
ARM GAS  C:\Users\samue\AppData\Local\Temp\cci865ja.s 			page 73


 468:c:\program files\daisytoolchain\arm-none-eabi\include\c++\10.2.1\bits\stl_iterator.h ****     requires requires { { __x.base() != __y.base() } -> convertible_to<bool>; }
 469:c:\program files\daisytoolchain\arm-none-eabi\include\c++\10.2.1\bits\stl_iterator.h ****     { return __x.base() != __y.base(); }
 470:c:\program files\daisytoolchain\arm-none-eabi\include\c++\10.2.1\bits\stl_iterator.h **** 
 471:c:\program files\daisytoolchain\arm-none-eabi\include\c++\10.2.1\bits\stl_iterator.h ****   template<typename _IteratorL, typename _IteratorR>
 472:c:\program files\daisytoolchain\arm-none-eabi\include\c++\10.2.1\bits\stl_iterator.h ****     constexpr bool
 473:c:\program files\daisytoolchain\arm-none-eabi\include\c++\10.2.1\bits\stl_iterator.h ****     operator<(const reverse_iterator<_IteratorL>& __x,
 474:c:\program files\daisytoolchain\arm-none-eabi\include\c++\10.2.1\bits\stl_iterator.h **** 	      const reverse_iterator<_IteratorR>& __y)
 475:c:\program files\daisytoolchain\arm-none-eabi\include\c++\10.2.1\bits\stl_iterator.h ****     requires requires { { __x.base() > __y.base() } -> convertible_to<bool>; }
 476:c:\program files\daisytoolchain\arm-none-eabi\include\c++\10.2.1\bits\stl_iterator.h ****     { return __x.base() > __y.base(); }
 477:c:\program files\daisytoolchain\arm-none-eabi\include\c++\10.2.1\bits\stl_iterator.h **** 
 478:c:\program files\daisytoolchain\arm-none-eabi\include\c++\10.2.1\bits\stl_iterator.h ****   template<typename _IteratorL, typename _IteratorR>
 479:c:\program files\daisytoolchain\arm-none-eabi\include\c++\10.2.1\bits\stl_iterator.h ****     constexpr bool
 480:c:\program files\daisytoolchain\arm-none-eabi\include\c++\10.2.1\bits\stl_iterator.h ****     operator>(const reverse_iterator<_IteratorL>& __x,
 481:c:\program files\daisytoolchain\arm-none-eabi\include\c++\10.2.1\bits\stl_iterator.h **** 	      const reverse_iterator<_IteratorR>& __y)
 482:c:\program files\daisytoolchain\arm-none-eabi\include\c++\10.2.1\bits\stl_iterator.h ****     requires requires { { __x.base() < __y.base() } -> convertible_to<bool>; }
 483:c:\program files\daisytoolchain\arm-none-eabi\include\c++\10.2.1\bits\stl_iterator.h ****     { return __x.base() < __y.base(); }
 484:c:\program files\daisytoolchain\arm-none-eabi\include\c++\10.2.1\bits\stl_iterator.h **** 
 485:c:\program files\daisytoolchain\arm-none-eabi\include\c++\10.2.1\bits\stl_iterator.h ****   template<typename _IteratorL, typename _IteratorR>
 486:c:\program files\daisytoolchain\arm-none-eabi\include\c++\10.2.1\bits\stl_iterator.h ****     constexpr bool
 487:c:\program files\daisytoolchain\arm-none-eabi\include\c++\10.2.1\bits\stl_iterator.h ****     operator<=(const reverse_iterator<_IteratorL>& __x,
 488:c:\program files\daisytoolchain\arm-none-eabi\include\c++\10.2.1\bits\stl_iterator.h **** 	       const reverse_iterator<_IteratorR>& __y)
 489:c:\program files\daisytoolchain\arm-none-eabi\include\c++\10.2.1\bits\stl_iterator.h ****     requires requires { { __x.base() >= __y.base() } -> convertible_to<bool>; }
 490:c:\program files\daisytoolchain\arm-none-eabi\include\c++\10.2.1\bits\stl_iterator.h ****     { return __x.base() >= __y.base(); }
 491:c:\program files\daisytoolchain\arm-none-eabi\include\c++\10.2.1\bits\stl_iterator.h **** 
 492:c:\program files\daisytoolchain\arm-none-eabi\include\c++\10.2.1\bits\stl_iterator.h ****   template<typename _IteratorL, typename _IteratorR>
 493:c:\program files\daisytoolchain\arm-none-eabi\include\c++\10.2.1\bits\stl_iterator.h ****     constexpr bool
 494:c:\program files\daisytoolchain\arm-none-eabi\include\c++\10.2.1\bits\stl_iterator.h ****     operator>=(const reverse_iterator<_IteratorL>& __x,
 495:c:\program files\daisytoolchain\arm-none-eabi\include\c++\10.2.1\bits\stl_iterator.h **** 	       const reverse_iterator<_IteratorR>& __y)
 496:c:\program files\daisytoolchain\arm-none-eabi\include\c++\10.2.1\bits\stl_iterator.h ****     requires requires { { __x.base() <= __y.base() } -> convertible_to<bool>; }
 497:c:\program files\daisytoolchain\arm-none-eabi\include\c++\10.2.1\bits\stl_iterator.h ****     { return __x.base() <= __y.base(); }
 498:c:\program files\daisytoolchain\arm-none-eabi\include\c++\10.2.1\bits\stl_iterator.h **** 
 499:c:\program files\daisytoolchain\arm-none-eabi\include\c++\10.2.1\bits\stl_iterator.h ****   template<typename _IteratorL,
 500:c:\program files\daisytoolchain\arm-none-eabi\include\c++\10.2.1\bits\stl_iterator.h **** 	   three_way_comparable_with<_IteratorL> _IteratorR>
 501:c:\program files\daisytoolchain\arm-none-eabi\include\c++\10.2.1\bits\stl_iterator.h ****     constexpr compare_three_way_result_t<_IteratorL, _IteratorR>
 502:c:\program files\daisytoolchain\arm-none-eabi\include\c++\10.2.1\bits\stl_iterator.h ****     operator<=>(const reverse_iterator<_IteratorL>& __x,
 503:c:\program files\daisytoolchain\arm-none-eabi\include\c++\10.2.1\bits\stl_iterator.h **** 		const reverse_iterator<_IteratorR>& __y)
 504:c:\program files\daisytoolchain\arm-none-eabi\include\c++\10.2.1\bits\stl_iterator.h ****     { return __y.base() <=> __x.base(); }
 505:c:\program files\daisytoolchain\arm-none-eabi\include\c++\10.2.1\bits\stl_iterator.h **** #endif // C++20
 506:c:\program files\daisytoolchain\arm-none-eabi\include\c++\10.2.1\bits\stl_iterator.h ****   //@}
 507:c:\program files\daisytoolchain\arm-none-eabi\include\c++\10.2.1\bits\stl_iterator.h **** 
 508:c:\program files\daisytoolchain\arm-none-eabi\include\c++\10.2.1\bits\stl_iterator.h **** #if __cplusplus < 201103L
 509:c:\program files\daisytoolchain\arm-none-eabi\include\c++\10.2.1\bits\stl_iterator.h ****   template<typename _Iterator>
 510:c:\program files\daisytoolchain\arm-none-eabi\include\c++\10.2.1\bits\stl_iterator.h ****     inline typename reverse_iterator<_Iterator>::difference_type
 511:c:\program files\daisytoolchain\arm-none-eabi\include\c++\10.2.1\bits\stl_iterator.h ****     operator-(const reverse_iterator<_Iterator>& __x,
 512:c:\program files\daisytoolchain\arm-none-eabi\include\c++\10.2.1\bits\stl_iterator.h **** 	      const reverse_iterator<_Iterator>& __y)
 513:c:\program files\daisytoolchain\arm-none-eabi\include\c++\10.2.1\bits\stl_iterator.h ****     { return __y.base() - __x.base(); }
 514:c:\program files\daisytoolchain\arm-none-eabi\include\c++\10.2.1\bits\stl_iterator.h **** 
 515:c:\program files\daisytoolchain\arm-none-eabi\include\c++\10.2.1\bits\stl_iterator.h ****   template<typename _IteratorL, typename _IteratorR>
 516:c:\program files\daisytoolchain\arm-none-eabi\include\c++\10.2.1\bits\stl_iterator.h ****     inline typename reverse_iterator<_IteratorL>::difference_type
 517:c:\program files\daisytoolchain\arm-none-eabi\include\c++\10.2.1\bits\stl_iterator.h ****     operator-(const reverse_iterator<_IteratorL>& __x,
 518:c:\program files\daisytoolchain\arm-none-eabi\include\c++\10.2.1\bits\stl_iterator.h **** 	      const reverse_iterator<_IteratorR>& __y)
 519:c:\program files\daisytoolchain\arm-none-eabi\include\c++\10.2.1\bits\stl_iterator.h ****     { return __y.base() - __x.base(); }
 520:c:\program files\daisytoolchain\arm-none-eabi\include\c++\10.2.1\bits\stl_iterator.h **** #else
 521:c:\program files\daisytoolchain\arm-none-eabi\include\c++\10.2.1\bits\stl_iterator.h ****   // _GLIBCXX_RESOLVE_LIB_DEFECTS
 522:c:\program files\daisytoolchain\arm-none-eabi\include\c++\10.2.1\bits\stl_iterator.h ****   // DR 685. reverse_iterator/move_iterator difference has invalid signatures
 523:c:\program files\daisytoolchain\arm-none-eabi\include\c++\10.2.1\bits\stl_iterator.h ****   template<typename _IteratorL, typename _IteratorR>
 524:c:\program files\daisytoolchain\arm-none-eabi\include\c++\10.2.1\bits\stl_iterator.h ****     inline _GLIBCXX17_CONSTEXPR auto
ARM GAS  C:\Users\samue\AppData\Local\Temp\cci865ja.s 			page 74


 525:c:\program files\daisytoolchain\arm-none-eabi\include\c++\10.2.1\bits\stl_iterator.h ****     operator-(const reverse_iterator<_IteratorL>& __x,
 526:c:\program files\daisytoolchain\arm-none-eabi\include\c++\10.2.1\bits\stl_iterator.h **** 	      const reverse_iterator<_IteratorR>& __y)
 527:c:\program files\daisytoolchain\arm-none-eabi\include\c++\10.2.1\bits\stl_iterator.h ****     -> decltype(__y.base() - __x.base())
 528:c:\program files\daisytoolchain\arm-none-eabi\include\c++\10.2.1\bits\stl_iterator.h ****     { return __y.base() - __x.base(); }
 529:c:\program files\daisytoolchain\arm-none-eabi\include\c++\10.2.1\bits\stl_iterator.h **** #endif
 530:c:\program files\daisytoolchain\arm-none-eabi\include\c++\10.2.1\bits\stl_iterator.h **** 
 531:c:\program files\daisytoolchain\arm-none-eabi\include\c++\10.2.1\bits\stl_iterator.h ****   template<typename _Iterator>
 532:c:\program files\daisytoolchain\arm-none-eabi\include\c++\10.2.1\bits\stl_iterator.h ****     inline _GLIBCXX17_CONSTEXPR reverse_iterator<_Iterator>
 533:c:\program files\daisytoolchain\arm-none-eabi\include\c++\10.2.1\bits\stl_iterator.h ****     operator+(typename reverse_iterator<_Iterator>::difference_type __n,
 534:c:\program files\daisytoolchain\arm-none-eabi\include\c++\10.2.1\bits\stl_iterator.h **** 	      const reverse_iterator<_Iterator>& __x)
 535:c:\program files\daisytoolchain\arm-none-eabi\include\c++\10.2.1\bits\stl_iterator.h ****     { return reverse_iterator<_Iterator>(__x.base() - __n); }
 536:c:\program files\daisytoolchain\arm-none-eabi\include\c++\10.2.1\bits\stl_iterator.h **** 
 537:c:\program files\daisytoolchain\arm-none-eabi\include\c++\10.2.1\bits\stl_iterator.h **** #if __cplusplus >= 201103L
 538:c:\program files\daisytoolchain\arm-none-eabi\include\c++\10.2.1\bits\stl_iterator.h ****   // Same as C++14 make_reverse_iterator but used in C++11 mode too.
 539:c:\program files\daisytoolchain\arm-none-eabi\include\c++\10.2.1\bits\stl_iterator.h ****   template<typename _Iterator>
 540:c:\program files\daisytoolchain\arm-none-eabi\include\c++\10.2.1\bits\stl_iterator.h ****     inline _GLIBCXX17_CONSTEXPR reverse_iterator<_Iterator>
 541:c:\program files\daisytoolchain\arm-none-eabi\include\c++\10.2.1\bits\stl_iterator.h ****     __make_reverse_iterator(_Iterator __i)
 542:c:\program files\daisytoolchain\arm-none-eabi\include\c++\10.2.1\bits\stl_iterator.h ****     { return reverse_iterator<_Iterator>(__i); }
 543:c:\program files\daisytoolchain\arm-none-eabi\include\c++\10.2.1\bits\stl_iterator.h **** 
 544:c:\program files\daisytoolchain\arm-none-eabi\include\c++\10.2.1\bits\stl_iterator.h **** # if __cplusplus >= 201402L
 545:c:\program files\daisytoolchain\arm-none-eabi\include\c++\10.2.1\bits\stl_iterator.h **** #  define __cpp_lib_make_reverse_iterator 201402
 546:c:\program files\daisytoolchain\arm-none-eabi\include\c++\10.2.1\bits\stl_iterator.h **** 
 547:c:\program files\daisytoolchain\arm-none-eabi\include\c++\10.2.1\bits\stl_iterator.h ****   // _GLIBCXX_RESOLVE_LIB_DEFECTS
 548:c:\program files\daisytoolchain\arm-none-eabi\include\c++\10.2.1\bits\stl_iterator.h ****   // DR 2285. make_reverse_iterator
 549:c:\program files\daisytoolchain\arm-none-eabi\include\c++\10.2.1\bits\stl_iterator.h ****   /// Generator function for reverse_iterator.
 550:c:\program files\daisytoolchain\arm-none-eabi\include\c++\10.2.1\bits\stl_iterator.h ****   template<typename _Iterator>
 551:c:\program files\daisytoolchain\arm-none-eabi\include\c++\10.2.1\bits\stl_iterator.h ****     inline _GLIBCXX17_CONSTEXPR reverse_iterator<_Iterator>
 552:c:\program files\daisytoolchain\arm-none-eabi\include\c++\10.2.1\bits\stl_iterator.h ****     make_reverse_iterator(_Iterator __i)
 553:c:\program files\daisytoolchain\arm-none-eabi\include\c++\10.2.1\bits\stl_iterator.h ****     { return reverse_iterator<_Iterator>(__i); }
 554:c:\program files\daisytoolchain\arm-none-eabi\include\c++\10.2.1\bits\stl_iterator.h **** 
 555:c:\program files\daisytoolchain\arm-none-eabi\include\c++\10.2.1\bits\stl_iterator.h **** #  if __cplusplus > 201703L && defined __cpp_lib_concepts
 556:c:\program files\daisytoolchain\arm-none-eabi\include\c++\10.2.1\bits\stl_iterator.h ****   template<typename _Iterator1, typename _Iterator2>
 557:c:\program files\daisytoolchain\arm-none-eabi\include\c++\10.2.1\bits\stl_iterator.h ****     requires (!sized_sentinel_for<_Iterator1, _Iterator2>)
 558:c:\program files\daisytoolchain\arm-none-eabi\include\c++\10.2.1\bits\stl_iterator.h ****     inline constexpr bool
 559:c:\program files\daisytoolchain\arm-none-eabi\include\c++\10.2.1\bits\stl_iterator.h ****     disable_sized_sentinel_for<reverse_iterator<_Iterator1>,
 560:c:\program files\daisytoolchain\arm-none-eabi\include\c++\10.2.1\bits\stl_iterator.h **** 			       reverse_iterator<_Iterator2>> = true;
 561:c:\program files\daisytoolchain\arm-none-eabi\include\c++\10.2.1\bits\stl_iterator.h **** #  endif // C++20
 562:c:\program files\daisytoolchain\arm-none-eabi\include\c++\10.2.1\bits\stl_iterator.h **** # endif // C++14
 563:c:\program files\daisytoolchain\arm-none-eabi\include\c++\10.2.1\bits\stl_iterator.h **** 
 564:c:\program files\daisytoolchain\arm-none-eabi\include\c++\10.2.1\bits\stl_iterator.h ****   template<typename _Iterator>
 565:c:\program files\daisytoolchain\arm-none-eabi\include\c++\10.2.1\bits\stl_iterator.h ****     _GLIBCXX20_CONSTEXPR
 566:c:\program files\daisytoolchain\arm-none-eabi\include\c++\10.2.1\bits\stl_iterator.h ****     auto
 567:c:\program files\daisytoolchain\arm-none-eabi\include\c++\10.2.1\bits\stl_iterator.h ****     __niter_base(reverse_iterator<_Iterator> __it)
 568:c:\program files\daisytoolchain\arm-none-eabi\include\c++\10.2.1\bits\stl_iterator.h ****     -> decltype(__make_reverse_iterator(__niter_base(__it.base())))
 569:c:\program files\daisytoolchain\arm-none-eabi\include\c++\10.2.1\bits\stl_iterator.h ****     { return __make_reverse_iterator(__niter_base(__it.base())); }
 570:c:\program files\daisytoolchain\arm-none-eabi\include\c++\10.2.1\bits\stl_iterator.h **** 
 571:c:\program files\daisytoolchain\arm-none-eabi\include\c++\10.2.1\bits\stl_iterator.h ****   template<typename _Iterator>
 572:c:\program files\daisytoolchain\arm-none-eabi\include\c++\10.2.1\bits\stl_iterator.h ****     struct __is_move_iterator<reverse_iterator<_Iterator> >
 573:c:\program files\daisytoolchain\arm-none-eabi\include\c++\10.2.1\bits\stl_iterator.h ****       : __is_move_iterator<_Iterator>
 574:c:\program files\daisytoolchain\arm-none-eabi\include\c++\10.2.1\bits\stl_iterator.h ****     { };
 575:c:\program files\daisytoolchain\arm-none-eabi\include\c++\10.2.1\bits\stl_iterator.h **** 
 576:c:\program files\daisytoolchain\arm-none-eabi\include\c++\10.2.1\bits\stl_iterator.h ****   template<typename _Iterator>
 577:c:\program files\daisytoolchain\arm-none-eabi\include\c++\10.2.1\bits\stl_iterator.h ****     _GLIBCXX20_CONSTEXPR
 578:c:\program files\daisytoolchain\arm-none-eabi\include\c++\10.2.1\bits\stl_iterator.h ****     auto
 579:c:\program files\daisytoolchain\arm-none-eabi\include\c++\10.2.1\bits\stl_iterator.h ****     __miter_base(reverse_iterator<_Iterator> __it)
 580:c:\program files\daisytoolchain\arm-none-eabi\include\c++\10.2.1\bits\stl_iterator.h ****     -> decltype(__make_reverse_iterator(__miter_base(__it.base())))
 581:c:\program files\daisytoolchain\arm-none-eabi\include\c++\10.2.1\bits\stl_iterator.h ****     { return __make_reverse_iterator(__miter_base(__it.base())); }
ARM GAS  C:\Users\samue\AppData\Local\Temp\cci865ja.s 			page 75


 582:c:\program files\daisytoolchain\arm-none-eabi\include\c++\10.2.1\bits\stl_iterator.h **** #endif // C++11
 583:c:\program files\daisytoolchain\arm-none-eabi\include\c++\10.2.1\bits\stl_iterator.h **** 
 584:c:\program files\daisytoolchain\arm-none-eabi\include\c++\10.2.1\bits\stl_iterator.h ****   // 24.4.2.2.1 back_insert_iterator
 585:c:\program files\daisytoolchain\arm-none-eabi\include\c++\10.2.1\bits\stl_iterator.h ****   /**
 586:c:\program files\daisytoolchain\arm-none-eabi\include\c++\10.2.1\bits\stl_iterator.h ****    *  @brief  Turns assignment into insertion.
 587:c:\program files\daisytoolchain\arm-none-eabi\include\c++\10.2.1\bits\stl_iterator.h ****    *
 588:c:\program files\daisytoolchain\arm-none-eabi\include\c++\10.2.1\bits\stl_iterator.h ****    *  These are output iterators, constructed from a container-of-T.
 589:c:\program files\daisytoolchain\arm-none-eabi\include\c++\10.2.1\bits\stl_iterator.h ****    *  Assigning a T to the iterator appends it to the container using
 590:c:\program files\daisytoolchain\arm-none-eabi\include\c++\10.2.1\bits\stl_iterator.h ****    *  push_back.
 591:c:\program files\daisytoolchain\arm-none-eabi\include\c++\10.2.1\bits\stl_iterator.h ****    *
 592:c:\program files\daisytoolchain\arm-none-eabi\include\c++\10.2.1\bits\stl_iterator.h ****    *  Tip:  Using the back_inserter function to create these iterators can
 593:c:\program files\daisytoolchain\arm-none-eabi\include\c++\10.2.1\bits\stl_iterator.h ****    *  save typing.
 594:c:\program files\daisytoolchain\arm-none-eabi\include\c++\10.2.1\bits\stl_iterator.h ****   */
 595:c:\program files\daisytoolchain\arm-none-eabi\include\c++\10.2.1\bits\stl_iterator.h ****   template<typename _Container>
 596:c:\program files\daisytoolchain\arm-none-eabi\include\c++\10.2.1\bits\stl_iterator.h ****     class back_insert_iterator
 597:c:\program files\daisytoolchain\arm-none-eabi\include\c++\10.2.1\bits\stl_iterator.h ****     : public iterator<output_iterator_tag, void, void, void, void>
 598:c:\program files\daisytoolchain\arm-none-eabi\include\c++\10.2.1\bits\stl_iterator.h ****     {
 599:c:\program files\daisytoolchain\arm-none-eabi\include\c++\10.2.1\bits\stl_iterator.h ****     protected:
 600:c:\program files\daisytoolchain\arm-none-eabi\include\c++\10.2.1\bits\stl_iterator.h ****       _Container* container;
 601:c:\program files\daisytoolchain\arm-none-eabi\include\c++\10.2.1\bits\stl_iterator.h **** 
 602:c:\program files\daisytoolchain\arm-none-eabi\include\c++\10.2.1\bits\stl_iterator.h ****     public:
 603:c:\program files\daisytoolchain\arm-none-eabi\include\c++\10.2.1\bits\stl_iterator.h ****       /// A nested typedef for the type of whatever container you used.
 604:c:\program files\daisytoolchain\arm-none-eabi\include\c++\10.2.1\bits\stl_iterator.h ****       typedef _Container          container_type;
 605:c:\program files\daisytoolchain\arm-none-eabi\include\c++\10.2.1\bits\stl_iterator.h **** #if __cplusplus > 201703L
 606:c:\program files\daisytoolchain\arm-none-eabi\include\c++\10.2.1\bits\stl_iterator.h ****       using difference_type = ptrdiff_t;
 607:c:\program files\daisytoolchain\arm-none-eabi\include\c++\10.2.1\bits\stl_iterator.h **** 
 608:c:\program files\daisytoolchain\arm-none-eabi\include\c++\10.2.1\bits\stl_iterator.h ****       constexpr back_insert_iterator() noexcept : container(nullptr) { }
 609:c:\program files\daisytoolchain\arm-none-eabi\include\c++\10.2.1\bits\stl_iterator.h **** #endif
 610:c:\program files\daisytoolchain\arm-none-eabi\include\c++\10.2.1\bits\stl_iterator.h **** 
 611:c:\program files\daisytoolchain\arm-none-eabi\include\c++\10.2.1\bits\stl_iterator.h ****       /// The only way to create this %iterator is with a container.
 612:c:\program files\daisytoolchain\arm-none-eabi\include\c++\10.2.1\bits\stl_iterator.h ****       explicit _GLIBCXX20_CONSTEXPR
 613:c:\program files\daisytoolchain\arm-none-eabi\include\c++\10.2.1\bits\stl_iterator.h ****       back_insert_iterator(_Container& __x)
 614:c:\program files\daisytoolchain\arm-none-eabi\include\c++\10.2.1\bits\stl_iterator.h ****       : container(std::__addressof(__x)) { }
 615:c:\program files\daisytoolchain\arm-none-eabi\include\c++\10.2.1\bits\stl_iterator.h **** 
 616:c:\program files\daisytoolchain\arm-none-eabi\include\c++\10.2.1\bits\stl_iterator.h ****       /**
 617:c:\program files\daisytoolchain\arm-none-eabi\include\c++\10.2.1\bits\stl_iterator.h ****        *  @param  __value  An instance of whatever type
 618:c:\program files\daisytoolchain\arm-none-eabi\include\c++\10.2.1\bits\stl_iterator.h ****        *                 container_type::const_reference is; presumably a
 619:c:\program files\daisytoolchain\arm-none-eabi\include\c++\10.2.1\bits\stl_iterator.h ****        *                 reference-to-const T for container<T>.
 620:c:\program files\daisytoolchain\arm-none-eabi\include\c++\10.2.1\bits\stl_iterator.h ****        *  @return  This %iterator, for chained operations.
 621:c:\program files\daisytoolchain\arm-none-eabi\include\c++\10.2.1\bits\stl_iterator.h ****        *
 622:c:\program files\daisytoolchain\arm-none-eabi\include\c++\10.2.1\bits\stl_iterator.h ****        *  This kind of %iterator doesn't really have a @a position in the
 623:c:\program files\daisytoolchain\arm-none-eabi\include\c++\10.2.1\bits\stl_iterator.h ****        *  container (you can think of the position as being permanently at
 624:c:\program files\daisytoolchain\arm-none-eabi\include\c++\10.2.1\bits\stl_iterator.h ****        *  the end, if you like).  Assigning a value to the %iterator will
 625:c:\program files\daisytoolchain\arm-none-eabi\include\c++\10.2.1\bits\stl_iterator.h ****        *  always append the value to the end of the container.
 626:c:\program files\daisytoolchain\arm-none-eabi\include\c++\10.2.1\bits\stl_iterator.h ****       */
 627:c:\program files\daisytoolchain\arm-none-eabi\include\c++\10.2.1\bits\stl_iterator.h **** #if __cplusplus < 201103L
 628:c:\program files\daisytoolchain\arm-none-eabi\include\c++\10.2.1\bits\stl_iterator.h ****       back_insert_iterator&
 629:c:\program files\daisytoolchain\arm-none-eabi\include\c++\10.2.1\bits\stl_iterator.h ****       operator=(typename _Container::const_reference __value)
 630:c:\program files\daisytoolchain\arm-none-eabi\include\c++\10.2.1\bits\stl_iterator.h ****       {
 631:c:\program files\daisytoolchain\arm-none-eabi\include\c++\10.2.1\bits\stl_iterator.h **** 	container->push_back(__value);
 632:c:\program files\daisytoolchain\arm-none-eabi\include\c++\10.2.1\bits\stl_iterator.h **** 	return *this;
 633:c:\program files\daisytoolchain\arm-none-eabi\include\c++\10.2.1\bits\stl_iterator.h ****       }
 634:c:\program files\daisytoolchain\arm-none-eabi\include\c++\10.2.1\bits\stl_iterator.h **** #else
 635:c:\program files\daisytoolchain\arm-none-eabi\include\c++\10.2.1\bits\stl_iterator.h ****       _GLIBCXX20_CONSTEXPR
 636:c:\program files\daisytoolchain\arm-none-eabi\include\c++\10.2.1\bits\stl_iterator.h ****       back_insert_iterator&
 637:c:\program files\daisytoolchain\arm-none-eabi\include\c++\10.2.1\bits\stl_iterator.h ****       operator=(const typename _Container::value_type& __value)
 638:c:\program files\daisytoolchain\arm-none-eabi\include\c++\10.2.1\bits\stl_iterator.h ****       {
ARM GAS  C:\Users\samue\AppData\Local\Temp\cci865ja.s 			page 76


 639:c:\program files\daisytoolchain\arm-none-eabi\include\c++\10.2.1\bits\stl_iterator.h **** 	container->push_back(__value);
 640:c:\program files\daisytoolchain\arm-none-eabi\include\c++\10.2.1\bits\stl_iterator.h **** 	return *this;
 641:c:\program files\daisytoolchain\arm-none-eabi\include\c++\10.2.1\bits\stl_iterator.h ****       }
 642:c:\program files\daisytoolchain\arm-none-eabi\include\c++\10.2.1\bits\stl_iterator.h **** 
 643:c:\program files\daisytoolchain\arm-none-eabi\include\c++\10.2.1\bits\stl_iterator.h ****       _GLIBCXX20_CONSTEXPR
 644:c:\program files\daisytoolchain\arm-none-eabi\include\c++\10.2.1\bits\stl_iterator.h ****       back_insert_iterator&
 645:c:\program files\daisytoolchain\arm-none-eabi\include\c++\10.2.1\bits\stl_iterator.h ****       operator=(typename _Container::value_type&& __value)
 646:c:\program files\daisytoolchain\arm-none-eabi\include\c++\10.2.1\bits\stl_iterator.h ****       {
 647:c:\program files\daisytoolchain\arm-none-eabi\include\c++\10.2.1\bits\stl_iterator.h **** 	container->push_back(std::move(__value));
 648:c:\program files\daisytoolchain\arm-none-eabi\include\c++\10.2.1\bits\stl_iterator.h **** 	return *this;
 649:c:\program files\daisytoolchain\arm-none-eabi\include\c++\10.2.1\bits\stl_iterator.h ****       }
 650:c:\program files\daisytoolchain\arm-none-eabi\include\c++\10.2.1\bits\stl_iterator.h **** #endif
 651:c:\program files\daisytoolchain\arm-none-eabi\include\c++\10.2.1\bits\stl_iterator.h **** 
 652:c:\program files\daisytoolchain\arm-none-eabi\include\c++\10.2.1\bits\stl_iterator.h ****       /// Simply returns *this.
 653:c:\program files\daisytoolchain\arm-none-eabi\include\c++\10.2.1\bits\stl_iterator.h ****       _GLIBCXX20_CONSTEXPR
 654:c:\program files\daisytoolchain\arm-none-eabi\include\c++\10.2.1\bits\stl_iterator.h ****       back_insert_iterator&
 655:c:\program files\daisytoolchain\arm-none-eabi\include\c++\10.2.1\bits\stl_iterator.h ****       operator*()
 656:c:\program files\daisytoolchain\arm-none-eabi\include\c++\10.2.1\bits\stl_iterator.h ****       { return *this; }
 657:c:\program files\daisytoolchain\arm-none-eabi\include\c++\10.2.1\bits\stl_iterator.h **** 
 658:c:\program files\daisytoolchain\arm-none-eabi\include\c++\10.2.1\bits\stl_iterator.h ****       /// Simply returns *this.  (This %iterator does not @a move.)
 659:c:\program files\daisytoolchain\arm-none-eabi\include\c++\10.2.1\bits\stl_iterator.h ****       _GLIBCXX20_CONSTEXPR
 660:c:\program files\daisytoolchain\arm-none-eabi\include\c++\10.2.1\bits\stl_iterator.h ****       back_insert_iterator&
 661:c:\program files\daisytoolchain\arm-none-eabi\include\c++\10.2.1\bits\stl_iterator.h ****       operator++()
 662:c:\program files\daisytoolchain\arm-none-eabi\include\c++\10.2.1\bits\stl_iterator.h ****       { return *this; }
 663:c:\program files\daisytoolchain\arm-none-eabi\include\c++\10.2.1\bits\stl_iterator.h **** 
 664:c:\program files\daisytoolchain\arm-none-eabi\include\c++\10.2.1\bits\stl_iterator.h ****       /// Simply returns *this.  (This %iterator does not @a move.)
 665:c:\program files\daisytoolchain\arm-none-eabi\include\c++\10.2.1\bits\stl_iterator.h ****       _GLIBCXX20_CONSTEXPR
 666:c:\program files\daisytoolchain\arm-none-eabi\include\c++\10.2.1\bits\stl_iterator.h ****       back_insert_iterator
 667:c:\program files\daisytoolchain\arm-none-eabi\include\c++\10.2.1\bits\stl_iterator.h ****       operator++(int)
 668:c:\program files\daisytoolchain\arm-none-eabi\include\c++\10.2.1\bits\stl_iterator.h ****       { return *this; }
 669:c:\program files\daisytoolchain\arm-none-eabi\include\c++\10.2.1\bits\stl_iterator.h ****     };
 670:c:\program files\daisytoolchain\arm-none-eabi\include\c++\10.2.1\bits\stl_iterator.h **** 
 671:c:\program files\daisytoolchain\arm-none-eabi\include\c++\10.2.1\bits\stl_iterator.h ****   /**
 672:c:\program files\daisytoolchain\arm-none-eabi\include\c++\10.2.1\bits\stl_iterator.h ****    *  @param  __x  A container of arbitrary type.
 673:c:\program files\daisytoolchain\arm-none-eabi\include\c++\10.2.1\bits\stl_iterator.h ****    *  @return  An instance of back_insert_iterator working on @p __x.
 674:c:\program files\daisytoolchain\arm-none-eabi\include\c++\10.2.1\bits\stl_iterator.h ****    *
 675:c:\program files\daisytoolchain\arm-none-eabi\include\c++\10.2.1\bits\stl_iterator.h ****    *  This wrapper function helps in creating back_insert_iterator instances.
 676:c:\program files\daisytoolchain\arm-none-eabi\include\c++\10.2.1\bits\stl_iterator.h ****    *  Typing the name of the %iterator requires knowing the precise full
 677:c:\program files\daisytoolchain\arm-none-eabi\include\c++\10.2.1\bits\stl_iterator.h ****    *  type of the container, which can be tedious and impedes generic
 678:c:\program files\daisytoolchain\arm-none-eabi\include\c++\10.2.1\bits\stl_iterator.h ****    *  programming.  Using this function lets you take advantage of automatic
 679:c:\program files\daisytoolchain\arm-none-eabi\include\c++\10.2.1\bits\stl_iterator.h ****    *  template parameter deduction, making the compiler match the correct
 680:c:\program files\daisytoolchain\arm-none-eabi\include\c++\10.2.1\bits\stl_iterator.h ****    *  types for you.
 681:c:\program files\daisytoolchain\arm-none-eabi\include\c++\10.2.1\bits\stl_iterator.h ****   */
 682:c:\program files\daisytoolchain\arm-none-eabi\include\c++\10.2.1\bits\stl_iterator.h ****   template<typename _Container>
 683:c:\program files\daisytoolchain\arm-none-eabi\include\c++\10.2.1\bits\stl_iterator.h ****     _GLIBCXX20_CONSTEXPR
 684:c:\program files\daisytoolchain\arm-none-eabi\include\c++\10.2.1\bits\stl_iterator.h ****     inline back_insert_iterator<_Container>
 685:c:\program files\daisytoolchain\arm-none-eabi\include\c++\10.2.1\bits\stl_iterator.h ****     back_inserter(_Container& __x)
 686:c:\program files\daisytoolchain\arm-none-eabi\include\c++\10.2.1\bits\stl_iterator.h ****     { return back_insert_iterator<_Container>(__x); }
 687:c:\program files\daisytoolchain\arm-none-eabi\include\c++\10.2.1\bits\stl_iterator.h **** 
 688:c:\program files\daisytoolchain\arm-none-eabi\include\c++\10.2.1\bits\stl_iterator.h ****   /**
 689:c:\program files\daisytoolchain\arm-none-eabi\include\c++\10.2.1\bits\stl_iterator.h ****    *  @brief  Turns assignment into insertion.
 690:c:\program files\daisytoolchain\arm-none-eabi\include\c++\10.2.1\bits\stl_iterator.h ****    *
 691:c:\program files\daisytoolchain\arm-none-eabi\include\c++\10.2.1\bits\stl_iterator.h ****    *  These are output iterators, constructed from a container-of-T.
 692:c:\program files\daisytoolchain\arm-none-eabi\include\c++\10.2.1\bits\stl_iterator.h ****    *  Assigning a T to the iterator prepends it to the container using
 693:c:\program files\daisytoolchain\arm-none-eabi\include\c++\10.2.1\bits\stl_iterator.h ****    *  push_front.
 694:c:\program files\daisytoolchain\arm-none-eabi\include\c++\10.2.1\bits\stl_iterator.h ****    *
 695:c:\program files\daisytoolchain\arm-none-eabi\include\c++\10.2.1\bits\stl_iterator.h ****    *  Tip:  Using the front_inserter function to create these iterators can
ARM GAS  C:\Users\samue\AppData\Local\Temp\cci865ja.s 			page 77


 696:c:\program files\daisytoolchain\arm-none-eabi\include\c++\10.2.1\bits\stl_iterator.h ****    *  save typing.
 697:c:\program files\daisytoolchain\arm-none-eabi\include\c++\10.2.1\bits\stl_iterator.h ****   */
 698:c:\program files\daisytoolchain\arm-none-eabi\include\c++\10.2.1\bits\stl_iterator.h ****   template<typename _Container>
 699:c:\program files\daisytoolchain\arm-none-eabi\include\c++\10.2.1\bits\stl_iterator.h ****     class front_insert_iterator
 700:c:\program files\daisytoolchain\arm-none-eabi\include\c++\10.2.1\bits\stl_iterator.h ****     : public iterator<output_iterator_tag, void, void, void, void>
 701:c:\program files\daisytoolchain\arm-none-eabi\include\c++\10.2.1\bits\stl_iterator.h ****     {
 702:c:\program files\daisytoolchain\arm-none-eabi\include\c++\10.2.1\bits\stl_iterator.h ****     protected:
 703:c:\program files\daisytoolchain\arm-none-eabi\include\c++\10.2.1\bits\stl_iterator.h ****       _Container* container;
 704:c:\program files\daisytoolchain\arm-none-eabi\include\c++\10.2.1\bits\stl_iterator.h **** 
 705:c:\program files\daisytoolchain\arm-none-eabi\include\c++\10.2.1\bits\stl_iterator.h ****     public:
 706:c:\program files\daisytoolchain\arm-none-eabi\include\c++\10.2.1\bits\stl_iterator.h ****       /// A nested typedef for the type of whatever container you used.
 707:c:\program files\daisytoolchain\arm-none-eabi\include\c++\10.2.1\bits\stl_iterator.h ****       typedef _Container          container_type;
 708:c:\program files\daisytoolchain\arm-none-eabi\include\c++\10.2.1\bits\stl_iterator.h **** #if __cplusplus > 201703L
 709:c:\program files\daisytoolchain\arm-none-eabi\include\c++\10.2.1\bits\stl_iterator.h ****       using difference_type = ptrdiff_t;
 710:c:\program files\daisytoolchain\arm-none-eabi\include\c++\10.2.1\bits\stl_iterator.h **** 
 711:c:\program files\daisytoolchain\arm-none-eabi\include\c++\10.2.1\bits\stl_iterator.h ****       constexpr front_insert_iterator() noexcept : container(nullptr) { }
 712:c:\program files\daisytoolchain\arm-none-eabi\include\c++\10.2.1\bits\stl_iterator.h **** #endif
 713:c:\program files\daisytoolchain\arm-none-eabi\include\c++\10.2.1\bits\stl_iterator.h **** 
 714:c:\program files\daisytoolchain\arm-none-eabi\include\c++\10.2.1\bits\stl_iterator.h ****       /// The only way to create this %iterator is with a container.
 715:c:\program files\daisytoolchain\arm-none-eabi\include\c++\10.2.1\bits\stl_iterator.h ****       explicit _GLIBCXX20_CONSTEXPR
 716:c:\program files\daisytoolchain\arm-none-eabi\include\c++\10.2.1\bits\stl_iterator.h ****       front_insert_iterator(_Container& __x)
 717:c:\program files\daisytoolchain\arm-none-eabi\include\c++\10.2.1\bits\stl_iterator.h ****       : container(std::__addressof(__x)) { }
 718:c:\program files\daisytoolchain\arm-none-eabi\include\c++\10.2.1\bits\stl_iterator.h **** 
 719:c:\program files\daisytoolchain\arm-none-eabi\include\c++\10.2.1\bits\stl_iterator.h ****       /**
 720:c:\program files\daisytoolchain\arm-none-eabi\include\c++\10.2.1\bits\stl_iterator.h ****        *  @param  __value  An instance of whatever type
 721:c:\program files\daisytoolchain\arm-none-eabi\include\c++\10.2.1\bits\stl_iterator.h ****        *                 container_type::const_reference is; presumably a
 722:c:\program files\daisytoolchain\arm-none-eabi\include\c++\10.2.1\bits\stl_iterator.h ****        *                 reference-to-const T for container<T>.
 723:c:\program files\daisytoolchain\arm-none-eabi\include\c++\10.2.1\bits\stl_iterator.h ****        *  @return  This %iterator, for chained operations.
 724:c:\program files\daisytoolchain\arm-none-eabi\include\c++\10.2.1\bits\stl_iterator.h ****        *
 725:c:\program files\daisytoolchain\arm-none-eabi\include\c++\10.2.1\bits\stl_iterator.h ****        *  This kind of %iterator doesn't really have a @a position in the
 726:c:\program files\daisytoolchain\arm-none-eabi\include\c++\10.2.1\bits\stl_iterator.h ****        *  container (you can think of the position as being permanently at
 727:c:\program files\daisytoolchain\arm-none-eabi\include\c++\10.2.1\bits\stl_iterator.h ****        *  the front, if you like).  Assigning a value to the %iterator will
 728:c:\program files\daisytoolchain\arm-none-eabi\include\c++\10.2.1\bits\stl_iterator.h ****        *  always prepend the value to the front of the container.
 729:c:\program files\daisytoolchain\arm-none-eabi\include\c++\10.2.1\bits\stl_iterator.h ****       */
 730:c:\program files\daisytoolchain\arm-none-eabi\include\c++\10.2.1\bits\stl_iterator.h **** #if __cplusplus < 201103L
 731:c:\program files\daisytoolchain\arm-none-eabi\include\c++\10.2.1\bits\stl_iterator.h ****       front_insert_iterator&
 732:c:\program files\daisytoolchain\arm-none-eabi\include\c++\10.2.1\bits\stl_iterator.h ****       operator=(typename _Container::const_reference __value)
 733:c:\program files\daisytoolchain\arm-none-eabi\include\c++\10.2.1\bits\stl_iterator.h ****       {
 734:c:\program files\daisytoolchain\arm-none-eabi\include\c++\10.2.1\bits\stl_iterator.h **** 	container->push_front(__value);
 735:c:\program files\daisytoolchain\arm-none-eabi\include\c++\10.2.1\bits\stl_iterator.h **** 	return *this;
 736:c:\program files\daisytoolchain\arm-none-eabi\include\c++\10.2.1\bits\stl_iterator.h ****       }
 737:c:\program files\daisytoolchain\arm-none-eabi\include\c++\10.2.1\bits\stl_iterator.h **** #else
 738:c:\program files\daisytoolchain\arm-none-eabi\include\c++\10.2.1\bits\stl_iterator.h ****       _GLIBCXX20_CONSTEXPR
 739:c:\program files\daisytoolchain\arm-none-eabi\include\c++\10.2.1\bits\stl_iterator.h ****       front_insert_iterator&
 740:c:\program files\daisytoolchain\arm-none-eabi\include\c++\10.2.1\bits\stl_iterator.h ****       operator=(const typename _Container::value_type& __value)
 741:c:\program files\daisytoolchain\arm-none-eabi\include\c++\10.2.1\bits\stl_iterator.h ****       {
 742:c:\program files\daisytoolchain\arm-none-eabi\include\c++\10.2.1\bits\stl_iterator.h **** 	container->push_front(__value);
 743:c:\program files\daisytoolchain\arm-none-eabi\include\c++\10.2.1\bits\stl_iterator.h **** 	return *this;
 744:c:\program files\daisytoolchain\arm-none-eabi\include\c++\10.2.1\bits\stl_iterator.h ****       }
 745:c:\program files\daisytoolchain\arm-none-eabi\include\c++\10.2.1\bits\stl_iterator.h **** 
 746:c:\program files\daisytoolchain\arm-none-eabi\include\c++\10.2.1\bits\stl_iterator.h ****       _GLIBCXX20_CONSTEXPR
 747:c:\program files\daisytoolchain\arm-none-eabi\include\c++\10.2.1\bits\stl_iterator.h ****       front_insert_iterator&
 748:c:\program files\daisytoolchain\arm-none-eabi\include\c++\10.2.1\bits\stl_iterator.h ****       operator=(typename _Container::value_type&& __value)
 749:c:\program files\daisytoolchain\arm-none-eabi\include\c++\10.2.1\bits\stl_iterator.h ****       {
 750:c:\program files\daisytoolchain\arm-none-eabi\include\c++\10.2.1\bits\stl_iterator.h **** 	container->push_front(std::move(__value));
 751:c:\program files\daisytoolchain\arm-none-eabi\include\c++\10.2.1\bits\stl_iterator.h **** 	return *this;
 752:c:\program files\daisytoolchain\arm-none-eabi\include\c++\10.2.1\bits\stl_iterator.h ****       }
ARM GAS  C:\Users\samue\AppData\Local\Temp\cci865ja.s 			page 78


 753:c:\program files\daisytoolchain\arm-none-eabi\include\c++\10.2.1\bits\stl_iterator.h **** #endif
 754:c:\program files\daisytoolchain\arm-none-eabi\include\c++\10.2.1\bits\stl_iterator.h **** 
 755:c:\program files\daisytoolchain\arm-none-eabi\include\c++\10.2.1\bits\stl_iterator.h ****       /// Simply returns *this.
 756:c:\program files\daisytoolchain\arm-none-eabi\include\c++\10.2.1\bits\stl_iterator.h ****       _GLIBCXX20_CONSTEXPR
 757:c:\program files\daisytoolchain\arm-none-eabi\include\c++\10.2.1\bits\stl_iterator.h ****       front_insert_iterator&
 758:c:\program files\daisytoolchain\arm-none-eabi\include\c++\10.2.1\bits\stl_iterator.h ****       operator*()
 759:c:\program files\daisytoolchain\arm-none-eabi\include\c++\10.2.1\bits\stl_iterator.h ****       { return *this; }
 760:c:\program files\daisytoolchain\arm-none-eabi\include\c++\10.2.1\bits\stl_iterator.h **** 
 761:c:\program files\daisytoolchain\arm-none-eabi\include\c++\10.2.1\bits\stl_iterator.h ****       /// Simply returns *this.  (This %iterator does not @a move.)
 762:c:\program files\daisytoolchain\arm-none-eabi\include\c++\10.2.1\bits\stl_iterator.h ****       _GLIBCXX20_CONSTEXPR
 763:c:\program files\daisytoolchain\arm-none-eabi\include\c++\10.2.1\bits\stl_iterator.h ****       front_insert_iterator&
 764:c:\program files\daisytoolchain\arm-none-eabi\include\c++\10.2.1\bits\stl_iterator.h ****       operator++()
 765:c:\program files\daisytoolchain\arm-none-eabi\include\c++\10.2.1\bits\stl_iterator.h ****       { return *this; }
 766:c:\program files\daisytoolchain\arm-none-eabi\include\c++\10.2.1\bits\stl_iterator.h **** 
 767:c:\program files\daisytoolchain\arm-none-eabi\include\c++\10.2.1\bits\stl_iterator.h ****       /// Simply returns *this.  (This %iterator does not @a move.)
 768:c:\program files\daisytoolchain\arm-none-eabi\include\c++\10.2.1\bits\stl_iterator.h ****       _GLIBCXX20_CONSTEXPR
 769:c:\program files\daisytoolchain\arm-none-eabi\include\c++\10.2.1\bits\stl_iterator.h ****       front_insert_iterator
 770:c:\program files\daisytoolchain\arm-none-eabi\include\c++\10.2.1\bits\stl_iterator.h ****       operator++(int)
 771:c:\program files\daisytoolchain\arm-none-eabi\include\c++\10.2.1\bits\stl_iterator.h ****       { return *this; }
 772:c:\program files\daisytoolchain\arm-none-eabi\include\c++\10.2.1\bits\stl_iterator.h ****     };
 773:c:\program files\daisytoolchain\arm-none-eabi\include\c++\10.2.1\bits\stl_iterator.h **** 
 774:c:\program files\daisytoolchain\arm-none-eabi\include\c++\10.2.1\bits\stl_iterator.h ****   /**
 775:c:\program files\daisytoolchain\arm-none-eabi\include\c++\10.2.1\bits\stl_iterator.h ****    *  @param  __x  A container of arbitrary type.
 776:c:\program files\daisytoolchain\arm-none-eabi\include\c++\10.2.1\bits\stl_iterator.h ****    *  @return  An instance of front_insert_iterator working on @p x.
 777:c:\program files\daisytoolchain\arm-none-eabi\include\c++\10.2.1\bits\stl_iterator.h ****    *
 778:c:\program files\daisytoolchain\arm-none-eabi\include\c++\10.2.1\bits\stl_iterator.h ****    *  This wrapper function helps in creating front_insert_iterator instances.
 779:c:\program files\daisytoolchain\arm-none-eabi\include\c++\10.2.1\bits\stl_iterator.h ****    *  Typing the name of the %iterator requires knowing the precise full
 780:c:\program files\daisytoolchain\arm-none-eabi\include\c++\10.2.1\bits\stl_iterator.h ****    *  type of the container, which can be tedious and impedes generic
 781:c:\program files\daisytoolchain\arm-none-eabi\include\c++\10.2.1\bits\stl_iterator.h ****    *  programming.  Using this function lets you take advantage of automatic
 782:c:\program files\daisytoolchain\arm-none-eabi\include\c++\10.2.1\bits\stl_iterator.h ****    *  template parameter deduction, making the compiler match the correct
 783:c:\program files\daisytoolchain\arm-none-eabi\include\c++\10.2.1\bits\stl_iterator.h ****    *  types for you.
 784:c:\program files\daisytoolchain\arm-none-eabi\include\c++\10.2.1\bits\stl_iterator.h ****   */
 785:c:\program files\daisytoolchain\arm-none-eabi\include\c++\10.2.1\bits\stl_iterator.h ****   template<typename _Container>
 786:c:\program files\daisytoolchain\arm-none-eabi\include\c++\10.2.1\bits\stl_iterator.h ****     _GLIBCXX20_CONSTEXPR
 787:c:\program files\daisytoolchain\arm-none-eabi\include\c++\10.2.1\bits\stl_iterator.h ****     inline front_insert_iterator<_Container>
 788:c:\program files\daisytoolchain\arm-none-eabi\include\c++\10.2.1\bits\stl_iterator.h ****     front_inserter(_Container& __x)
 789:c:\program files\daisytoolchain\arm-none-eabi\include\c++\10.2.1\bits\stl_iterator.h ****     { return front_insert_iterator<_Container>(__x); }
 790:c:\program files\daisytoolchain\arm-none-eabi\include\c++\10.2.1\bits\stl_iterator.h **** 
 791:c:\program files\daisytoolchain\arm-none-eabi\include\c++\10.2.1\bits\stl_iterator.h ****   /**
 792:c:\program files\daisytoolchain\arm-none-eabi\include\c++\10.2.1\bits\stl_iterator.h ****    *  @brief  Turns assignment into insertion.
 793:c:\program files\daisytoolchain\arm-none-eabi\include\c++\10.2.1\bits\stl_iterator.h ****    *
 794:c:\program files\daisytoolchain\arm-none-eabi\include\c++\10.2.1\bits\stl_iterator.h ****    *  These are output iterators, constructed from a container-of-T.
 795:c:\program files\daisytoolchain\arm-none-eabi\include\c++\10.2.1\bits\stl_iterator.h ****    *  Assigning a T to the iterator inserts it in the container at the
 796:c:\program files\daisytoolchain\arm-none-eabi\include\c++\10.2.1\bits\stl_iterator.h ****    *  %iterator's position, rather than overwriting the value at that
 797:c:\program files\daisytoolchain\arm-none-eabi\include\c++\10.2.1\bits\stl_iterator.h ****    *  position.
 798:c:\program files\daisytoolchain\arm-none-eabi\include\c++\10.2.1\bits\stl_iterator.h ****    *
 799:c:\program files\daisytoolchain\arm-none-eabi\include\c++\10.2.1\bits\stl_iterator.h ****    *  (Sequences will actually insert a @e copy of the value before the
 800:c:\program files\daisytoolchain\arm-none-eabi\include\c++\10.2.1\bits\stl_iterator.h ****    *  %iterator's position.)
 801:c:\program files\daisytoolchain\arm-none-eabi\include\c++\10.2.1\bits\stl_iterator.h ****    *
 802:c:\program files\daisytoolchain\arm-none-eabi\include\c++\10.2.1\bits\stl_iterator.h ****    *  Tip:  Using the inserter function to create these iterators can
 803:c:\program files\daisytoolchain\arm-none-eabi\include\c++\10.2.1\bits\stl_iterator.h ****    *  save typing.
 804:c:\program files\daisytoolchain\arm-none-eabi\include\c++\10.2.1\bits\stl_iterator.h ****   */
 805:c:\program files\daisytoolchain\arm-none-eabi\include\c++\10.2.1\bits\stl_iterator.h ****   template<typename _Container>
 806:c:\program files\daisytoolchain\arm-none-eabi\include\c++\10.2.1\bits\stl_iterator.h ****     class insert_iterator
 807:c:\program files\daisytoolchain\arm-none-eabi\include\c++\10.2.1\bits\stl_iterator.h ****     : public iterator<output_iterator_tag, void, void, void, void>
 808:c:\program files\daisytoolchain\arm-none-eabi\include\c++\10.2.1\bits\stl_iterator.h ****     {
 809:c:\program files\daisytoolchain\arm-none-eabi\include\c++\10.2.1\bits\stl_iterator.h **** #if __cplusplus > 201703L && defined __cpp_lib_concepts
ARM GAS  C:\Users\samue\AppData\Local\Temp\cci865ja.s 			page 79


 810:c:\program files\daisytoolchain\arm-none-eabi\include\c++\10.2.1\bits\stl_iterator.h ****       using _Iter = std::__detail::__range_iter_t<_Container>;
 811:c:\program files\daisytoolchain\arm-none-eabi\include\c++\10.2.1\bits\stl_iterator.h **** 
 812:c:\program files\daisytoolchain\arm-none-eabi\include\c++\10.2.1\bits\stl_iterator.h ****     protected:
 813:c:\program files\daisytoolchain\arm-none-eabi\include\c++\10.2.1\bits\stl_iterator.h ****       _Container* container = nullptr;
 814:c:\program files\daisytoolchain\arm-none-eabi\include\c++\10.2.1\bits\stl_iterator.h ****       _Iter iter = _Iter();
 815:c:\program files\daisytoolchain\arm-none-eabi\include\c++\10.2.1\bits\stl_iterator.h **** #else
 816:c:\program files\daisytoolchain\arm-none-eabi\include\c++\10.2.1\bits\stl_iterator.h ****       typedef typename _Container::iterator		_Iter;
 817:c:\program files\daisytoolchain\arm-none-eabi\include\c++\10.2.1\bits\stl_iterator.h **** 
 818:c:\program files\daisytoolchain\arm-none-eabi\include\c++\10.2.1\bits\stl_iterator.h ****     protected:
 819:c:\program files\daisytoolchain\arm-none-eabi\include\c++\10.2.1\bits\stl_iterator.h ****       _Container* container;
 820:c:\program files\daisytoolchain\arm-none-eabi\include\c++\10.2.1\bits\stl_iterator.h ****       _Iter iter;
 821:c:\program files\daisytoolchain\arm-none-eabi\include\c++\10.2.1\bits\stl_iterator.h **** #endif
 822:c:\program files\daisytoolchain\arm-none-eabi\include\c++\10.2.1\bits\stl_iterator.h **** 
 823:c:\program files\daisytoolchain\arm-none-eabi\include\c++\10.2.1\bits\stl_iterator.h ****     public:
 824:c:\program files\daisytoolchain\arm-none-eabi\include\c++\10.2.1\bits\stl_iterator.h ****       /// A nested typedef for the type of whatever container you used.
 825:c:\program files\daisytoolchain\arm-none-eabi\include\c++\10.2.1\bits\stl_iterator.h ****       typedef _Container          container_type;
 826:c:\program files\daisytoolchain\arm-none-eabi\include\c++\10.2.1\bits\stl_iterator.h **** 
 827:c:\program files\daisytoolchain\arm-none-eabi\include\c++\10.2.1\bits\stl_iterator.h **** #if __cplusplus > 201703L && defined __cpp_lib_concepts
 828:c:\program files\daisytoolchain\arm-none-eabi\include\c++\10.2.1\bits\stl_iterator.h ****       using difference_type = ptrdiff_t;
 829:c:\program files\daisytoolchain\arm-none-eabi\include\c++\10.2.1\bits\stl_iterator.h **** 
 830:c:\program files\daisytoolchain\arm-none-eabi\include\c++\10.2.1\bits\stl_iterator.h ****       insert_iterator() = default;
 831:c:\program files\daisytoolchain\arm-none-eabi\include\c++\10.2.1\bits\stl_iterator.h **** #endif
 832:c:\program files\daisytoolchain\arm-none-eabi\include\c++\10.2.1\bits\stl_iterator.h **** 
 833:c:\program files\daisytoolchain\arm-none-eabi\include\c++\10.2.1\bits\stl_iterator.h ****       /**
 834:c:\program files\daisytoolchain\arm-none-eabi\include\c++\10.2.1\bits\stl_iterator.h ****        *  The only way to create this %iterator is with a container and an
 835:c:\program files\daisytoolchain\arm-none-eabi\include\c++\10.2.1\bits\stl_iterator.h ****        *  initial position (a normal %iterator into the container).
 836:c:\program files\daisytoolchain\arm-none-eabi\include\c++\10.2.1\bits\stl_iterator.h ****       */
 837:c:\program files\daisytoolchain\arm-none-eabi\include\c++\10.2.1\bits\stl_iterator.h ****       _GLIBCXX20_CONSTEXPR
 838:c:\program files\daisytoolchain\arm-none-eabi\include\c++\10.2.1\bits\stl_iterator.h ****       insert_iterator(_Container& __x, _Iter __i)
 839:c:\program files\daisytoolchain\arm-none-eabi\include\c++\10.2.1\bits\stl_iterator.h ****       : container(std::__addressof(__x)), iter(__i) {}
 840:c:\program files\daisytoolchain\arm-none-eabi\include\c++\10.2.1\bits\stl_iterator.h **** 
 841:c:\program files\daisytoolchain\arm-none-eabi\include\c++\10.2.1\bits\stl_iterator.h ****       /**
 842:c:\program files\daisytoolchain\arm-none-eabi\include\c++\10.2.1\bits\stl_iterator.h ****        *  @param  __value  An instance of whatever type
 843:c:\program files\daisytoolchain\arm-none-eabi\include\c++\10.2.1\bits\stl_iterator.h ****        *                 container_type::const_reference is; presumably a
 844:c:\program files\daisytoolchain\arm-none-eabi\include\c++\10.2.1\bits\stl_iterator.h ****        *                 reference-to-const T for container<T>.
 845:c:\program files\daisytoolchain\arm-none-eabi\include\c++\10.2.1\bits\stl_iterator.h ****        *  @return  This %iterator, for chained operations.
 846:c:\program files\daisytoolchain\arm-none-eabi\include\c++\10.2.1\bits\stl_iterator.h ****        *
 847:c:\program files\daisytoolchain\arm-none-eabi\include\c++\10.2.1\bits\stl_iterator.h ****        *  This kind of %iterator maintains its own position in the
 848:c:\program files\daisytoolchain\arm-none-eabi\include\c++\10.2.1\bits\stl_iterator.h ****        *  container.  Assigning a value to the %iterator will insert the
 849:c:\program files\daisytoolchain\arm-none-eabi\include\c++\10.2.1\bits\stl_iterator.h ****        *  value into the container at the place before the %iterator.
 850:c:\program files\daisytoolchain\arm-none-eabi\include\c++\10.2.1\bits\stl_iterator.h ****        *
 851:c:\program files\daisytoolchain\arm-none-eabi\include\c++\10.2.1\bits\stl_iterator.h ****        *  The position is maintained such that subsequent assignments will
 852:c:\program files\daisytoolchain\arm-none-eabi\include\c++\10.2.1\bits\stl_iterator.h ****        *  insert values immediately after one another.  For example,
 853:c:\program files\daisytoolchain\arm-none-eabi\include\c++\10.2.1\bits\stl_iterator.h ****        *  @code
 854:c:\program files\daisytoolchain\arm-none-eabi\include\c++\10.2.1\bits\stl_iterator.h ****        *     // vector v contains A and Z
 855:c:\program files\daisytoolchain\arm-none-eabi\include\c++\10.2.1\bits\stl_iterator.h ****        *
 856:c:\program files\daisytoolchain\arm-none-eabi\include\c++\10.2.1\bits\stl_iterator.h ****        *     insert_iterator i (v, ++v.begin());
 857:c:\program files\daisytoolchain\arm-none-eabi\include\c++\10.2.1\bits\stl_iterator.h ****        *     i = 1;
 858:c:\program files\daisytoolchain\arm-none-eabi\include\c++\10.2.1\bits\stl_iterator.h ****        *     i = 2;
 859:c:\program files\daisytoolchain\arm-none-eabi\include\c++\10.2.1\bits\stl_iterator.h ****        *     i = 3;
 860:c:\program files\daisytoolchain\arm-none-eabi\include\c++\10.2.1\bits\stl_iterator.h ****        *
 861:c:\program files\daisytoolchain\arm-none-eabi\include\c++\10.2.1\bits\stl_iterator.h ****        *     // vector v contains A, 1, 2, 3, and Z
 862:c:\program files\daisytoolchain\arm-none-eabi\include\c++\10.2.1\bits\stl_iterator.h ****        *  @endcode
 863:c:\program files\daisytoolchain\arm-none-eabi\include\c++\10.2.1\bits\stl_iterator.h ****       */
 864:c:\program files\daisytoolchain\arm-none-eabi\include\c++\10.2.1\bits\stl_iterator.h **** #if __cplusplus < 201103L
 865:c:\program files\daisytoolchain\arm-none-eabi\include\c++\10.2.1\bits\stl_iterator.h ****       insert_iterator&
 866:c:\program files\daisytoolchain\arm-none-eabi\include\c++\10.2.1\bits\stl_iterator.h ****       operator=(typename _Container::const_reference __value)
ARM GAS  C:\Users\samue\AppData\Local\Temp\cci865ja.s 			page 80


 867:c:\program files\daisytoolchain\arm-none-eabi\include\c++\10.2.1\bits\stl_iterator.h ****       {
 868:c:\program files\daisytoolchain\arm-none-eabi\include\c++\10.2.1\bits\stl_iterator.h **** 	iter = container->insert(iter, __value);
 869:c:\program files\daisytoolchain\arm-none-eabi\include\c++\10.2.1\bits\stl_iterator.h **** 	++iter;
 870:c:\program files\daisytoolchain\arm-none-eabi\include\c++\10.2.1\bits\stl_iterator.h **** 	return *this;
 871:c:\program files\daisytoolchain\arm-none-eabi\include\c++\10.2.1\bits\stl_iterator.h ****       }
 872:c:\program files\daisytoolchain\arm-none-eabi\include\c++\10.2.1\bits\stl_iterator.h **** #else
 873:c:\program files\daisytoolchain\arm-none-eabi\include\c++\10.2.1\bits\stl_iterator.h ****       _GLIBCXX20_CONSTEXPR
 874:c:\program files\daisytoolchain\arm-none-eabi\include\c++\10.2.1\bits\stl_iterator.h ****       insert_iterator&
 875:c:\program files\daisytoolchain\arm-none-eabi\include\c++\10.2.1\bits\stl_iterator.h ****       operator=(const typename _Container::value_type& __value)
 876:c:\program files\daisytoolchain\arm-none-eabi\include\c++\10.2.1\bits\stl_iterator.h ****       {
 877:c:\program files\daisytoolchain\arm-none-eabi\include\c++\10.2.1\bits\stl_iterator.h **** 	iter = container->insert(iter, __value);
 878:c:\program files\daisytoolchain\arm-none-eabi\include\c++\10.2.1\bits\stl_iterator.h **** 	++iter;
 879:c:\program files\daisytoolchain\arm-none-eabi\include\c++\10.2.1\bits\stl_iterator.h **** 	return *this;
 880:c:\program files\daisytoolchain\arm-none-eabi\include\c++\10.2.1\bits\stl_iterator.h ****       }
 881:c:\program files\daisytoolchain\arm-none-eabi\include\c++\10.2.1\bits\stl_iterator.h **** 
 882:c:\program files\daisytoolchain\arm-none-eabi\include\c++\10.2.1\bits\stl_iterator.h ****       _GLIBCXX20_CONSTEXPR
 883:c:\program files\daisytoolchain\arm-none-eabi\include\c++\10.2.1\bits\stl_iterator.h ****       insert_iterator&
 884:c:\program files\daisytoolchain\arm-none-eabi\include\c++\10.2.1\bits\stl_iterator.h ****       operator=(typename _Container::value_type&& __value)
 885:c:\program files\daisytoolchain\arm-none-eabi\include\c++\10.2.1\bits\stl_iterator.h ****       {
 886:c:\program files\daisytoolchain\arm-none-eabi\include\c++\10.2.1\bits\stl_iterator.h **** 	iter = container->insert(iter, std::move(__value));
 887:c:\program files\daisytoolchain\arm-none-eabi\include\c++\10.2.1\bits\stl_iterator.h **** 	++iter;
 888:c:\program files\daisytoolchain\arm-none-eabi\include\c++\10.2.1\bits\stl_iterator.h **** 	return *this;
 889:c:\program files\daisytoolchain\arm-none-eabi\include\c++\10.2.1\bits\stl_iterator.h ****       }
 890:c:\program files\daisytoolchain\arm-none-eabi\include\c++\10.2.1\bits\stl_iterator.h **** #endif
 891:c:\program files\daisytoolchain\arm-none-eabi\include\c++\10.2.1\bits\stl_iterator.h **** 
 892:c:\program files\daisytoolchain\arm-none-eabi\include\c++\10.2.1\bits\stl_iterator.h ****       /// Simply returns *this.
 893:c:\program files\daisytoolchain\arm-none-eabi\include\c++\10.2.1\bits\stl_iterator.h ****       _GLIBCXX20_CONSTEXPR
 894:c:\program files\daisytoolchain\arm-none-eabi\include\c++\10.2.1\bits\stl_iterator.h ****       insert_iterator&
 895:c:\program files\daisytoolchain\arm-none-eabi\include\c++\10.2.1\bits\stl_iterator.h ****       operator*()
 896:c:\program files\daisytoolchain\arm-none-eabi\include\c++\10.2.1\bits\stl_iterator.h ****       { return *this; }
 897:c:\program files\daisytoolchain\arm-none-eabi\include\c++\10.2.1\bits\stl_iterator.h **** 
 898:c:\program files\daisytoolchain\arm-none-eabi\include\c++\10.2.1\bits\stl_iterator.h ****       /// Simply returns *this.  (This %iterator does not @a move.)
 899:c:\program files\daisytoolchain\arm-none-eabi\include\c++\10.2.1\bits\stl_iterator.h ****       _GLIBCXX20_CONSTEXPR
 900:c:\program files\daisytoolchain\arm-none-eabi\include\c++\10.2.1\bits\stl_iterator.h ****       insert_iterator&
 901:c:\program files\daisytoolchain\arm-none-eabi\include\c++\10.2.1\bits\stl_iterator.h ****       operator++()
 902:c:\program files\daisytoolchain\arm-none-eabi\include\c++\10.2.1\bits\stl_iterator.h ****       { return *this; }
 903:c:\program files\daisytoolchain\arm-none-eabi\include\c++\10.2.1\bits\stl_iterator.h **** 
 904:c:\program files\daisytoolchain\arm-none-eabi\include\c++\10.2.1\bits\stl_iterator.h ****       /// Simply returns *this.  (This %iterator does not @a move.)
 905:c:\program files\daisytoolchain\arm-none-eabi\include\c++\10.2.1\bits\stl_iterator.h ****       _GLIBCXX20_CONSTEXPR
 906:c:\program files\daisytoolchain\arm-none-eabi\include\c++\10.2.1\bits\stl_iterator.h ****       insert_iterator&
 907:c:\program files\daisytoolchain\arm-none-eabi\include\c++\10.2.1\bits\stl_iterator.h ****       operator++(int)
 908:c:\program files\daisytoolchain\arm-none-eabi\include\c++\10.2.1\bits\stl_iterator.h ****       { return *this; }
 909:c:\program files\daisytoolchain\arm-none-eabi\include\c++\10.2.1\bits\stl_iterator.h ****     };
 910:c:\program files\daisytoolchain\arm-none-eabi\include\c++\10.2.1\bits\stl_iterator.h **** 
 911:c:\program files\daisytoolchain\arm-none-eabi\include\c++\10.2.1\bits\stl_iterator.h ****   /**
 912:c:\program files\daisytoolchain\arm-none-eabi\include\c++\10.2.1\bits\stl_iterator.h ****    *  @param __x  A container of arbitrary type.
 913:c:\program files\daisytoolchain\arm-none-eabi\include\c++\10.2.1\bits\stl_iterator.h ****    *  @param __i  An iterator into the container.
 914:c:\program files\daisytoolchain\arm-none-eabi\include\c++\10.2.1\bits\stl_iterator.h ****    *  @return  An instance of insert_iterator working on @p __x.
 915:c:\program files\daisytoolchain\arm-none-eabi\include\c++\10.2.1\bits\stl_iterator.h ****    *
 916:c:\program files\daisytoolchain\arm-none-eabi\include\c++\10.2.1\bits\stl_iterator.h ****    *  This wrapper function helps in creating insert_iterator instances.
 917:c:\program files\daisytoolchain\arm-none-eabi\include\c++\10.2.1\bits\stl_iterator.h ****    *  Typing the name of the %iterator requires knowing the precise full
 918:c:\program files\daisytoolchain\arm-none-eabi\include\c++\10.2.1\bits\stl_iterator.h ****    *  type of the container, which can be tedious and impedes generic
 919:c:\program files\daisytoolchain\arm-none-eabi\include\c++\10.2.1\bits\stl_iterator.h ****    *  programming.  Using this function lets you take advantage of automatic
 920:c:\program files\daisytoolchain\arm-none-eabi\include\c++\10.2.1\bits\stl_iterator.h ****    *  template parameter deduction, making the compiler match the correct
 921:c:\program files\daisytoolchain\arm-none-eabi\include\c++\10.2.1\bits\stl_iterator.h ****    *  types for you.
 922:c:\program files\daisytoolchain\arm-none-eabi\include\c++\10.2.1\bits\stl_iterator.h ****   */
 923:c:\program files\daisytoolchain\arm-none-eabi\include\c++\10.2.1\bits\stl_iterator.h **** #if __cplusplus > 201703L && defined __cpp_lib_concepts
ARM GAS  C:\Users\samue\AppData\Local\Temp\cci865ja.s 			page 81


 924:c:\program files\daisytoolchain\arm-none-eabi\include\c++\10.2.1\bits\stl_iterator.h ****   template<typename _Container>
 925:c:\program files\daisytoolchain\arm-none-eabi\include\c++\10.2.1\bits\stl_iterator.h ****     constexpr insert_iterator<_Container>
 926:c:\program files\daisytoolchain\arm-none-eabi\include\c++\10.2.1\bits\stl_iterator.h ****     inserter(_Container& __x, std::__detail::__range_iter_t<_Container> __i)
 927:c:\program files\daisytoolchain\arm-none-eabi\include\c++\10.2.1\bits\stl_iterator.h ****     { return insert_iterator<_Container>(__x, __i); }
 928:c:\program files\daisytoolchain\arm-none-eabi\include\c++\10.2.1\bits\stl_iterator.h **** #else
 929:c:\program files\daisytoolchain\arm-none-eabi\include\c++\10.2.1\bits\stl_iterator.h ****   template<typename _Container, typename _Iterator>
 930:c:\program files\daisytoolchain\arm-none-eabi\include\c++\10.2.1\bits\stl_iterator.h ****     inline insert_iterator<_Container>
 931:c:\program files\daisytoolchain\arm-none-eabi\include\c++\10.2.1\bits\stl_iterator.h ****     inserter(_Container& __x, _Iterator __i)
 932:c:\program files\daisytoolchain\arm-none-eabi\include\c++\10.2.1\bits\stl_iterator.h ****     {
 933:c:\program files\daisytoolchain\arm-none-eabi\include\c++\10.2.1\bits\stl_iterator.h ****       return insert_iterator<_Container>(__x,
 934:c:\program files\daisytoolchain\arm-none-eabi\include\c++\10.2.1\bits\stl_iterator.h **** 					 typename _Container::iterator(__i));
 935:c:\program files\daisytoolchain\arm-none-eabi\include\c++\10.2.1\bits\stl_iterator.h ****     }
 936:c:\program files\daisytoolchain\arm-none-eabi\include\c++\10.2.1\bits\stl_iterator.h **** #endif
 937:c:\program files\daisytoolchain\arm-none-eabi\include\c++\10.2.1\bits\stl_iterator.h **** 
 938:c:\program files\daisytoolchain\arm-none-eabi\include\c++\10.2.1\bits\stl_iterator.h ****   // @} group iterators
 939:c:\program files\daisytoolchain\arm-none-eabi\include\c++\10.2.1\bits\stl_iterator.h **** 
 940:c:\program files\daisytoolchain\arm-none-eabi\include\c++\10.2.1\bits\stl_iterator.h **** _GLIBCXX_END_NAMESPACE_VERSION
 941:c:\program files\daisytoolchain\arm-none-eabi\include\c++\10.2.1\bits\stl_iterator.h **** } // namespace
 942:c:\program files\daisytoolchain\arm-none-eabi\include\c++\10.2.1\bits\stl_iterator.h **** 
 943:c:\program files\daisytoolchain\arm-none-eabi\include\c++\10.2.1\bits\stl_iterator.h **** namespace __gnu_cxx _GLIBCXX_VISIBILITY(default)
 944:c:\program files\daisytoolchain\arm-none-eabi\include\c++\10.2.1\bits\stl_iterator.h **** {
 945:c:\program files\daisytoolchain\arm-none-eabi\include\c++\10.2.1\bits\stl_iterator.h **** _GLIBCXX_BEGIN_NAMESPACE_VERSION
 946:c:\program files\daisytoolchain\arm-none-eabi\include\c++\10.2.1\bits\stl_iterator.h **** 
 947:c:\program files\daisytoolchain\arm-none-eabi\include\c++\10.2.1\bits\stl_iterator.h ****   // This iterator adapter is @a normal in the sense that it does not
 948:c:\program files\daisytoolchain\arm-none-eabi\include\c++\10.2.1\bits\stl_iterator.h ****   // change the semantics of any of the operators of its iterator
 949:c:\program files\daisytoolchain\arm-none-eabi\include\c++\10.2.1\bits\stl_iterator.h ****   // parameter.  Its primary purpose is to convert an iterator that is
 950:c:\program files\daisytoolchain\arm-none-eabi\include\c++\10.2.1\bits\stl_iterator.h ****   // not a class, e.g. a pointer, into an iterator that is a class.
 951:c:\program files\daisytoolchain\arm-none-eabi\include\c++\10.2.1\bits\stl_iterator.h ****   // The _Container parameter exists solely so that different containers
 952:c:\program files\daisytoolchain\arm-none-eabi\include\c++\10.2.1\bits\stl_iterator.h ****   // using this template can instantiate different types, even if the
 953:c:\program files\daisytoolchain\arm-none-eabi\include\c++\10.2.1\bits\stl_iterator.h ****   // _Iterator parameter is the same.
 954:c:\program files\daisytoolchain\arm-none-eabi\include\c++\10.2.1\bits\stl_iterator.h ****   template<typename _Iterator, typename _Container>
 955:c:\program files\daisytoolchain\arm-none-eabi\include\c++\10.2.1\bits\stl_iterator.h ****     class __normal_iterator
 956:c:\program files\daisytoolchain\arm-none-eabi\include\c++\10.2.1\bits\stl_iterator.h ****     {
 957:c:\program files\daisytoolchain\arm-none-eabi\include\c++\10.2.1\bits\stl_iterator.h ****     protected:
 958:c:\program files\daisytoolchain\arm-none-eabi\include\c++\10.2.1\bits\stl_iterator.h ****       _Iterator _M_current;
 959:c:\program files\daisytoolchain\arm-none-eabi\include\c++\10.2.1\bits\stl_iterator.h **** 
 960:c:\program files\daisytoolchain\arm-none-eabi\include\c++\10.2.1\bits\stl_iterator.h ****       typedef std::iterator_traits<_Iterator>		__traits_type;
 961:c:\program files\daisytoolchain\arm-none-eabi\include\c++\10.2.1\bits\stl_iterator.h **** 
 962:c:\program files\daisytoolchain\arm-none-eabi\include\c++\10.2.1\bits\stl_iterator.h ****     public:
 963:c:\program files\daisytoolchain\arm-none-eabi\include\c++\10.2.1\bits\stl_iterator.h ****       typedef _Iterator					iterator_type;
 964:c:\program files\daisytoolchain\arm-none-eabi\include\c++\10.2.1\bits\stl_iterator.h ****       typedef typename __traits_type::iterator_category iterator_category;
 965:c:\program files\daisytoolchain\arm-none-eabi\include\c++\10.2.1\bits\stl_iterator.h ****       typedef typename __traits_type::value_type  	value_type;
 966:c:\program files\daisytoolchain\arm-none-eabi\include\c++\10.2.1\bits\stl_iterator.h ****       typedef typename __traits_type::difference_type 	difference_type;
 967:c:\program files\daisytoolchain\arm-none-eabi\include\c++\10.2.1\bits\stl_iterator.h ****       typedef typename __traits_type::reference 	reference;
 968:c:\program files\daisytoolchain\arm-none-eabi\include\c++\10.2.1\bits\stl_iterator.h ****       typedef typename __traits_type::pointer   	pointer;
 969:c:\program files\daisytoolchain\arm-none-eabi\include\c++\10.2.1\bits\stl_iterator.h **** 
 970:c:\program files\daisytoolchain\arm-none-eabi\include\c++\10.2.1\bits\stl_iterator.h **** #if __cplusplus > 201703L && __cpp_lib_concepts
 971:c:\program files\daisytoolchain\arm-none-eabi\include\c++\10.2.1\bits\stl_iterator.h ****       using iterator_concept = std::__detail::__iter_concept<_Iterator>;
 972:c:\program files\daisytoolchain\arm-none-eabi\include\c++\10.2.1\bits\stl_iterator.h **** #endif
 973:c:\program files\daisytoolchain\arm-none-eabi\include\c++\10.2.1\bits\stl_iterator.h **** 
 974:c:\program files\daisytoolchain\arm-none-eabi\include\c++\10.2.1\bits\stl_iterator.h ****       _GLIBCXX_CONSTEXPR __normal_iterator() _GLIBCXX_NOEXCEPT
 975:c:\program files\daisytoolchain\arm-none-eabi\include\c++\10.2.1\bits\stl_iterator.h ****       : _M_current(_Iterator()) { }
 976:c:\program files\daisytoolchain\arm-none-eabi\include\c++\10.2.1\bits\stl_iterator.h **** 
 977:c:\program files\daisytoolchain\arm-none-eabi\include\c++\10.2.1\bits\stl_iterator.h ****       explicit _GLIBCXX20_CONSTEXPR
 978:c:\program files\daisytoolchain\arm-none-eabi\include\c++\10.2.1\bits\stl_iterator.h ****       __normal_iterator(const _Iterator& __i) _GLIBCXX_NOEXCEPT
 1703              		.loc 8 978 7 view .LVU435
 1704              	.LBE399:
ARM GAS  C:\Users\samue\AppData\Local\Temp\cci865ja.s 			page 82


 1705              	.LBE398:
 1706              	.LBB400:
 1707              	.LBB401:
 1708              	.LBB402:
 979:c:\program files\daisytoolchain\arm-none-eabi\include\c++\10.2.1\bits\stl_iterator.h ****       : _M_current(__i) { }
 1709              		.loc 8 979 23 is_stmt 0 view .LVU436
 1710 00b6 D4E90062 		ldrd	r6, r2, [r4]
 1711              	.LBE402:
 1712              	.LBE401:
 1713              	.LBE400:
 1714              		.loc 1 255 34 view .LVU437
 1715 00ba 9642     		cmp	r6, r2
 1716 00bc 15D0     		beq	.L121
 1717              	.LVL97:
 1718              	.L122:
 256:daisy_common.cpp ****     {
 257:daisy_common.cpp ****         adc_config[(*iter).adc_channel_num + 2].InitSingle((*iter).pin);
 1719              		.loc 1 257 9 is_stmt 1 view .LVU438
 1720              	.LBB404:
 1721              	.LBI404:
 273:../../DaisyExamples/libDaisy//src/daisy_core.h **** 
 274:../../DaisyExamples/libDaisy//src/daisy_core.h ****     /** @brief checks validity of a Pin 
 275:../../DaisyExamples/libDaisy//src/daisy_core.h ****      *  @retval returns true if the port is a valid hardware pin, otherwise false.
 276:../../DaisyExamples/libDaisy//src/daisy_core.h ****     */
 277:../../DaisyExamples/libDaisy//src/daisy_core.h ****     constexpr bool IsValid() const { return port != PORTX && pin < 16; }
 278:../../DaisyExamples/libDaisy//src/daisy_core.h **** 
 279:../../DaisyExamples/libDaisy//src/daisy_core.h ****     /** @brief comparison operator for checking equality between Pin objects */
 280:../../DaisyExamples/libDaisy//src/daisy_core.h ****     constexpr bool operator==(const Pin &rhs) const
 281:../../DaisyExamples/libDaisy//src/daisy_core.h ****     {
 282:../../DaisyExamples/libDaisy//src/daisy_core.h ****         return (rhs.port == port) && (rhs.pin == pin);
 283:../../DaisyExamples/libDaisy//src/daisy_core.h ****     }
 284:../../DaisyExamples/libDaisy//src/daisy_core.h **** 
 285:../../DaisyExamples/libDaisy//src/daisy_core.h ****     /** @brief comparison operator for checking inequality between Pin objects */
 286:../../DaisyExamples/libDaisy//src/daisy_core.h ****     constexpr bool operator!=(const Pin &rhs) const { return !operator==(rhs); }
 287:../../DaisyExamples/libDaisy//src/daisy_core.h **** 
 288:../../DaisyExamples/libDaisy//src/daisy_core.h ****     /** @brief conversion operation for converting to the old-style representation
 289:../../DaisyExamples/libDaisy//src/daisy_core.h ****      *         of a pin.
 290:../../DaisyExamples/libDaisy//src/daisy_core.h ****      * 
 291:../../DaisyExamples/libDaisy//src/daisy_core.h ****      *  This allows the new Pin type to be used in place of the older, dsy_gpio_pin
 292:../../DaisyExamples/libDaisy//src/daisy_core.h ****      *  type.
 293:../../DaisyExamples/libDaisy//src/daisy_core.h ****      */
 294:../../DaisyExamples/libDaisy//src/daisy_core.h ****     constexpr operator dsy_gpio_pin() const
 1722              		.loc 4 294 15 view .LVU439
 1723              	.LBB405:
 295:../../DaisyExamples/libDaisy//src/daisy_core.h ****     {
 296:../../DaisyExamples/libDaisy//src/daisy_core.h ****         return dsy_gpio_pin{.port = static_cast<dsy_gpio_port>(port),
 1724              		.loc 4 296 9 view .LVU440
 1725              	.LBE405:
 1726              	.LBE404:
 1727              		.loc 1 257 44 is_stmt 0 view .LVU441
 1728 00be B068     		ldr	r0, [r6, #8]
 1729              		.loc 1 257 59 view .LVU442
 1730 00c0 0222     		movs	r2, #2
 1731              	.LBB407:
 1732              	.LBB406:
 297:../../DaisyExamples/libDaisy//src/daisy_core.h ****                             .pin  = pin};
 1733              		.loc 4 297 37 view .LVU443
ARM GAS  C:\Users\samue\AppData\Local\Temp\cci865ja.s 			page 83


 1734 00c2 717B     		ldrb	r1, [r6, #13]	@ zero_extendqisi2
 1735              	.LBE406:
 1736              	.LBE407:
 1737              	.LBB408:
 1738              	.LBB409:
 980:c:\program files\daisytoolchain\arm-none-eabi\include\c++\10.2.1\bits\stl_iterator.h **** 
 981:c:\program files\daisytoolchain\arm-none-eabi\include\c++\10.2.1\bits\stl_iterator.h ****       // Allow iterator to const_iterator conversion
 982:c:\program files\daisytoolchain\arm-none-eabi\include\c++\10.2.1\bits\stl_iterator.h ****       template<typename _Iter>
 983:c:\program files\daisytoolchain\arm-none-eabi\include\c++\10.2.1\bits\stl_iterator.h ****         _GLIBCXX20_CONSTEXPR
 984:c:\program files\daisytoolchain\arm-none-eabi\include\c++\10.2.1\bits\stl_iterator.h ****         __normal_iterator(const __normal_iterator<_Iter,
 985:c:\program files\daisytoolchain\arm-none-eabi\include\c++\10.2.1\bits\stl_iterator.h **** 			  typename __enable_if<
 986:c:\program files\daisytoolchain\arm-none-eabi\include\c++\10.2.1\bits\stl_iterator.h ****       	       (std::__are_same<_Iter, typename _Container::pointer>::__value),
 987:c:\program files\daisytoolchain\arm-none-eabi\include\c++\10.2.1\bits\stl_iterator.h **** 		      _Container>::__type>& __i) _GLIBCXX_NOEXCEPT
 988:c:\program files\daisytoolchain\arm-none-eabi\include\c++\10.2.1\bits\stl_iterator.h ****         : _M_current(__i.base()) { }
 989:c:\program files\daisytoolchain\arm-none-eabi\include\c++\10.2.1\bits\stl_iterator.h **** 
 990:c:\program files\daisytoolchain\arm-none-eabi\include\c++\10.2.1\bits\stl_iterator.h ****       // Forward iterator requirements
 991:c:\program files\daisytoolchain\arm-none-eabi\include\c++\10.2.1\bits\stl_iterator.h ****       _GLIBCXX20_CONSTEXPR
 992:c:\program files\daisytoolchain\arm-none-eabi\include\c++\10.2.1\bits\stl_iterator.h ****       reference
 993:c:\program files\daisytoolchain\arm-none-eabi\include\c++\10.2.1\bits\stl_iterator.h ****       operator*() const _GLIBCXX_NOEXCEPT
 994:c:\program files\daisytoolchain\arm-none-eabi\include\c++\10.2.1\bits\stl_iterator.h ****       { return *_M_current; }
 995:c:\program files\daisytoolchain\arm-none-eabi\include\c++\10.2.1\bits\stl_iterator.h **** 
 996:c:\program files\daisytoolchain\arm-none-eabi\include\c++\10.2.1\bits\stl_iterator.h ****       _GLIBCXX20_CONSTEXPR
 997:c:\program files\daisytoolchain\arm-none-eabi\include\c++\10.2.1\bits\stl_iterator.h ****       pointer
 998:c:\program files\daisytoolchain\arm-none-eabi\include\c++\10.2.1\bits\stl_iterator.h ****       operator->() const _GLIBCXX_NOEXCEPT
 999:c:\program files\daisytoolchain\arm-none-eabi\include\c++\10.2.1\bits\stl_iterator.h ****       { return _M_current; }
1000:c:\program files\daisytoolchain\arm-none-eabi\include\c++\10.2.1\bits\stl_iterator.h **** 
1001:c:\program files\daisytoolchain\arm-none-eabi\include\c++\10.2.1\bits\stl_iterator.h ****       _GLIBCXX20_CONSTEXPR
1002:c:\program files\daisytoolchain\arm-none-eabi\include\c++\10.2.1\bits\stl_iterator.h ****       __normal_iterator&
1003:c:\program files\daisytoolchain\arm-none-eabi\include\c++\10.2.1\bits\stl_iterator.h ****       operator++() _GLIBCXX_NOEXCEPT
1004:c:\program files\daisytoolchain\arm-none-eabi\include\c++\10.2.1\bits\stl_iterator.h ****       {
1005:c:\program files\daisytoolchain\arm-none-eabi\include\c++\10.2.1\bits\stl_iterator.h **** 	++_M_current;
 1739              		.loc 8 1005 2 view .LVU444
 1740 00c4 1436     		adds	r6, r6, #20
 1741              	.LVL98:
 1742              		.loc 8 1005 2 view .LVU445
 1743              	.LBE409:
 1744              	.LBE408:
 1745              		.loc 1 257 44 view .LVU446
 1746 00c6 1044     		add	r0, r0, r2
 1747 00c8 16F8083C 		ldrb	r3, [r6, #-8]	@ zero_extendqisi2
 1748 00cc 87F82D10 		strb	r1, [r7, #45]
 1749              	.LVL99:
 1750              		.loc 1 257 59 view .LVU447
 1751 00d0 00EBC000 		add	r0, r0, r0, lsl #3
 1752 00d4 87F82C30 		strb	r3, [r7, #44]
 1753 00d8 F96A     		ldr	r1, [r7, #44]
 1754 00da 05EB4000 		add	r0, r5, r0, lsl #1
 1755 00de FFF7FEFF 		bl	_ZN5daisy16AdcChannelConfig10InitSingleE12dsy_gpio_pinNS0_15ConversionSpeedE
 1756              	.LVL100:
 255:daisy_common.cpp ****     {
 1757              		.loc 1 255 5 is_stmt 1 view .LVU448
 1758              	.LBB410:
 1759              	.LBI408:
1003:c:\program files\daisytoolchain\arm-none-eabi\include\c++\10.2.1\bits\stl_iterator.h ****       {
 1760              		.loc 8 1003 7 view .LVU449
1003:c:\program files\daisytoolchain\arm-none-eabi\include\c++\10.2.1\bits\stl_iterator.h ****       {
 1761              		.loc 8 1003 7 is_stmt 0 view .LVU450
ARM GAS  C:\Users\samue\AppData\Local\Temp\cci865ja.s 			page 84


 1762              	.LBE410:
 255:daisy_common.cpp ****     {
 1763              		.loc 1 255 34 is_stmt 1 view .LVU451
 1764              	.LBB411:
 1765              	.LBI400:
 829:c:\program files\daisytoolchain\arm-none-eabi\include\c++\10.2.1\bits\stl_vector.h ****       { return iterator(this->_M_impl._M_finish); }
 1766              		.loc 7 829 7 view .LVU452
 1767              	.LBB403:
 1768              	.LBI401:
 978:c:\program files\daisytoolchain\arm-none-eabi\include\c++\10.2.1\bits\stl_iterator.h ****       : _M_current(__i) { }
 1769              		.loc 8 978 7 view .LVU453
 978:c:\program files\daisytoolchain\arm-none-eabi\include\c++\10.2.1\bits\stl_iterator.h ****       : _M_current(__i) { }
 1770              		.loc 8 978 7 is_stmt 0 view .LVU454
 1771              	.LBE403:
 1772              	.LBE411:
 255:daisy_common.cpp ****     {
 1773              		.loc 1 255 34 view .LVU455
 1774 00e2 6368     		ldr	r3, [r4, #4]
 1775 00e4 B342     		cmp	r3, r6
 1776 00e6 EAD1     		bne	.L122
 1777              	.LBB412:
 1778              	.LBB413:
 1779              		.loc 7 919 66 view .LVU456
 1780 00e8 2268     		ldr	r2, [r4]
 1781              	.LVL101:
 1782              	.L121:
 1783              		.loc 7 919 66 view .LVU457
 1784              	.LBE413:
 1785              	.LBE412:
 258:daisy_common.cpp ****     }
 259:daisy_common.cpp ****     
 260:daisy_common.cpp ****     seed.adc.Init(adc_config, cvs.size()+2);
 1786              		.loc 1 260 5 is_stmt 1 view .LVU458
 1787              	.LBB417:
 1788              	.LBB414:
 1789              		.loc 7 919 50 is_stmt 0 view .LVU459
 1790 00ea B21A     		subs	r2, r6, r2
 1791 00ec 094E     		ldr	r6, .L126
 1792              	.LBE414:
 1793              	.LBE417:
 1794              		.loc 1 260 18 view .LVU460
 1795 00ee 04F5E070 		add	r0, r4, #448
 1796              	.LVL102:
 1797              	.LBB418:
 1798              	.LBI412:
 918:c:\program files\daisytoolchain\arm-none-eabi\include\c++\10.2.1\bits\stl_vector.h ****       { return size_type(this->_M_impl._M_finish - this->_M_impl._M_start); }
 1799              		.loc 7 918 7 is_stmt 1 view .LVU461
 918:c:\program files\daisytoolchain\arm-none-eabi\include\c++\10.2.1\bits\stl_vector.h ****       { return size_type(this->_M_impl._M_finish - this->_M_impl._M_start); }
 1800              		.loc 7 918 7 is_stmt 0 view .LVU462
 1801              	.LBE418:
 1802              		.loc 1 260 18 view .LVU463
 1803 00f2 0423     		movs	r3, #4
 1804              	.LBB419:
 1805              	.LBB415:
 1806              		.loc 7 919 50 view .LVU464
 1807 00f4 9210     		asrs	r2, r2, #2
 1808              	.LBE415:
ARM GAS  C:\Users\samue\AppData\Local\Temp\cci865ja.s 			page 85


 1809              	.LBE419:
 1810              		.loc 1 260 18 view .LVU465
 1811 00f6 2946     		mov	r1, r5
 1812 00f8 7860     		str	r0, [r7, #4]
 1813              	.LBB420:
 1814              	.LBB416:
 1815              		.loc 7 919 50 view .LVU466
 1816 00fa 06FB02F2 		mul	r2, r6, r2
 1817              	.LBE416:
 1818              	.LBE420:
 1819              		.loc 1 260 18 view .LVU467
 1820 00fe 0232     		adds	r2, r2, #2
 1821 0100 FFF7FEFF 		bl	_ZN5daisy9AdcHandle4InitEPNS_16AdcChannelConfigEjNS0_12OverSamplingE
 1822              	.LVL103:
 261:daisy_common.cpp ****     seed.adc.Start();
 1823              		.loc 1 261 5 is_stmt 1 view .LVU468
 1824              		.loc 1 261 19 is_stmt 0 view .LVU469
 1825 0104 7868     		ldr	r0, [r7, #4]
 1826 0106 FFF7FEFF 		bl	_ZN5daisy9AdcHandle5StartEv
 1827              	.LVL104:
 262:daisy_common.cpp **** }...
 1828              		.loc 1 262 1 view .LVU470
 1829 010a 3437     		adds	r7, r7, #52
 1830              		.cfi_def_cfa_offset 36
 1831 010c BD46     		mov	sp, r7
 1832              		.cfi_def_cfa_register 13
 1833              		@ sp needed
 1834 010e BDE8F08F 		pop	{r4, r5, r6, r7, r8, r9, r10, fp, pc}
 1835              	.LVL105:
 1836              	.L127:
 1837              		.loc 1 262 1 view .LVU471
 1838 0112 00BF     		.align	2
 1839              	.L126:
 1840 0114 CDCCCCCC 		.word	-858993459
 1841              		.cfi_endproc
 1842              	.LFE3078:
 1844              		.section	.text._ZN5daisy11daisyCommon4InitEb,"ax",%progbits
 1845              		.align	1
 1846              		.p2align 2,,3
 1847              		.global	_ZN5daisy11daisyCommon4InitEb
 1848              		.syntax unified
 1849              		.thumb
 1850              		.thumb_func
 1851              		.fpu fpv5-d16
 1853              	_ZN5daisy11daisyCommon4InitEb:
 1854              	.LVL106:
 1855              	.LFB3063:
  85:daisy_common.cpp **** {
 1856              		.loc 1 85 1 is_stmt 1 view -0
 1857              		.cfi_startproc
 1858              		@ args = 0, pretend = 0, frame = 8
 1859              		@ frame_needed = 0, uses_anonymous_args = 0
  87:daisy_common.cpp ****     seed.Init(boost);
 1860              		.loc 1 87 5 view .LVU473
  85:daisy_common.cpp **** {
 1861              		.loc 1 85 1 is_stmt 0 view .LVU474
 1862 0000 10B5     		push	{r4, lr}
ARM GAS  C:\Users\samue\AppData\Local\Temp\cci865ja.s 			page 86


 1863              		.cfi_def_cfa_offset 8
 1864              		.cfi_offset 4, -8
 1865              		.cfi_offset 14, -4
 1866 0002 0446     		mov	r4, r0
 1867 0004 82B0     		sub	sp, sp, #8
 1868              		.cfi_def_cfa_offset 16
  87:daisy_common.cpp ****     seed.Init(boost);
 1869              		.loc 1 87 14 view .LVU475
 1870 0006 00F5D470 		add	r0, r0, #424
 1871              	.LVL107:
  87:daisy_common.cpp ****     seed.Init(boost);
 1872              		.loc 1 87 14 view .LVU476
 1873 000a FFF7FEFF 		bl	_ZN5daisy9DaisySeed4InitEb
 1874              	.LVL108:
  88:daisy_common.cpp ****     InitGPIO_MUX();
 1875              		.loc 1 88 5 is_stmt 1 view .LVU477
  88:daisy_common.cpp ****     InitGPIO_MUX();
 1876              		.loc 1 88 17 is_stmt 0 view .LVU478
 1877 000e 2046     		mov	r0, r4
 1878 0010 FFF7FEFF 		bl	_ZN5daisy11daisyCommon12InitGPIO_MUXEv
 1879              	.LVL109:
  89:daisy_common.cpp ****     InitToggle();
 1880              		.loc 1 89 5 is_stmt 1 view .LVU479
  89:daisy_common.cpp ****     InitToggle();
 1881              		.loc 1 89 15 is_stmt 0 view .LVU480
 1882 0014 2046     		mov	r0, r4
 1883 0016 FFF7FEFF 		bl	_ZN5daisy11daisyCommon10InitToggleEv
 1884              	.LVL110:
  90:daisy_common.cpp ****     InitButton();
 1885              		.loc 1 90 5 is_stmt 1 view .LVU481
 1886              	.LBB423:
 1887              	.LBI423:
 242:daisy_common.cpp **** void daisyCommon::InitButton()
 1888              		.loc 1 242 6 view .LVU482
 1889              	.LBB424:
 244:daisy_common.cpp ****     button.Init(D10);
 1890              		.loc 1 244 5 view .LVU483
 244:daisy_common.cpp ****     button.Init(D10);
 1891              		.loc 1 244 16 is_stmt 0 view .LVU484
 1892 001a 0122     		movs	r2, #1
 1893 001c 0523     		movs	r3, #5
 1894 001e 04F5CA70 		add	r0, r4, #404
 1895 0022 8DF80420 		strb	r2, [sp, #4]
 1896 0026 8DF80530 		strb	r3, [sp, #5]
 1897 002a 9FED050A 		vldr.32	s0, .L130
 1898 002e 0199     		ldr	r1, [sp, #4]
 1899 0030 FFF7FEFF 		bl	_ZN5daisy6Switch4InitE12dsy_gpio_pinf
 1900              	.LVL111:
 244:daisy_common.cpp ****     button.Init(D10);
 1901              		.loc 1 244 16 view .LVU485
 1902              	.LBE424:
 1903              	.LBE423:
  91:daisy_common.cpp ****     InitADC();
 1904              		.loc 1 91 5 is_stmt 1 view .LVU486
  91:daisy_common.cpp ****     InitADC();
 1905              		.loc 1 91 12 is_stmt 0 view .LVU487
 1906 0034 2046     		mov	r0, r4
ARM GAS  C:\Users\samue\AppData\Local\Temp\cci865ja.s 			page 87


  93:daisy_common.cpp **** }
 1907              		.loc 1 93 1 view .LVU488
 1908 0036 02B0     		add	sp, sp, #8
 1909              		.cfi_def_cfa_offset 8
 1910              		@ sp needed
 1911 0038 BDE81040 		pop	{r4, lr}
 1912              		.cfi_restore 14
 1913              		.cfi_restore 4
 1914              		.cfi_def_cfa_offset 0
 1915              	.LVL112:
  91:daisy_common.cpp ****     InitADC();
 1916              		.loc 1 91 12 view .LVU489
 1917 003c FFF7FEBF 		b	_ZN5daisy11daisyCommon7InitADCEv
 1918              	.LVL113:
 1919              	.L131:
  91:daisy_common.cpp ****     InitADC();
 1920              		.loc 1 91 12 view .LVU490
 1921              		.align	2
 1922              	.L130:
 1923 0040 00000000 		.word	0
 1924              		.cfi_endproc
 1925              	.LFE3063:
 1927              		.section	.rodata._ZNSt6vectorI2cvSaIS0_EE17_M_realloc_insertIJRKS0_EEEvN9__gnu_cxx17__normal_itera
 1928              		.align	2
 1929              	.LC16:
 1930 0000 76656374 		.ascii	"vector::_M_realloc_insert\000"
 1930      6F723A3A 
 1930      5F4D5F72 
 1930      65616C6C 
 1930      6F635F69 
 1931              		.section	.text._ZNSt6vectorI2cvSaIS0_EE17_M_realloc_insertIJRKS0_EEEvN9__gnu_cxx17__normal_iterato
 1932              		.align	1
 1933              		.p2align 2,,3
 1934              		.weak	_ZNSt6vectorI2cvSaIS0_EE17_M_realloc_insertIJRKS0_EEEvN9__gnu_cxx17__normal_iteratorIPS0_S2_
 1935              		.syntax unified
 1936              		.thumb
 1937              		.thumb_func
 1938              		.fpu fpv5-d16
 1940              	_ZNSt6vectorI2cvSaIS0_EE17_M_realloc_insertIJRKS0_EEEvN9__gnu_cxx17__normal_iteratorIPS0_S2_EEDpOT_
 1941              	.LVL114:
 1942              	.LFB3158:
 1943              		.file 9 "c:\\program files\\daisytoolchain\\arm-none-eabi\\include\\c++\\10.2.1\\bits\\vector.tcc"
   1:c:\program files\daisytoolchain\arm-none-eabi\include\c++\10.2.1\bits\vector.tcc **** // Vector implementation (out of line) -*- C++ -*-
   2:c:\program files\daisytoolchain\arm-none-eabi\include\c++\10.2.1\bits\vector.tcc **** 
   3:c:\program files\daisytoolchain\arm-none-eabi\include\c++\10.2.1\bits\vector.tcc **** // Copyright (C) 2001-2020 Free Software Foundation, Inc.
   4:c:\program files\daisytoolchain\arm-none-eabi\include\c++\10.2.1\bits\vector.tcc **** //
   5:c:\program files\daisytoolchain\arm-none-eabi\include\c++\10.2.1\bits\vector.tcc **** // This file is part of the GNU ISO C++ Library.  This library is free
   6:c:\program files\daisytoolchain\arm-none-eabi\include\c++\10.2.1\bits\vector.tcc **** // software; you can redistribute it and/or modify it under the
   7:c:\program files\daisytoolchain\arm-none-eabi\include\c++\10.2.1\bits\vector.tcc **** // terms of the GNU General Public License as published by the
   8:c:\program files\daisytoolchain\arm-none-eabi\include\c++\10.2.1\bits\vector.tcc **** // Free Software Foundation; either version 3, or (at your option)
   9:c:\program files\daisytoolchain\arm-none-eabi\include\c++\10.2.1\bits\vector.tcc **** // any later version.
  10:c:\program files\daisytoolchain\arm-none-eabi\include\c++\10.2.1\bits\vector.tcc **** 
  11:c:\program files\daisytoolchain\arm-none-eabi\include\c++\10.2.1\bits\vector.tcc **** // This library is distributed in the hope that it will be useful,
  12:c:\program files\daisytoolchain\arm-none-eabi\include\c++\10.2.1\bits\vector.tcc **** // but WITHOUT ANY WARRANTY; without even the implied warranty of
  13:c:\program files\daisytoolchain\arm-none-eabi\include\c++\10.2.1\bits\vector.tcc **** // MERCHANTABILITY or FITNESS FOR A PARTICULAR PURPOSE.  See the
  14:c:\program files\daisytoolchain\arm-none-eabi\include\c++\10.2.1\bits\vector.tcc **** // GNU General Public License for more details.
  15:c:\program files\daisytoolchain\arm-none-eabi\include\c++\10.2.1\bits\vector.tcc **** 
ARM GAS  C:\Users\samue\AppData\Local\Temp\cci865ja.s 			page 88


  16:c:\program files\daisytoolchain\arm-none-eabi\include\c++\10.2.1\bits\vector.tcc **** // Under Section 7 of GPL version 3, you are granted additional
  17:c:\program files\daisytoolchain\arm-none-eabi\include\c++\10.2.1\bits\vector.tcc **** // permissions described in the GCC Runtime Library Exception, version
  18:c:\program files\daisytoolchain\arm-none-eabi\include\c++\10.2.1\bits\vector.tcc **** // 3.1, as published by the Free Software Foundation.
  19:c:\program files\daisytoolchain\arm-none-eabi\include\c++\10.2.1\bits\vector.tcc **** 
  20:c:\program files\daisytoolchain\arm-none-eabi\include\c++\10.2.1\bits\vector.tcc **** // You should have received a copy of the GNU General Public License and
  21:c:\program files\daisytoolchain\arm-none-eabi\include\c++\10.2.1\bits\vector.tcc **** // a copy of the GCC Runtime Library Exception along with this program;
  22:c:\program files\daisytoolchain\arm-none-eabi\include\c++\10.2.1\bits\vector.tcc **** // see the files COPYING3 and COPYING.RUNTIME respectively.  If not, see
  23:c:\program files\daisytoolchain\arm-none-eabi\include\c++\10.2.1\bits\vector.tcc **** // <http://www.gnu.org/licenses/>.
  24:c:\program files\daisytoolchain\arm-none-eabi\include\c++\10.2.1\bits\vector.tcc **** 
  25:c:\program files\daisytoolchain\arm-none-eabi\include\c++\10.2.1\bits\vector.tcc **** /*
  26:c:\program files\daisytoolchain\arm-none-eabi\include\c++\10.2.1\bits\vector.tcc ****  *
  27:c:\program files\daisytoolchain\arm-none-eabi\include\c++\10.2.1\bits\vector.tcc ****  * Copyright (c) 1994
  28:c:\program files\daisytoolchain\arm-none-eabi\include\c++\10.2.1\bits\vector.tcc ****  * Hewlett-Packard Company
  29:c:\program files\daisytoolchain\arm-none-eabi\include\c++\10.2.1\bits\vector.tcc ****  *
  30:c:\program files\daisytoolchain\arm-none-eabi\include\c++\10.2.1\bits\vector.tcc ****  * Permission to use, copy, modify, distribute and sell this software
  31:c:\program files\daisytoolchain\arm-none-eabi\include\c++\10.2.1\bits\vector.tcc ****  * and its documentation for any purpose is hereby granted without fee,
  32:c:\program files\daisytoolchain\arm-none-eabi\include\c++\10.2.1\bits\vector.tcc ****  * provided that the above copyright notice appear in all copies and
  33:c:\program files\daisytoolchain\arm-none-eabi\include\c++\10.2.1\bits\vector.tcc ****  * that both that copyright notice and this permission notice appear
  34:c:\program files\daisytoolchain\arm-none-eabi\include\c++\10.2.1\bits\vector.tcc ****  * in supporting documentation.  Hewlett-Packard Company makes no
  35:c:\program files\daisytoolchain\arm-none-eabi\include\c++\10.2.1\bits\vector.tcc ****  * representations about the suitability of this software for any
  36:c:\program files\daisytoolchain\arm-none-eabi\include\c++\10.2.1\bits\vector.tcc ****  * purpose.  It is provided "as is" without express or implied warranty.
  37:c:\program files\daisytoolchain\arm-none-eabi\include\c++\10.2.1\bits\vector.tcc ****  *
  38:c:\program files\daisytoolchain\arm-none-eabi\include\c++\10.2.1\bits\vector.tcc ****  *
  39:c:\program files\daisytoolchain\arm-none-eabi\include\c++\10.2.1\bits\vector.tcc ****  * Copyright (c) 1996
  40:c:\program files\daisytoolchain\arm-none-eabi\include\c++\10.2.1\bits\vector.tcc ****  * Silicon Graphics Computer Systems, Inc.
  41:c:\program files\daisytoolchain\arm-none-eabi\include\c++\10.2.1\bits\vector.tcc ****  *
  42:c:\program files\daisytoolchain\arm-none-eabi\include\c++\10.2.1\bits\vector.tcc ****  * Permission to use, copy, modify, distribute and sell this software
  43:c:\program files\daisytoolchain\arm-none-eabi\include\c++\10.2.1\bits\vector.tcc ****  * and its documentation for any purpose is hereby granted without fee,
  44:c:\program files\daisytoolchain\arm-none-eabi\include\c++\10.2.1\bits\vector.tcc ****  * provided that the above copyright notice appear in all copies and
  45:c:\program files\daisytoolchain\arm-none-eabi\include\c++\10.2.1\bits\vector.tcc ****  * that both that copyright notice and this permission notice appear
  46:c:\program files\daisytoolchain\arm-none-eabi\include\c++\10.2.1\bits\vector.tcc ****  * in supporting documentation.  Silicon Graphics makes no
  47:c:\program files\daisytoolchain\arm-none-eabi\include\c++\10.2.1\bits\vector.tcc ****  * representations about the suitability of this  software for any
  48:c:\program files\daisytoolchain\arm-none-eabi\include\c++\10.2.1\bits\vector.tcc ****  * purpose.  It is provided "as is" without express or implied warranty.
  49:c:\program files\daisytoolchain\arm-none-eabi\include\c++\10.2.1\bits\vector.tcc ****  */
  50:c:\program files\daisytoolchain\arm-none-eabi\include\c++\10.2.1\bits\vector.tcc **** 
  51:c:\program files\daisytoolchain\arm-none-eabi\include\c++\10.2.1\bits\vector.tcc **** /** @file bits/vector.tcc
  52:c:\program files\daisytoolchain\arm-none-eabi\include\c++\10.2.1\bits\vector.tcc ****  *  This is an internal header file, included by other library headers.
  53:c:\program files\daisytoolchain\arm-none-eabi\include\c++\10.2.1\bits\vector.tcc ****  *  Do not attempt to use it directly. @headername{vector}
  54:c:\program files\daisytoolchain\arm-none-eabi\include\c++\10.2.1\bits\vector.tcc ****  */
  55:c:\program files\daisytoolchain\arm-none-eabi\include\c++\10.2.1\bits\vector.tcc **** 
  56:c:\program files\daisytoolchain\arm-none-eabi\include\c++\10.2.1\bits\vector.tcc **** #ifndef _VECTOR_TCC
  57:c:\program files\daisytoolchain\arm-none-eabi\include\c++\10.2.1\bits\vector.tcc **** #define _VECTOR_TCC 1
  58:c:\program files\daisytoolchain\arm-none-eabi\include\c++\10.2.1\bits\vector.tcc **** 
  59:c:\program files\daisytoolchain\arm-none-eabi\include\c++\10.2.1\bits\vector.tcc **** namespace std _GLIBCXX_VISIBILITY(default)
  60:c:\program files\daisytoolchain\arm-none-eabi\include\c++\10.2.1\bits\vector.tcc **** {
  61:c:\program files\daisytoolchain\arm-none-eabi\include\c++\10.2.1\bits\vector.tcc **** _GLIBCXX_BEGIN_NAMESPACE_VERSION
  62:c:\program files\daisytoolchain\arm-none-eabi\include\c++\10.2.1\bits\vector.tcc **** _GLIBCXX_BEGIN_NAMESPACE_CONTAINER
  63:c:\program files\daisytoolchain\arm-none-eabi\include\c++\10.2.1\bits\vector.tcc **** 
  64:c:\program files\daisytoolchain\arm-none-eabi\include\c++\10.2.1\bits\vector.tcc ****   template<typename _Tp, typename _Alloc>
  65:c:\program files\daisytoolchain\arm-none-eabi\include\c++\10.2.1\bits\vector.tcc ****     void
  66:c:\program files\daisytoolchain\arm-none-eabi\include\c++\10.2.1\bits\vector.tcc ****     vector<_Tp, _Alloc>::
  67:c:\program files\daisytoolchain\arm-none-eabi\include\c++\10.2.1\bits\vector.tcc ****     reserve(size_type __n)
  68:c:\program files\daisytoolchain\arm-none-eabi\include\c++\10.2.1\bits\vector.tcc ****     {
  69:c:\program files\daisytoolchain\arm-none-eabi\include\c++\10.2.1\bits\vector.tcc ****       if (__n > this->max_size())
  70:c:\program files\daisytoolchain\arm-none-eabi\include\c++\10.2.1\bits\vector.tcc **** 	__throw_length_error(__N("vector::reserve"));
  71:c:\program files\daisytoolchain\arm-none-eabi\include\c++\10.2.1\bits\vector.tcc ****       if (this->capacity() < __n)
  72:c:\program files\daisytoolchain\arm-none-eabi\include\c++\10.2.1\bits\vector.tcc **** 	{
ARM GAS  C:\Users\samue\AppData\Local\Temp\cci865ja.s 			page 89


  73:c:\program files\daisytoolchain\arm-none-eabi\include\c++\10.2.1\bits\vector.tcc **** 	  const size_type __old_size = size();
  74:c:\program files\daisytoolchain\arm-none-eabi\include\c++\10.2.1\bits\vector.tcc **** 	  pointer __tmp;
  75:c:\program files\daisytoolchain\arm-none-eabi\include\c++\10.2.1\bits\vector.tcc **** #if __cplusplus >= 201103L
  76:c:\program files\daisytoolchain\arm-none-eabi\include\c++\10.2.1\bits\vector.tcc **** 	  if _GLIBCXX17_CONSTEXPR (_S_use_relocate())
  77:c:\program files\daisytoolchain\arm-none-eabi\include\c++\10.2.1\bits\vector.tcc **** 	    {
  78:c:\program files\daisytoolchain\arm-none-eabi\include\c++\10.2.1\bits\vector.tcc **** 	      __tmp = this->_M_allocate(__n);
  79:c:\program files\daisytoolchain\arm-none-eabi\include\c++\10.2.1\bits\vector.tcc **** 	      _S_relocate(this->_M_impl._M_start, this->_M_impl._M_finish,
  80:c:\program files\daisytoolchain\arm-none-eabi\include\c++\10.2.1\bits\vector.tcc **** 			  __tmp, _M_get_Tp_allocator());
  81:c:\program files\daisytoolchain\arm-none-eabi\include\c++\10.2.1\bits\vector.tcc **** 	    }
  82:c:\program files\daisytoolchain\arm-none-eabi\include\c++\10.2.1\bits\vector.tcc **** 	  else
  83:c:\program files\daisytoolchain\arm-none-eabi\include\c++\10.2.1\bits\vector.tcc **** #endif
  84:c:\program files\daisytoolchain\arm-none-eabi\include\c++\10.2.1\bits\vector.tcc **** 	    {
  85:c:\program files\daisytoolchain\arm-none-eabi\include\c++\10.2.1\bits\vector.tcc **** 	      __tmp = _M_allocate_and_copy(__n,
  86:c:\program files\daisytoolchain\arm-none-eabi\include\c++\10.2.1\bits\vector.tcc **** 		_GLIBCXX_MAKE_MOVE_IF_NOEXCEPT_ITERATOR(this->_M_impl._M_start),
  87:c:\program files\daisytoolchain\arm-none-eabi\include\c++\10.2.1\bits\vector.tcc **** 		_GLIBCXX_MAKE_MOVE_IF_NOEXCEPT_ITERATOR(this->_M_impl._M_finish));
  88:c:\program files\daisytoolchain\arm-none-eabi\include\c++\10.2.1\bits\vector.tcc **** 	      std::_Destroy(this->_M_impl._M_start, this->_M_impl._M_finish,
  89:c:\program files\daisytoolchain\arm-none-eabi\include\c++\10.2.1\bits\vector.tcc **** 			    _M_get_Tp_allocator());
  90:c:\program files\daisytoolchain\arm-none-eabi\include\c++\10.2.1\bits\vector.tcc **** 	    }
  91:c:\program files\daisytoolchain\arm-none-eabi\include\c++\10.2.1\bits\vector.tcc **** 	  _GLIBCXX_ASAN_ANNOTATE_REINIT;
  92:c:\program files\daisytoolchain\arm-none-eabi\include\c++\10.2.1\bits\vector.tcc **** 	  _M_deallocate(this->_M_impl._M_start,
  93:c:\program files\daisytoolchain\arm-none-eabi\include\c++\10.2.1\bits\vector.tcc **** 			this->_M_impl._M_end_of_storage
  94:c:\program files\daisytoolchain\arm-none-eabi\include\c++\10.2.1\bits\vector.tcc **** 			- this->_M_impl._M_start);
  95:c:\program files\daisytoolchain\arm-none-eabi\include\c++\10.2.1\bits\vector.tcc **** 	  this->_M_impl._M_start = __tmp;
  96:c:\program files\daisytoolchain\arm-none-eabi\include\c++\10.2.1\bits\vector.tcc **** 	  this->_M_impl._M_finish = __tmp + __old_size;
  97:c:\program files\daisytoolchain\arm-none-eabi\include\c++\10.2.1\bits\vector.tcc **** 	  this->_M_impl._M_end_of_storage = this->_M_impl._M_start + __n;
  98:c:\program files\daisytoolchain\arm-none-eabi\include\c++\10.2.1\bits\vector.tcc **** 	}
  99:c:\program files\daisytoolchain\arm-none-eabi\include\c++\10.2.1\bits\vector.tcc ****     }
 100:c:\program files\daisytoolchain\arm-none-eabi\include\c++\10.2.1\bits\vector.tcc **** 
 101:c:\program files\daisytoolchain\arm-none-eabi\include\c++\10.2.1\bits\vector.tcc **** #if __cplusplus >= 201103L
 102:c:\program files\daisytoolchain\arm-none-eabi\include\c++\10.2.1\bits\vector.tcc ****   template<typename _Tp, typename _Alloc>
 103:c:\program files\daisytoolchain\arm-none-eabi\include\c++\10.2.1\bits\vector.tcc ****     template<typename... _Args>
 104:c:\program files\daisytoolchain\arm-none-eabi\include\c++\10.2.1\bits\vector.tcc **** #if __cplusplus > 201402L
 105:c:\program files\daisytoolchain\arm-none-eabi\include\c++\10.2.1\bits\vector.tcc ****       typename vector<_Tp, _Alloc>::reference
 106:c:\program files\daisytoolchain\arm-none-eabi\include\c++\10.2.1\bits\vector.tcc **** #else
 107:c:\program files\daisytoolchain\arm-none-eabi\include\c++\10.2.1\bits\vector.tcc ****       void
 108:c:\program files\daisytoolchain\arm-none-eabi\include\c++\10.2.1\bits\vector.tcc **** #endif
 109:c:\program files\daisytoolchain\arm-none-eabi\include\c++\10.2.1\bits\vector.tcc ****       vector<_Tp, _Alloc>::
 110:c:\program files\daisytoolchain\arm-none-eabi\include\c++\10.2.1\bits\vector.tcc ****       emplace_back(_Args&&... __args)
 111:c:\program files\daisytoolchain\arm-none-eabi\include\c++\10.2.1\bits\vector.tcc ****       {
 112:c:\program files\daisytoolchain\arm-none-eabi\include\c++\10.2.1\bits\vector.tcc **** 	if (this->_M_impl._M_finish != this->_M_impl._M_end_of_storage)
 113:c:\program files\daisytoolchain\arm-none-eabi\include\c++\10.2.1\bits\vector.tcc **** 	  {
 114:c:\program files\daisytoolchain\arm-none-eabi\include\c++\10.2.1\bits\vector.tcc **** 	    _GLIBCXX_ASAN_ANNOTATE_GROW(1);
 115:c:\program files\daisytoolchain\arm-none-eabi\include\c++\10.2.1\bits\vector.tcc **** 	    _Alloc_traits::construct(this->_M_impl, this->_M_impl._M_finish,
 116:c:\program files\daisytoolchain\arm-none-eabi\include\c++\10.2.1\bits\vector.tcc **** 				     std::forward<_Args>(__args)...);
 117:c:\program files\daisytoolchain\arm-none-eabi\include\c++\10.2.1\bits\vector.tcc **** 	    ++this->_M_impl._M_finish;
 118:c:\program files\daisytoolchain\arm-none-eabi\include\c++\10.2.1\bits\vector.tcc **** 	    _GLIBCXX_ASAN_ANNOTATE_GREW(1);
 119:c:\program files\daisytoolchain\arm-none-eabi\include\c++\10.2.1\bits\vector.tcc **** 	  }
 120:c:\program files\daisytoolchain\arm-none-eabi\include\c++\10.2.1\bits\vector.tcc **** 	else
 121:c:\program files\daisytoolchain\arm-none-eabi\include\c++\10.2.1\bits\vector.tcc **** 	  _M_realloc_insert(end(), std::forward<_Args>(__args)...);
 122:c:\program files\daisytoolchain\arm-none-eabi\include\c++\10.2.1\bits\vector.tcc **** #if __cplusplus > 201402L
 123:c:\program files\daisytoolchain\arm-none-eabi\include\c++\10.2.1\bits\vector.tcc **** 	return back();
 124:c:\program files\daisytoolchain\arm-none-eabi\include\c++\10.2.1\bits\vector.tcc **** #endif
 125:c:\program files\daisytoolchain\arm-none-eabi\include\c++\10.2.1\bits\vector.tcc ****       }
 126:c:\program files\daisytoolchain\arm-none-eabi\include\c++\10.2.1\bits\vector.tcc **** #endif
 127:c:\program files\daisytoolchain\arm-none-eabi\include\c++\10.2.1\bits\vector.tcc **** 
 128:c:\program files\daisytoolchain\arm-none-eabi\include\c++\10.2.1\bits\vector.tcc ****   template<typename _Tp, typename _Alloc>
 129:c:\program files\daisytoolchain\arm-none-eabi\include\c++\10.2.1\bits\vector.tcc ****     typename vector<_Tp, _Alloc>::iterator
ARM GAS  C:\Users\samue\AppData\Local\Temp\cci865ja.s 			page 90


 130:c:\program files\daisytoolchain\arm-none-eabi\include\c++\10.2.1\bits\vector.tcc ****     vector<_Tp, _Alloc>::
 131:c:\program files\daisytoolchain\arm-none-eabi\include\c++\10.2.1\bits\vector.tcc **** #if __cplusplus >= 201103L
 132:c:\program files\daisytoolchain\arm-none-eabi\include\c++\10.2.1\bits\vector.tcc ****     insert(const_iterator __position, const value_type& __x)
 133:c:\program files\daisytoolchain\arm-none-eabi\include\c++\10.2.1\bits\vector.tcc **** #else
 134:c:\program files\daisytoolchain\arm-none-eabi\include\c++\10.2.1\bits\vector.tcc ****     insert(iterator __position, const value_type& __x)
 135:c:\program files\daisytoolchain\arm-none-eabi\include\c++\10.2.1\bits\vector.tcc **** #endif
 136:c:\program files\daisytoolchain\arm-none-eabi\include\c++\10.2.1\bits\vector.tcc ****     {
 137:c:\program files\daisytoolchain\arm-none-eabi\include\c++\10.2.1\bits\vector.tcc ****       const size_type __n = __position - begin();
 138:c:\program files\daisytoolchain\arm-none-eabi\include\c++\10.2.1\bits\vector.tcc ****       if (this->_M_impl._M_finish != this->_M_impl._M_end_of_storage)
 139:c:\program files\daisytoolchain\arm-none-eabi\include\c++\10.2.1\bits\vector.tcc **** 	if (__position == end())
 140:c:\program files\daisytoolchain\arm-none-eabi\include\c++\10.2.1\bits\vector.tcc **** 	  {
 141:c:\program files\daisytoolchain\arm-none-eabi\include\c++\10.2.1\bits\vector.tcc **** 	    _GLIBCXX_ASAN_ANNOTATE_GROW(1);
 142:c:\program files\daisytoolchain\arm-none-eabi\include\c++\10.2.1\bits\vector.tcc **** 	    _Alloc_traits::construct(this->_M_impl, this->_M_impl._M_finish,
 143:c:\program files\daisytoolchain\arm-none-eabi\include\c++\10.2.1\bits\vector.tcc **** 				     __x);
 144:c:\program files\daisytoolchain\arm-none-eabi\include\c++\10.2.1\bits\vector.tcc **** 	    ++this->_M_impl._M_finish;
 145:c:\program files\daisytoolchain\arm-none-eabi\include\c++\10.2.1\bits\vector.tcc **** 	    _GLIBCXX_ASAN_ANNOTATE_GREW(1);
 146:c:\program files\daisytoolchain\arm-none-eabi\include\c++\10.2.1\bits\vector.tcc **** 	  }
 147:c:\program files\daisytoolchain\arm-none-eabi\include\c++\10.2.1\bits\vector.tcc **** 	else
 148:c:\program files\daisytoolchain\arm-none-eabi\include\c++\10.2.1\bits\vector.tcc **** 	  {
 149:c:\program files\daisytoolchain\arm-none-eabi\include\c++\10.2.1\bits\vector.tcc **** #if __cplusplus >= 201103L
 150:c:\program files\daisytoolchain\arm-none-eabi\include\c++\10.2.1\bits\vector.tcc **** 	    const auto __pos = begin() + (__position - cbegin());
 151:c:\program files\daisytoolchain\arm-none-eabi\include\c++\10.2.1\bits\vector.tcc **** 	    // __x could be an existing element of this vector, so make a
 152:c:\program files\daisytoolchain\arm-none-eabi\include\c++\10.2.1\bits\vector.tcc **** 	    // copy of it before _M_insert_aux moves elements around.
 153:c:\program files\daisytoolchain\arm-none-eabi\include\c++\10.2.1\bits\vector.tcc **** 	    _Temporary_value __x_copy(this, __x);
 154:c:\program files\daisytoolchain\arm-none-eabi\include\c++\10.2.1\bits\vector.tcc **** 	    _M_insert_aux(__pos, std::move(__x_copy._M_val()));
 155:c:\program files\daisytoolchain\arm-none-eabi\include\c++\10.2.1\bits\vector.tcc **** #else
 156:c:\program files\daisytoolchain\arm-none-eabi\include\c++\10.2.1\bits\vector.tcc **** 	    _M_insert_aux(__position, __x);
 157:c:\program files\daisytoolchain\arm-none-eabi\include\c++\10.2.1\bits\vector.tcc **** #endif
 158:c:\program files\daisytoolchain\arm-none-eabi\include\c++\10.2.1\bits\vector.tcc **** 	  }
 159:c:\program files\daisytoolchain\arm-none-eabi\include\c++\10.2.1\bits\vector.tcc ****       else
 160:c:\program files\daisytoolchain\arm-none-eabi\include\c++\10.2.1\bits\vector.tcc **** #if __cplusplus >= 201103L
 161:c:\program files\daisytoolchain\arm-none-eabi\include\c++\10.2.1\bits\vector.tcc **** 	_M_realloc_insert(begin() + (__position - cbegin()), __x);
 162:c:\program files\daisytoolchain\arm-none-eabi\include\c++\10.2.1\bits\vector.tcc **** #else
 163:c:\program files\daisytoolchain\arm-none-eabi\include\c++\10.2.1\bits\vector.tcc **** 	_M_realloc_insert(__position, __x);
 164:c:\program files\daisytoolchain\arm-none-eabi\include\c++\10.2.1\bits\vector.tcc **** #endif
 165:c:\program files\daisytoolchain\arm-none-eabi\include\c++\10.2.1\bits\vector.tcc **** 
 166:c:\program files\daisytoolchain\arm-none-eabi\include\c++\10.2.1\bits\vector.tcc ****       return iterator(this->_M_impl._M_start + __n);
 167:c:\program files\daisytoolchain\arm-none-eabi\include\c++\10.2.1\bits\vector.tcc ****     }
 168:c:\program files\daisytoolchain\arm-none-eabi\include\c++\10.2.1\bits\vector.tcc **** 
 169:c:\program files\daisytoolchain\arm-none-eabi\include\c++\10.2.1\bits\vector.tcc ****   template<typename _Tp, typename _Alloc>
 170:c:\program files\daisytoolchain\arm-none-eabi\include\c++\10.2.1\bits\vector.tcc ****     typename vector<_Tp, _Alloc>::iterator
 171:c:\program files\daisytoolchain\arm-none-eabi\include\c++\10.2.1\bits\vector.tcc ****     vector<_Tp, _Alloc>::
 172:c:\program files\daisytoolchain\arm-none-eabi\include\c++\10.2.1\bits\vector.tcc ****     _M_erase(iterator __position)
 173:c:\program files\daisytoolchain\arm-none-eabi\include\c++\10.2.1\bits\vector.tcc ****     {
 174:c:\program files\daisytoolchain\arm-none-eabi\include\c++\10.2.1\bits\vector.tcc ****       if (__position + 1 != end())
 175:c:\program files\daisytoolchain\arm-none-eabi\include\c++\10.2.1\bits\vector.tcc **** 	_GLIBCXX_MOVE3(__position + 1, end(), __position);
 176:c:\program files\daisytoolchain\arm-none-eabi\include\c++\10.2.1\bits\vector.tcc ****       --this->_M_impl._M_finish;
 177:c:\program files\daisytoolchain\arm-none-eabi\include\c++\10.2.1\bits\vector.tcc ****       _Alloc_traits::destroy(this->_M_impl, this->_M_impl._M_finish);
 178:c:\program files\daisytoolchain\arm-none-eabi\include\c++\10.2.1\bits\vector.tcc ****       _GLIBCXX_ASAN_ANNOTATE_SHRINK(1);
 179:c:\program files\daisytoolchain\arm-none-eabi\include\c++\10.2.1\bits\vector.tcc ****       return __position;
 180:c:\program files\daisytoolchain\arm-none-eabi\include\c++\10.2.1\bits\vector.tcc ****     }
 181:c:\program files\daisytoolchain\arm-none-eabi\include\c++\10.2.1\bits\vector.tcc **** 
 182:c:\program files\daisytoolchain\arm-none-eabi\include\c++\10.2.1\bits\vector.tcc ****   template<typename _Tp, typename _Alloc>
 183:c:\program files\daisytoolchain\arm-none-eabi\include\c++\10.2.1\bits\vector.tcc ****     typename vector<_Tp, _Alloc>::iterator
 184:c:\program files\daisytoolchain\arm-none-eabi\include\c++\10.2.1\bits\vector.tcc ****     vector<_Tp, _Alloc>::
 185:c:\program files\daisytoolchain\arm-none-eabi\include\c++\10.2.1\bits\vector.tcc ****     _M_erase(iterator __first, iterator __last)
 186:c:\program files\daisytoolchain\arm-none-eabi\include\c++\10.2.1\bits\vector.tcc ****     {
ARM GAS  C:\Users\samue\AppData\Local\Temp\cci865ja.s 			page 91


 187:c:\program files\daisytoolchain\arm-none-eabi\include\c++\10.2.1\bits\vector.tcc ****       if (__first != __last)
 188:c:\program files\daisytoolchain\arm-none-eabi\include\c++\10.2.1\bits\vector.tcc **** 	{
 189:c:\program files\daisytoolchain\arm-none-eabi\include\c++\10.2.1\bits\vector.tcc **** 	  if (__last != end())
 190:c:\program files\daisytoolchain\arm-none-eabi\include\c++\10.2.1\bits\vector.tcc **** 	    _GLIBCXX_MOVE3(__last, end(), __first);
 191:c:\program files\daisytoolchain\arm-none-eabi\include\c++\10.2.1\bits\vector.tcc **** 	  _M_erase_at_end(__first.base() + (end() - __last));
 192:c:\program files\daisytoolchain\arm-none-eabi\include\c++\10.2.1\bits\vector.tcc **** 	}
 193:c:\program files\daisytoolchain\arm-none-eabi\include\c++\10.2.1\bits\vector.tcc ****       return __first;
 194:c:\program files\daisytoolchain\arm-none-eabi\include\c++\10.2.1\bits\vector.tcc ****     }
 195:c:\program files\daisytoolchain\arm-none-eabi\include\c++\10.2.1\bits\vector.tcc **** 
 196:c:\program files\daisytoolchain\arm-none-eabi\include\c++\10.2.1\bits\vector.tcc ****   template<typename _Tp, typename _Alloc>
 197:c:\program files\daisytoolchain\arm-none-eabi\include\c++\10.2.1\bits\vector.tcc ****     vector<_Tp, _Alloc>&
 198:c:\program files\daisytoolchain\arm-none-eabi\include\c++\10.2.1\bits\vector.tcc ****     vector<_Tp, _Alloc>::
 199:c:\program files\daisytoolchain\arm-none-eabi\include\c++\10.2.1\bits\vector.tcc ****     operator=(const vector<_Tp, _Alloc>& __x)
 200:c:\program files\daisytoolchain\arm-none-eabi\include\c++\10.2.1\bits\vector.tcc ****     {
 201:c:\program files\daisytoolchain\arm-none-eabi\include\c++\10.2.1\bits\vector.tcc ****       if (&__x != this)
 202:c:\program files\daisytoolchain\arm-none-eabi\include\c++\10.2.1\bits\vector.tcc **** 	{
 203:c:\program files\daisytoolchain\arm-none-eabi\include\c++\10.2.1\bits\vector.tcc **** 	  _GLIBCXX_ASAN_ANNOTATE_REINIT;
 204:c:\program files\daisytoolchain\arm-none-eabi\include\c++\10.2.1\bits\vector.tcc **** #if __cplusplus >= 201103L
 205:c:\program files\daisytoolchain\arm-none-eabi\include\c++\10.2.1\bits\vector.tcc **** 	  if (_Alloc_traits::_S_propagate_on_copy_assign())
 206:c:\program files\daisytoolchain\arm-none-eabi\include\c++\10.2.1\bits\vector.tcc **** 	    {
 207:c:\program files\daisytoolchain\arm-none-eabi\include\c++\10.2.1\bits\vector.tcc **** 	      if (!_Alloc_traits::_S_always_equal()
 208:c:\program files\daisytoolchain\arm-none-eabi\include\c++\10.2.1\bits\vector.tcc **** 	          && _M_get_Tp_allocator() != __x._M_get_Tp_allocator())
 209:c:\program files\daisytoolchain\arm-none-eabi\include\c++\10.2.1\bits\vector.tcc **** 	        {
 210:c:\program files\daisytoolchain\arm-none-eabi\include\c++\10.2.1\bits\vector.tcc **** 		  // replacement allocator cannot free existing storage
 211:c:\program files\daisytoolchain\arm-none-eabi\include\c++\10.2.1\bits\vector.tcc **** 		  this->clear();
 212:c:\program files\daisytoolchain\arm-none-eabi\include\c++\10.2.1\bits\vector.tcc **** 		  _M_deallocate(this->_M_impl._M_start,
 213:c:\program files\daisytoolchain\arm-none-eabi\include\c++\10.2.1\bits\vector.tcc **** 				this->_M_impl._M_end_of_storage
 214:c:\program files\daisytoolchain\arm-none-eabi\include\c++\10.2.1\bits\vector.tcc **** 				- this->_M_impl._M_start);
 215:c:\program files\daisytoolchain\arm-none-eabi\include\c++\10.2.1\bits\vector.tcc **** 		  this->_M_impl._M_start = nullptr;
 216:c:\program files\daisytoolchain\arm-none-eabi\include\c++\10.2.1\bits\vector.tcc **** 		  this->_M_impl._M_finish = nullptr;
 217:c:\program files\daisytoolchain\arm-none-eabi\include\c++\10.2.1\bits\vector.tcc **** 		  this->_M_impl._M_end_of_storage = nullptr;
 218:c:\program files\daisytoolchain\arm-none-eabi\include\c++\10.2.1\bits\vector.tcc **** 		}
 219:c:\program files\daisytoolchain\arm-none-eabi\include\c++\10.2.1\bits\vector.tcc **** 	      std::__alloc_on_copy(_M_get_Tp_allocator(),
 220:c:\program files\daisytoolchain\arm-none-eabi\include\c++\10.2.1\bits\vector.tcc **** 				   __x._M_get_Tp_allocator());
 221:c:\program files\daisytoolchain\arm-none-eabi\include\c++\10.2.1\bits\vector.tcc **** 	    }
 222:c:\program files\daisytoolchain\arm-none-eabi\include\c++\10.2.1\bits\vector.tcc **** #endif
 223:c:\program files\daisytoolchain\arm-none-eabi\include\c++\10.2.1\bits\vector.tcc **** 	  const size_type __xlen = __x.size();
 224:c:\program files\daisytoolchain\arm-none-eabi\include\c++\10.2.1\bits\vector.tcc **** 	  if (__xlen > capacity())
 225:c:\program files\daisytoolchain\arm-none-eabi\include\c++\10.2.1\bits\vector.tcc **** 	    {
 226:c:\program files\daisytoolchain\arm-none-eabi\include\c++\10.2.1\bits\vector.tcc **** 	      pointer __tmp = _M_allocate_and_copy(__xlen, __x.begin(),
 227:c:\program files\daisytoolchain\arm-none-eabi\include\c++\10.2.1\bits\vector.tcc **** 						   __x.end());
 228:c:\program files\daisytoolchain\arm-none-eabi\include\c++\10.2.1\bits\vector.tcc **** 	      std::_Destroy(this->_M_impl._M_start, this->_M_impl._M_finish,
 229:c:\program files\daisytoolchain\arm-none-eabi\include\c++\10.2.1\bits\vector.tcc **** 			    _M_get_Tp_allocator());
 230:c:\program files\daisytoolchain\arm-none-eabi\include\c++\10.2.1\bits\vector.tcc **** 	      _M_deallocate(this->_M_impl._M_start,
 231:c:\program files\daisytoolchain\arm-none-eabi\include\c++\10.2.1\bits\vector.tcc **** 			    this->_M_impl._M_end_of_storage
 232:c:\program files\daisytoolchain\arm-none-eabi\include\c++\10.2.1\bits\vector.tcc **** 			    - this->_M_impl._M_start);
 233:c:\program files\daisytoolchain\arm-none-eabi\include\c++\10.2.1\bits\vector.tcc **** 	      this->_M_impl._M_start = __tmp;
 234:c:\program files\daisytoolchain\arm-none-eabi\include\c++\10.2.1\bits\vector.tcc **** 	      this->_M_impl._M_end_of_storage = this->_M_impl._M_start + __xlen;
 235:c:\program files\daisytoolchain\arm-none-eabi\include\c++\10.2.1\bits\vector.tcc **** 	    }
 236:c:\program files\daisytoolchain\arm-none-eabi\include\c++\10.2.1\bits\vector.tcc **** 	  else if (size() >= __xlen)
 237:c:\program files\daisytoolchain\arm-none-eabi\include\c++\10.2.1\bits\vector.tcc **** 	    {
 238:c:\program files\daisytoolchain\arm-none-eabi\include\c++\10.2.1\bits\vector.tcc **** 	      std::_Destroy(std::copy(__x.begin(), __x.end(), begin()),
 239:c:\program files\daisytoolchain\arm-none-eabi\include\c++\10.2.1\bits\vector.tcc **** 			    end(), _M_get_Tp_allocator());
 240:c:\program files\daisytoolchain\arm-none-eabi\include\c++\10.2.1\bits\vector.tcc **** 	    }
 241:c:\program files\daisytoolchain\arm-none-eabi\include\c++\10.2.1\bits\vector.tcc **** 	  else
 242:c:\program files\daisytoolchain\arm-none-eabi\include\c++\10.2.1\bits\vector.tcc **** 	    {
 243:c:\program files\daisytoolchain\arm-none-eabi\include\c++\10.2.1\bits\vector.tcc **** 	      std::copy(__x._M_impl._M_start, __x._M_impl._M_start + size(),
ARM GAS  C:\Users\samue\AppData\Local\Temp\cci865ja.s 			page 92


 244:c:\program files\daisytoolchain\arm-none-eabi\include\c++\10.2.1\bits\vector.tcc **** 			this->_M_impl._M_start);
 245:c:\program files\daisytoolchain\arm-none-eabi\include\c++\10.2.1\bits\vector.tcc **** 	      std::__uninitialized_copy_a(__x._M_impl._M_start + size(),
 246:c:\program files\daisytoolchain\arm-none-eabi\include\c++\10.2.1\bits\vector.tcc **** 					  __x._M_impl._M_finish,
 247:c:\program files\daisytoolchain\arm-none-eabi\include\c++\10.2.1\bits\vector.tcc **** 					  this->_M_impl._M_finish,
 248:c:\program files\daisytoolchain\arm-none-eabi\include\c++\10.2.1\bits\vector.tcc **** 					  _M_get_Tp_allocator());
 249:c:\program files\daisytoolchain\arm-none-eabi\include\c++\10.2.1\bits\vector.tcc **** 	    }
 250:c:\program files\daisytoolchain\arm-none-eabi\include\c++\10.2.1\bits\vector.tcc **** 	  this->_M_impl._M_finish = this->_M_impl._M_start + __xlen;
 251:c:\program files\daisytoolchain\arm-none-eabi\include\c++\10.2.1\bits\vector.tcc **** 	}
 252:c:\program files\daisytoolchain\arm-none-eabi\include\c++\10.2.1\bits\vector.tcc ****       return *this;
 253:c:\program files\daisytoolchain\arm-none-eabi\include\c++\10.2.1\bits\vector.tcc ****     }
 254:c:\program files\daisytoolchain\arm-none-eabi\include\c++\10.2.1\bits\vector.tcc **** 
 255:c:\program files\daisytoolchain\arm-none-eabi\include\c++\10.2.1\bits\vector.tcc ****   template<typename _Tp, typename _Alloc>
 256:c:\program files\daisytoolchain\arm-none-eabi\include\c++\10.2.1\bits\vector.tcc ****     void
 257:c:\program files\daisytoolchain\arm-none-eabi\include\c++\10.2.1\bits\vector.tcc ****     vector<_Tp, _Alloc>::
 258:c:\program files\daisytoolchain\arm-none-eabi\include\c++\10.2.1\bits\vector.tcc ****     _M_fill_assign(size_t __n, const value_type& __val)
 259:c:\program files\daisytoolchain\arm-none-eabi\include\c++\10.2.1\bits\vector.tcc ****     {
 260:c:\program files\daisytoolchain\arm-none-eabi\include\c++\10.2.1\bits\vector.tcc ****       if (__n > capacity())
 261:c:\program files\daisytoolchain\arm-none-eabi\include\c++\10.2.1\bits\vector.tcc **** 	{
 262:c:\program files\daisytoolchain\arm-none-eabi\include\c++\10.2.1\bits\vector.tcc **** 	  vector __tmp(__n, __val, _M_get_Tp_allocator());
 263:c:\program files\daisytoolchain\arm-none-eabi\include\c++\10.2.1\bits\vector.tcc **** 	  __tmp._M_impl._M_swap_data(this->_M_impl);
 264:c:\program files\daisytoolchain\arm-none-eabi\include\c++\10.2.1\bits\vector.tcc **** 	}
 265:c:\program files\daisytoolchain\arm-none-eabi\include\c++\10.2.1\bits\vector.tcc ****       else if (__n > size())
 266:c:\program files\daisytoolchain\arm-none-eabi\include\c++\10.2.1\bits\vector.tcc **** 	{
 267:c:\program files\daisytoolchain\arm-none-eabi\include\c++\10.2.1\bits\vector.tcc **** 	  std::fill(begin(), end(), __val);
 268:c:\program files\daisytoolchain\arm-none-eabi\include\c++\10.2.1\bits\vector.tcc **** 	  const size_type __add = __n - size();
 269:c:\program files\daisytoolchain\arm-none-eabi\include\c++\10.2.1\bits\vector.tcc **** 	  _GLIBCXX_ASAN_ANNOTATE_GROW(__add);
 270:c:\program files\daisytoolchain\arm-none-eabi\include\c++\10.2.1\bits\vector.tcc **** 	  this->_M_impl._M_finish =
 271:c:\program files\daisytoolchain\arm-none-eabi\include\c++\10.2.1\bits\vector.tcc **** 	    std::__uninitialized_fill_n_a(this->_M_impl._M_finish,
 272:c:\program files\daisytoolchain\arm-none-eabi\include\c++\10.2.1\bits\vector.tcc **** 					  __add, __val, _M_get_Tp_allocator());
 273:c:\program files\daisytoolchain\arm-none-eabi\include\c++\10.2.1\bits\vector.tcc **** 	  _GLIBCXX_ASAN_ANNOTATE_GREW(__add);
 274:c:\program files\daisytoolchain\arm-none-eabi\include\c++\10.2.1\bits\vector.tcc **** 	}
 275:c:\program files\daisytoolchain\arm-none-eabi\include\c++\10.2.1\bits\vector.tcc ****       else
 276:c:\program files\daisytoolchain\arm-none-eabi\include\c++\10.2.1\bits\vector.tcc ****         _M_erase_at_end(std::fill_n(this->_M_impl._M_start, __n, __val));
 277:c:\program files\daisytoolchain\arm-none-eabi\include\c++\10.2.1\bits\vector.tcc ****     }
 278:c:\program files\daisytoolchain\arm-none-eabi\include\c++\10.2.1\bits\vector.tcc **** 
 279:c:\program files\daisytoolchain\arm-none-eabi\include\c++\10.2.1\bits\vector.tcc ****   template<typename _Tp, typename _Alloc>
 280:c:\program files\daisytoolchain\arm-none-eabi\include\c++\10.2.1\bits\vector.tcc ****     template<typename _InputIterator>
 281:c:\program files\daisytoolchain\arm-none-eabi\include\c++\10.2.1\bits\vector.tcc ****       void
 282:c:\program files\daisytoolchain\arm-none-eabi\include\c++\10.2.1\bits\vector.tcc ****       vector<_Tp, _Alloc>::
 283:c:\program files\daisytoolchain\arm-none-eabi\include\c++\10.2.1\bits\vector.tcc ****       _M_assign_aux(_InputIterator __first, _InputIterator __last,
 284:c:\program files\daisytoolchain\arm-none-eabi\include\c++\10.2.1\bits\vector.tcc **** 		    std::input_iterator_tag)
 285:c:\program files\daisytoolchain\arm-none-eabi\include\c++\10.2.1\bits\vector.tcc ****       {
 286:c:\program files\daisytoolchain\arm-none-eabi\include\c++\10.2.1\bits\vector.tcc **** 	pointer __cur(this->_M_impl._M_start);
 287:c:\program files\daisytoolchain\arm-none-eabi\include\c++\10.2.1\bits\vector.tcc **** 	for (; __first != __last && __cur != this->_M_impl._M_finish;
 288:c:\program files\daisytoolchain\arm-none-eabi\include\c++\10.2.1\bits\vector.tcc **** 	     ++__cur, (void)++__first)
 289:c:\program files\daisytoolchain\arm-none-eabi\include\c++\10.2.1\bits\vector.tcc **** 	  *__cur = *__first;
 290:c:\program files\daisytoolchain\arm-none-eabi\include\c++\10.2.1\bits\vector.tcc **** 	if (__first == __last)
 291:c:\program files\daisytoolchain\arm-none-eabi\include\c++\10.2.1\bits\vector.tcc **** 	  _M_erase_at_end(__cur);
 292:c:\program files\daisytoolchain\arm-none-eabi\include\c++\10.2.1\bits\vector.tcc **** 	else
 293:c:\program files\daisytoolchain\arm-none-eabi\include\c++\10.2.1\bits\vector.tcc **** 	  _M_range_insert(end(), __first, __last,
 294:c:\program files\daisytoolchain\arm-none-eabi\include\c++\10.2.1\bits\vector.tcc **** 			  std::__iterator_category(__first));
 295:c:\program files\daisytoolchain\arm-none-eabi\include\c++\10.2.1\bits\vector.tcc ****       }
 296:c:\program files\daisytoolchain\arm-none-eabi\include\c++\10.2.1\bits\vector.tcc **** 
 297:c:\program files\daisytoolchain\arm-none-eabi\include\c++\10.2.1\bits\vector.tcc ****   template<typename _Tp, typename _Alloc>
 298:c:\program files\daisytoolchain\arm-none-eabi\include\c++\10.2.1\bits\vector.tcc ****     template<typename _ForwardIterator>
 299:c:\program files\daisytoolchain\arm-none-eabi\include\c++\10.2.1\bits\vector.tcc ****       void
 300:c:\program files\daisytoolchain\arm-none-eabi\include\c++\10.2.1\bits\vector.tcc ****       vector<_Tp, _Alloc>::
ARM GAS  C:\Users\samue\AppData\Local\Temp\cci865ja.s 			page 93


 301:c:\program files\daisytoolchain\arm-none-eabi\include\c++\10.2.1\bits\vector.tcc ****       _M_assign_aux(_ForwardIterator __first, _ForwardIterator __last,
 302:c:\program files\daisytoolchain\arm-none-eabi\include\c++\10.2.1\bits\vector.tcc **** 		    std::forward_iterator_tag)
 303:c:\program files\daisytoolchain\arm-none-eabi\include\c++\10.2.1\bits\vector.tcc ****       {
 304:c:\program files\daisytoolchain\arm-none-eabi\include\c++\10.2.1\bits\vector.tcc **** 	const size_type __len = std::distance(__first, __last);
 305:c:\program files\daisytoolchain\arm-none-eabi\include\c++\10.2.1\bits\vector.tcc **** 
 306:c:\program files\daisytoolchain\arm-none-eabi\include\c++\10.2.1\bits\vector.tcc **** 	if (__len > capacity())
 307:c:\program files\daisytoolchain\arm-none-eabi\include\c++\10.2.1\bits\vector.tcc **** 	  {
 308:c:\program files\daisytoolchain\arm-none-eabi\include\c++\10.2.1\bits\vector.tcc **** 	    _S_check_init_len(__len, _M_get_Tp_allocator());
 309:c:\program files\daisytoolchain\arm-none-eabi\include\c++\10.2.1\bits\vector.tcc **** 	    pointer __tmp(_M_allocate_and_copy(__len, __first, __last));
 310:c:\program files\daisytoolchain\arm-none-eabi\include\c++\10.2.1\bits\vector.tcc **** 	    std::_Destroy(this->_M_impl._M_start, this->_M_impl._M_finish,
 311:c:\program files\daisytoolchain\arm-none-eabi\include\c++\10.2.1\bits\vector.tcc **** 			  _M_get_Tp_allocator());
 312:c:\program files\daisytoolchain\arm-none-eabi\include\c++\10.2.1\bits\vector.tcc **** 	    _GLIBCXX_ASAN_ANNOTATE_REINIT;
 313:c:\program files\daisytoolchain\arm-none-eabi\include\c++\10.2.1\bits\vector.tcc **** 	    _M_deallocate(this->_M_impl._M_start,
 314:c:\program files\daisytoolchain\arm-none-eabi\include\c++\10.2.1\bits\vector.tcc **** 			  this->_M_impl._M_end_of_storage
 315:c:\program files\daisytoolchain\arm-none-eabi\include\c++\10.2.1\bits\vector.tcc **** 			  - this->_M_impl._M_start);
 316:c:\program files\daisytoolchain\arm-none-eabi\include\c++\10.2.1\bits\vector.tcc **** 	    this->_M_impl._M_start = __tmp;
 317:c:\program files\daisytoolchain\arm-none-eabi\include\c++\10.2.1\bits\vector.tcc **** 	    this->_M_impl._M_finish = this->_M_impl._M_start + __len;
 318:c:\program files\daisytoolchain\arm-none-eabi\include\c++\10.2.1\bits\vector.tcc **** 	    this->_M_impl._M_end_of_storage = this->_M_impl._M_finish;
 319:c:\program files\daisytoolchain\arm-none-eabi\include\c++\10.2.1\bits\vector.tcc **** 	  }
 320:c:\program files\daisytoolchain\arm-none-eabi\include\c++\10.2.1\bits\vector.tcc **** 	else if (size() >= __len)
 321:c:\program files\daisytoolchain\arm-none-eabi\include\c++\10.2.1\bits\vector.tcc **** 	  _M_erase_at_end(std::copy(__first, __last, this->_M_impl._M_start));
 322:c:\program files\daisytoolchain\arm-none-eabi\include\c++\10.2.1\bits\vector.tcc **** 	else
 323:c:\program files\daisytoolchain\arm-none-eabi\include\c++\10.2.1\bits\vector.tcc **** 	  {
 324:c:\program files\daisytoolchain\arm-none-eabi\include\c++\10.2.1\bits\vector.tcc **** 	    _ForwardIterator __mid = __first;
 325:c:\program files\daisytoolchain\arm-none-eabi\include\c++\10.2.1\bits\vector.tcc **** 	    std::advance(__mid, size());
 326:c:\program files\daisytoolchain\arm-none-eabi\include\c++\10.2.1\bits\vector.tcc **** 	    std::copy(__first, __mid, this->_M_impl._M_start);
 327:c:\program files\daisytoolchain\arm-none-eabi\include\c++\10.2.1\bits\vector.tcc **** 	    const size_type __attribute__((__unused__)) __n = __len - size();
 328:c:\program files\daisytoolchain\arm-none-eabi\include\c++\10.2.1\bits\vector.tcc **** 	    _GLIBCXX_ASAN_ANNOTATE_GROW(__n);
 329:c:\program files\daisytoolchain\arm-none-eabi\include\c++\10.2.1\bits\vector.tcc **** 	    this->_M_impl._M_finish =
 330:c:\program files\daisytoolchain\arm-none-eabi\include\c++\10.2.1\bits\vector.tcc **** 	      std::__uninitialized_copy_a(__mid, __last,
 331:c:\program files\daisytoolchain\arm-none-eabi\include\c++\10.2.1\bits\vector.tcc **** 					  this->_M_impl._M_finish,
 332:c:\program files\daisytoolchain\arm-none-eabi\include\c++\10.2.1\bits\vector.tcc **** 					  _M_get_Tp_allocator());
 333:c:\program files\daisytoolchain\arm-none-eabi\include\c++\10.2.1\bits\vector.tcc **** 	    _GLIBCXX_ASAN_ANNOTATE_GREW(__n);
 334:c:\program files\daisytoolchain\arm-none-eabi\include\c++\10.2.1\bits\vector.tcc **** 	  }
 335:c:\program files\daisytoolchain\arm-none-eabi\include\c++\10.2.1\bits\vector.tcc ****       }
 336:c:\program files\daisytoolchain\arm-none-eabi\include\c++\10.2.1\bits\vector.tcc **** 
 337:c:\program files\daisytoolchain\arm-none-eabi\include\c++\10.2.1\bits\vector.tcc **** #if __cplusplus >= 201103L
 338:c:\program files\daisytoolchain\arm-none-eabi\include\c++\10.2.1\bits\vector.tcc ****   template<typename _Tp, typename _Alloc>
 339:c:\program files\daisytoolchain\arm-none-eabi\include\c++\10.2.1\bits\vector.tcc ****     auto
 340:c:\program files\daisytoolchain\arm-none-eabi\include\c++\10.2.1\bits\vector.tcc ****     vector<_Tp, _Alloc>::
 341:c:\program files\daisytoolchain\arm-none-eabi\include\c++\10.2.1\bits\vector.tcc ****     _M_insert_rval(const_iterator __position, value_type&& __v) -> iterator
 342:c:\program files\daisytoolchain\arm-none-eabi\include\c++\10.2.1\bits\vector.tcc ****     {
 343:c:\program files\daisytoolchain\arm-none-eabi\include\c++\10.2.1\bits\vector.tcc ****       const auto __n = __position - cbegin();
 344:c:\program files\daisytoolchain\arm-none-eabi\include\c++\10.2.1\bits\vector.tcc ****       if (this->_M_impl._M_finish != this->_M_impl._M_end_of_storage)
 345:c:\program files\daisytoolchain\arm-none-eabi\include\c++\10.2.1\bits\vector.tcc **** 	if (__position == cend())
 346:c:\program files\daisytoolchain\arm-none-eabi\include\c++\10.2.1\bits\vector.tcc **** 	  {
 347:c:\program files\daisytoolchain\arm-none-eabi\include\c++\10.2.1\bits\vector.tcc **** 	    _GLIBCXX_ASAN_ANNOTATE_GROW(1);
 348:c:\program files\daisytoolchain\arm-none-eabi\include\c++\10.2.1\bits\vector.tcc **** 	    _Alloc_traits::construct(this->_M_impl, this->_M_impl._M_finish,
 349:c:\program files\daisytoolchain\arm-none-eabi\include\c++\10.2.1\bits\vector.tcc **** 				     std::move(__v));
 350:c:\program files\daisytoolchain\arm-none-eabi\include\c++\10.2.1\bits\vector.tcc **** 	    ++this->_M_impl._M_finish;
 351:c:\program files\daisytoolchain\arm-none-eabi\include\c++\10.2.1\bits\vector.tcc **** 	    _GLIBCXX_ASAN_ANNOTATE_GREW(1);
 352:c:\program files\daisytoolchain\arm-none-eabi\include\c++\10.2.1\bits\vector.tcc **** 	  }
 353:c:\program files\daisytoolchain\arm-none-eabi\include\c++\10.2.1\bits\vector.tcc **** 	else
 354:c:\program files\daisytoolchain\arm-none-eabi\include\c++\10.2.1\bits\vector.tcc **** 	  _M_insert_aux(begin() + __n, std::move(__v));
 355:c:\program files\daisytoolchain\arm-none-eabi\include\c++\10.2.1\bits\vector.tcc ****       else
 356:c:\program files\daisytoolchain\arm-none-eabi\include\c++\10.2.1\bits\vector.tcc **** 	_M_realloc_insert(begin() + __n, std::move(__v));
 357:c:\program files\daisytoolchain\arm-none-eabi\include\c++\10.2.1\bits\vector.tcc **** 
ARM GAS  C:\Users\samue\AppData\Local\Temp\cci865ja.s 			page 94


 358:c:\program files\daisytoolchain\arm-none-eabi\include\c++\10.2.1\bits\vector.tcc ****       return iterator(this->_M_impl._M_start + __n);
 359:c:\program files\daisytoolchain\arm-none-eabi\include\c++\10.2.1\bits\vector.tcc ****     }
 360:c:\program files\daisytoolchain\arm-none-eabi\include\c++\10.2.1\bits\vector.tcc **** 
 361:c:\program files\daisytoolchain\arm-none-eabi\include\c++\10.2.1\bits\vector.tcc ****   template<typename _Tp, typename _Alloc>
 362:c:\program files\daisytoolchain\arm-none-eabi\include\c++\10.2.1\bits\vector.tcc ****     template<typename... _Args>
 363:c:\program files\daisytoolchain\arm-none-eabi\include\c++\10.2.1\bits\vector.tcc ****       auto
 364:c:\program files\daisytoolchain\arm-none-eabi\include\c++\10.2.1\bits\vector.tcc ****       vector<_Tp, _Alloc>::
 365:c:\program files\daisytoolchain\arm-none-eabi\include\c++\10.2.1\bits\vector.tcc ****       _M_emplace_aux(const_iterator __position, _Args&&... __args)
 366:c:\program files\daisytoolchain\arm-none-eabi\include\c++\10.2.1\bits\vector.tcc ****       -> iterator
 367:c:\program files\daisytoolchain\arm-none-eabi\include\c++\10.2.1\bits\vector.tcc ****       {
 368:c:\program files\daisytoolchain\arm-none-eabi\include\c++\10.2.1\bits\vector.tcc **** 	const auto __n = __position - cbegin();
 369:c:\program files\daisytoolchain\arm-none-eabi\include\c++\10.2.1\bits\vector.tcc **** 	if (this->_M_impl._M_finish != this->_M_impl._M_end_of_storage)
 370:c:\program files\daisytoolchain\arm-none-eabi\include\c++\10.2.1\bits\vector.tcc **** 	  if (__position == cend())
 371:c:\program files\daisytoolchain\arm-none-eabi\include\c++\10.2.1\bits\vector.tcc **** 	    {
 372:c:\program files\daisytoolchain\arm-none-eabi\include\c++\10.2.1\bits\vector.tcc **** 	      _GLIBCXX_ASAN_ANNOTATE_GROW(1);
 373:c:\program files\daisytoolchain\arm-none-eabi\include\c++\10.2.1\bits\vector.tcc **** 	      _Alloc_traits::construct(this->_M_impl, this->_M_impl._M_finish,
 374:c:\program files\daisytoolchain\arm-none-eabi\include\c++\10.2.1\bits\vector.tcc **** 				       std::forward<_Args>(__args)...);
 375:c:\program files\daisytoolchain\arm-none-eabi\include\c++\10.2.1\bits\vector.tcc **** 	      ++this->_M_impl._M_finish;
 376:c:\program files\daisytoolchain\arm-none-eabi\include\c++\10.2.1\bits\vector.tcc **** 	      _GLIBCXX_ASAN_ANNOTATE_GREW(1);
 377:c:\program files\daisytoolchain\arm-none-eabi\include\c++\10.2.1\bits\vector.tcc **** 	    }
 378:c:\program files\daisytoolchain\arm-none-eabi\include\c++\10.2.1\bits\vector.tcc **** 	  else
 379:c:\program files\daisytoolchain\arm-none-eabi\include\c++\10.2.1\bits\vector.tcc **** 	    {
 380:c:\program files\daisytoolchain\arm-none-eabi\include\c++\10.2.1\bits\vector.tcc **** 	      // We need to construct a temporary because something in __args...
 381:c:\program files\daisytoolchain\arm-none-eabi\include\c++\10.2.1\bits\vector.tcc **** 	      // could alias one of the elements of the container and so we
 382:c:\program files\daisytoolchain\arm-none-eabi\include\c++\10.2.1\bits\vector.tcc **** 	      // need to use it before _M_insert_aux moves elements around.
 383:c:\program files\daisytoolchain\arm-none-eabi\include\c++\10.2.1\bits\vector.tcc **** 	      _Temporary_value __tmp(this, std::forward<_Args>(__args)...);
 384:c:\program files\daisytoolchain\arm-none-eabi\include\c++\10.2.1\bits\vector.tcc **** 	      _M_insert_aux(begin() + __n, std::move(__tmp._M_val()));
 385:c:\program files\daisytoolchain\arm-none-eabi\include\c++\10.2.1\bits\vector.tcc **** 	    }
 386:c:\program files\daisytoolchain\arm-none-eabi\include\c++\10.2.1\bits\vector.tcc **** 	else
 387:c:\program files\daisytoolchain\arm-none-eabi\include\c++\10.2.1\bits\vector.tcc **** 	  _M_realloc_insert(begin() + __n, std::forward<_Args>(__args)...);
 388:c:\program files\daisytoolchain\arm-none-eabi\include\c++\10.2.1\bits\vector.tcc **** 
 389:c:\program files\daisytoolchain\arm-none-eabi\include\c++\10.2.1\bits\vector.tcc **** 	return iterator(this->_M_impl._M_start + __n);
 390:c:\program files\daisytoolchain\arm-none-eabi\include\c++\10.2.1\bits\vector.tcc ****       }
 391:c:\program files\daisytoolchain\arm-none-eabi\include\c++\10.2.1\bits\vector.tcc **** 
 392:c:\program files\daisytoolchain\arm-none-eabi\include\c++\10.2.1\bits\vector.tcc ****   template<typename _Tp, typename _Alloc>
 393:c:\program files\daisytoolchain\arm-none-eabi\include\c++\10.2.1\bits\vector.tcc ****     template<typename _Arg>
 394:c:\program files\daisytoolchain\arm-none-eabi\include\c++\10.2.1\bits\vector.tcc ****       void
 395:c:\program files\daisytoolchain\arm-none-eabi\include\c++\10.2.1\bits\vector.tcc ****       vector<_Tp, _Alloc>::
 396:c:\program files\daisytoolchain\arm-none-eabi\include\c++\10.2.1\bits\vector.tcc ****       _M_insert_aux(iterator __position, _Arg&& __arg)
 397:c:\program files\daisytoolchain\arm-none-eabi\include\c++\10.2.1\bits\vector.tcc **** #else
 398:c:\program files\daisytoolchain\arm-none-eabi\include\c++\10.2.1\bits\vector.tcc ****   template<typename _Tp, typename _Alloc>
 399:c:\program files\daisytoolchain\arm-none-eabi\include\c++\10.2.1\bits\vector.tcc ****     void
 400:c:\program files\daisytoolchain\arm-none-eabi\include\c++\10.2.1\bits\vector.tcc ****     vector<_Tp, _Alloc>::
 401:c:\program files\daisytoolchain\arm-none-eabi\include\c++\10.2.1\bits\vector.tcc ****     _M_insert_aux(iterator __position, const _Tp& __x)
 402:c:\program files\daisytoolchain\arm-none-eabi\include\c++\10.2.1\bits\vector.tcc **** #endif
 403:c:\program files\daisytoolchain\arm-none-eabi\include\c++\10.2.1\bits\vector.tcc ****     {
 404:c:\program files\daisytoolchain\arm-none-eabi\include\c++\10.2.1\bits\vector.tcc ****       _GLIBCXX_ASAN_ANNOTATE_GROW(1);
 405:c:\program files\daisytoolchain\arm-none-eabi\include\c++\10.2.1\bits\vector.tcc ****       _Alloc_traits::construct(this->_M_impl, this->_M_impl._M_finish,
 406:c:\program files\daisytoolchain\arm-none-eabi\include\c++\10.2.1\bits\vector.tcc **** 			       _GLIBCXX_MOVE(*(this->_M_impl._M_finish - 1)));
 407:c:\program files\daisytoolchain\arm-none-eabi\include\c++\10.2.1\bits\vector.tcc ****       ++this->_M_impl._M_finish;
 408:c:\program files\daisytoolchain\arm-none-eabi\include\c++\10.2.1\bits\vector.tcc ****       _GLIBCXX_ASAN_ANNOTATE_GREW(1);
 409:c:\program files\daisytoolchain\arm-none-eabi\include\c++\10.2.1\bits\vector.tcc **** #if __cplusplus < 201103L
 410:c:\program files\daisytoolchain\arm-none-eabi\include\c++\10.2.1\bits\vector.tcc ****       _Tp __x_copy = __x;
 411:c:\program files\daisytoolchain\arm-none-eabi\include\c++\10.2.1\bits\vector.tcc **** #endif
 412:c:\program files\daisytoolchain\arm-none-eabi\include\c++\10.2.1\bits\vector.tcc ****       _GLIBCXX_MOVE_BACKWARD3(__position.base(),
 413:c:\program files\daisytoolchain\arm-none-eabi\include\c++\10.2.1\bits\vector.tcc **** 			      this->_M_impl._M_finish - 2,
 414:c:\program files\daisytoolchain\arm-none-eabi\include\c++\10.2.1\bits\vector.tcc **** 			      this->_M_impl._M_finish - 1);
ARM GAS  C:\Users\samue\AppData\Local\Temp\cci865ja.s 			page 95


 415:c:\program files\daisytoolchain\arm-none-eabi\include\c++\10.2.1\bits\vector.tcc **** #if __cplusplus < 201103L
 416:c:\program files\daisytoolchain\arm-none-eabi\include\c++\10.2.1\bits\vector.tcc ****       *__position = __x_copy;
 417:c:\program files\daisytoolchain\arm-none-eabi\include\c++\10.2.1\bits\vector.tcc **** #else
 418:c:\program files\daisytoolchain\arm-none-eabi\include\c++\10.2.1\bits\vector.tcc ****       *__position = std::forward<_Arg>(__arg);
 419:c:\program files\daisytoolchain\arm-none-eabi\include\c++\10.2.1\bits\vector.tcc **** #endif
 420:c:\program files\daisytoolchain\arm-none-eabi\include\c++\10.2.1\bits\vector.tcc ****     }
 421:c:\program files\daisytoolchain\arm-none-eabi\include\c++\10.2.1\bits\vector.tcc **** 
 422:c:\program files\daisytoolchain\arm-none-eabi\include\c++\10.2.1\bits\vector.tcc **** #if __cplusplus >= 201103L
 423:c:\program files\daisytoolchain\arm-none-eabi\include\c++\10.2.1\bits\vector.tcc ****   template<typename _Tp, typename _Alloc>
 424:c:\program files\daisytoolchain\arm-none-eabi\include\c++\10.2.1\bits\vector.tcc ****     template<typename... _Args>
 425:c:\program files\daisytoolchain\arm-none-eabi\include\c++\10.2.1\bits\vector.tcc ****       void
 426:c:\program files\daisytoolchain\arm-none-eabi\include\c++\10.2.1\bits\vector.tcc ****       vector<_Tp, _Alloc>::
 1944              		.loc 9 426 7 is_stmt 1 view -0
 1945              		.cfi_startproc
 1946              		@ args = 0, pretend = 0, frame = 8
 1947              		@ frame_needed = 0, uses_anonymous_args = 0
 1948              		.loc 9 426 7 is_stmt 0 view .LVU492
 1949 0000 2DE9F04F 		push	{r4, r5, r6, r7, r8, r9, r10, fp, lr}
 1950              		.cfi_def_cfa_offset 36
 1951              		.cfi_offset 4, -36
 1952              		.cfi_offset 5, -32
 1953              		.cfi_offset 6, -28
 1954              		.cfi_offset 7, -24
 1955              		.cfi_offset 8, -20
 1956              		.cfi_offset 9, -16
 1957              		.cfi_offset 10, -12
 1958              		.cfi_offset 11, -8
 1959              		.cfi_offset 14, -4
 1960 0004 D0E90084 		ldrd	r8, r4, [r0]
 1961              	.LBB478:
 1962              	.LBB479:
 1963              	.LBB480:
 1964              	.LBB481:
 1965              		.loc 7 919 50 view .LVU493
 1966 0008 404E     		ldr	r6, .L153
 1967              	.LBE481:
 1968              	.LBE480:
 1969              	.LBE479:
 1970              	.LBE478:
 1971              		.loc 9 426 7 view .LVU494
 1972 000a 0D46     		mov	r5, r1
 1973              	.LVL115:
 1974              	.LBB489:
 1975              	.LBI478:
 920:c:\program files\daisytoolchain\arm-none-eabi\include\c++\10.2.1\bits\stl_vector.h **** 
 921:c:\program files\daisytoolchain\arm-none-eabi\include\c++\10.2.1\bits\stl_vector.h ****       /**  Returns the size() of the largest possible %vector.  */
 922:c:\program files\daisytoolchain\arm-none-eabi\include\c++\10.2.1\bits\stl_vector.h ****       size_type
 923:c:\program files\daisytoolchain\arm-none-eabi\include\c++\10.2.1\bits\stl_vector.h ****       max_size() const _GLIBCXX_NOEXCEPT
 924:c:\program files\daisytoolchain\arm-none-eabi\include\c++\10.2.1\bits\stl_vector.h ****       { return _S_max_size(_M_get_Tp_allocator()); }
 925:c:\program files\daisytoolchain\arm-none-eabi\include\c++\10.2.1\bits\stl_vector.h **** 
 926:c:\program files\daisytoolchain\arm-none-eabi\include\c++\10.2.1\bits\stl_vector.h **** #if __cplusplus >= 201103L
 927:c:\program files\daisytoolchain\arm-none-eabi\include\c++\10.2.1\bits\stl_vector.h ****       /**
 928:c:\program files\daisytoolchain\arm-none-eabi\include\c++\10.2.1\bits\stl_vector.h ****        *  @brief  Resizes the %vector to the specified number of elements.
 929:c:\program files\daisytoolchain\arm-none-eabi\include\c++\10.2.1\bits\stl_vector.h ****        *  @param  __new_size  Number of elements the %vector should contain.
 930:c:\program files\daisytoolchain\arm-none-eabi\include\c++\10.2.1\bits\stl_vector.h ****        *
 931:c:\program files\daisytoolchain\arm-none-eabi\include\c++\10.2.1\bits\stl_vector.h ****        *  This function will %resize the %vector to the specified
 932:c:\program files\daisytoolchain\arm-none-eabi\include\c++\10.2.1\bits\stl_vector.h ****        *  number of elements.  If the number is smaller than the
ARM GAS  C:\Users\samue\AppData\Local\Temp\cci865ja.s 			page 96


 933:c:\program files\daisytoolchain\arm-none-eabi\include\c++\10.2.1\bits\stl_vector.h ****        *  %vector's current size the %vector is truncated, otherwise
 934:c:\program files\daisytoolchain\arm-none-eabi\include\c++\10.2.1\bits\stl_vector.h ****        *  default constructed elements are appended.
 935:c:\program files\daisytoolchain\arm-none-eabi\include\c++\10.2.1\bits\stl_vector.h ****        */
 936:c:\program files\daisytoolchain\arm-none-eabi\include\c++\10.2.1\bits\stl_vector.h ****       void
 937:c:\program files\daisytoolchain\arm-none-eabi\include\c++\10.2.1\bits\stl_vector.h ****       resize(size_type __new_size)
 938:c:\program files\daisytoolchain\arm-none-eabi\include\c++\10.2.1\bits\stl_vector.h ****       {
 939:c:\program files\daisytoolchain\arm-none-eabi\include\c++\10.2.1\bits\stl_vector.h **** 	if (__new_size > size())
 940:c:\program files\daisytoolchain\arm-none-eabi\include\c++\10.2.1\bits\stl_vector.h **** 	  _M_default_append(__new_size - size());
 941:c:\program files\daisytoolchain\arm-none-eabi\include\c++\10.2.1\bits\stl_vector.h **** 	else if (__new_size < size())
 942:c:\program files\daisytoolchain\arm-none-eabi\include\c++\10.2.1\bits\stl_vector.h **** 	  _M_erase_at_end(this->_M_impl._M_start + __new_size);
 943:c:\program files\daisytoolchain\arm-none-eabi\include\c++\10.2.1\bits\stl_vector.h ****       }
 944:c:\program files\daisytoolchain\arm-none-eabi\include\c++\10.2.1\bits\stl_vector.h **** 
 945:c:\program files\daisytoolchain\arm-none-eabi\include\c++\10.2.1\bits\stl_vector.h ****       /**
 946:c:\program files\daisytoolchain\arm-none-eabi\include\c++\10.2.1\bits\stl_vector.h ****        *  @brief  Resizes the %vector to the specified number of elements.
 947:c:\program files\daisytoolchain\arm-none-eabi\include\c++\10.2.1\bits\stl_vector.h ****        *  @param  __new_size  Number of elements the %vector should contain.
 948:c:\program files\daisytoolchain\arm-none-eabi\include\c++\10.2.1\bits\stl_vector.h ****        *  @param  __x  Data with which new elements should be populated.
 949:c:\program files\daisytoolchain\arm-none-eabi\include\c++\10.2.1\bits\stl_vector.h ****        *
 950:c:\program files\daisytoolchain\arm-none-eabi\include\c++\10.2.1\bits\stl_vector.h ****        *  This function will %resize the %vector to the specified
 951:c:\program files\daisytoolchain\arm-none-eabi\include\c++\10.2.1\bits\stl_vector.h ****        *  number of elements.  If the number is smaller than the
 952:c:\program files\daisytoolchain\arm-none-eabi\include\c++\10.2.1\bits\stl_vector.h ****        *  %vector's current size the %vector is truncated, otherwise
 953:c:\program files\daisytoolchain\arm-none-eabi\include\c++\10.2.1\bits\stl_vector.h ****        *  the %vector is extended and new elements are populated with
 954:c:\program files\daisytoolchain\arm-none-eabi\include\c++\10.2.1\bits\stl_vector.h ****        *  given data.
 955:c:\program files\daisytoolchain\arm-none-eabi\include\c++\10.2.1\bits\stl_vector.h ****        */
 956:c:\program files\daisytoolchain\arm-none-eabi\include\c++\10.2.1\bits\stl_vector.h ****       void
 957:c:\program files\daisytoolchain\arm-none-eabi\include\c++\10.2.1\bits\stl_vector.h ****       resize(size_type __new_size, const value_type& __x)
 958:c:\program files\daisytoolchain\arm-none-eabi\include\c++\10.2.1\bits\stl_vector.h ****       {
 959:c:\program files\daisytoolchain\arm-none-eabi\include\c++\10.2.1\bits\stl_vector.h **** 	if (__new_size > size())
 960:c:\program files\daisytoolchain\arm-none-eabi\include\c++\10.2.1\bits\stl_vector.h **** 	  _M_fill_insert(end(), __new_size - size(), __x);
 961:c:\program files\daisytoolchain\arm-none-eabi\include\c++\10.2.1\bits\stl_vector.h **** 	else if (__new_size < size())
 962:c:\program files\daisytoolchain\arm-none-eabi\include\c++\10.2.1\bits\stl_vector.h **** 	  _M_erase_at_end(this->_M_impl._M_start + __new_size);
 963:c:\program files\daisytoolchain\arm-none-eabi\include\c++\10.2.1\bits\stl_vector.h ****       }
 964:c:\program files\daisytoolchain\arm-none-eabi\include\c++\10.2.1\bits\stl_vector.h **** #else
 965:c:\program files\daisytoolchain\arm-none-eabi\include\c++\10.2.1\bits\stl_vector.h ****       /**
 966:c:\program files\daisytoolchain\arm-none-eabi\include\c++\10.2.1\bits\stl_vector.h ****        *  @brief  Resizes the %vector to the specified number of elements.
 967:c:\program files\daisytoolchain\arm-none-eabi\include\c++\10.2.1\bits\stl_vector.h ****        *  @param  __new_size  Number of elements the %vector should contain.
 968:c:\program files\daisytoolchain\arm-none-eabi\include\c++\10.2.1\bits\stl_vector.h ****        *  @param  __x  Data with which new elements should be populated.
 969:c:\program files\daisytoolchain\arm-none-eabi\include\c++\10.2.1\bits\stl_vector.h ****        *
 970:c:\program files\daisytoolchain\arm-none-eabi\include\c++\10.2.1\bits\stl_vector.h ****        *  This function will %resize the %vector to the specified
 971:c:\program files\daisytoolchain\arm-none-eabi\include\c++\10.2.1\bits\stl_vector.h ****        *  number of elements.  If the number is smaller than the
 972:c:\program files\daisytoolchain\arm-none-eabi\include\c++\10.2.1\bits\stl_vector.h ****        *  %vector's current size the %vector is truncated, otherwise
 973:c:\program files\daisytoolchain\arm-none-eabi\include\c++\10.2.1\bits\stl_vector.h ****        *  the %vector is extended and new elements are populated with
 974:c:\program files\daisytoolchain\arm-none-eabi\include\c++\10.2.1\bits\stl_vector.h ****        *  given data.
 975:c:\program files\daisytoolchain\arm-none-eabi\include\c++\10.2.1\bits\stl_vector.h ****        */
 976:c:\program files\daisytoolchain\arm-none-eabi\include\c++\10.2.1\bits\stl_vector.h ****       void
 977:c:\program files\daisytoolchain\arm-none-eabi\include\c++\10.2.1\bits\stl_vector.h ****       resize(size_type __new_size, value_type __x = value_type())
 978:c:\program files\daisytoolchain\arm-none-eabi\include\c++\10.2.1\bits\stl_vector.h ****       {
 979:c:\program files\daisytoolchain\arm-none-eabi\include\c++\10.2.1\bits\stl_vector.h **** 	if (__new_size > size())
 980:c:\program files\daisytoolchain\arm-none-eabi\include\c++\10.2.1\bits\stl_vector.h **** 	  _M_fill_insert(end(), __new_size - size(), __x);
 981:c:\program files\daisytoolchain\arm-none-eabi\include\c++\10.2.1\bits\stl_vector.h **** 	else if (__new_size < size())
 982:c:\program files\daisytoolchain\arm-none-eabi\include\c++\10.2.1\bits\stl_vector.h **** 	  _M_erase_at_end(this->_M_impl._M_start + __new_size);
 983:c:\program files\daisytoolchain\arm-none-eabi\include\c++\10.2.1\bits\stl_vector.h ****       }
 984:c:\program files\daisytoolchain\arm-none-eabi\include\c++\10.2.1\bits\stl_vector.h **** #endif
 985:c:\program files\daisytoolchain\arm-none-eabi\include\c++\10.2.1\bits\stl_vector.h **** 
 986:c:\program files\daisytoolchain\arm-none-eabi\include\c++\10.2.1\bits\stl_vector.h **** #if __cplusplus >= 201103L
 987:c:\program files\daisytoolchain\arm-none-eabi\include\c++\10.2.1\bits\stl_vector.h ****       /**  A non-binding request to reduce capacity() to size().  */
 988:c:\program files\daisytoolchain\arm-none-eabi\include\c++\10.2.1\bits\stl_vector.h ****       void
 989:c:\program files\daisytoolchain\arm-none-eabi\include\c++\10.2.1\bits\stl_vector.h ****       shrink_to_fit()
ARM GAS  C:\Users\samue\AppData\Local\Temp\cci865ja.s 			page 97


 990:c:\program files\daisytoolchain\arm-none-eabi\include\c++\10.2.1\bits\stl_vector.h ****       { _M_shrink_to_fit(); }
 991:c:\program files\daisytoolchain\arm-none-eabi\include\c++\10.2.1\bits\stl_vector.h **** #endif
 992:c:\program files\daisytoolchain\arm-none-eabi\include\c++\10.2.1\bits\stl_vector.h **** 
 993:c:\program files\daisytoolchain\arm-none-eabi\include\c++\10.2.1\bits\stl_vector.h ****       /**
 994:c:\program files\daisytoolchain\arm-none-eabi\include\c++\10.2.1\bits\stl_vector.h ****        *  Returns the total number of elements that the %vector can
 995:c:\program files\daisytoolchain\arm-none-eabi\include\c++\10.2.1\bits\stl_vector.h ****        *  hold before needing to allocate more memory.
 996:c:\program files\daisytoolchain\arm-none-eabi\include\c++\10.2.1\bits\stl_vector.h ****        */
 997:c:\program files\daisytoolchain\arm-none-eabi\include\c++\10.2.1\bits\stl_vector.h ****       size_type
 998:c:\program files\daisytoolchain\arm-none-eabi\include\c++\10.2.1\bits\stl_vector.h ****       capacity() const _GLIBCXX_NOEXCEPT
 999:c:\program files\daisytoolchain\arm-none-eabi\include\c++\10.2.1\bits\stl_vector.h ****       { return size_type(this->_M_impl._M_end_of_storage
1000:c:\program files\daisytoolchain\arm-none-eabi\include\c++\10.2.1\bits\stl_vector.h **** 			 - this->_M_impl._M_start); }
1001:c:\program files\daisytoolchain\arm-none-eabi\include\c++\10.2.1\bits\stl_vector.h **** 
1002:c:\program files\daisytoolchain\arm-none-eabi\include\c++\10.2.1\bits\stl_vector.h ****       /**
1003:c:\program files\daisytoolchain\arm-none-eabi\include\c++\10.2.1\bits\stl_vector.h ****        *  Returns true if the %vector is empty.  (Thus begin() would
1004:c:\program files\daisytoolchain\arm-none-eabi\include\c++\10.2.1\bits\stl_vector.h ****        *  equal end().)
1005:c:\program files\daisytoolchain\arm-none-eabi\include\c++\10.2.1\bits\stl_vector.h ****        */
1006:c:\program files\daisytoolchain\arm-none-eabi\include\c++\10.2.1\bits\stl_vector.h ****       _GLIBCXX_NODISCARD bool
1007:c:\program files\daisytoolchain\arm-none-eabi\include\c++\10.2.1\bits\stl_vector.h ****       empty() const _GLIBCXX_NOEXCEPT
1008:c:\program files\daisytoolchain\arm-none-eabi\include\c++\10.2.1\bits\stl_vector.h ****       { return begin() == end(); }
1009:c:\program files\daisytoolchain\arm-none-eabi\include\c++\10.2.1\bits\stl_vector.h **** 
1010:c:\program files\daisytoolchain\arm-none-eabi\include\c++\10.2.1\bits\stl_vector.h ****       /**
1011:c:\program files\daisytoolchain\arm-none-eabi\include\c++\10.2.1\bits\stl_vector.h ****        *  @brief  Attempt to preallocate enough memory for specified number of
1012:c:\program files\daisytoolchain\arm-none-eabi\include\c++\10.2.1\bits\stl_vector.h ****        *          elements.
1013:c:\program files\daisytoolchain\arm-none-eabi\include\c++\10.2.1\bits\stl_vector.h ****        *  @param  __n  Number of elements required.
1014:c:\program files\daisytoolchain\arm-none-eabi\include\c++\10.2.1\bits\stl_vector.h ****        *  @throw  std::length_error  If @a n exceeds @c max_size().
1015:c:\program files\daisytoolchain\arm-none-eabi\include\c++\10.2.1\bits\stl_vector.h ****        *
1016:c:\program files\daisytoolchain\arm-none-eabi\include\c++\10.2.1\bits\stl_vector.h ****        *  This function attempts to reserve enough memory for the
1017:c:\program files\daisytoolchain\arm-none-eabi\include\c++\10.2.1\bits\stl_vector.h ****        *  %vector to hold the specified number of elements.  If the
1018:c:\program files\daisytoolchain\arm-none-eabi\include\c++\10.2.1\bits\stl_vector.h ****        *  number requested is more than max_size(), length_error is
1019:c:\program files\daisytoolchain\arm-none-eabi\include\c++\10.2.1\bits\stl_vector.h ****        *  thrown.
1020:c:\program files\daisytoolchain\arm-none-eabi\include\c++\10.2.1\bits\stl_vector.h ****        *
1021:c:\program files\daisytoolchain\arm-none-eabi\include\c++\10.2.1\bits\stl_vector.h ****        *  The advantage of this function is that if optimal code is a
1022:c:\program files\daisytoolchain\arm-none-eabi\include\c++\10.2.1\bits\stl_vector.h ****        *  necessity and the user can determine the number of elements
1023:c:\program files\daisytoolchain\arm-none-eabi\include\c++\10.2.1\bits\stl_vector.h ****        *  that will be required, the user can reserve the memory in
1024:c:\program files\daisytoolchain\arm-none-eabi\include\c++\10.2.1\bits\stl_vector.h ****        *  %advance, and thus prevent a possible reallocation of memory
1025:c:\program files\daisytoolchain\arm-none-eabi\include\c++\10.2.1\bits\stl_vector.h ****        *  and copying of %vector data.
1026:c:\program files\daisytoolchain\arm-none-eabi\include\c++\10.2.1\bits\stl_vector.h ****        */
1027:c:\program files\daisytoolchain\arm-none-eabi\include\c++\10.2.1\bits\stl_vector.h ****       void
1028:c:\program files\daisytoolchain\arm-none-eabi\include\c++\10.2.1\bits\stl_vector.h ****       reserve(size_type __n);
1029:c:\program files\daisytoolchain\arm-none-eabi\include\c++\10.2.1\bits\stl_vector.h **** 
1030:c:\program files\daisytoolchain\arm-none-eabi\include\c++\10.2.1\bits\stl_vector.h ****       // element access
1031:c:\program files\daisytoolchain\arm-none-eabi\include\c++\10.2.1\bits\stl_vector.h ****       /**
1032:c:\program files\daisytoolchain\arm-none-eabi\include\c++\10.2.1\bits\stl_vector.h ****        *  @brief  Subscript access to the data contained in the %vector.
1033:c:\program files\daisytoolchain\arm-none-eabi\include\c++\10.2.1\bits\stl_vector.h ****        *  @param __n The index of the element for which data should be
1034:c:\program files\daisytoolchain\arm-none-eabi\include\c++\10.2.1\bits\stl_vector.h ****        *  accessed.
1035:c:\program files\daisytoolchain\arm-none-eabi\include\c++\10.2.1\bits\stl_vector.h ****        *  @return  Read/write reference to data.
1036:c:\program files\daisytoolchain\arm-none-eabi\include\c++\10.2.1\bits\stl_vector.h ****        *
1037:c:\program files\daisytoolchain\arm-none-eabi\include\c++\10.2.1\bits\stl_vector.h ****        *  This operator allows for easy, array-style, data access.
1038:c:\program files\daisytoolchain\arm-none-eabi\include\c++\10.2.1\bits\stl_vector.h ****        *  Note that data access with this operator is unchecked and
1039:c:\program files\daisytoolchain\arm-none-eabi\include\c++\10.2.1\bits\stl_vector.h ****        *  out_of_range lookups are not defined. (For checked lookups
1040:c:\program files\daisytoolchain\arm-none-eabi\include\c++\10.2.1\bits\stl_vector.h ****        *  see at().)
1041:c:\program files\daisytoolchain\arm-none-eabi\include\c++\10.2.1\bits\stl_vector.h ****        */
1042:c:\program files\daisytoolchain\arm-none-eabi\include\c++\10.2.1\bits\stl_vector.h ****       reference
1043:c:\program files\daisytoolchain\arm-none-eabi\include\c++\10.2.1\bits\stl_vector.h ****       operator[](size_type __n) _GLIBCXX_NOEXCEPT
1044:c:\program files\daisytoolchain\arm-none-eabi\include\c++\10.2.1\bits\stl_vector.h ****       {
1045:c:\program files\daisytoolchain\arm-none-eabi\include\c++\10.2.1\bits\stl_vector.h **** 	__glibcxx_requires_subscript(__n);
1046:c:\program files\daisytoolchain\arm-none-eabi\include\c++\10.2.1\bits\stl_vector.h **** 	return *(this->_M_impl._M_start + __n);
ARM GAS  C:\Users\samue\AppData\Local\Temp\cci865ja.s 			page 98


1047:c:\program files\daisytoolchain\arm-none-eabi\include\c++\10.2.1\bits\stl_vector.h ****       }
1048:c:\program files\daisytoolchain\arm-none-eabi\include\c++\10.2.1\bits\stl_vector.h **** 
1049:c:\program files\daisytoolchain\arm-none-eabi\include\c++\10.2.1\bits\stl_vector.h ****       /**
1050:c:\program files\daisytoolchain\arm-none-eabi\include\c++\10.2.1\bits\stl_vector.h ****        *  @brief  Subscript access to the data contained in the %vector.
1051:c:\program files\daisytoolchain\arm-none-eabi\include\c++\10.2.1\bits\stl_vector.h ****        *  @param __n The index of the element for which data should be
1052:c:\program files\daisytoolchain\arm-none-eabi\include\c++\10.2.1\bits\stl_vector.h ****        *  accessed.
1053:c:\program files\daisytoolchain\arm-none-eabi\include\c++\10.2.1\bits\stl_vector.h ****        *  @return  Read-only (constant) reference to data.
1054:c:\program files\daisytoolchain\arm-none-eabi\include\c++\10.2.1\bits\stl_vector.h ****        *
1055:c:\program files\daisytoolchain\arm-none-eabi\include\c++\10.2.1\bits\stl_vector.h ****        *  This operator allows for easy, array-style, data access.
1056:c:\program files\daisytoolchain\arm-none-eabi\include\c++\10.2.1\bits\stl_vector.h ****        *  Note that data access with this operator is unchecked and
1057:c:\program files\daisytoolchain\arm-none-eabi\include\c++\10.2.1\bits\stl_vector.h ****        *  out_of_range lookups are not defined. (For checked lookups
1058:c:\program files\daisytoolchain\arm-none-eabi\include\c++\10.2.1\bits\stl_vector.h ****        *  see at().)
1059:c:\program files\daisytoolchain\arm-none-eabi\include\c++\10.2.1\bits\stl_vector.h ****        */
1060:c:\program files\daisytoolchain\arm-none-eabi\include\c++\10.2.1\bits\stl_vector.h ****       const_reference
1061:c:\program files\daisytoolchain\arm-none-eabi\include\c++\10.2.1\bits\stl_vector.h ****       operator[](size_type __n) const _GLIBCXX_NOEXCEPT
1062:c:\program files\daisytoolchain\arm-none-eabi\include\c++\10.2.1\bits\stl_vector.h ****       {
1063:c:\program files\daisytoolchain\arm-none-eabi\include\c++\10.2.1\bits\stl_vector.h **** 	__glibcxx_requires_subscript(__n);
1064:c:\program files\daisytoolchain\arm-none-eabi\include\c++\10.2.1\bits\stl_vector.h **** 	return *(this->_M_impl._M_start + __n);
1065:c:\program files\daisytoolchain\arm-none-eabi\include\c++\10.2.1\bits\stl_vector.h ****       }
1066:c:\program files\daisytoolchain\arm-none-eabi\include\c++\10.2.1\bits\stl_vector.h **** 
1067:c:\program files\daisytoolchain\arm-none-eabi\include\c++\10.2.1\bits\stl_vector.h ****     protected:
1068:c:\program files\daisytoolchain\arm-none-eabi\include\c++\10.2.1\bits\stl_vector.h ****       /// Safety check used only from at().
1069:c:\program files\daisytoolchain\arm-none-eabi\include\c++\10.2.1\bits\stl_vector.h ****       void
1070:c:\program files\daisytoolchain\arm-none-eabi\include\c++\10.2.1\bits\stl_vector.h ****       _M_range_check(size_type __n) const
1071:c:\program files\daisytoolchain\arm-none-eabi\include\c++\10.2.1\bits\stl_vector.h ****       {
1072:c:\program files\daisytoolchain\arm-none-eabi\include\c++\10.2.1\bits\stl_vector.h **** 	if (__n >= this->size())
1073:c:\program files\daisytoolchain\arm-none-eabi\include\c++\10.2.1\bits\stl_vector.h **** 	  __throw_out_of_range_fmt(__N("vector::_M_range_check: __n "
1074:c:\program files\daisytoolchain\arm-none-eabi\include\c++\10.2.1\bits\stl_vector.h **** 				       "(which is %zu) >= this->size() "
1075:c:\program files\daisytoolchain\arm-none-eabi\include\c++\10.2.1\bits\stl_vector.h **** 				       "(which is %zu)"),
1076:c:\program files\daisytoolchain\arm-none-eabi\include\c++\10.2.1\bits\stl_vector.h **** 				   __n, this->size());
1077:c:\program files\daisytoolchain\arm-none-eabi\include\c++\10.2.1\bits\stl_vector.h ****       }
1078:c:\program files\daisytoolchain\arm-none-eabi\include\c++\10.2.1\bits\stl_vector.h **** 
1079:c:\program files\daisytoolchain\arm-none-eabi\include\c++\10.2.1\bits\stl_vector.h ****     public:
1080:c:\program files\daisytoolchain\arm-none-eabi\include\c++\10.2.1\bits\stl_vector.h ****       /**
1081:c:\program files\daisytoolchain\arm-none-eabi\include\c++\10.2.1\bits\stl_vector.h ****        *  @brief  Provides access to the data contained in the %vector.
1082:c:\program files\daisytoolchain\arm-none-eabi\include\c++\10.2.1\bits\stl_vector.h ****        *  @param __n The index of the element for which data should be
1083:c:\program files\daisytoolchain\arm-none-eabi\include\c++\10.2.1\bits\stl_vector.h ****        *  accessed.
1084:c:\program files\daisytoolchain\arm-none-eabi\include\c++\10.2.1\bits\stl_vector.h ****        *  @return  Read/write reference to data.
1085:c:\program files\daisytoolchain\arm-none-eabi\include\c++\10.2.1\bits\stl_vector.h ****        *  @throw  std::out_of_range  If @a __n is an invalid index.
1086:c:\program files\daisytoolchain\arm-none-eabi\include\c++\10.2.1\bits\stl_vector.h ****        *
1087:c:\program files\daisytoolchain\arm-none-eabi\include\c++\10.2.1\bits\stl_vector.h ****        *  This function provides for safer data access.  The parameter
1088:c:\program files\daisytoolchain\arm-none-eabi\include\c++\10.2.1\bits\stl_vector.h ****        *  is first checked that it is in the range of the vector.  The
1089:c:\program files\daisytoolchain\arm-none-eabi\include\c++\10.2.1\bits\stl_vector.h ****        *  function throws out_of_range if the check fails.
1090:c:\program files\daisytoolchain\arm-none-eabi\include\c++\10.2.1\bits\stl_vector.h ****        */
1091:c:\program files\daisytoolchain\arm-none-eabi\include\c++\10.2.1\bits\stl_vector.h ****       reference
1092:c:\program files\daisytoolchain\arm-none-eabi\include\c++\10.2.1\bits\stl_vector.h ****       at(size_type __n)
1093:c:\program files\daisytoolchain\arm-none-eabi\include\c++\10.2.1\bits\stl_vector.h ****       {
1094:c:\program files\daisytoolchain\arm-none-eabi\include\c++\10.2.1\bits\stl_vector.h **** 	_M_range_check(__n);
1095:c:\program files\daisytoolchain\arm-none-eabi\include\c++\10.2.1\bits\stl_vector.h **** 	return (*this)[__n];
1096:c:\program files\daisytoolchain\arm-none-eabi\include\c++\10.2.1\bits\stl_vector.h ****       }
1097:c:\program files\daisytoolchain\arm-none-eabi\include\c++\10.2.1\bits\stl_vector.h **** 
1098:c:\program files\daisytoolchain\arm-none-eabi\include\c++\10.2.1\bits\stl_vector.h ****       /**
1099:c:\program files\daisytoolchain\arm-none-eabi\include\c++\10.2.1\bits\stl_vector.h ****        *  @brief  Provides access to the data contained in the %vector.
1100:c:\program files\daisytoolchain\arm-none-eabi\include\c++\10.2.1\bits\stl_vector.h ****        *  @param __n The index of the element for which data should be
1101:c:\program files\daisytoolchain\arm-none-eabi\include\c++\10.2.1\bits\stl_vector.h ****        *  accessed.
1102:c:\program files\daisytoolchain\arm-none-eabi\include\c++\10.2.1\bits\stl_vector.h ****        *  @return  Read-only (constant) reference to data.
1103:c:\program files\daisytoolchain\arm-none-eabi\include\c++\10.2.1\bits\stl_vector.h ****        *  @throw  std::out_of_range  If @a __n is an invalid index.
ARM GAS  C:\Users\samue\AppData\Local\Temp\cci865ja.s 			page 99


1104:c:\program files\daisytoolchain\arm-none-eabi\include\c++\10.2.1\bits\stl_vector.h ****        *
1105:c:\program files\daisytoolchain\arm-none-eabi\include\c++\10.2.1\bits\stl_vector.h ****        *  This function provides for safer data access.  The parameter
1106:c:\program files\daisytoolchain\arm-none-eabi\include\c++\10.2.1\bits\stl_vector.h ****        *  is first checked that it is in the range of the vector.  The
1107:c:\program files\daisytoolchain\arm-none-eabi\include\c++\10.2.1\bits\stl_vector.h ****        *  function throws out_of_range if the check fails.
1108:c:\program files\daisytoolchain\arm-none-eabi\include\c++\10.2.1\bits\stl_vector.h ****        */
1109:c:\program files\daisytoolchain\arm-none-eabi\include\c++\10.2.1\bits\stl_vector.h ****       const_reference
1110:c:\program files\daisytoolchain\arm-none-eabi\include\c++\10.2.1\bits\stl_vector.h ****       at(size_type __n) const
1111:c:\program files\daisytoolchain\arm-none-eabi\include\c++\10.2.1\bits\stl_vector.h ****       {
1112:c:\program files\daisytoolchain\arm-none-eabi\include\c++\10.2.1\bits\stl_vector.h **** 	_M_range_check(__n);
1113:c:\program files\daisytoolchain\arm-none-eabi\include\c++\10.2.1\bits\stl_vector.h **** 	return (*this)[__n];
1114:c:\program files\daisytoolchain\arm-none-eabi\include\c++\10.2.1\bits\stl_vector.h ****       }
1115:c:\program files\daisytoolchain\arm-none-eabi\include\c++\10.2.1\bits\stl_vector.h **** 
1116:c:\program files\daisytoolchain\arm-none-eabi\include\c++\10.2.1\bits\stl_vector.h ****       /**
1117:c:\program files\daisytoolchain\arm-none-eabi\include\c++\10.2.1\bits\stl_vector.h ****        *  Returns a read/write reference to the data at the first
1118:c:\program files\daisytoolchain\arm-none-eabi\include\c++\10.2.1\bits\stl_vector.h ****        *  element of the %vector.
1119:c:\program files\daisytoolchain\arm-none-eabi\include\c++\10.2.1\bits\stl_vector.h ****        */
1120:c:\program files\daisytoolchain\arm-none-eabi\include\c++\10.2.1\bits\stl_vector.h ****       reference
1121:c:\program files\daisytoolchain\arm-none-eabi\include\c++\10.2.1\bits\stl_vector.h ****       front() _GLIBCXX_NOEXCEPT
1122:c:\program files\daisytoolchain\arm-none-eabi\include\c++\10.2.1\bits\stl_vector.h ****       {
1123:c:\program files\daisytoolchain\arm-none-eabi\include\c++\10.2.1\bits\stl_vector.h **** 	__glibcxx_requires_nonempty();
1124:c:\program files\daisytoolchain\arm-none-eabi\include\c++\10.2.1\bits\stl_vector.h **** 	return *begin();
1125:c:\program files\daisytoolchain\arm-none-eabi\include\c++\10.2.1\bits\stl_vector.h ****       }
1126:c:\program files\daisytoolchain\arm-none-eabi\include\c++\10.2.1\bits\stl_vector.h **** 
1127:c:\program files\daisytoolchain\arm-none-eabi\include\c++\10.2.1\bits\stl_vector.h ****       /**
1128:c:\program files\daisytoolchain\arm-none-eabi\include\c++\10.2.1\bits\stl_vector.h ****        *  Returns a read-only (constant) reference to the data at the first
1129:c:\program files\daisytoolchain\arm-none-eabi\include\c++\10.2.1\bits\stl_vector.h ****        *  element of the %vector.
1130:c:\program files\daisytoolchain\arm-none-eabi\include\c++\10.2.1\bits\stl_vector.h ****        */
1131:c:\program files\daisytoolchain\arm-none-eabi\include\c++\10.2.1\bits\stl_vector.h ****       const_reference
1132:c:\program files\daisytoolchain\arm-none-eabi\include\c++\10.2.1\bits\stl_vector.h ****       front() const _GLIBCXX_NOEXCEPT
1133:c:\program files\daisytoolchain\arm-none-eabi\include\c++\10.2.1\bits\stl_vector.h ****       {
1134:c:\program files\daisytoolchain\arm-none-eabi\include\c++\10.2.1\bits\stl_vector.h **** 	__glibcxx_requires_nonempty();
1135:c:\program files\daisytoolchain\arm-none-eabi\include\c++\10.2.1\bits\stl_vector.h **** 	return *begin();
1136:c:\program files\daisytoolchain\arm-none-eabi\include\c++\10.2.1\bits\stl_vector.h ****       }
1137:c:\program files\daisytoolchain\arm-none-eabi\include\c++\10.2.1\bits\stl_vector.h **** 
1138:c:\program files\daisytoolchain\arm-none-eabi\include\c++\10.2.1\bits\stl_vector.h ****       /**
1139:c:\program files\daisytoolchain\arm-none-eabi\include\c++\10.2.1\bits\stl_vector.h ****        *  Returns a read/write reference to the data at the last
1140:c:\program files\daisytoolchain\arm-none-eabi\include\c++\10.2.1\bits\stl_vector.h ****        *  element of the %vector.
1141:c:\program files\daisytoolchain\arm-none-eabi\include\c++\10.2.1\bits\stl_vector.h ****        */
1142:c:\program files\daisytoolchain\arm-none-eabi\include\c++\10.2.1\bits\stl_vector.h ****       reference
1143:c:\program files\daisytoolchain\arm-none-eabi\include\c++\10.2.1\bits\stl_vector.h ****       back() _GLIBCXX_NOEXCEPT
1144:c:\program files\daisytoolchain\arm-none-eabi\include\c++\10.2.1\bits\stl_vector.h ****       {
1145:c:\program files\daisytoolchain\arm-none-eabi\include\c++\10.2.1\bits\stl_vector.h **** 	__glibcxx_requires_nonempty();
1146:c:\program files\daisytoolchain\arm-none-eabi\include\c++\10.2.1\bits\stl_vector.h **** 	return *(end() - 1);
1147:c:\program files\daisytoolchain\arm-none-eabi\include\c++\10.2.1\bits\stl_vector.h ****       }
1148:c:\program files\daisytoolchain\arm-none-eabi\include\c++\10.2.1\bits\stl_vector.h **** 
1149:c:\program files\daisytoolchain\arm-none-eabi\include\c++\10.2.1\bits\stl_vector.h ****       /**
1150:c:\program files\daisytoolchain\arm-none-eabi\include\c++\10.2.1\bits\stl_vector.h ****        *  Returns a read-only (constant) reference to the data at the
1151:c:\program files\daisytoolchain\arm-none-eabi\include\c++\10.2.1\bits\stl_vector.h ****        *  last element of the %vector.
1152:c:\program files\daisytoolchain\arm-none-eabi\include\c++\10.2.1\bits\stl_vector.h ****        */
1153:c:\program files\daisytoolchain\arm-none-eabi\include\c++\10.2.1\bits\stl_vector.h ****       const_reference
1154:c:\program files\daisytoolchain\arm-none-eabi\include\c++\10.2.1\bits\stl_vector.h ****       back() const _GLIBCXX_NOEXCEPT
1155:c:\program files\daisytoolchain\arm-none-eabi\include\c++\10.2.1\bits\stl_vector.h ****       {
1156:c:\program files\daisytoolchain\arm-none-eabi\include\c++\10.2.1\bits\stl_vector.h **** 	__glibcxx_requires_nonempty();
1157:c:\program files\daisytoolchain\arm-none-eabi\include\c++\10.2.1\bits\stl_vector.h **** 	return *(end() - 1);
1158:c:\program files\daisytoolchain\arm-none-eabi\include\c++\10.2.1\bits\stl_vector.h ****       }
1159:c:\program files\daisytoolchain\arm-none-eabi\include\c++\10.2.1\bits\stl_vector.h **** 
1160:c:\program files\daisytoolchain\arm-none-eabi\include\c++\10.2.1\bits\stl_vector.h ****       // _GLIBCXX_RESOLVE_LIB_DEFECTS
ARM GAS  C:\Users\samue\AppData\Local\Temp\cci865ja.s 			page 100


1161:c:\program files\daisytoolchain\arm-none-eabi\include\c++\10.2.1\bits\stl_vector.h ****       // DR 464. Suggestion for new member functions in standard containers.
1162:c:\program files\daisytoolchain\arm-none-eabi\include\c++\10.2.1\bits\stl_vector.h ****       // data access
1163:c:\program files\daisytoolchain\arm-none-eabi\include\c++\10.2.1\bits\stl_vector.h ****       /**
1164:c:\program files\daisytoolchain\arm-none-eabi\include\c++\10.2.1\bits\stl_vector.h ****        *   Returns a pointer such that [data(), data() + size()) is a valid
1165:c:\program files\daisytoolchain\arm-none-eabi\include\c++\10.2.1\bits\stl_vector.h ****        *   range.  For a non-empty %vector, data() == &front().
1166:c:\program files\daisytoolchain\arm-none-eabi\include\c++\10.2.1\bits\stl_vector.h ****        */
1167:c:\program files\daisytoolchain\arm-none-eabi\include\c++\10.2.1\bits\stl_vector.h ****       _Tp*
1168:c:\program files\daisytoolchain\arm-none-eabi\include\c++\10.2.1\bits\stl_vector.h ****       data() _GLIBCXX_NOEXCEPT
1169:c:\program files\daisytoolchain\arm-none-eabi\include\c++\10.2.1\bits\stl_vector.h ****       { return _M_data_ptr(this->_M_impl._M_start); }
1170:c:\program files\daisytoolchain\arm-none-eabi\include\c++\10.2.1\bits\stl_vector.h **** 
1171:c:\program files\daisytoolchain\arm-none-eabi\include\c++\10.2.1\bits\stl_vector.h ****       const _Tp*
1172:c:\program files\daisytoolchain\arm-none-eabi\include\c++\10.2.1\bits\stl_vector.h ****       data() const _GLIBCXX_NOEXCEPT
1173:c:\program files\daisytoolchain\arm-none-eabi\include\c++\10.2.1\bits\stl_vector.h ****       { return _M_data_ptr(this->_M_impl._M_start); }
1174:c:\program files\daisytoolchain\arm-none-eabi\include\c++\10.2.1\bits\stl_vector.h **** 
1175:c:\program files\daisytoolchain\arm-none-eabi\include\c++\10.2.1\bits\stl_vector.h ****       // [23.2.4.3] modifiers
1176:c:\program files\daisytoolchain\arm-none-eabi\include\c++\10.2.1\bits\stl_vector.h ****       /**
1177:c:\program files\daisytoolchain\arm-none-eabi\include\c++\10.2.1\bits\stl_vector.h ****        *  @brief  Add data to the end of the %vector.
1178:c:\program files\daisytoolchain\arm-none-eabi\include\c++\10.2.1\bits\stl_vector.h ****        *  @param  __x  Data to be added.
1179:c:\program files\daisytoolchain\arm-none-eabi\include\c++\10.2.1\bits\stl_vector.h ****        *
1180:c:\program files\daisytoolchain\arm-none-eabi\include\c++\10.2.1\bits\stl_vector.h ****        *  This is a typical stack operation.  The function creates an
1181:c:\program files\daisytoolchain\arm-none-eabi\include\c++\10.2.1\bits\stl_vector.h ****        *  element at the end of the %vector and assigns the given data
1182:c:\program files\daisytoolchain\arm-none-eabi\include\c++\10.2.1\bits\stl_vector.h ****        *  to it.  Due to the nature of a %vector this operation can be
1183:c:\program files\daisytoolchain\arm-none-eabi\include\c++\10.2.1\bits\stl_vector.h ****        *  done in constant time if the %vector has preallocated space
1184:c:\program files\daisytoolchain\arm-none-eabi\include\c++\10.2.1\bits\stl_vector.h ****        *  available.
1185:c:\program files\daisytoolchain\arm-none-eabi\include\c++\10.2.1\bits\stl_vector.h ****        */
1186:c:\program files\daisytoolchain\arm-none-eabi\include\c++\10.2.1\bits\stl_vector.h ****       void
1187:c:\program files\daisytoolchain\arm-none-eabi\include\c++\10.2.1\bits\stl_vector.h ****       push_back(const value_type& __x)
1188:c:\program files\daisytoolchain\arm-none-eabi\include\c++\10.2.1\bits\stl_vector.h ****       {
1189:c:\program files\daisytoolchain\arm-none-eabi\include\c++\10.2.1\bits\stl_vector.h **** 	if (this->_M_impl._M_finish != this->_M_impl._M_end_of_storage)
1190:c:\program files\daisytoolchain\arm-none-eabi\include\c++\10.2.1\bits\stl_vector.h **** 	  {
1191:c:\program files\daisytoolchain\arm-none-eabi\include\c++\10.2.1\bits\stl_vector.h **** 	    _GLIBCXX_ASAN_ANNOTATE_GROW(1);
1192:c:\program files\daisytoolchain\arm-none-eabi\include\c++\10.2.1\bits\stl_vector.h **** 	    _Alloc_traits::construct(this->_M_impl, this->_M_impl._M_finish,
1193:c:\program files\daisytoolchain\arm-none-eabi\include\c++\10.2.1\bits\stl_vector.h **** 				     __x);
1194:c:\program files\daisytoolchain\arm-none-eabi\include\c++\10.2.1\bits\stl_vector.h **** 	    ++this->_M_impl._M_finish;
1195:c:\program files\daisytoolchain\arm-none-eabi\include\c++\10.2.1\bits\stl_vector.h **** 	    _GLIBCXX_ASAN_ANNOTATE_GREW(1);
1196:c:\program files\daisytoolchain\arm-none-eabi\include\c++\10.2.1\bits\stl_vector.h **** 	  }
1197:c:\program files\daisytoolchain\arm-none-eabi\include\c++\10.2.1\bits\stl_vector.h **** 	else
1198:c:\program files\daisytoolchain\arm-none-eabi\include\c++\10.2.1\bits\stl_vector.h **** 	  _M_realloc_insert(end(), __x);
1199:c:\program files\daisytoolchain\arm-none-eabi\include\c++\10.2.1\bits\stl_vector.h ****       }
1200:c:\program files\daisytoolchain\arm-none-eabi\include\c++\10.2.1\bits\stl_vector.h **** 
1201:c:\program files\daisytoolchain\arm-none-eabi\include\c++\10.2.1\bits\stl_vector.h **** #if __cplusplus >= 201103L
1202:c:\program files\daisytoolchain\arm-none-eabi\include\c++\10.2.1\bits\stl_vector.h ****       void
1203:c:\program files\daisytoolchain\arm-none-eabi\include\c++\10.2.1\bits\stl_vector.h ****       push_back(value_type&& __x)
1204:c:\program files\daisytoolchain\arm-none-eabi\include\c++\10.2.1\bits\stl_vector.h ****       { emplace_back(std::move(__x)); }
1205:c:\program files\daisytoolchain\arm-none-eabi\include\c++\10.2.1\bits\stl_vector.h **** 
1206:c:\program files\daisytoolchain\arm-none-eabi\include\c++\10.2.1\bits\stl_vector.h ****       template<typename... _Args>
1207:c:\program files\daisytoolchain\arm-none-eabi\include\c++\10.2.1\bits\stl_vector.h **** #if __cplusplus > 201402L
1208:c:\program files\daisytoolchain\arm-none-eabi\include\c++\10.2.1\bits\stl_vector.h **** 	reference
1209:c:\program files\daisytoolchain\arm-none-eabi\include\c++\10.2.1\bits\stl_vector.h **** #else
1210:c:\program files\daisytoolchain\arm-none-eabi\include\c++\10.2.1\bits\stl_vector.h **** 	void
1211:c:\program files\daisytoolchain\arm-none-eabi\include\c++\10.2.1\bits\stl_vector.h **** #endif
1212:c:\program files\daisytoolchain\arm-none-eabi\include\c++\10.2.1\bits\stl_vector.h **** 	emplace_back(_Args&&... __args);
1213:c:\program files\daisytoolchain\arm-none-eabi\include\c++\10.2.1\bits\stl_vector.h **** #endif
1214:c:\program files\daisytoolchain\arm-none-eabi\include\c++\10.2.1\bits\stl_vector.h **** 
1215:c:\program files\daisytoolchain\arm-none-eabi\include\c++\10.2.1\bits\stl_vector.h ****       /**
1216:c:\program files\daisytoolchain\arm-none-eabi\include\c++\10.2.1\bits\stl_vector.h ****        *  @brief  Removes last element.
1217:c:\program files\daisytoolchain\arm-none-eabi\include\c++\10.2.1\bits\stl_vector.h ****        *
ARM GAS  C:\Users\samue\AppData\Local\Temp\cci865ja.s 			page 101


1218:c:\program files\daisytoolchain\arm-none-eabi\include\c++\10.2.1\bits\stl_vector.h ****        *  This is a typical stack operation. It shrinks the %vector by one.
1219:c:\program files\daisytoolchain\arm-none-eabi\include\c++\10.2.1\bits\stl_vector.h ****        *
1220:c:\program files\daisytoolchain\arm-none-eabi\include\c++\10.2.1\bits\stl_vector.h ****        *  Note that no data is returned, and if the last element's
1221:c:\program files\daisytoolchain\arm-none-eabi\include\c++\10.2.1\bits\stl_vector.h ****        *  data is needed, it should be retrieved before pop_back() is
1222:c:\program files\daisytoolchain\arm-none-eabi\include\c++\10.2.1\bits\stl_vector.h ****        *  called.
1223:c:\program files\daisytoolchain\arm-none-eabi\include\c++\10.2.1\bits\stl_vector.h ****        */
1224:c:\program files\daisytoolchain\arm-none-eabi\include\c++\10.2.1\bits\stl_vector.h ****       void
1225:c:\program files\daisytoolchain\arm-none-eabi\include\c++\10.2.1\bits\stl_vector.h ****       pop_back() _GLIBCXX_NOEXCEPT
1226:c:\program files\daisytoolchain\arm-none-eabi\include\c++\10.2.1\bits\stl_vector.h ****       {
1227:c:\program files\daisytoolchain\arm-none-eabi\include\c++\10.2.1\bits\stl_vector.h **** 	__glibcxx_requires_nonempty();
1228:c:\program files\daisytoolchain\arm-none-eabi\include\c++\10.2.1\bits\stl_vector.h **** 	--this->_M_impl._M_finish;
1229:c:\program files\daisytoolchain\arm-none-eabi\include\c++\10.2.1\bits\stl_vector.h **** 	_Alloc_traits::destroy(this->_M_impl, this->_M_impl._M_finish);
1230:c:\program files\daisytoolchain\arm-none-eabi\include\c++\10.2.1\bits\stl_vector.h **** 	_GLIBCXX_ASAN_ANNOTATE_SHRINK(1);
1231:c:\program files\daisytoolchain\arm-none-eabi\include\c++\10.2.1\bits\stl_vector.h ****       }
1232:c:\program files\daisytoolchain\arm-none-eabi\include\c++\10.2.1\bits\stl_vector.h **** 
1233:c:\program files\daisytoolchain\arm-none-eabi\include\c++\10.2.1\bits\stl_vector.h **** #if __cplusplus >= 201103L
1234:c:\program files\daisytoolchain\arm-none-eabi\include\c++\10.2.1\bits\stl_vector.h ****       /**
1235:c:\program files\daisytoolchain\arm-none-eabi\include\c++\10.2.1\bits\stl_vector.h ****        *  @brief  Inserts an object in %vector before specified iterator.
1236:c:\program files\daisytoolchain\arm-none-eabi\include\c++\10.2.1\bits\stl_vector.h ****        *  @param  __position  A const_iterator into the %vector.
1237:c:\program files\daisytoolchain\arm-none-eabi\include\c++\10.2.1\bits\stl_vector.h ****        *  @param  __args  Arguments.
1238:c:\program files\daisytoolchain\arm-none-eabi\include\c++\10.2.1\bits\stl_vector.h ****        *  @return  An iterator that points to the inserted data.
1239:c:\program files\daisytoolchain\arm-none-eabi\include\c++\10.2.1\bits\stl_vector.h ****        *
1240:c:\program files\daisytoolchain\arm-none-eabi\include\c++\10.2.1\bits\stl_vector.h ****        *  This function will insert an object of type T constructed
1241:c:\program files\daisytoolchain\arm-none-eabi\include\c++\10.2.1\bits\stl_vector.h ****        *  with T(std::forward<Args>(args)...) before the specified location.
1242:c:\program files\daisytoolchain\arm-none-eabi\include\c++\10.2.1\bits\stl_vector.h ****        *  Note that this kind of operation could be expensive for a %vector
1243:c:\program files\daisytoolchain\arm-none-eabi\include\c++\10.2.1\bits\stl_vector.h ****        *  and if it is frequently used the user should consider using
1244:c:\program files\daisytoolchain\arm-none-eabi\include\c++\10.2.1\bits\stl_vector.h ****        *  std::list.
1245:c:\program files\daisytoolchain\arm-none-eabi\include\c++\10.2.1\bits\stl_vector.h ****        */
1246:c:\program files\daisytoolchain\arm-none-eabi\include\c++\10.2.1\bits\stl_vector.h ****       template<typename... _Args>
1247:c:\program files\daisytoolchain\arm-none-eabi\include\c++\10.2.1\bits\stl_vector.h **** 	iterator
1248:c:\program files\daisytoolchain\arm-none-eabi\include\c++\10.2.1\bits\stl_vector.h **** 	emplace(const_iterator __position, _Args&&... __args)
1249:c:\program files\daisytoolchain\arm-none-eabi\include\c++\10.2.1\bits\stl_vector.h **** 	{ return _M_emplace_aux(__position, std::forward<_Args>(__args)...); }
1250:c:\program files\daisytoolchain\arm-none-eabi\include\c++\10.2.1\bits\stl_vector.h **** 
1251:c:\program files\daisytoolchain\arm-none-eabi\include\c++\10.2.1\bits\stl_vector.h ****       /**
1252:c:\program files\daisytoolchain\arm-none-eabi\include\c++\10.2.1\bits\stl_vector.h ****        *  @brief  Inserts given value into %vector before specified iterator.
1253:c:\program files\daisytoolchain\arm-none-eabi\include\c++\10.2.1\bits\stl_vector.h ****        *  @param  __position  A const_iterator into the %vector.
1254:c:\program files\daisytoolchain\arm-none-eabi\include\c++\10.2.1\bits\stl_vector.h ****        *  @param  __x  Data to be inserted.
1255:c:\program files\daisytoolchain\arm-none-eabi\include\c++\10.2.1\bits\stl_vector.h ****        *  @return  An iterator that points to the inserted data.
1256:c:\program files\daisytoolchain\arm-none-eabi\include\c++\10.2.1\bits\stl_vector.h ****        *
1257:c:\program files\daisytoolchain\arm-none-eabi\include\c++\10.2.1\bits\stl_vector.h ****        *  This function will insert a copy of the given value before
1258:c:\program files\daisytoolchain\arm-none-eabi\include\c++\10.2.1\bits\stl_vector.h ****        *  the specified location.  Note that this kind of operation
1259:c:\program files\daisytoolchain\arm-none-eabi\include\c++\10.2.1\bits\stl_vector.h ****        *  could be expensive for a %vector and if it is frequently
1260:c:\program files\daisytoolchain\arm-none-eabi\include\c++\10.2.1\bits\stl_vector.h ****        *  used the user should consider using std::list.
1261:c:\program files\daisytoolchain\arm-none-eabi\include\c++\10.2.1\bits\stl_vector.h ****        */
1262:c:\program files\daisytoolchain\arm-none-eabi\include\c++\10.2.1\bits\stl_vector.h ****       iterator
1263:c:\program files\daisytoolchain\arm-none-eabi\include\c++\10.2.1\bits\stl_vector.h ****       insert(const_iterator __position, const value_type& __x);
1264:c:\program files\daisytoolchain\arm-none-eabi\include\c++\10.2.1\bits\stl_vector.h **** #else
1265:c:\program files\daisytoolchain\arm-none-eabi\include\c++\10.2.1\bits\stl_vector.h ****       /**
1266:c:\program files\daisytoolchain\arm-none-eabi\include\c++\10.2.1\bits\stl_vector.h ****        *  @brief  Inserts given value into %vector before specified iterator.
1267:c:\program files\daisytoolchain\arm-none-eabi\include\c++\10.2.1\bits\stl_vector.h ****        *  @param  __position  An iterator into the %vector.
1268:c:\program files\daisytoolchain\arm-none-eabi\include\c++\10.2.1\bits\stl_vector.h ****        *  @param  __x  Data to be inserted.
1269:c:\program files\daisytoolchain\arm-none-eabi\include\c++\10.2.1\bits\stl_vector.h ****        *  @return  An iterator that points to the inserted data.
1270:c:\program files\daisytoolchain\arm-none-eabi\include\c++\10.2.1\bits\stl_vector.h ****        *
1271:c:\program files\daisytoolchain\arm-none-eabi\include\c++\10.2.1\bits\stl_vector.h ****        *  This function will insert a copy of the given value before
1272:c:\program files\daisytoolchain\arm-none-eabi\include\c++\10.2.1\bits\stl_vector.h ****        *  the specified location.  Note that this kind of operation
1273:c:\program files\daisytoolchain\arm-none-eabi\include\c++\10.2.1\bits\stl_vector.h ****        *  could be expensive for a %vector and if it is frequently
1274:c:\program files\daisytoolchain\arm-none-eabi\include\c++\10.2.1\bits\stl_vector.h ****        *  used the user should consider using std::list.
ARM GAS  C:\Users\samue\AppData\Local\Temp\cci865ja.s 			page 102


1275:c:\program files\daisytoolchain\arm-none-eabi\include\c++\10.2.1\bits\stl_vector.h ****        */
1276:c:\program files\daisytoolchain\arm-none-eabi\include\c++\10.2.1\bits\stl_vector.h ****       iterator
1277:c:\program files\daisytoolchain\arm-none-eabi\include\c++\10.2.1\bits\stl_vector.h ****       insert(iterator __position, const value_type& __x);
1278:c:\program files\daisytoolchain\arm-none-eabi\include\c++\10.2.1\bits\stl_vector.h **** #endif
1279:c:\program files\daisytoolchain\arm-none-eabi\include\c++\10.2.1\bits\stl_vector.h **** 
1280:c:\program files\daisytoolchain\arm-none-eabi\include\c++\10.2.1\bits\stl_vector.h **** #if __cplusplus >= 201103L
1281:c:\program files\daisytoolchain\arm-none-eabi\include\c++\10.2.1\bits\stl_vector.h ****       /**
1282:c:\program files\daisytoolchain\arm-none-eabi\include\c++\10.2.1\bits\stl_vector.h ****        *  @brief  Inserts given rvalue into %vector before specified iterator.
1283:c:\program files\daisytoolchain\arm-none-eabi\include\c++\10.2.1\bits\stl_vector.h ****        *  @param  __position  A const_iterator into the %vector.
1284:c:\program files\daisytoolchain\arm-none-eabi\include\c++\10.2.1\bits\stl_vector.h ****        *  @param  __x  Data to be inserted.
1285:c:\program files\daisytoolchain\arm-none-eabi\include\c++\10.2.1\bits\stl_vector.h ****        *  @return  An iterator that points to the inserted data.
1286:c:\program files\daisytoolchain\arm-none-eabi\include\c++\10.2.1\bits\stl_vector.h ****        *
1287:c:\program files\daisytoolchain\arm-none-eabi\include\c++\10.2.1\bits\stl_vector.h ****        *  This function will insert a copy of the given rvalue before
1288:c:\program files\daisytoolchain\arm-none-eabi\include\c++\10.2.1\bits\stl_vector.h ****        *  the specified location.  Note that this kind of operation
1289:c:\program files\daisytoolchain\arm-none-eabi\include\c++\10.2.1\bits\stl_vector.h ****        *  could be expensive for a %vector and if it is frequently
1290:c:\program files\daisytoolchain\arm-none-eabi\include\c++\10.2.1\bits\stl_vector.h ****        *  used the user should consider using std::list.
1291:c:\program files\daisytoolchain\arm-none-eabi\include\c++\10.2.1\bits\stl_vector.h ****        */
1292:c:\program files\daisytoolchain\arm-none-eabi\include\c++\10.2.1\bits\stl_vector.h ****       iterator
1293:c:\program files\daisytoolchain\arm-none-eabi\include\c++\10.2.1\bits\stl_vector.h ****       insert(const_iterator __position, value_type&& __x)
1294:c:\program files\daisytoolchain\arm-none-eabi\include\c++\10.2.1\bits\stl_vector.h ****       { return _M_insert_rval(__position, std::move(__x)); }
1295:c:\program files\daisytoolchain\arm-none-eabi\include\c++\10.2.1\bits\stl_vector.h **** 
1296:c:\program files\daisytoolchain\arm-none-eabi\include\c++\10.2.1\bits\stl_vector.h ****       /**
1297:c:\program files\daisytoolchain\arm-none-eabi\include\c++\10.2.1\bits\stl_vector.h ****        *  @brief  Inserts an initializer_list into the %vector.
1298:c:\program files\daisytoolchain\arm-none-eabi\include\c++\10.2.1\bits\stl_vector.h ****        *  @param  __position  An iterator into the %vector.
1299:c:\program files\daisytoolchain\arm-none-eabi\include\c++\10.2.1\bits\stl_vector.h ****        *  @param  __l  An initializer_list.
1300:c:\program files\daisytoolchain\arm-none-eabi\include\c++\10.2.1\bits\stl_vector.h ****        *
1301:c:\program files\daisytoolchain\arm-none-eabi\include\c++\10.2.1\bits\stl_vector.h ****        *  This function will insert copies of the data in the
1302:c:\program files\daisytoolchain\arm-none-eabi\include\c++\10.2.1\bits\stl_vector.h ****        *  initializer_list @a l into the %vector before the location
1303:c:\program files\daisytoolchain\arm-none-eabi\include\c++\10.2.1\bits\stl_vector.h ****        *  specified by @a position.
1304:c:\program files\daisytoolchain\arm-none-eabi\include\c++\10.2.1\bits\stl_vector.h ****        *
1305:c:\program files\daisytoolchain\arm-none-eabi\include\c++\10.2.1\bits\stl_vector.h ****        *  Note that this kind of operation could be expensive for a
1306:c:\program files\daisytoolchain\arm-none-eabi\include\c++\10.2.1\bits\stl_vector.h ****        *  %vector and if it is frequently used the user should
1307:c:\program files\daisytoolchain\arm-none-eabi\include\c++\10.2.1\bits\stl_vector.h ****        *  consider using std::list.
1308:c:\program files\daisytoolchain\arm-none-eabi\include\c++\10.2.1\bits\stl_vector.h ****        */
1309:c:\program files\daisytoolchain\arm-none-eabi\include\c++\10.2.1\bits\stl_vector.h ****       iterator
1310:c:\program files\daisytoolchain\arm-none-eabi\include\c++\10.2.1\bits\stl_vector.h ****       insert(const_iterator __position, initializer_list<value_type> __l)
1311:c:\program files\daisytoolchain\arm-none-eabi\include\c++\10.2.1\bits\stl_vector.h ****       {
1312:c:\program files\daisytoolchain\arm-none-eabi\include\c++\10.2.1\bits\stl_vector.h **** 	auto __offset = __position - cbegin();
1313:c:\program files\daisytoolchain\arm-none-eabi\include\c++\10.2.1\bits\stl_vector.h **** 	_M_range_insert(begin() + __offset, __l.begin(), __l.end(),
1314:c:\program files\daisytoolchain\arm-none-eabi\include\c++\10.2.1\bits\stl_vector.h **** 			std::random_access_iterator_tag());
1315:c:\program files\daisytoolchain\arm-none-eabi\include\c++\10.2.1\bits\stl_vector.h **** 	return begin() + __offset;
1316:c:\program files\daisytoolchain\arm-none-eabi\include\c++\10.2.1\bits\stl_vector.h ****       }
1317:c:\program files\daisytoolchain\arm-none-eabi\include\c++\10.2.1\bits\stl_vector.h **** #endif
1318:c:\program files\daisytoolchain\arm-none-eabi\include\c++\10.2.1\bits\stl_vector.h **** 
1319:c:\program files\daisytoolchain\arm-none-eabi\include\c++\10.2.1\bits\stl_vector.h **** #if __cplusplus >= 201103L
1320:c:\program files\daisytoolchain\arm-none-eabi\include\c++\10.2.1\bits\stl_vector.h ****       /**
1321:c:\program files\daisytoolchain\arm-none-eabi\include\c++\10.2.1\bits\stl_vector.h ****        *  @brief  Inserts a number of copies of given data into the %vector.
1322:c:\program files\daisytoolchain\arm-none-eabi\include\c++\10.2.1\bits\stl_vector.h ****        *  @param  __position  A const_iterator into the %vector.
1323:c:\program files\daisytoolchain\arm-none-eabi\include\c++\10.2.1\bits\stl_vector.h ****        *  @param  __n  Number of elements to be inserted.
1324:c:\program files\daisytoolchain\arm-none-eabi\include\c++\10.2.1\bits\stl_vector.h ****        *  @param  __x  Data to be inserted.
1325:c:\program files\daisytoolchain\arm-none-eabi\include\c++\10.2.1\bits\stl_vector.h ****        *  @return  An iterator that points to the inserted data.
1326:c:\program files\daisytoolchain\arm-none-eabi\include\c++\10.2.1\bits\stl_vector.h ****        *
1327:c:\program files\daisytoolchain\arm-none-eabi\include\c++\10.2.1\bits\stl_vector.h ****        *  This function will insert a specified number of copies of
1328:c:\program files\daisytoolchain\arm-none-eabi\include\c++\10.2.1\bits\stl_vector.h ****        *  the given data before the location specified by @a position.
1329:c:\program files\daisytoolchain\arm-none-eabi\include\c++\10.2.1\bits\stl_vector.h ****        *
1330:c:\program files\daisytoolchain\arm-none-eabi\include\c++\10.2.1\bits\stl_vector.h ****        *  Note that this kind of operation could be expensive for a
1331:c:\program files\daisytoolchain\arm-none-eabi\include\c++\10.2.1\bits\stl_vector.h ****        *  %vector and if it is frequently used the user should
ARM GAS  C:\Users\samue\AppData\Local\Temp\cci865ja.s 			page 103


1332:c:\program files\daisytoolchain\arm-none-eabi\include\c++\10.2.1\bits\stl_vector.h ****        *  consider using std::list.
1333:c:\program files\daisytoolchain\arm-none-eabi\include\c++\10.2.1\bits\stl_vector.h ****        */
1334:c:\program files\daisytoolchain\arm-none-eabi\include\c++\10.2.1\bits\stl_vector.h ****       iterator
1335:c:\program files\daisytoolchain\arm-none-eabi\include\c++\10.2.1\bits\stl_vector.h ****       insert(const_iterator __position, size_type __n, const value_type& __x)
1336:c:\program files\daisytoolchain\arm-none-eabi\include\c++\10.2.1\bits\stl_vector.h ****       {
1337:c:\program files\daisytoolchain\arm-none-eabi\include\c++\10.2.1\bits\stl_vector.h **** 	difference_type __offset = __position - cbegin();
1338:c:\program files\daisytoolchain\arm-none-eabi\include\c++\10.2.1\bits\stl_vector.h **** 	_M_fill_insert(begin() + __offset, __n, __x);
1339:c:\program files\daisytoolchain\arm-none-eabi\include\c++\10.2.1\bits\stl_vector.h **** 	return begin() + __offset;
1340:c:\program files\daisytoolchain\arm-none-eabi\include\c++\10.2.1\bits\stl_vector.h ****       }
1341:c:\program files\daisytoolchain\arm-none-eabi\include\c++\10.2.1\bits\stl_vector.h **** #else
1342:c:\program files\daisytoolchain\arm-none-eabi\include\c++\10.2.1\bits\stl_vector.h ****       /**
1343:c:\program files\daisytoolchain\arm-none-eabi\include\c++\10.2.1\bits\stl_vector.h ****        *  @brief  Inserts a number of copies of given data into the %vector.
1344:c:\program files\daisytoolchain\arm-none-eabi\include\c++\10.2.1\bits\stl_vector.h ****        *  @param  __position  An iterator into the %vector.
1345:c:\program files\daisytoolchain\arm-none-eabi\include\c++\10.2.1\bits\stl_vector.h ****        *  @param  __n  Number of elements to be inserted.
1346:c:\program files\daisytoolchain\arm-none-eabi\include\c++\10.2.1\bits\stl_vector.h ****        *  @param  __x  Data to be inserted.
1347:c:\program files\daisytoolchain\arm-none-eabi\include\c++\10.2.1\bits\stl_vector.h ****        *
1348:c:\program files\daisytoolchain\arm-none-eabi\include\c++\10.2.1\bits\stl_vector.h ****        *  This function will insert a specified number of copies of
1349:c:\program files\daisytoolchain\arm-none-eabi\include\c++\10.2.1\bits\stl_vector.h ****        *  the given data before the location specified by @a position.
1350:c:\program files\daisytoolchain\arm-none-eabi\include\c++\10.2.1\bits\stl_vector.h ****        *
1351:c:\program files\daisytoolchain\arm-none-eabi\include\c++\10.2.1\bits\stl_vector.h ****        *  Note that this kind of operation could be expensive for a
1352:c:\program files\daisytoolchain\arm-none-eabi\include\c++\10.2.1\bits\stl_vector.h ****        *  %vector and if it is frequently used the user should
1353:c:\program files\daisytoolchain\arm-none-eabi\include\c++\10.2.1\bits\stl_vector.h ****        *  consider using std::list.
1354:c:\program files\daisytoolchain\arm-none-eabi\include\c++\10.2.1\bits\stl_vector.h ****        */
1355:c:\program files\daisytoolchain\arm-none-eabi\include\c++\10.2.1\bits\stl_vector.h ****       void
1356:c:\program files\daisytoolchain\arm-none-eabi\include\c++\10.2.1\bits\stl_vector.h ****       insert(iterator __position, size_type __n, const value_type& __x)
1357:c:\program files\daisytoolchain\arm-none-eabi\include\c++\10.2.1\bits\stl_vector.h ****       { _M_fill_insert(__position, __n, __x); }
1358:c:\program files\daisytoolchain\arm-none-eabi\include\c++\10.2.1\bits\stl_vector.h **** #endif
1359:c:\program files\daisytoolchain\arm-none-eabi\include\c++\10.2.1\bits\stl_vector.h **** 
1360:c:\program files\daisytoolchain\arm-none-eabi\include\c++\10.2.1\bits\stl_vector.h **** #if __cplusplus >= 201103L
1361:c:\program files\daisytoolchain\arm-none-eabi\include\c++\10.2.1\bits\stl_vector.h ****       /**
1362:c:\program files\daisytoolchain\arm-none-eabi\include\c++\10.2.1\bits\stl_vector.h ****        *  @brief  Inserts a range into the %vector.
1363:c:\program files\daisytoolchain\arm-none-eabi\include\c++\10.2.1\bits\stl_vector.h ****        *  @param  __position  A const_iterator into the %vector.
1364:c:\program files\daisytoolchain\arm-none-eabi\include\c++\10.2.1\bits\stl_vector.h ****        *  @param  __first  An input iterator.
1365:c:\program files\daisytoolchain\arm-none-eabi\include\c++\10.2.1\bits\stl_vector.h ****        *  @param  __last   An input iterator.
1366:c:\program files\daisytoolchain\arm-none-eabi\include\c++\10.2.1\bits\stl_vector.h ****        *  @return  An iterator that points to the inserted data.
1367:c:\program files\daisytoolchain\arm-none-eabi\include\c++\10.2.1\bits\stl_vector.h ****        *
1368:c:\program files\daisytoolchain\arm-none-eabi\include\c++\10.2.1\bits\stl_vector.h ****        *  This function will insert copies of the data in the range
1369:c:\program files\daisytoolchain\arm-none-eabi\include\c++\10.2.1\bits\stl_vector.h ****        *  [__first,__last) into the %vector before the location specified
1370:c:\program files\daisytoolchain\arm-none-eabi\include\c++\10.2.1\bits\stl_vector.h ****        *  by @a pos.
1371:c:\program files\daisytoolchain\arm-none-eabi\include\c++\10.2.1\bits\stl_vector.h ****        *
1372:c:\program files\daisytoolchain\arm-none-eabi\include\c++\10.2.1\bits\stl_vector.h ****        *  Note that this kind of operation could be expensive for a
1373:c:\program files\daisytoolchain\arm-none-eabi\include\c++\10.2.1\bits\stl_vector.h ****        *  %vector and if it is frequently used the user should
1374:c:\program files\daisytoolchain\arm-none-eabi\include\c++\10.2.1\bits\stl_vector.h ****        *  consider using std::list.
1375:c:\program files\daisytoolchain\arm-none-eabi\include\c++\10.2.1\bits\stl_vector.h ****        */
1376:c:\program files\daisytoolchain\arm-none-eabi\include\c++\10.2.1\bits\stl_vector.h ****       template<typename _InputIterator,
1377:c:\program files\daisytoolchain\arm-none-eabi\include\c++\10.2.1\bits\stl_vector.h **** 	       typename = std::_RequireInputIter<_InputIterator>>
1378:c:\program files\daisytoolchain\arm-none-eabi\include\c++\10.2.1\bits\stl_vector.h **** 	iterator
1379:c:\program files\daisytoolchain\arm-none-eabi\include\c++\10.2.1\bits\stl_vector.h **** 	insert(const_iterator __position, _InputIterator __first,
1380:c:\program files\daisytoolchain\arm-none-eabi\include\c++\10.2.1\bits\stl_vector.h **** 	       _InputIterator __last)
1381:c:\program files\daisytoolchain\arm-none-eabi\include\c++\10.2.1\bits\stl_vector.h **** 	{
1382:c:\program files\daisytoolchain\arm-none-eabi\include\c++\10.2.1\bits\stl_vector.h **** 	  difference_type __offset = __position - cbegin();
1383:c:\program files\daisytoolchain\arm-none-eabi\include\c++\10.2.1\bits\stl_vector.h **** 	  _M_insert_dispatch(begin() + __offset,
1384:c:\program files\daisytoolchain\arm-none-eabi\include\c++\10.2.1\bits\stl_vector.h **** 			     __first, __last, __false_type());
1385:c:\program files\daisytoolchain\arm-none-eabi\include\c++\10.2.1\bits\stl_vector.h **** 	  return begin() + __offset;
1386:c:\program files\daisytoolchain\arm-none-eabi\include\c++\10.2.1\bits\stl_vector.h **** 	}
1387:c:\program files\daisytoolchain\arm-none-eabi\include\c++\10.2.1\bits\stl_vector.h **** #else
1388:c:\program files\daisytoolchain\arm-none-eabi\include\c++\10.2.1\bits\stl_vector.h ****       /**
ARM GAS  C:\Users\samue\AppData\Local\Temp\cci865ja.s 			page 104


1389:c:\program files\daisytoolchain\arm-none-eabi\include\c++\10.2.1\bits\stl_vector.h ****        *  @brief  Inserts a range into the %vector.
1390:c:\program files\daisytoolchain\arm-none-eabi\include\c++\10.2.1\bits\stl_vector.h ****        *  @param  __position  An iterator into the %vector.
1391:c:\program files\daisytoolchain\arm-none-eabi\include\c++\10.2.1\bits\stl_vector.h ****        *  @param  __first  An input iterator.
1392:c:\program files\daisytoolchain\arm-none-eabi\include\c++\10.2.1\bits\stl_vector.h ****        *  @param  __last   An input iterator.
1393:c:\program files\daisytoolchain\arm-none-eabi\include\c++\10.2.1\bits\stl_vector.h ****        *
1394:c:\program files\daisytoolchain\arm-none-eabi\include\c++\10.2.1\bits\stl_vector.h ****        *  This function will insert copies of the data in the range
1395:c:\program files\daisytoolchain\arm-none-eabi\include\c++\10.2.1\bits\stl_vector.h ****        *  [__first,__last) into the %vector before the location specified
1396:c:\program files\daisytoolchain\arm-none-eabi\include\c++\10.2.1\bits\stl_vector.h ****        *  by @a pos.
1397:c:\program files\daisytoolchain\arm-none-eabi\include\c++\10.2.1\bits\stl_vector.h ****        *
1398:c:\program files\daisytoolchain\arm-none-eabi\include\c++\10.2.1\bits\stl_vector.h ****        *  Note that this kind of operation could be expensive for a
1399:c:\program files\daisytoolchain\arm-none-eabi\include\c++\10.2.1\bits\stl_vector.h ****        *  %vector and if it is frequently used the user should
1400:c:\program files\daisytoolchain\arm-none-eabi\include\c++\10.2.1\bits\stl_vector.h ****        *  consider using std::list.
1401:c:\program files\daisytoolchain\arm-none-eabi\include\c++\10.2.1\bits\stl_vector.h ****        */
1402:c:\program files\daisytoolchain\arm-none-eabi\include\c++\10.2.1\bits\stl_vector.h ****       template<typename _InputIterator>
1403:c:\program files\daisytoolchain\arm-none-eabi\include\c++\10.2.1\bits\stl_vector.h **** 	void
1404:c:\program files\daisytoolchain\arm-none-eabi\include\c++\10.2.1\bits\stl_vector.h **** 	insert(iterator __position, _InputIterator __first,
1405:c:\program files\daisytoolchain\arm-none-eabi\include\c++\10.2.1\bits\stl_vector.h **** 	       _InputIterator __last)
1406:c:\program files\daisytoolchain\arm-none-eabi\include\c++\10.2.1\bits\stl_vector.h **** 	{
1407:c:\program files\daisytoolchain\arm-none-eabi\include\c++\10.2.1\bits\stl_vector.h **** 	  // Check whether it's an integral type.  If so, it's not an iterator.
1408:c:\program files\daisytoolchain\arm-none-eabi\include\c++\10.2.1\bits\stl_vector.h **** 	  typedef typename std::__is_integer<_InputIterator>::__type _Integral;
1409:c:\program files\daisytoolchain\arm-none-eabi\include\c++\10.2.1\bits\stl_vector.h **** 	  _M_insert_dispatch(__position, __first, __last, _Integral());
1410:c:\program files\daisytoolchain\arm-none-eabi\include\c++\10.2.1\bits\stl_vector.h **** 	}
1411:c:\program files\daisytoolchain\arm-none-eabi\include\c++\10.2.1\bits\stl_vector.h **** #endif
1412:c:\program files\daisytoolchain\arm-none-eabi\include\c++\10.2.1\bits\stl_vector.h **** 
1413:c:\program files\daisytoolchain\arm-none-eabi\include\c++\10.2.1\bits\stl_vector.h ****       /**
1414:c:\program files\daisytoolchain\arm-none-eabi\include\c++\10.2.1\bits\stl_vector.h ****        *  @brief  Remove element at given position.
1415:c:\program files\daisytoolchain\arm-none-eabi\include\c++\10.2.1\bits\stl_vector.h ****        *  @param  __position  Iterator pointing to element to be erased.
1416:c:\program files\daisytoolchain\arm-none-eabi\include\c++\10.2.1\bits\stl_vector.h ****        *  @return  An iterator pointing to the next element (or end()).
1417:c:\program files\daisytoolchain\arm-none-eabi\include\c++\10.2.1\bits\stl_vector.h ****        *
1418:c:\program files\daisytoolchain\arm-none-eabi\include\c++\10.2.1\bits\stl_vector.h ****        *  This function will erase the element at the given position and thus
1419:c:\program files\daisytoolchain\arm-none-eabi\include\c++\10.2.1\bits\stl_vector.h ****        *  shorten the %vector by one.
1420:c:\program files\daisytoolchain\arm-none-eabi\include\c++\10.2.1\bits\stl_vector.h ****        *
1421:c:\program files\daisytoolchain\arm-none-eabi\include\c++\10.2.1\bits\stl_vector.h ****        *  Note This operation could be expensive and if it is
1422:c:\program files\daisytoolchain\arm-none-eabi\include\c++\10.2.1\bits\stl_vector.h ****        *  frequently used the user should consider using std::list.
1423:c:\program files\daisytoolchain\arm-none-eabi\include\c++\10.2.1\bits\stl_vector.h ****        *  The user is also cautioned that this function only erases
1424:c:\program files\daisytoolchain\arm-none-eabi\include\c++\10.2.1\bits\stl_vector.h ****        *  the element, and that if the element is itself a pointer,
1425:c:\program files\daisytoolchain\arm-none-eabi\include\c++\10.2.1\bits\stl_vector.h ****        *  the pointed-to memory is not touched in any way.  Managing
1426:c:\program files\daisytoolchain\arm-none-eabi\include\c++\10.2.1\bits\stl_vector.h ****        *  the pointer is the user's responsibility.
1427:c:\program files\daisytoolchain\arm-none-eabi\include\c++\10.2.1\bits\stl_vector.h ****        */
1428:c:\program files\daisytoolchain\arm-none-eabi\include\c++\10.2.1\bits\stl_vector.h ****       iterator
1429:c:\program files\daisytoolchain\arm-none-eabi\include\c++\10.2.1\bits\stl_vector.h **** #if __cplusplus >= 201103L
1430:c:\program files\daisytoolchain\arm-none-eabi\include\c++\10.2.1\bits\stl_vector.h ****       erase(const_iterator __position)
1431:c:\program files\daisytoolchain\arm-none-eabi\include\c++\10.2.1\bits\stl_vector.h ****       { return _M_erase(begin() + (__position - cbegin())); }
1432:c:\program files\daisytoolchain\arm-none-eabi\include\c++\10.2.1\bits\stl_vector.h **** #else
1433:c:\program files\daisytoolchain\arm-none-eabi\include\c++\10.2.1\bits\stl_vector.h ****       erase(iterator __position)
1434:c:\program files\daisytoolchain\arm-none-eabi\include\c++\10.2.1\bits\stl_vector.h ****       { return _M_erase(__position); }
1435:c:\program files\daisytoolchain\arm-none-eabi\include\c++\10.2.1\bits\stl_vector.h **** #endif
1436:c:\program files\daisytoolchain\arm-none-eabi\include\c++\10.2.1\bits\stl_vector.h **** 
1437:c:\program files\daisytoolchain\arm-none-eabi\include\c++\10.2.1\bits\stl_vector.h ****       /**
1438:c:\program files\daisytoolchain\arm-none-eabi\include\c++\10.2.1\bits\stl_vector.h ****        *  @brief  Remove a range of elements.
1439:c:\program files\daisytoolchain\arm-none-eabi\include\c++\10.2.1\bits\stl_vector.h ****        *  @param  __first  Iterator pointing to the first element to be erased.
1440:c:\program files\daisytoolchain\arm-none-eabi\include\c++\10.2.1\bits\stl_vector.h ****        *  @param  __last  Iterator pointing to one past the last element to be
1441:c:\program files\daisytoolchain\arm-none-eabi\include\c++\10.2.1\bits\stl_vector.h ****        *                  erased.
1442:c:\program files\daisytoolchain\arm-none-eabi\include\c++\10.2.1\bits\stl_vector.h ****        *  @return  An iterator pointing to the element pointed to by @a __last
1443:c:\program files\daisytoolchain\arm-none-eabi\include\c++\10.2.1\bits\stl_vector.h ****        *           prior to erasing (or end()).
1444:c:\program files\daisytoolchain\arm-none-eabi\include\c++\10.2.1\bits\stl_vector.h ****        *
1445:c:\program files\daisytoolchain\arm-none-eabi\include\c++\10.2.1\bits\stl_vector.h ****        *  This function will erase the elements in the range
ARM GAS  C:\Users\samue\AppData\Local\Temp\cci865ja.s 			page 105


1446:c:\program files\daisytoolchain\arm-none-eabi\include\c++\10.2.1\bits\stl_vector.h ****        *  [__first,__last) and shorten the %vector accordingly.
1447:c:\program files\daisytoolchain\arm-none-eabi\include\c++\10.2.1\bits\stl_vector.h ****        *
1448:c:\program files\daisytoolchain\arm-none-eabi\include\c++\10.2.1\bits\stl_vector.h ****        *  Note This operation could be expensive and if it is
1449:c:\program files\daisytoolchain\arm-none-eabi\include\c++\10.2.1\bits\stl_vector.h ****        *  frequently used the user should consider using std::list.
1450:c:\program files\daisytoolchain\arm-none-eabi\include\c++\10.2.1\bits\stl_vector.h ****        *  The user is also cautioned that this function only erases
1451:c:\program files\daisytoolchain\arm-none-eabi\include\c++\10.2.1\bits\stl_vector.h ****        *  the elements, and that if the elements themselves are
1452:c:\program files\daisytoolchain\arm-none-eabi\include\c++\10.2.1\bits\stl_vector.h ****        *  pointers, the pointed-to memory is not touched in any way.
1453:c:\program files\daisytoolchain\arm-none-eabi\include\c++\10.2.1\bits\stl_vector.h ****        *  Managing the pointer is the user's responsibility.
1454:c:\program files\daisytoolchain\arm-none-eabi\include\c++\10.2.1\bits\stl_vector.h ****        */
1455:c:\program files\daisytoolchain\arm-none-eabi\include\c++\10.2.1\bits\stl_vector.h ****       iterator
1456:c:\program files\daisytoolchain\arm-none-eabi\include\c++\10.2.1\bits\stl_vector.h **** #if __cplusplus >= 201103L
1457:c:\program files\daisytoolchain\arm-none-eabi\include\c++\10.2.1\bits\stl_vector.h ****       erase(const_iterator __first, const_iterator __last)
1458:c:\program files\daisytoolchain\arm-none-eabi\include\c++\10.2.1\bits\stl_vector.h ****       {
1459:c:\program files\daisytoolchain\arm-none-eabi\include\c++\10.2.1\bits\stl_vector.h **** 	const auto __beg = begin();
1460:c:\program files\daisytoolchain\arm-none-eabi\include\c++\10.2.1\bits\stl_vector.h **** 	const auto __cbeg = cbegin();
1461:c:\program files\daisytoolchain\arm-none-eabi\include\c++\10.2.1\bits\stl_vector.h **** 	return _M_erase(__beg + (__first - __cbeg), __beg + (__last - __cbeg));
1462:c:\program files\daisytoolchain\arm-none-eabi\include\c++\10.2.1\bits\stl_vector.h ****       }
1463:c:\program files\daisytoolchain\arm-none-eabi\include\c++\10.2.1\bits\stl_vector.h **** #else
1464:c:\program files\daisytoolchain\arm-none-eabi\include\c++\10.2.1\bits\stl_vector.h ****       erase(iterator __first, iterator __last)
1465:c:\program files\daisytoolchain\arm-none-eabi\include\c++\10.2.1\bits\stl_vector.h ****       { return _M_erase(__first, __last); }
1466:c:\program files\daisytoolchain\arm-none-eabi\include\c++\10.2.1\bits\stl_vector.h **** #endif
1467:c:\program files\daisytoolchain\arm-none-eabi\include\c++\10.2.1\bits\stl_vector.h **** 
1468:c:\program files\daisytoolchain\arm-none-eabi\include\c++\10.2.1\bits\stl_vector.h ****       /**
1469:c:\program files\daisytoolchain\arm-none-eabi\include\c++\10.2.1\bits\stl_vector.h ****        *  @brief  Swaps data with another %vector.
1470:c:\program files\daisytoolchain\arm-none-eabi\include\c++\10.2.1\bits\stl_vector.h ****        *  @param  __x  A %vector of the same element and allocator types.
1471:c:\program files\daisytoolchain\arm-none-eabi\include\c++\10.2.1\bits\stl_vector.h ****        *
1472:c:\program files\daisytoolchain\arm-none-eabi\include\c++\10.2.1\bits\stl_vector.h ****        *  This exchanges the elements between two vectors in constant time.
1473:c:\program files\daisytoolchain\arm-none-eabi\include\c++\10.2.1\bits\stl_vector.h ****        *  (Three pointers, so it should be quite fast.)
1474:c:\program files\daisytoolchain\arm-none-eabi\include\c++\10.2.1\bits\stl_vector.h ****        *  Note that the global std::swap() function is specialized such that
1475:c:\program files\daisytoolchain\arm-none-eabi\include\c++\10.2.1\bits\stl_vector.h ****        *  std::swap(v1,v2) will feed to this function.
1476:c:\program files\daisytoolchain\arm-none-eabi\include\c++\10.2.1\bits\stl_vector.h ****        *
1477:c:\program files\daisytoolchain\arm-none-eabi\include\c++\10.2.1\bits\stl_vector.h ****        *  Whether the allocators are swapped depends on the allocator traits.
1478:c:\program files\daisytoolchain\arm-none-eabi\include\c++\10.2.1\bits\stl_vector.h ****        */
1479:c:\program files\daisytoolchain\arm-none-eabi\include\c++\10.2.1\bits\stl_vector.h ****       void
1480:c:\program files\daisytoolchain\arm-none-eabi\include\c++\10.2.1\bits\stl_vector.h ****       swap(vector& __x) _GLIBCXX_NOEXCEPT
1481:c:\program files\daisytoolchain\arm-none-eabi\include\c++\10.2.1\bits\stl_vector.h ****       {
1482:c:\program files\daisytoolchain\arm-none-eabi\include\c++\10.2.1\bits\stl_vector.h **** #if __cplusplus >= 201103L
1483:c:\program files\daisytoolchain\arm-none-eabi\include\c++\10.2.1\bits\stl_vector.h **** 	__glibcxx_assert(_Alloc_traits::propagate_on_container_swap::value
1484:c:\program files\daisytoolchain\arm-none-eabi\include\c++\10.2.1\bits\stl_vector.h **** 			 || _M_get_Tp_allocator() == __x._M_get_Tp_allocator());
1485:c:\program files\daisytoolchain\arm-none-eabi\include\c++\10.2.1\bits\stl_vector.h **** #endif
1486:c:\program files\daisytoolchain\arm-none-eabi\include\c++\10.2.1\bits\stl_vector.h **** 	this->_M_impl._M_swap_data(__x._M_impl);
1487:c:\program files\daisytoolchain\arm-none-eabi\include\c++\10.2.1\bits\stl_vector.h **** 	_Alloc_traits::_S_on_swap(_M_get_Tp_allocator(),
1488:c:\program files\daisytoolchain\arm-none-eabi\include\c++\10.2.1\bits\stl_vector.h **** 				  __x._M_get_Tp_allocator());
1489:c:\program files\daisytoolchain\arm-none-eabi\include\c++\10.2.1\bits\stl_vector.h ****       }
1490:c:\program files\daisytoolchain\arm-none-eabi\include\c++\10.2.1\bits\stl_vector.h **** 
1491:c:\program files\daisytoolchain\arm-none-eabi\include\c++\10.2.1\bits\stl_vector.h ****       /**
1492:c:\program files\daisytoolchain\arm-none-eabi\include\c++\10.2.1\bits\stl_vector.h ****        *  Erases all the elements.  Note that this function only erases the
1493:c:\program files\daisytoolchain\arm-none-eabi\include\c++\10.2.1\bits\stl_vector.h ****        *  elements, and that if the elements themselves are pointers, the
1494:c:\program files\daisytoolchain\arm-none-eabi\include\c++\10.2.1\bits\stl_vector.h ****        *  pointed-to memory is not touched in any way.  Managing the pointer is
1495:c:\program files\daisytoolchain\arm-none-eabi\include\c++\10.2.1\bits\stl_vector.h ****        *  the user's responsibility.
1496:c:\program files\daisytoolchain\arm-none-eabi\include\c++\10.2.1\bits\stl_vector.h ****        */
1497:c:\program files\daisytoolchain\arm-none-eabi\include\c++\10.2.1\bits\stl_vector.h ****       void
1498:c:\program files\daisytoolchain\arm-none-eabi\include\c++\10.2.1\bits\stl_vector.h ****       clear() _GLIBCXX_NOEXCEPT
1499:c:\program files\daisytoolchain\arm-none-eabi\include\c++\10.2.1\bits\stl_vector.h ****       { _M_erase_at_end(this->_M_impl._M_start); }
1500:c:\program files\daisytoolchain\arm-none-eabi\include\c++\10.2.1\bits\stl_vector.h **** 
1501:c:\program files\daisytoolchain\arm-none-eabi\include\c++\10.2.1\bits\stl_vector.h ****     protected:
1502:c:\program files\daisytoolchain\arm-none-eabi\include\c++\10.2.1\bits\stl_vector.h ****       /**
ARM GAS  C:\Users\samue\AppData\Local\Temp\cci865ja.s 			page 106


1503:c:\program files\daisytoolchain\arm-none-eabi\include\c++\10.2.1\bits\stl_vector.h ****        *  Memory expansion handler.  Uses the member allocation function to
1504:c:\program files\daisytoolchain\arm-none-eabi\include\c++\10.2.1\bits\stl_vector.h ****        *  obtain @a n bytes of memory, and then copies [first,last) into it.
1505:c:\program files\daisytoolchain\arm-none-eabi\include\c++\10.2.1\bits\stl_vector.h ****        */
1506:c:\program files\daisytoolchain\arm-none-eabi\include\c++\10.2.1\bits\stl_vector.h ****       template<typename _ForwardIterator>
1507:c:\program files\daisytoolchain\arm-none-eabi\include\c++\10.2.1\bits\stl_vector.h **** 	pointer
1508:c:\program files\daisytoolchain\arm-none-eabi\include\c++\10.2.1\bits\stl_vector.h **** 	_M_allocate_and_copy(size_type __n,
1509:c:\program files\daisytoolchain\arm-none-eabi\include\c++\10.2.1\bits\stl_vector.h **** 			     _ForwardIterator __first, _ForwardIterator __last)
1510:c:\program files\daisytoolchain\arm-none-eabi\include\c++\10.2.1\bits\stl_vector.h **** 	{
1511:c:\program files\daisytoolchain\arm-none-eabi\include\c++\10.2.1\bits\stl_vector.h **** 	  pointer __result = this->_M_allocate(__n);
1512:c:\program files\daisytoolchain\arm-none-eabi\include\c++\10.2.1\bits\stl_vector.h **** 	  __try
1513:c:\program files\daisytoolchain\arm-none-eabi\include\c++\10.2.1\bits\stl_vector.h **** 	    {
1514:c:\program files\daisytoolchain\arm-none-eabi\include\c++\10.2.1\bits\stl_vector.h **** 	      std::__uninitialized_copy_a(__first, __last, __result,
1515:c:\program files\daisytoolchain\arm-none-eabi\include\c++\10.2.1\bits\stl_vector.h **** 					  _M_get_Tp_allocator());
1516:c:\program files\daisytoolchain\arm-none-eabi\include\c++\10.2.1\bits\stl_vector.h **** 	      return __result;
1517:c:\program files\daisytoolchain\arm-none-eabi\include\c++\10.2.1\bits\stl_vector.h **** 	    }
1518:c:\program files\daisytoolchain\arm-none-eabi\include\c++\10.2.1\bits\stl_vector.h **** 	  __catch(...)
1519:c:\program files\daisytoolchain\arm-none-eabi\include\c++\10.2.1\bits\stl_vector.h **** 	    {
1520:c:\program files\daisytoolchain\arm-none-eabi\include\c++\10.2.1\bits\stl_vector.h **** 	      _M_deallocate(__result, __n);
1521:c:\program files\daisytoolchain\arm-none-eabi\include\c++\10.2.1\bits\stl_vector.h **** 	      __throw_exception_again;
1522:c:\program files\daisytoolchain\arm-none-eabi\include\c++\10.2.1\bits\stl_vector.h **** 	    }
1523:c:\program files\daisytoolchain\arm-none-eabi\include\c++\10.2.1\bits\stl_vector.h **** 	}
1524:c:\program files\daisytoolchain\arm-none-eabi\include\c++\10.2.1\bits\stl_vector.h **** 
1525:c:\program files\daisytoolchain\arm-none-eabi\include\c++\10.2.1\bits\stl_vector.h **** 
1526:c:\program files\daisytoolchain\arm-none-eabi\include\c++\10.2.1\bits\stl_vector.h ****       // Internal constructor functions follow.
1527:c:\program files\daisytoolchain\arm-none-eabi\include\c++\10.2.1\bits\stl_vector.h **** 
1528:c:\program files\daisytoolchain\arm-none-eabi\include\c++\10.2.1\bits\stl_vector.h ****       // Called by the range constructor to implement [23.1.1]/9
1529:c:\program files\daisytoolchain\arm-none-eabi\include\c++\10.2.1\bits\stl_vector.h **** 
1530:c:\program files\daisytoolchain\arm-none-eabi\include\c++\10.2.1\bits\stl_vector.h **** #if __cplusplus < 201103L
1531:c:\program files\daisytoolchain\arm-none-eabi\include\c++\10.2.1\bits\stl_vector.h ****       // _GLIBCXX_RESOLVE_LIB_DEFECTS
1532:c:\program files\daisytoolchain\arm-none-eabi\include\c++\10.2.1\bits\stl_vector.h ****       // 438. Ambiguity in the "do the right thing" clause
1533:c:\program files\daisytoolchain\arm-none-eabi\include\c++\10.2.1\bits\stl_vector.h ****       template<typename _Integer>
1534:c:\program files\daisytoolchain\arm-none-eabi\include\c++\10.2.1\bits\stl_vector.h **** 	void
1535:c:\program files\daisytoolchain\arm-none-eabi\include\c++\10.2.1\bits\stl_vector.h **** 	_M_initialize_dispatch(_Integer __n, _Integer __value, __true_type)
1536:c:\program files\daisytoolchain\arm-none-eabi\include\c++\10.2.1\bits\stl_vector.h **** 	{
1537:c:\program files\daisytoolchain\arm-none-eabi\include\c++\10.2.1\bits\stl_vector.h **** 	  this->_M_impl._M_start = _M_allocate(_S_check_init_len(
1538:c:\program files\daisytoolchain\arm-none-eabi\include\c++\10.2.1\bits\stl_vector.h **** 		static_cast<size_type>(__n), _M_get_Tp_allocator()));
1539:c:\program files\daisytoolchain\arm-none-eabi\include\c++\10.2.1\bits\stl_vector.h **** 	  this->_M_impl._M_end_of_storage =
1540:c:\program files\daisytoolchain\arm-none-eabi\include\c++\10.2.1\bits\stl_vector.h **** 	    this->_M_impl._M_start + static_cast<size_type>(__n);
1541:c:\program files\daisytoolchain\arm-none-eabi\include\c++\10.2.1\bits\stl_vector.h **** 	  _M_fill_initialize(static_cast<size_type>(__n), __value);
1542:c:\program files\daisytoolchain\arm-none-eabi\include\c++\10.2.1\bits\stl_vector.h **** 	}
1543:c:\program files\daisytoolchain\arm-none-eabi\include\c++\10.2.1\bits\stl_vector.h **** 
1544:c:\program files\daisytoolchain\arm-none-eabi\include\c++\10.2.1\bits\stl_vector.h ****       // Called by the range constructor to implement [23.1.1]/9
1545:c:\program files\daisytoolchain\arm-none-eabi\include\c++\10.2.1\bits\stl_vector.h ****       template<typename _InputIterator>
1546:c:\program files\daisytoolchain\arm-none-eabi\include\c++\10.2.1\bits\stl_vector.h **** 	void
1547:c:\program files\daisytoolchain\arm-none-eabi\include\c++\10.2.1\bits\stl_vector.h **** 	_M_initialize_dispatch(_InputIterator __first, _InputIterator __last,
1548:c:\program files\daisytoolchain\arm-none-eabi\include\c++\10.2.1\bits\stl_vector.h **** 			       __false_type)
1549:c:\program files\daisytoolchain\arm-none-eabi\include\c++\10.2.1\bits\stl_vector.h **** 	{
1550:c:\program files\daisytoolchain\arm-none-eabi\include\c++\10.2.1\bits\stl_vector.h **** 	  _M_range_initialize(__first, __last,
1551:c:\program files\daisytoolchain\arm-none-eabi\include\c++\10.2.1\bits\stl_vector.h **** 			      std::__iterator_category(__first));
1552:c:\program files\daisytoolchain\arm-none-eabi\include\c++\10.2.1\bits\stl_vector.h **** 	}
1553:c:\program files\daisytoolchain\arm-none-eabi\include\c++\10.2.1\bits\stl_vector.h **** #endif
1554:c:\program files\daisytoolchain\arm-none-eabi\include\c++\10.2.1\bits\stl_vector.h **** 
1555:c:\program files\daisytoolchain\arm-none-eabi\include\c++\10.2.1\bits\stl_vector.h ****       // Called by the second initialize_dispatch above
1556:c:\program files\daisytoolchain\arm-none-eabi\include\c++\10.2.1\bits\stl_vector.h ****       template<typename _InputIterator>
1557:c:\program files\daisytoolchain\arm-none-eabi\include\c++\10.2.1\bits\stl_vector.h **** 	void
1558:c:\program files\daisytoolchain\arm-none-eabi\include\c++\10.2.1\bits\stl_vector.h **** 	_M_range_initialize(_InputIterator __first, _InputIterator __last,
1559:c:\program files\daisytoolchain\arm-none-eabi\include\c++\10.2.1\bits\stl_vector.h **** 			    std::input_iterator_tag)
ARM GAS  C:\Users\samue\AppData\Local\Temp\cci865ja.s 			page 107


1560:c:\program files\daisytoolchain\arm-none-eabi\include\c++\10.2.1\bits\stl_vector.h **** 	{
1561:c:\program files\daisytoolchain\arm-none-eabi\include\c++\10.2.1\bits\stl_vector.h **** 	  __try {
1562:c:\program files\daisytoolchain\arm-none-eabi\include\c++\10.2.1\bits\stl_vector.h **** 	    for (; __first != __last; ++__first)
1563:c:\program files\daisytoolchain\arm-none-eabi\include\c++\10.2.1\bits\stl_vector.h **** #if __cplusplus >= 201103L
1564:c:\program files\daisytoolchain\arm-none-eabi\include\c++\10.2.1\bits\stl_vector.h **** 	      emplace_back(*__first);
1565:c:\program files\daisytoolchain\arm-none-eabi\include\c++\10.2.1\bits\stl_vector.h **** #else
1566:c:\program files\daisytoolchain\arm-none-eabi\include\c++\10.2.1\bits\stl_vector.h **** 	      push_back(*__first);
1567:c:\program files\daisytoolchain\arm-none-eabi\include\c++\10.2.1\bits\stl_vector.h **** #endif
1568:c:\program files\daisytoolchain\arm-none-eabi\include\c++\10.2.1\bits\stl_vector.h **** 	  } __catch(...) {
1569:c:\program files\daisytoolchain\arm-none-eabi\include\c++\10.2.1\bits\stl_vector.h **** 	    clear();
1570:c:\program files\daisytoolchain\arm-none-eabi\include\c++\10.2.1\bits\stl_vector.h **** 	    __throw_exception_again;
1571:c:\program files\daisytoolchain\arm-none-eabi\include\c++\10.2.1\bits\stl_vector.h **** 	  }
1572:c:\program files\daisytoolchain\arm-none-eabi\include\c++\10.2.1\bits\stl_vector.h **** 	}
1573:c:\program files\daisytoolchain\arm-none-eabi\include\c++\10.2.1\bits\stl_vector.h **** 
1574:c:\program files\daisytoolchain\arm-none-eabi\include\c++\10.2.1\bits\stl_vector.h ****       // Called by the second initialize_dispatch above
1575:c:\program files\daisytoolchain\arm-none-eabi\include\c++\10.2.1\bits\stl_vector.h ****       template<typename _ForwardIterator>
1576:c:\program files\daisytoolchain\arm-none-eabi\include\c++\10.2.1\bits\stl_vector.h **** 	void
1577:c:\program files\daisytoolchain\arm-none-eabi\include\c++\10.2.1\bits\stl_vector.h **** 	_M_range_initialize(_ForwardIterator __first, _ForwardIterator __last,
1578:c:\program files\daisytoolchain\arm-none-eabi\include\c++\10.2.1\bits\stl_vector.h **** 			    std::forward_iterator_tag)
1579:c:\program files\daisytoolchain\arm-none-eabi\include\c++\10.2.1\bits\stl_vector.h **** 	{
1580:c:\program files\daisytoolchain\arm-none-eabi\include\c++\10.2.1\bits\stl_vector.h **** 	  const size_type __n = std::distance(__first, __last);
1581:c:\program files\daisytoolchain\arm-none-eabi\include\c++\10.2.1\bits\stl_vector.h **** 	  this->_M_impl._M_start
1582:c:\program files\daisytoolchain\arm-none-eabi\include\c++\10.2.1\bits\stl_vector.h **** 	    = this->_M_allocate(_S_check_init_len(__n, _M_get_Tp_allocator()));
1583:c:\program files\daisytoolchain\arm-none-eabi\include\c++\10.2.1\bits\stl_vector.h **** 	  this->_M_impl._M_end_of_storage = this->_M_impl._M_start + __n;
1584:c:\program files\daisytoolchain\arm-none-eabi\include\c++\10.2.1\bits\stl_vector.h **** 	  this->_M_impl._M_finish =
1585:c:\program files\daisytoolchain\arm-none-eabi\include\c++\10.2.1\bits\stl_vector.h **** 	    std::__uninitialized_copy_a(__first, __last,
1586:c:\program files\daisytoolchain\arm-none-eabi\include\c++\10.2.1\bits\stl_vector.h **** 					this->_M_impl._M_start,
1587:c:\program files\daisytoolchain\arm-none-eabi\include\c++\10.2.1\bits\stl_vector.h **** 					_M_get_Tp_allocator());
1588:c:\program files\daisytoolchain\arm-none-eabi\include\c++\10.2.1\bits\stl_vector.h **** 	}
1589:c:\program files\daisytoolchain\arm-none-eabi\include\c++\10.2.1\bits\stl_vector.h **** 
1590:c:\program files\daisytoolchain\arm-none-eabi\include\c++\10.2.1\bits\stl_vector.h ****       // Called by the first initialize_dispatch above and by the
1591:c:\program files\daisytoolchain\arm-none-eabi\include\c++\10.2.1\bits\stl_vector.h ****       // vector(n,value,a) constructor.
1592:c:\program files\daisytoolchain\arm-none-eabi\include\c++\10.2.1\bits\stl_vector.h ****       void
1593:c:\program files\daisytoolchain\arm-none-eabi\include\c++\10.2.1\bits\stl_vector.h ****       _M_fill_initialize(size_type __n, const value_type& __value)
1594:c:\program files\daisytoolchain\arm-none-eabi\include\c++\10.2.1\bits\stl_vector.h ****       {
1595:c:\program files\daisytoolchain\arm-none-eabi\include\c++\10.2.1\bits\stl_vector.h **** 	this->_M_impl._M_finish =
1596:c:\program files\daisytoolchain\arm-none-eabi\include\c++\10.2.1\bits\stl_vector.h **** 	  std::__uninitialized_fill_n_a(this->_M_impl._M_start, __n, __value,
1597:c:\program files\daisytoolchain\arm-none-eabi\include\c++\10.2.1\bits\stl_vector.h **** 					_M_get_Tp_allocator());
1598:c:\program files\daisytoolchain\arm-none-eabi\include\c++\10.2.1\bits\stl_vector.h ****       }
1599:c:\program files\daisytoolchain\arm-none-eabi\include\c++\10.2.1\bits\stl_vector.h **** 
1600:c:\program files\daisytoolchain\arm-none-eabi\include\c++\10.2.1\bits\stl_vector.h **** #if __cplusplus >= 201103L
1601:c:\program files\daisytoolchain\arm-none-eabi\include\c++\10.2.1\bits\stl_vector.h ****       // Called by the vector(n) constructor.
1602:c:\program files\daisytoolchain\arm-none-eabi\include\c++\10.2.1\bits\stl_vector.h ****       void
1603:c:\program files\daisytoolchain\arm-none-eabi\include\c++\10.2.1\bits\stl_vector.h ****       _M_default_initialize(size_type __n)
1604:c:\program files\daisytoolchain\arm-none-eabi\include\c++\10.2.1\bits\stl_vector.h ****       {
1605:c:\program files\daisytoolchain\arm-none-eabi\include\c++\10.2.1\bits\stl_vector.h **** 	this->_M_impl._M_finish =
1606:c:\program files\daisytoolchain\arm-none-eabi\include\c++\10.2.1\bits\stl_vector.h **** 	  std::__uninitialized_default_n_a(this->_M_impl._M_start, __n,
1607:c:\program files\daisytoolchain\arm-none-eabi\include\c++\10.2.1\bits\stl_vector.h **** 					   _M_get_Tp_allocator());
1608:c:\program files\daisytoolchain\arm-none-eabi\include\c++\10.2.1\bits\stl_vector.h ****       }
1609:c:\program files\daisytoolchain\arm-none-eabi\include\c++\10.2.1\bits\stl_vector.h **** #endif
1610:c:\program files\daisytoolchain\arm-none-eabi\include\c++\10.2.1\bits\stl_vector.h **** 
1611:c:\program files\daisytoolchain\arm-none-eabi\include\c++\10.2.1\bits\stl_vector.h ****       // Internal assign functions follow.  The *_aux functions do the actual
1612:c:\program files\daisytoolchain\arm-none-eabi\include\c++\10.2.1\bits\stl_vector.h ****       // assignment work for the range versions.
1613:c:\program files\daisytoolchain\arm-none-eabi\include\c++\10.2.1\bits\stl_vector.h **** 
1614:c:\program files\daisytoolchain\arm-none-eabi\include\c++\10.2.1\bits\stl_vector.h ****       // Called by the range assign to implement [23.1.1]/9
1615:c:\program files\daisytoolchain\arm-none-eabi\include\c++\10.2.1\bits\stl_vector.h **** 
1616:c:\program files\daisytoolchain\arm-none-eabi\include\c++\10.2.1\bits\stl_vector.h ****       // _GLIBCXX_RESOLVE_LIB_DEFECTS
ARM GAS  C:\Users\samue\AppData\Local\Temp\cci865ja.s 			page 108


1617:c:\program files\daisytoolchain\arm-none-eabi\include\c++\10.2.1\bits\stl_vector.h ****       // 438. Ambiguity in the "do the right thing" clause
1618:c:\program files\daisytoolchain\arm-none-eabi\include\c++\10.2.1\bits\stl_vector.h ****       template<typename _Integer>
1619:c:\program files\daisytoolchain\arm-none-eabi\include\c++\10.2.1\bits\stl_vector.h **** 	void
1620:c:\program files\daisytoolchain\arm-none-eabi\include\c++\10.2.1\bits\stl_vector.h **** 	_M_assign_dispatch(_Integer __n, _Integer __val, __true_type)
1621:c:\program files\daisytoolchain\arm-none-eabi\include\c++\10.2.1\bits\stl_vector.h **** 	{ _M_fill_assign(__n, __val); }
1622:c:\program files\daisytoolchain\arm-none-eabi\include\c++\10.2.1\bits\stl_vector.h **** 
1623:c:\program files\daisytoolchain\arm-none-eabi\include\c++\10.2.1\bits\stl_vector.h ****       // Called by the range assign to implement [23.1.1]/9
1624:c:\program files\daisytoolchain\arm-none-eabi\include\c++\10.2.1\bits\stl_vector.h ****       template<typename _InputIterator>
1625:c:\program files\daisytoolchain\arm-none-eabi\include\c++\10.2.1\bits\stl_vector.h **** 	void
1626:c:\program files\daisytoolchain\arm-none-eabi\include\c++\10.2.1\bits\stl_vector.h **** 	_M_assign_dispatch(_InputIterator __first, _InputIterator __last,
1627:c:\program files\daisytoolchain\arm-none-eabi\include\c++\10.2.1\bits\stl_vector.h **** 			   __false_type)
1628:c:\program files\daisytoolchain\arm-none-eabi\include\c++\10.2.1\bits\stl_vector.h **** 	{ _M_assign_aux(__first, __last, std::__iterator_category(__first)); }
1629:c:\program files\daisytoolchain\arm-none-eabi\include\c++\10.2.1\bits\stl_vector.h **** 
1630:c:\program files\daisytoolchain\arm-none-eabi\include\c++\10.2.1\bits\stl_vector.h ****       // Called by the second assign_dispatch above
1631:c:\program files\daisytoolchain\arm-none-eabi\include\c++\10.2.1\bits\stl_vector.h ****       template<typename _InputIterator>
1632:c:\program files\daisytoolchain\arm-none-eabi\include\c++\10.2.1\bits\stl_vector.h **** 	void
1633:c:\program files\daisytoolchain\arm-none-eabi\include\c++\10.2.1\bits\stl_vector.h **** 	_M_assign_aux(_InputIterator __first, _InputIterator __last,
1634:c:\program files\daisytoolchain\arm-none-eabi\include\c++\10.2.1\bits\stl_vector.h **** 		      std::input_iterator_tag);
1635:c:\program files\daisytoolchain\arm-none-eabi\include\c++\10.2.1\bits\stl_vector.h **** 
1636:c:\program files\daisytoolchain\arm-none-eabi\include\c++\10.2.1\bits\stl_vector.h ****       // Called by the second assign_dispatch above
1637:c:\program files\daisytoolchain\arm-none-eabi\include\c++\10.2.1\bits\stl_vector.h ****       template<typename _ForwardIterator>
1638:c:\program files\daisytoolchain\arm-none-eabi\include\c++\10.2.1\bits\stl_vector.h **** 	void
1639:c:\program files\daisytoolchain\arm-none-eabi\include\c++\10.2.1\bits\stl_vector.h **** 	_M_assign_aux(_ForwardIterator __first, _ForwardIterator __last,
1640:c:\program files\daisytoolchain\arm-none-eabi\include\c++\10.2.1\bits\stl_vector.h **** 		      std::forward_iterator_tag);
1641:c:\program files\daisytoolchain\arm-none-eabi\include\c++\10.2.1\bits\stl_vector.h **** 
1642:c:\program files\daisytoolchain\arm-none-eabi\include\c++\10.2.1\bits\stl_vector.h ****       // Called by assign(n,t), and the range assign when it turns out
1643:c:\program files\daisytoolchain\arm-none-eabi\include\c++\10.2.1\bits\stl_vector.h ****       // to be the same thing.
1644:c:\program files\daisytoolchain\arm-none-eabi\include\c++\10.2.1\bits\stl_vector.h ****       void
1645:c:\program files\daisytoolchain\arm-none-eabi\include\c++\10.2.1\bits\stl_vector.h ****       _M_fill_assign(size_type __n, const value_type& __val);
1646:c:\program files\daisytoolchain\arm-none-eabi\include\c++\10.2.1\bits\stl_vector.h **** 
1647:c:\program files\daisytoolchain\arm-none-eabi\include\c++\10.2.1\bits\stl_vector.h ****       // Internal insert functions follow.
1648:c:\program files\daisytoolchain\arm-none-eabi\include\c++\10.2.1\bits\stl_vector.h **** 
1649:c:\program files\daisytoolchain\arm-none-eabi\include\c++\10.2.1\bits\stl_vector.h ****       // Called by the range insert to implement [23.1.1]/9
1650:c:\program files\daisytoolchain\arm-none-eabi\include\c++\10.2.1\bits\stl_vector.h **** 
1651:c:\program files\daisytoolchain\arm-none-eabi\include\c++\10.2.1\bits\stl_vector.h ****       // _GLIBCXX_RESOLVE_LIB_DEFECTS
1652:c:\program files\daisytoolchain\arm-none-eabi\include\c++\10.2.1\bits\stl_vector.h ****       // 438. Ambiguity in the "do the right thing" clause
1653:c:\program files\daisytoolchain\arm-none-eabi\include\c++\10.2.1\bits\stl_vector.h ****       template<typename _Integer>
1654:c:\program files\daisytoolchain\arm-none-eabi\include\c++\10.2.1\bits\stl_vector.h **** 	void
1655:c:\program files\daisytoolchain\arm-none-eabi\include\c++\10.2.1\bits\stl_vector.h **** 	_M_insert_dispatch(iterator __pos, _Integer __n, _Integer __val,
1656:c:\program files\daisytoolchain\arm-none-eabi\include\c++\10.2.1\bits\stl_vector.h **** 			   __true_type)
1657:c:\program files\daisytoolchain\arm-none-eabi\include\c++\10.2.1\bits\stl_vector.h **** 	{ _M_fill_insert(__pos, __n, __val); }
1658:c:\program files\daisytoolchain\arm-none-eabi\include\c++\10.2.1\bits\stl_vector.h **** 
1659:c:\program files\daisytoolchain\arm-none-eabi\include\c++\10.2.1\bits\stl_vector.h ****       // Called by the range insert to implement [23.1.1]/9
1660:c:\program files\daisytoolchain\arm-none-eabi\include\c++\10.2.1\bits\stl_vector.h ****       template<typename _InputIterator>
1661:c:\program files\daisytoolchain\arm-none-eabi\include\c++\10.2.1\bits\stl_vector.h **** 	void
1662:c:\program files\daisytoolchain\arm-none-eabi\include\c++\10.2.1\bits\stl_vector.h **** 	_M_insert_dispatch(iterator __pos, _InputIterator __first,
1663:c:\program files\daisytoolchain\arm-none-eabi\include\c++\10.2.1\bits\stl_vector.h **** 			   _InputIterator __last, __false_type)
1664:c:\program files\daisytoolchain\arm-none-eabi\include\c++\10.2.1\bits\stl_vector.h **** 	{
1665:c:\program files\daisytoolchain\arm-none-eabi\include\c++\10.2.1\bits\stl_vector.h **** 	  _M_range_insert(__pos, __first, __last,
1666:c:\program files\daisytoolchain\arm-none-eabi\include\c++\10.2.1\bits\stl_vector.h **** 			  std::__iterator_category(__first));
1667:c:\program files\daisytoolchain\arm-none-eabi\include\c++\10.2.1\bits\stl_vector.h **** 	}
1668:c:\program files\daisytoolchain\arm-none-eabi\include\c++\10.2.1\bits\stl_vector.h **** 
1669:c:\program files\daisytoolchain\arm-none-eabi\include\c++\10.2.1\bits\stl_vector.h ****       // Called by the second insert_dispatch above
1670:c:\program files\daisytoolchain\arm-none-eabi\include\c++\10.2.1\bits\stl_vector.h ****       template<typename _InputIterator>
1671:c:\program files\daisytoolchain\arm-none-eabi\include\c++\10.2.1\bits\stl_vector.h **** 	void
1672:c:\program files\daisytoolchain\arm-none-eabi\include\c++\10.2.1\bits\stl_vector.h **** 	_M_range_insert(iterator __pos, _InputIterator __first,
1673:c:\program files\daisytoolchain\arm-none-eabi\include\c++\10.2.1\bits\stl_vector.h **** 			_InputIterator __last, std::input_iterator_tag);
ARM GAS  C:\Users\samue\AppData\Local\Temp\cci865ja.s 			page 109


1674:c:\program files\daisytoolchain\arm-none-eabi\include\c++\10.2.1\bits\stl_vector.h **** 
1675:c:\program files\daisytoolchain\arm-none-eabi\include\c++\10.2.1\bits\stl_vector.h ****       // Called by the second insert_dispatch above
1676:c:\program files\daisytoolchain\arm-none-eabi\include\c++\10.2.1\bits\stl_vector.h ****       template<typename _ForwardIterator>
1677:c:\program files\daisytoolchain\arm-none-eabi\include\c++\10.2.1\bits\stl_vector.h **** 	void
1678:c:\program files\daisytoolchain\arm-none-eabi\include\c++\10.2.1\bits\stl_vector.h **** 	_M_range_insert(iterator __pos, _ForwardIterator __first,
1679:c:\program files\daisytoolchain\arm-none-eabi\include\c++\10.2.1\bits\stl_vector.h **** 			_ForwardIterator __last, std::forward_iterator_tag);
1680:c:\program files\daisytoolchain\arm-none-eabi\include\c++\10.2.1\bits\stl_vector.h **** 
1681:c:\program files\daisytoolchain\arm-none-eabi\include\c++\10.2.1\bits\stl_vector.h ****       // Called by insert(p,n,x), and the range insert when it turns out to be
1682:c:\program files\daisytoolchain\arm-none-eabi\include\c++\10.2.1\bits\stl_vector.h ****       // the same thing.
1683:c:\program files\daisytoolchain\arm-none-eabi\include\c++\10.2.1\bits\stl_vector.h ****       void
1684:c:\program files\daisytoolchain\arm-none-eabi\include\c++\10.2.1\bits\stl_vector.h ****       _M_fill_insert(iterator __pos, size_type __n, const value_type& __x);
1685:c:\program files\daisytoolchain\arm-none-eabi\include\c++\10.2.1\bits\stl_vector.h **** 
1686:c:\program files\daisytoolchain\arm-none-eabi\include\c++\10.2.1\bits\stl_vector.h **** #if __cplusplus >= 201103L
1687:c:\program files\daisytoolchain\arm-none-eabi\include\c++\10.2.1\bits\stl_vector.h ****       // Called by resize(n).
1688:c:\program files\daisytoolchain\arm-none-eabi\include\c++\10.2.1\bits\stl_vector.h ****       void
1689:c:\program files\daisytoolchain\arm-none-eabi\include\c++\10.2.1\bits\stl_vector.h ****       _M_default_append(size_type __n);
1690:c:\program files\daisytoolchain\arm-none-eabi\include\c++\10.2.1\bits\stl_vector.h **** 
1691:c:\program files\daisytoolchain\arm-none-eabi\include\c++\10.2.1\bits\stl_vector.h ****       bool
1692:c:\program files\daisytoolchain\arm-none-eabi\include\c++\10.2.1\bits\stl_vector.h ****       _M_shrink_to_fit();
1693:c:\program files\daisytoolchain\arm-none-eabi\include\c++\10.2.1\bits\stl_vector.h **** #endif
1694:c:\program files\daisytoolchain\arm-none-eabi\include\c++\10.2.1\bits\stl_vector.h **** 
1695:c:\program files\daisytoolchain\arm-none-eabi\include\c++\10.2.1\bits\stl_vector.h **** #if __cplusplus < 201103L
1696:c:\program files\daisytoolchain\arm-none-eabi\include\c++\10.2.1\bits\stl_vector.h ****       // Called by insert(p,x)
1697:c:\program files\daisytoolchain\arm-none-eabi\include\c++\10.2.1\bits\stl_vector.h ****       void
1698:c:\program files\daisytoolchain\arm-none-eabi\include\c++\10.2.1\bits\stl_vector.h ****       _M_insert_aux(iterator __position, const value_type& __x);
1699:c:\program files\daisytoolchain\arm-none-eabi\include\c++\10.2.1\bits\stl_vector.h **** 
1700:c:\program files\daisytoolchain\arm-none-eabi\include\c++\10.2.1\bits\stl_vector.h ****       void
1701:c:\program files\daisytoolchain\arm-none-eabi\include\c++\10.2.1\bits\stl_vector.h ****       _M_realloc_insert(iterator __position, const value_type& __x);
1702:c:\program files\daisytoolchain\arm-none-eabi\include\c++\10.2.1\bits\stl_vector.h **** #else
1703:c:\program files\daisytoolchain\arm-none-eabi\include\c++\10.2.1\bits\stl_vector.h ****       // A value_type object constructed with _Alloc_traits::construct()
1704:c:\program files\daisytoolchain\arm-none-eabi\include\c++\10.2.1\bits\stl_vector.h ****       // and destroyed with _Alloc_traits::destroy().
1705:c:\program files\daisytoolchain\arm-none-eabi\include\c++\10.2.1\bits\stl_vector.h ****       struct _Temporary_value
1706:c:\program files\daisytoolchain\arm-none-eabi\include\c++\10.2.1\bits\stl_vector.h ****       {
1707:c:\program files\daisytoolchain\arm-none-eabi\include\c++\10.2.1\bits\stl_vector.h **** 	template<typename... _Args>
1708:c:\program files\daisytoolchain\arm-none-eabi\include\c++\10.2.1\bits\stl_vector.h **** 	  explicit
1709:c:\program files\daisytoolchain\arm-none-eabi\include\c++\10.2.1\bits\stl_vector.h **** 	  _Temporary_value(vector* __vec, _Args&&... __args) : _M_this(__vec)
1710:c:\program files\daisytoolchain\arm-none-eabi\include\c++\10.2.1\bits\stl_vector.h **** 	  {
1711:c:\program files\daisytoolchain\arm-none-eabi\include\c++\10.2.1\bits\stl_vector.h **** 	    _Alloc_traits::construct(_M_this->_M_impl, _M_ptr(),
1712:c:\program files\daisytoolchain\arm-none-eabi\include\c++\10.2.1\bits\stl_vector.h **** 				     std::forward<_Args>(__args)...);
1713:c:\program files\daisytoolchain\arm-none-eabi\include\c++\10.2.1\bits\stl_vector.h **** 	  }
1714:c:\program files\daisytoolchain\arm-none-eabi\include\c++\10.2.1\bits\stl_vector.h **** 
1715:c:\program files\daisytoolchain\arm-none-eabi\include\c++\10.2.1\bits\stl_vector.h **** 	~_Temporary_value()
1716:c:\program files\daisytoolchain\arm-none-eabi\include\c++\10.2.1\bits\stl_vector.h **** 	{ _Alloc_traits::destroy(_M_this->_M_impl, _M_ptr()); }
1717:c:\program files\daisytoolchain\arm-none-eabi\include\c++\10.2.1\bits\stl_vector.h **** 
1718:c:\program files\daisytoolchain\arm-none-eabi\include\c++\10.2.1\bits\stl_vector.h **** 	value_type&
1719:c:\program files\daisytoolchain\arm-none-eabi\include\c++\10.2.1\bits\stl_vector.h **** 	_M_val() { return *_M_ptr(); }
1720:c:\program files\daisytoolchain\arm-none-eabi\include\c++\10.2.1\bits\stl_vector.h **** 
1721:c:\program files\daisytoolchain\arm-none-eabi\include\c++\10.2.1\bits\stl_vector.h ****       private:
1722:c:\program files\daisytoolchain\arm-none-eabi\include\c++\10.2.1\bits\stl_vector.h **** 	_Tp*
1723:c:\program files\daisytoolchain\arm-none-eabi\include\c++\10.2.1\bits\stl_vector.h **** 	_M_ptr() { return reinterpret_cast<_Tp*>(&__buf); }
1724:c:\program files\daisytoolchain\arm-none-eabi\include\c++\10.2.1\bits\stl_vector.h **** 
1725:c:\program files\daisytoolchain\arm-none-eabi\include\c++\10.2.1\bits\stl_vector.h **** 	vector* _M_this;
1726:c:\program files\daisytoolchain\arm-none-eabi\include\c++\10.2.1\bits\stl_vector.h **** 	typename aligned_storage<sizeof(_Tp), alignof(_Tp)>::type __buf;
1727:c:\program files\daisytoolchain\arm-none-eabi\include\c++\10.2.1\bits\stl_vector.h ****       };
1728:c:\program files\daisytoolchain\arm-none-eabi\include\c++\10.2.1\bits\stl_vector.h **** 
1729:c:\program files\daisytoolchain\arm-none-eabi\include\c++\10.2.1\bits\stl_vector.h ****       // Called by insert(p,x) and other functions when insertion needs to
1730:c:\program files\daisytoolchain\arm-none-eabi\include\c++\10.2.1\bits\stl_vector.h ****       // reallocate or move existing elements. _Arg is either _Tp& or _Tp.
ARM GAS  C:\Users\samue\AppData\Local\Temp\cci865ja.s 			page 110


1731:c:\program files\daisytoolchain\arm-none-eabi\include\c++\10.2.1\bits\stl_vector.h ****       template<typename _Arg>
1732:c:\program files\daisytoolchain\arm-none-eabi\include\c++\10.2.1\bits\stl_vector.h **** 	void
1733:c:\program files\daisytoolchain\arm-none-eabi\include\c++\10.2.1\bits\stl_vector.h **** 	_M_insert_aux(iterator __position, _Arg&& __arg);
1734:c:\program files\daisytoolchain\arm-none-eabi\include\c++\10.2.1\bits\stl_vector.h **** 
1735:c:\program files\daisytoolchain\arm-none-eabi\include\c++\10.2.1\bits\stl_vector.h ****       template<typename... _Args>
1736:c:\program files\daisytoolchain\arm-none-eabi\include\c++\10.2.1\bits\stl_vector.h **** 	void
1737:c:\program files\daisytoolchain\arm-none-eabi\include\c++\10.2.1\bits\stl_vector.h **** 	_M_realloc_insert(iterator __position, _Args&&... __args);
1738:c:\program files\daisytoolchain\arm-none-eabi\include\c++\10.2.1\bits\stl_vector.h **** 
1739:c:\program files\daisytoolchain\arm-none-eabi\include\c++\10.2.1\bits\stl_vector.h ****       // Either move-construct at the end, or forward to _M_insert_aux.
1740:c:\program files\daisytoolchain\arm-none-eabi\include\c++\10.2.1\bits\stl_vector.h ****       iterator
1741:c:\program files\daisytoolchain\arm-none-eabi\include\c++\10.2.1\bits\stl_vector.h ****       _M_insert_rval(const_iterator __position, value_type&& __v);
1742:c:\program files\daisytoolchain\arm-none-eabi\include\c++\10.2.1\bits\stl_vector.h **** 
1743:c:\program files\daisytoolchain\arm-none-eabi\include\c++\10.2.1\bits\stl_vector.h ****       // Try to emplace at the end, otherwise forward to _M_insert_aux.
1744:c:\program files\daisytoolchain\arm-none-eabi\include\c++\10.2.1\bits\stl_vector.h ****       template<typename... _Args>
1745:c:\program files\daisytoolchain\arm-none-eabi\include\c++\10.2.1\bits\stl_vector.h **** 	iterator
1746:c:\program files\daisytoolchain\arm-none-eabi\include\c++\10.2.1\bits\stl_vector.h **** 	_M_emplace_aux(const_iterator __position, _Args&&... __args);
1747:c:\program files\daisytoolchain\arm-none-eabi\include\c++\10.2.1\bits\stl_vector.h **** 
1748:c:\program files\daisytoolchain\arm-none-eabi\include\c++\10.2.1\bits\stl_vector.h ****       // Emplacing an rvalue of the correct type can use _M_insert_rval.
1749:c:\program files\daisytoolchain\arm-none-eabi\include\c++\10.2.1\bits\stl_vector.h ****       iterator
1750:c:\program files\daisytoolchain\arm-none-eabi\include\c++\10.2.1\bits\stl_vector.h ****       _M_emplace_aux(const_iterator __position, value_type&& __v)
1751:c:\program files\daisytoolchain\arm-none-eabi\include\c++\10.2.1\bits\stl_vector.h ****       { return _M_insert_rval(__position, std::move(__v)); }
1752:c:\program files\daisytoolchain\arm-none-eabi\include\c++\10.2.1\bits\stl_vector.h **** #endif
1753:c:\program files\daisytoolchain\arm-none-eabi\include\c++\10.2.1\bits\stl_vector.h **** 
1754:c:\program files\daisytoolchain\arm-none-eabi\include\c++\10.2.1\bits\stl_vector.h ****       // Called by _M_fill_insert, _M_insert_aux etc.
1755:c:\program files\daisytoolchain\arm-none-eabi\include\c++\10.2.1\bits\stl_vector.h ****       size_type
1756:c:\program files\daisytoolchain\arm-none-eabi\include\c++\10.2.1\bits\stl_vector.h ****       _M_check_len(size_type __n, const char* __s) const
 1976              		.loc 7 1756 7 is_stmt 1 view .LVU495
 1977              	.LBB486:
 1978              	.LBB484:
 1979              	.LBI480:
 918:c:\program files\daisytoolchain\arm-none-eabi\include\c++\10.2.1\bits\stl_vector.h ****       { return size_type(this->_M_impl._M_finish - this->_M_impl._M_start); }
 1980              		.loc 7 918 7 view .LVU496
 1981              	.LBB482:
 919:c:\program files\daisytoolchain\arm-none-eabi\include\c++\10.2.1\bits\stl_vector.h **** 
 1982              		.loc 7 919 50 is_stmt 0 view .LVU497
 1983 000c A4EB0803 		sub	r3, r4, r8
 1984              	.LBE482:
 1985              	.LBE484:
1757:c:\program files\daisytoolchain\arm-none-eabi\include\c++\10.2.1\bits\stl_vector.h ****       {
1758:c:\program files\daisytoolchain\arm-none-eabi\include\c++\10.2.1\bits\stl_vector.h **** 	if (max_size() - size() < __n)
 1986              		.loc 7 1758 2 view .LVU498
 1987 0010 3F49     		ldr	r1, .L153+4
 1988              	.LBE486:
 1989              	.LBE489:
 1990              		.loc 9 426 7 view .LVU499
 1991 0012 83B0     		sub	sp, sp, #12
 1992              		.cfi_def_cfa_offset 48
 1993              	.LBB490:
 1994              	.LBB487:
 1995              	.LBB485:
 1996              	.LBB483:
 919:c:\program files\daisytoolchain\arm-none-eabi\include\c++\10.2.1\bits\stl_vector.h **** 
 1997              		.loc 7 919 50 view .LVU500
 1998 0014 9B10     		asrs	r3, r3, #2
 1999 0016 06FB03F3 		mul	r3, r6, r3
 919:c:\program files\daisytoolchain\arm-none-eabi\include\c++\10.2.1\bits\stl_vector.h **** 
 2000              		.loc 7 919 50 view .LVU501
ARM GAS  C:\Users\samue\AppData\Local\Temp\cci865ja.s 			page 111


 2001              	.LBE483:
 2002              	.LBE485:
 2003              		.loc 7 1758 2 view .LVU502
 2004 001a 8B42     		cmp	r3, r1
 2005 001c 73D0     		beq	.L151
 2006 001e 012B     		cmp	r3, #1
 2007 0020 1E46     		mov	r6, r3
 2008 0022 9346     		mov	fp, r2
 2009 0024 0746     		mov	r7, r0
 2010 0026 38BF     		it	cc
 2011 0028 0126     		movcc	r6, #1
 2012              	.LBE487:
 2013              	.LBE490:
 2014              	.LBB491:
 2015              	.LBB492:
1006:c:\program files\daisytoolchain\arm-none-eabi\include\c++\10.2.1\bits\stl_iterator.h **** 	return *this;
1007:c:\program files\daisytoolchain\arm-none-eabi\include\c++\10.2.1\bits\stl_iterator.h ****       }
1008:c:\program files\daisytoolchain\arm-none-eabi\include\c++\10.2.1\bits\stl_iterator.h **** 
1009:c:\program files\daisytoolchain\arm-none-eabi\include\c++\10.2.1\bits\stl_iterator.h ****       _GLIBCXX20_CONSTEXPR
1010:c:\program files\daisytoolchain\arm-none-eabi\include\c++\10.2.1\bits\stl_iterator.h ****       __normal_iterator
1011:c:\program files\daisytoolchain\arm-none-eabi\include\c++\10.2.1\bits\stl_iterator.h ****       operator++(int) _GLIBCXX_NOEXCEPT
1012:c:\program files\daisytoolchain\arm-none-eabi\include\c++\10.2.1\bits\stl_iterator.h ****       { return __normal_iterator(_M_current++); }
1013:c:\program files\daisytoolchain\arm-none-eabi\include\c++\10.2.1\bits\stl_iterator.h **** 
1014:c:\program files\daisytoolchain\arm-none-eabi\include\c++\10.2.1\bits\stl_iterator.h ****       // Bidirectional iterator requirements
1015:c:\program files\daisytoolchain\arm-none-eabi\include\c++\10.2.1\bits\stl_iterator.h ****       _GLIBCXX20_CONSTEXPR
1016:c:\program files\daisytoolchain\arm-none-eabi\include\c++\10.2.1\bits\stl_iterator.h ****       __normal_iterator&
1017:c:\program files\daisytoolchain\arm-none-eabi\include\c++\10.2.1\bits\stl_iterator.h ****       operator--() _GLIBCXX_NOEXCEPT
1018:c:\program files\daisytoolchain\arm-none-eabi\include\c++\10.2.1\bits\stl_iterator.h ****       {
1019:c:\program files\daisytoolchain\arm-none-eabi\include\c++\10.2.1\bits\stl_iterator.h **** 	--_M_current;
1020:c:\program files\daisytoolchain\arm-none-eabi\include\c++\10.2.1\bits\stl_iterator.h **** 	return *this;
1021:c:\program files\daisytoolchain\arm-none-eabi\include\c++\10.2.1\bits\stl_iterator.h ****       }
1022:c:\program files\daisytoolchain\arm-none-eabi\include\c++\10.2.1\bits\stl_iterator.h **** 
1023:c:\program files\daisytoolchain\arm-none-eabi\include\c++\10.2.1\bits\stl_iterator.h ****       _GLIBCXX20_CONSTEXPR
1024:c:\program files\daisytoolchain\arm-none-eabi\include\c++\10.2.1\bits\stl_iterator.h ****       __normal_iterator
1025:c:\program files\daisytoolchain\arm-none-eabi\include\c++\10.2.1\bits\stl_iterator.h ****       operator--(int) _GLIBCXX_NOEXCEPT
1026:c:\program files\daisytoolchain\arm-none-eabi\include\c++\10.2.1\bits\stl_iterator.h ****       { return __normal_iterator(_M_current--); }
1027:c:\program files\daisytoolchain\arm-none-eabi\include\c++\10.2.1\bits\stl_iterator.h **** 
1028:c:\program files\daisytoolchain\arm-none-eabi\include\c++\10.2.1\bits\stl_iterator.h ****       // Random access iterator requirements
1029:c:\program files\daisytoolchain\arm-none-eabi\include\c++\10.2.1\bits\stl_iterator.h ****       _GLIBCXX20_CONSTEXPR
1030:c:\program files\daisytoolchain\arm-none-eabi\include\c++\10.2.1\bits\stl_iterator.h ****       reference
1031:c:\program files\daisytoolchain\arm-none-eabi\include\c++\10.2.1\bits\stl_iterator.h ****       operator[](difference_type __n) const _GLIBCXX_NOEXCEPT
1032:c:\program files\daisytoolchain\arm-none-eabi\include\c++\10.2.1\bits\stl_iterator.h ****       { return _M_current[__n]; }
1033:c:\program files\daisytoolchain\arm-none-eabi\include\c++\10.2.1\bits\stl_iterator.h **** 
1034:c:\program files\daisytoolchain\arm-none-eabi\include\c++\10.2.1\bits\stl_iterator.h ****       _GLIBCXX20_CONSTEXPR
1035:c:\program files\daisytoolchain\arm-none-eabi\include\c++\10.2.1\bits\stl_iterator.h ****       __normal_iterator&
1036:c:\program files\daisytoolchain\arm-none-eabi\include\c++\10.2.1\bits\stl_iterator.h ****       operator+=(difference_type __n) _GLIBCXX_NOEXCEPT
1037:c:\program files\daisytoolchain\arm-none-eabi\include\c++\10.2.1\bits\stl_iterator.h ****       { _M_current += __n; return *this; }
1038:c:\program files\daisytoolchain\arm-none-eabi\include\c++\10.2.1\bits\stl_iterator.h **** 
1039:c:\program files\daisytoolchain\arm-none-eabi\include\c++\10.2.1\bits\stl_iterator.h ****       _GLIBCXX20_CONSTEXPR
1040:c:\program files\daisytoolchain\arm-none-eabi\include\c++\10.2.1\bits\stl_iterator.h ****       __normal_iterator
1041:c:\program files\daisytoolchain\arm-none-eabi\include\c++\10.2.1\bits\stl_iterator.h ****       operator+(difference_type __n) const _GLIBCXX_NOEXCEPT
1042:c:\program files\daisytoolchain\arm-none-eabi\include\c++\10.2.1\bits\stl_iterator.h ****       { return __normal_iterator(_M_current + __n); }
1043:c:\program files\daisytoolchain\arm-none-eabi\include\c++\10.2.1\bits\stl_iterator.h **** 
1044:c:\program files\daisytoolchain\arm-none-eabi\include\c++\10.2.1\bits\stl_iterator.h ****       _GLIBCXX20_CONSTEXPR
1045:c:\program files\daisytoolchain\arm-none-eabi\include\c++\10.2.1\bits\stl_iterator.h ****       __normal_iterator&
1046:c:\program files\daisytoolchain\arm-none-eabi\include\c++\10.2.1\bits\stl_iterator.h ****       operator-=(difference_type __n) _GLIBCXX_NOEXCEPT
1047:c:\program files\daisytoolchain\arm-none-eabi\include\c++\10.2.1\bits\stl_iterator.h ****       { _M_current -= __n; return *this; }
ARM GAS  C:\Users\samue\AppData\Local\Temp\cci865ja.s 			page 112


1048:c:\program files\daisytoolchain\arm-none-eabi\include\c++\10.2.1\bits\stl_iterator.h **** 
1049:c:\program files\daisytoolchain\arm-none-eabi\include\c++\10.2.1\bits\stl_iterator.h ****       _GLIBCXX20_CONSTEXPR
1050:c:\program files\daisytoolchain\arm-none-eabi\include\c++\10.2.1\bits\stl_iterator.h ****       __normal_iterator
1051:c:\program files\daisytoolchain\arm-none-eabi\include\c++\10.2.1\bits\stl_iterator.h ****       operator-(difference_type __n) const _GLIBCXX_NOEXCEPT
1052:c:\program files\daisytoolchain\arm-none-eabi\include\c++\10.2.1\bits\stl_iterator.h ****       { return __normal_iterator(_M_current - __n); }
1053:c:\program files\daisytoolchain\arm-none-eabi\include\c++\10.2.1\bits\stl_iterator.h **** 
1054:c:\program files\daisytoolchain\arm-none-eabi\include\c++\10.2.1\bits\stl_iterator.h ****       _GLIBCXX20_CONSTEXPR
1055:c:\program files\daisytoolchain\arm-none-eabi\include\c++\10.2.1\bits\stl_iterator.h ****       const _Iterator&
1056:c:\program files\daisytoolchain\arm-none-eabi\include\c++\10.2.1\bits\stl_iterator.h ****       base() const _GLIBCXX_NOEXCEPT
1057:c:\program files\daisytoolchain\arm-none-eabi\include\c++\10.2.1\bits\stl_iterator.h ****       { return _M_current; }
1058:c:\program files\daisytoolchain\arm-none-eabi\include\c++\10.2.1\bits\stl_iterator.h ****     };
1059:c:\program files\daisytoolchain\arm-none-eabi\include\c++\10.2.1\bits\stl_iterator.h **** 
1060:c:\program files\daisytoolchain\arm-none-eabi\include\c++\10.2.1\bits\stl_iterator.h ****   // Note: In what follows, the left- and right-hand-side iterators are
1061:c:\program files\daisytoolchain\arm-none-eabi\include\c++\10.2.1\bits\stl_iterator.h ****   // allowed to vary in types (conceptually in cv-qualification) so that
1062:c:\program files\daisytoolchain\arm-none-eabi\include\c++\10.2.1\bits\stl_iterator.h ****   // comparison between cv-qualified and non-cv-qualified iterators be
1063:c:\program files\daisytoolchain\arm-none-eabi\include\c++\10.2.1\bits\stl_iterator.h ****   // valid.  However, the greedy and unfriendly operators in std::rel_ops
1064:c:\program files\daisytoolchain\arm-none-eabi\include\c++\10.2.1\bits\stl_iterator.h ****   // will make overload resolution ambiguous (when in scope) if we don't
1065:c:\program files\daisytoolchain\arm-none-eabi\include\c++\10.2.1\bits\stl_iterator.h ****   // provide overloads whose operands are of the same type.  Can someone
1066:c:\program files\daisytoolchain\arm-none-eabi\include\c++\10.2.1\bits\stl_iterator.h ****   // remind me what generic programming is about? -- Gaby
1067:c:\program files\daisytoolchain\arm-none-eabi\include\c++\10.2.1\bits\stl_iterator.h **** 
1068:c:\program files\daisytoolchain\arm-none-eabi\include\c++\10.2.1\bits\stl_iterator.h **** #if __cpp_lib_three_way_comparison
1069:c:\program files\daisytoolchain\arm-none-eabi\include\c++\10.2.1\bits\stl_iterator.h ****   template<typename _IteratorL, typename _IteratorR, typename _Container>
1070:c:\program files\daisytoolchain\arm-none-eabi\include\c++\10.2.1\bits\stl_iterator.h ****     requires requires (_IteratorL __lhs, _IteratorR __rhs)
1071:c:\program files\daisytoolchain\arm-none-eabi\include\c++\10.2.1\bits\stl_iterator.h ****     { { __lhs == __rhs } -> std::convertible_to<bool>; }
1072:c:\program files\daisytoolchain\arm-none-eabi\include\c++\10.2.1\bits\stl_iterator.h ****     constexpr bool
1073:c:\program files\daisytoolchain\arm-none-eabi\include\c++\10.2.1\bits\stl_iterator.h ****     operator==(const __normal_iterator<_IteratorL, _Container>& __lhs,
1074:c:\program files\daisytoolchain\arm-none-eabi\include\c++\10.2.1\bits\stl_iterator.h **** 	       const __normal_iterator<_IteratorR, _Container>& __rhs)
1075:c:\program files\daisytoolchain\arm-none-eabi\include\c++\10.2.1\bits\stl_iterator.h ****     noexcept(noexcept(__lhs.base() == __rhs.base()))
1076:c:\program files\daisytoolchain\arm-none-eabi\include\c++\10.2.1\bits\stl_iterator.h ****     { return __lhs.base() == __rhs.base(); }
1077:c:\program files\daisytoolchain\arm-none-eabi\include\c++\10.2.1\bits\stl_iterator.h **** 
1078:c:\program files\daisytoolchain\arm-none-eabi\include\c++\10.2.1\bits\stl_iterator.h ****   template<typename _IteratorL, typename _IteratorR, typename _Container>
1079:c:\program files\daisytoolchain\arm-none-eabi\include\c++\10.2.1\bits\stl_iterator.h ****     constexpr std::__detail::__synth3way_t<_IteratorR, _IteratorL>
1080:c:\program files\daisytoolchain\arm-none-eabi\include\c++\10.2.1\bits\stl_iterator.h ****     operator<=>(const __normal_iterator<_IteratorL, _Container>& __lhs,
1081:c:\program files\daisytoolchain\arm-none-eabi\include\c++\10.2.1\bits\stl_iterator.h **** 		const __normal_iterator<_IteratorR, _Container>& __rhs)
1082:c:\program files\daisytoolchain\arm-none-eabi\include\c++\10.2.1\bits\stl_iterator.h ****     noexcept(noexcept(std::__detail::__synth3way(__lhs.base(), __rhs.base())))
1083:c:\program files\daisytoolchain\arm-none-eabi\include\c++\10.2.1\bits\stl_iterator.h ****     { return std::__detail::__synth3way(__lhs.base(), __rhs.base()); }
1084:c:\program files\daisytoolchain\arm-none-eabi\include\c++\10.2.1\bits\stl_iterator.h **** #else
1085:c:\program files\daisytoolchain\arm-none-eabi\include\c++\10.2.1\bits\stl_iterator.h ****    // Forward iterator requirements
1086:c:\program files\daisytoolchain\arm-none-eabi\include\c++\10.2.1\bits\stl_iterator.h ****   template<typename _IteratorL, typename _IteratorR, typename _Container>
1087:c:\program files\daisytoolchain\arm-none-eabi\include\c++\10.2.1\bits\stl_iterator.h ****     _GLIBCXX20_CONSTEXPR
1088:c:\program files\daisytoolchain\arm-none-eabi\include\c++\10.2.1\bits\stl_iterator.h ****     inline bool
1089:c:\program files\daisytoolchain\arm-none-eabi\include\c++\10.2.1\bits\stl_iterator.h ****     operator==(const __normal_iterator<_IteratorL, _Container>& __lhs,
1090:c:\program files\daisytoolchain\arm-none-eabi\include\c++\10.2.1\bits\stl_iterator.h **** 	       const __normal_iterator<_IteratorR, _Container>& __rhs)
1091:c:\program files\daisytoolchain\arm-none-eabi\include\c++\10.2.1\bits\stl_iterator.h ****     _GLIBCXX_NOEXCEPT
1092:c:\program files\daisytoolchain\arm-none-eabi\include\c++\10.2.1\bits\stl_iterator.h ****     { return __lhs.base() == __rhs.base(); }
1093:c:\program files\daisytoolchain\arm-none-eabi\include\c++\10.2.1\bits\stl_iterator.h **** 
1094:c:\program files\daisytoolchain\arm-none-eabi\include\c++\10.2.1\bits\stl_iterator.h ****   template<typename _Iterator, typename _Container>
1095:c:\program files\daisytoolchain\arm-none-eabi\include\c++\10.2.1\bits\stl_iterator.h ****     _GLIBCXX20_CONSTEXPR
1096:c:\program files\daisytoolchain\arm-none-eabi\include\c++\10.2.1\bits\stl_iterator.h ****     inline bool
1097:c:\program files\daisytoolchain\arm-none-eabi\include\c++\10.2.1\bits\stl_iterator.h ****     operator==(const __normal_iterator<_Iterator, _Container>& __lhs,
1098:c:\program files\daisytoolchain\arm-none-eabi\include\c++\10.2.1\bits\stl_iterator.h **** 	       const __normal_iterator<_Iterator, _Container>& __rhs)
1099:c:\program files\daisytoolchain\arm-none-eabi\include\c++\10.2.1\bits\stl_iterator.h ****     _GLIBCXX_NOEXCEPT
1100:c:\program files\daisytoolchain\arm-none-eabi\include\c++\10.2.1\bits\stl_iterator.h ****     { return __lhs.base() == __rhs.base(); }
1101:c:\program files\daisytoolchain\arm-none-eabi\include\c++\10.2.1\bits\stl_iterator.h **** 
1102:c:\program files\daisytoolchain\arm-none-eabi\include\c++\10.2.1\bits\stl_iterator.h ****   template<typename _IteratorL, typename _IteratorR, typename _Container>
1103:c:\program files\daisytoolchain\arm-none-eabi\include\c++\10.2.1\bits\stl_iterator.h ****     _GLIBCXX20_CONSTEXPR
1104:c:\program files\daisytoolchain\arm-none-eabi\include\c++\10.2.1\bits\stl_iterator.h ****     inline bool
ARM GAS  C:\Users\samue\AppData\Local\Temp\cci865ja.s 			page 113


1105:c:\program files\daisytoolchain\arm-none-eabi\include\c++\10.2.1\bits\stl_iterator.h ****     operator!=(const __normal_iterator<_IteratorL, _Container>& __lhs,
1106:c:\program files\daisytoolchain\arm-none-eabi\include\c++\10.2.1\bits\stl_iterator.h **** 	       const __normal_iterator<_IteratorR, _Container>& __rhs)
1107:c:\program files\daisytoolchain\arm-none-eabi\include\c++\10.2.1\bits\stl_iterator.h ****     _GLIBCXX_NOEXCEPT
1108:c:\program files\daisytoolchain\arm-none-eabi\include\c++\10.2.1\bits\stl_iterator.h ****     { return __lhs.base() != __rhs.base(); }
1109:c:\program files\daisytoolchain\arm-none-eabi\include\c++\10.2.1\bits\stl_iterator.h **** 
1110:c:\program files\daisytoolchain\arm-none-eabi\include\c++\10.2.1\bits\stl_iterator.h ****   template<typename _Iterator, typename _Container>
1111:c:\program files\daisytoolchain\arm-none-eabi\include\c++\10.2.1\bits\stl_iterator.h ****     _GLIBCXX20_CONSTEXPR
1112:c:\program files\daisytoolchain\arm-none-eabi\include\c++\10.2.1\bits\stl_iterator.h ****     inline bool
1113:c:\program files\daisytoolchain\arm-none-eabi\include\c++\10.2.1\bits\stl_iterator.h ****     operator!=(const __normal_iterator<_Iterator, _Container>& __lhs,
1114:c:\program files\daisytoolchain\arm-none-eabi\include\c++\10.2.1\bits\stl_iterator.h **** 	       const __normal_iterator<_Iterator, _Container>& __rhs)
1115:c:\program files\daisytoolchain\arm-none-eabi\include\c++\10.2.1\bits\stl_iterator.h ****     _GLIBCXX_NOEXCEPT
1116:c:\program files\daisytoolchain\arm-none-eabi\include\c++\10.2.1\bits\stl_iterator.h ****     { return __lhs.base() != __rhs.base(); }
1117:c:\program files\daisytoolchain\arm-none-eabi\include\c++\10.2.1\bits\stl_iterator.h **** 
1118:c:\program files\daisytoolchain\arm-none-eabi\include\c++\10.2.1\bits\stl_iterator.h ****   // Random access iterator requirements
1119:c:\program files\daisytoolchain\arm-none-eabi\include\c++\10.2.1\bits\stl_iterator.h ****   template<typename _IteratorL, typename _IteratorR, typename _Container>
1120:c:\program files\daisytoolchain\arm-none-eabi\include\c++\10.2.1\bits\stl_iterator.h ****     inline bool
1121:c:\program files\daisytoolchain\arm-none-eabi\include\c++\10.2.1\bits\stl_iterator.h ****     operator<(const __normal_iterator<_IteratorL, _Container>& __lhs,
1122:c:\program files\daisytoolchain\arm-none-eabi\include\c++\10.2.1\bits\stl_iterator.h **** 	      const __normal_iterator<_IteratorR, _Container>& __rhs)
1123:c:\program files\daisytoolchain\arm-none-eabi\include\c++\10.2.1\bits\stl_iterator.h ****     _GLIBCXX_NOEXCEPT
1124:c:\program files\daisytoolchain\arm-none-eabi\include\c++\10.2.1\bits\stl_iterator.h ****     { return __lhs.base() < __rhs.base(); }
1125:c:\program files\daisytoolchain\arm-none-eabi\include\c++\10.2.1\bits\stl_iterator.h **** 
1126:c:\program files\daisytoolchain\arm-none-eabi\include\c++\10.2.1\bits\stl_iterator.h ****   template<typename _Iterator, typename _Container>
1127:c:\program files\daisytoolchain\arm-none-eabi\include\c++\10.2.1\bits\stl_iterator.h ****     _GLIBCXX20_CONSTEXPR
1128:c:\program files\daisytoolchain\arm-none-eabi\include\c++\10.2.1\bits\stl_iterator.h ****     inline bool
1129:c:\program files\daisytoolchain\arm-none-eabi\include\c++\10.2.1\bits\stl_iterator.h ****     operator<(const __normal_iterator<_Iterator, _Container>& __lhs,
1130:c:\program files\daisytoolchain\arm-none-eabi\include\c++\10.2.1\bits\stl_iterator.h **** 	      const __normal_iterator<_Iterator, _Container>& __rhs)
1131:c:\program files\daisytoolchain\arm-none-eabi\include\c++\10.2.1\bits\stl_iterator.h ****     _GLIBCXX_NOEXCEPT
1132:c:\program files\daisytoolchain\arm-none-eabi\include\c++\10.2.1\bits\stl_iterator.h ****     { return __lhs.base() < __rhs.base(); }
1133:c:\program files\daisytoolchain\arm-none-eabi\include\c++\10.2.1\bits\stl_iterator.h **** 
1134:c:\program files\daisytoolchain\arm-none-eabi\include\c++\10.2.1\bits\stl_iterator.h ****   template<typename _IteratorL, typename _IteratorR, typename _Container>
1135:c:\program files\daisytoolchain\arm-none-eabi\include\c++\10.2.1\bits\stl_iterator.h ****     inline bool
1136:c:\program files\daisytoolchain\arm-none-eabi\include\c++\10.2.1\bits\stl_iterator.h ****     operator>(const __normal_iterator<_IteratorL, _Container>& __lhs,
1137:c:\program files\daisytoolchain\arm-none-eabi\include\c++\10.2.1\bits\stl_iterator.h **** 	      const __normal_iterator<_IteratorR, _Container>& __rhs)
1138:c:\program files\daisytoolchain\arm-none-eabi\include\c++\10.2.1\bits\stl_iterator.h ****     _GLIBCXX_NOEXCEPT
1139:c:\program files\daisytoolchain\arm-none-eabi\include\c++\10.2.1\bits\stl_iterator.h ****     { return __lhs.base() > __rhs.base(); }
1140:c:\program files\daisytoolchain\arm-none-eabi\include\c++\10.2.1\bits\stl_iterator.h **** 
1141:c:\program files\daisytoolchain\arm-none-eabi\include\c++\10.2.1\bits\stl_iterator.h ****   template<typename _Iterator, typename _Container>
1142:c:\program files\daisytoolchain\arm-none-eabi\include\c++\10.2.1\bits\stl_iterator.h ****     _GLIBCXX20_CONSTEXPR
1143:c:\program files\daisytoolchain\arm-none-eabi\include\c++\10.2.1\bits\stl_iterator.h ****     inline bool
1144:c:\program files\daisytoolchain\arm-none-eabi\include\c++\10.2.1\bits\stl_iterator.h ****     operator>(const __normal_iterator<_Iterator, _Container>& __lhs,
1145:c:\program files\daisytoolchain\arm-none-eabi\include\c++\10.2.1\bits\stl_iterator.h **** 	      const __normal_iterator<_Iterator, _Container>& __rhs)
1146:c:\program files\daisytoolchain\arm-none-eabi\include\c++\10.2.1\bits\stl_iterator.h ****     _GLIBCXX_NOEXCEPT
1147:c:\program files\daisytoolchain\arm-none-eabi\include\c++\10.2.1\bits\stl_iterator.h ****     { return __lhs.base() > __rhs.base(); }
1148:c:\program files\daisytoolchain\arm-none-eabi\include\c++\10.2.1\bits\stl_iterator.h **** 
1149:c:\program files\daisytoolchain\arm-none-eabi\include\c++\10.2.1\bits\stl_iterator.h ****   template<typename _IteratorL, typename _IteratorR, typename _Container>
1150:c:\program files\daisytoolchain\arm-none-eabi\include\c++\10.2.1\bits\stl_iterator.h ****     inline bool
1151:c:\program files\daisytoolchain\arm-none-eabi\include\c++\10.2.1\bits\stl_iterator.h ****     operator<=(const __normal_iterator<_IteratorL, _Container>& __lhs,
1152:c:\program files\daisytoolchain\arm-none-eabi\include\c++\10.2.1\bits\stl_iterator.h **** 	       const __normal_iterator<_IteratorR, _Container>& __rhs)
1153:c:\program files\daisytoolchain\arm-none-eabi\include\c++\10.2.1\bits\stl_iterator.h ****     _GLIBCXX_NOEXCEPT
1154:c:\program files\daisytoolchain\arm-none-eabi\include\c++\10.2.1\bits\stl_iterator.h ****     { return __lhs.base() <= __rhs.base(); }
1155:c:\program files\daisytoolchain\arm-none-eabi\include\c++\10.2.1\bits\stl_iterator.h **** 
1156:c:\program files\daisytoolchain\arm-none-eabi\include\c++\10.2.1\bits\stl_iterator.h ****   template<typename _Iterator, typename _Container>
1157:c:\program files\daisytoolchain\arm-none-eabi\include\c++\10.2.1\bits\stl_iterator.h ****     _GLIBCXX20_CONSTEXPR
1158:c:\program files\daisytoolchain\arm-none-eabi\include\c++\10.2.1\bits\stl_iterator.h ****     inline bool
1159:c:\program files\daisytoolchain\arm-none-eabi\include\c++\10.2.1\bits\stl_iterator.h ****     operator<=(const __normal_iterator<_Iterator, _Container>& __lhs,
1160:c:\program files\daisytoolchain\arm-none-eabi\include\c++\10.2.1\bits\stl_iterator.h **** 	       const __normal_iterator<_Iterator, _Container>& __rhs)
1161:c:\program files\daisytoolchain\arm-none-eabi\include\c++\10.2.1\bits\stl_iterator.h ****     _GLIBCXX_NOEXCEPT
ARM GAS  C:\Users\samue\AppData\Local\Temp\cci865ja.s 			page 114


1162:c:\program files\daisytoolchain\arm-none-eabi\include\c++\10.2.1\bits\stl_iterator.h ****     { return __lhs.base() <= __rhs.base(); }
1163:c:\program files\daisytoolchain\arm-none-eabi\include\c++\10.2.1\bits\stl_iterator.h **** 
1164:c:\program files\daisytoolchain\arm-none-eabi\include\c++\10.2.1\bits\stl_iterator.h ****   template<typename _IteratorL, typename _IteratorR, typename _Container>
1165:c:\program files\daisytoolchain\arm-none-eabi\include\c++\10.2.1\bits\stl_iterator.h ****     inline bool
1166:c:\program files\daisytoolchain\arm-none-eabi\include\c++\10.2.1\bits\stl_iterator.h ****     operator>=(const __normal_iterator<_IteratorL, _Container>& __lhs,
1167:c:\program files\daisytoolchain\arm-none-eabi\include\c++\10.2.1\bits\stl_iterator.h **** 	       const __normal_iterator<_IteratorR, _Container>& __rhs)
1168:c:\program files\daisytoolchain\arm-none-eabi\include\c++\10.2.1\bits\stl_iterator.h ****     _GLIBCXX_NOEXCEPT
1169:c:\program files\daisytoolchain\arm-none-eabi\include\c++\10.2.1\bits\stl_iterator.h ****     { return __lhs.base() >= __rhs.base(); }
1170:c:\program files\daisytoolchain\arm-none-eabi\include\c++\10.2.1\bits\stl_iterator.h **** 
1171:c:\program files\daisytoolchain\arm-none-eabi\include\c++\10.2.1\bits\stl_iterator.h ****   template<typename _Iterator, typename _Container>
1172:c:\program files\daisytoolchain\arm-none-eabi\include\c++\10.2.1\bits\stl_iterator.h ****     _GLIBCXX20_CONSTEXPR
1173:c:\program files\daisytoolchain\arm-none-eabi\include\c++\10.2.1\bits\stl_iterator.h ****     inline bool
1174:c:\program files\daisytoolchain\arm-none-eabi\include\c++\10.2.1\bits\stl_iterator.h ****     operator>=(const __normal_iterator<_Iterator, _Container>& __lhs,
1175:c:\program files\daisytoolchain\arm-none-eabi\include\c++\10.2.1\bits\stl_iterator.h **** 	       const __normal_iterator<_Iterator, _Container>& __rhs)
1176:c:\program files\daisytoolchain\arm-none-eabi\include\c++\10.2.1\bits\stl_iterator.h ****     _GLIBCXX_NOEXCEPT
1177:c:\program files\daisytoolchain\arm-none-eabi\include\c++\10.2.1\bits\stl_iterator.h ****     { return __lhs.base() >= __rhs.base(); }
1178:c:\program files\daisytoolchain\arm-none-eabi\include\c++\10.2.1\bits\stl_iterator.h **** #endif // three-way comparison
1179:c:\program files\daisytoolchain\arm-none-eabi\include\c++\10.2.1\bits\stl_iterator.h **** 
1180:c:\program files\daisytoolchain\arm-none-eabi\include\c++\10.2.1\bits\stl_iterator.h ****   // _GLIBCXX_RESOLVE_LIB_DEFECTS
1181:c:\program files\daisytoolchain\arm-none-eabi\include\c++\10.2.1\bits\stl_iterator.h ****   // According to the resolution of DR179 not only the various comparison
1182:c:\program files\daisytoolchain\arm-none-eabi\include\c++\10.2.1\bits\stl_iterator.h ****   // operators but also operator- must accept mixed iterator/const_iterator
1183:c:\program files\daisytoolchain\arm-none-eabi\include\c++\10.2.1\bits\stl_iterator.h ****   // parameters.
1184:c:\program files\daisytoolchain\arm-none-eabi\include\c++\10.2.1\bits\stl_iterator.h ****   template<typename _IteratorL, typename _IteratorR, typename _Container>
1185:c:\program files\daisytoolchain\arm-none-eabi\include\c++\10.2.1\bits\stl_iterator.h **** #if __cplusplus >= 201103L
1186:c:\program files\daisytoolchain\arm-none-eabi\include\c++\10.2.1\bits\stl_iterator.h ****     // DR 685.
1187:c:\program files\daisytoolchain\arm-none-eabi\include\c++\10.2.1\bits\stl_iterator.h ****     _GLIBCXX20_CONSTEXPR
1188:c:\program files\daisytoolchain\arm-none-eabi\include\c++\10.2.1\bits\stl_iterator.h ****     inline auto
1189:c:\program files\daisytoolchain\arm-none-eabi\include\c++\10.2.1\bits\stl_iterator.h ****     operator-(const __normal_iterator<_IteratorL, _Container>& __lhs,
1190:c:\program files\daisytoolchain\arm-none-eabi\include\c++\10.2.1\bits\stl_iterator.h **** 	      const __normal_iterator<_IteratorR, _Container>& __rhs) noexcept
1191:c:\program files\daisytoolchain\arm-none-eabi\include\c++\10.2.1\bits\stl_iterator.h ****     -> decltype(__lhs.base() - __rhs.base())
1192:c:\program files\daisytoolchain\arm-none-eabi\include\c++\10.2.1\bits\stl_iterator.h **** #else
1193:c:\program files\daisytoolchain\arm-none-eabi\include\c++\10.2.1\bits\stl_iterator.h ****     inline typename __normal_iterator<_IteratorL, _Container>::difference_type
1194:c:\program files\daisytoolchain\arm-none-eabi\include\c++\10.2.1\bits\stl_iterator.h ****     operator-(const __normal_iterator<_IteratorL, _Container>& __lhs,
1195:c:\program files\daisytoolchain\arm-none-eabi\include\c++\10.2.1\bits\stl_iterator.h **** 	      const __normal_iterator<_IteratorR, _Container>& __rhs)
1196:c:\program files\daisytoolchain\arm-none-eabi\include\c++\10.2.1\bits\stl_iterator.h **** #endif
1197:c:\program files\daisytoolchain\arm-none-eabi\include\c++\10.2.1\bits\stl_iterator.h ****     { return __lhs.base() - __rhs.base(); }
1198:c:\program files\daisytoolchain\arm-none-eabi\include\c++\10.2.1\bits\stl_iterator.h **** 
1199:c:\program files\daisytoolchain\arm-none-eabi\include\c++\10.2.1\bits\stl_iterator.h ****   template<typename _Iterator, typename _Container>
1200:c:\program files\daisytoolchain\arm-none-eabi\include\c++\10.2.1\bits\stl_iterator.h ****     _GLIBCXX20_CONSTEXPR
1201:c:\program files\daisytoolchain\arm-none-eabi\include\c++\10.2.1\bits\stl_iterator.h ****     inline typename __normal_iterator<_Iterator, _Container>::difference_type
1202:c:\program files\daisytoolchain\arm-none-eabi\include\c++\10.2.1\bits\stl_iterator.h ****     operator-(const __normal_iterator<_Iterator, _Container>& __lhs,
1203:c:\program files\daisytoolchain\arm-none-eabi\include\c++\10.2.1\bits\stl_iterator.h **** 	      const __normal_iterator<_Iterator, _Container>& __rhs)
1204:c:\program files\daisytoolchain\arm-none-eabi\include\c++\10.2.1\bits\stl_iterator.h ****     _GLIBCXX_NOEXCEPT
1205:c:\program files\daisytoolchain\arm-none-eabi\include\c++\10.2.1\bits\stl_iterator.h ****     { return __lhs.base() - __rhs.base(); }
 2016              		.loc 8 1205 27 view .LVU503
 2017 002a A5EB0802 		sub	r2, r5, r8
 2018              	.LVL116:
 2019              		.loc 8 1205 27 view .LVU504
 2020 002e F618     		adds	r6, r6, r3
 2021 0030 67D2     		bcs	.L135
 2022              	.LVL117:
 2023              		.loc 8 1205 27 view .LVU505
 2024              	.LBE492:
 2025              	.LBE491:
 2026              	.LBB494:
 2027              	.LBI494:
 811:c:\program files\daisytoolchain\arm-none-eabi\include\c++\10.2.1\bits\stl_vector.h ****       { return iterator(this->_M_impl._M_start); }
ARM GAS  C:\Users\samue\AppData\Local\Temp\cci865ja.s 			page 115


 2028              		.loc 7 811 7 is_stmt 1 view .LVU506
 2029              	.LBB495:
 2030              	.LBI495:
 978:c:\program files\daisytoolchain\arm-none-eabi\include\c++\10.2.1\bits\stl_iterator.h ****       : _M_current(__i) { }
 2031              		.loc 8 978 7 view .LVU507
 978:c:\program files\daisytoolchain\arm-none-eabi\include\c++\10.2.1\bits\stl_iterator.h ****       : _M_current(__i) { }
 2032              		.loc 8 978 7 is_stmt 0 view .LVU508
 2033              	.LBE495:
 2034              	.LBE494:
 2035              	.LBB497:
 2036              	.LBI491:
1202:c:\program files\daisytoolchain\arm-none-eabi\include\c++\10.2.1\bits\stl_iterator.h **** 	      const __normal_iterator<_Iterator, _Container>& __rhs)
 2037              		.loc 8 1202 5 is_stmt 1 view .LVU509
1202:c:\program files\daisytoolchain\arm-none-eabi\include\c++\10.2.1\bits\stl_iterator.h **** 	      const __normal_iterator<_Iterator, _Container>& __rhs)
 2038              		.loc 8 1202 5 is_stmt 0 view .LVU510
 2039              	.LBE497:
 2040              	.LBB498:
 2041              	.LBI498:
 343:c:\program files\daisytoolchain\arm-none-eabi\include\c++\10.2.1\bits\stl_vector.h ****       {
 2042              		.loc 7 343 7 is_stmt 1 view .LVU511
 2043              	.LBB499:
 346:c:\program files\daisytoolchain\arm-none-eabi\include\c++\10.2.1\bits\stl_vector.h ****       }
 2044              		.loc 7 346 18 is_stmt 0 view .LVU512
 2045 0032 002E     		cmp	r6, #0
 2046 0034 55D1     		bne	.L152
 2047 0036 4FF0140A 		mov	r10, #20
 2048 003a B146     		mov	r9, r6
 2049              	.LVL118:
 2050              	.L143:
 346:c:\program files\daisytoolchain\arm-none-eabi\include\c++\10.2.1\bits\stl_vector.h ****       }
 2051              		.loc 7 346 18 view .LVU513
 2052              	.LBE499:
 2053              	.LBE498:
 2054              	.LBB510:
 2055              	.LBI510:
 2056              		.file 10 "c:\\program files\\daisytoolchain\\arm-none-eabi\\include\\c++\\10.2.1\\bits\\alloc_trai
   1:c:\program files\daisytoolchain\arm-none-eabi\include\c++\10.2.1\bits\alloc_traits.h **** // Allocator traits -*- C++ -*-
   2:c:\program files\daisytoolchain\arm-none-eabi\include\c++\10.2.1\bits\alloc_traits.h **** 
   3:c:\program files\daisytoolchain\arm-none-eabi\include\c++\10.2.1\bits\alloc_traits.h **** // Copyright (C) 2011-2020 Free Software Foundation, Inc.
   4:c:\program files\daisytoolchain\arm-none-eabi\include\c++\10.2.1\bits\alloc_traits.h **** //
   5:c:\program files\daisytoolchain\arm-none-eabi\include\c++\10.2.1\bits\alloc_traits.h **** // This file is part of the GNU ISO C++ Library.  This library is free
   6:c:\program files\daisytoolchain\arm-none-eabi\include\c++\10.2.1\bits\alloc_traits.h **** // software; you can redistribute it and/or modify it under the
   7:c:\program files\daisytoolchain\arm-none-eabi\include\c++\10.2.1\bits\alloc_traits.h **** // terms of the GNU General Public License as published by the
   8:c:\program files\daisytoolchain\arm-none-eabi\include\c++\10.2.1\bits\alloc_traits.h **** // Free Software Foundation; either version 3, or (at your option)
   9:c:\program files\daisytoolchain\arm-none-eabi\include\c++\10.2.1\bits\alloc_traits.h **** // any later version.
  10:c:\program files\daisytoolchain\arm-none-eabi\include\c++\10.2.1\bits\alloc_traits.h **** 
  11:c:\program files\daisytoolchain\arm-none-eabi\include\c++\10.2.1\bits\alloc_traits.h **** // This library is distributed in the hope that it will be useful,
  12:c:\program files\daisytoolchain\arm-none-eabi\include\c++\10.2.1\bits\alloc_traits.h **** // but WITHOUT ANY WARRANTY; without even the implied warranty of
  13:c:\program files\daisytoolchain\arm-none-eabi\include\c++\10.2.1\bits\alloc_traits.h **** // MERCHANTABILITY or FITNESS FOR A PARTICULAR PURPOSE.  See the
  14:c:\program files\daisytoolchain\arm-none-eabi\include\c++\10.2.1\bits\alloc_traits.h **** // GNU General Public License for more details.
  15:c:\program files\daisytoolchain\arm-none-eabi\include\c++\10.2.1\bits\alloc_traits.h **** 
  16:c:\program files\daisytoolchain\arm-none-eabi\include\c++\10.2.1\bits\alloc_traits.h **** // Under Section 7 of GPL version 3, you are granted additional
  17:c:\program files\daisytoolchain\arm-none-eabi\include\c++\10.2.1\bits\alloc_traits.h **** // permissions described in the GCC Runtime Library Exception, version
  18:c:\program files\daisytoolchain\arm-none-eabi\include\c++\10.2.1\bits\alloc_traits.h **** // 3.1, as published by the Free Software Foundation.
  19:c:\program files\daisytoolchain\arm-none-eabi\include\c++\10.2.1\bits\alloc_traits.h **** 
  20:c:\program files\daisytoolchain\arm-none-eabi\include\c++\10.2.1\bits\alloc_traits.h **** // You should have received a copy of the GNU General Public License and
  21:c:\program files\daisytoolchain\arm-none-eabi\include\c++\10.2.1\bits\alloc_traits.h **** // a copy of the GCC Runtime Library Exception along with this program;
ARM GAS  C:\Users\samue\AppData\Local\Temp\cci865ja.s 			page 116


  22:c:\program files\daisytoolchain\arm-none-eabi\include\c++\10.2.1\bits\alloc_traits.h **** // see the files COPYING3 and COPYING.RUNTIME respectively.  If not, see
  23:c:\program files\daisytoolchain\arm-none-eabi\include\c++\10.2.1\bits\alloc_traits.h **** // <http://www.gnu.org/licenses/>.
  24:c:\program files\daisytoolchain\arm-none-eabi\include\c++\10.2.1\bits\alloc_traits.h **** 
  25:c:\program files\daisytoolchain\arm-none-eabi\include\c++\10.2.1\bits\alloc_traits.h **** /** @file bits/alloc_traits.h
  26:c:\program files\daisytoolchain\arm-none-eabi\include\c++\10.2.1\bits\alloc_traits.h ****  *  This is an internal header file, included by other library headers.
  27:c:\program files\daisytoolchain\arm-none-eabi\include\c++\10.2.1\bits\alloc_traits.h ****  *  Do not attempt to use it directly. @headername{memory}
  28:c:\program files\daisytoolchain\arm-none-eabi\include\c++\10.2.1\bits\alloc_traits.h ****  */
  29:c:\program files\daisytoolchain\arm-none-eabi\include\c++\10.2.1\bits\alloc_traits.h **** 
  30:c:\program files\daisytoolchain\arm-none-eabi\include\c++\10.2.1\bits\alloc_traits.h **** #ifndef _ALLOC_TRAITS_H
  31:c:\program files\daisytoolchain\arm-none-eabi\include\c++\10.2.1\bits\alloc_traits.h **** #define _ALLOC_TRAITS_H 1
  32:c:\program files\daisytoolchain\arm-none-eabi\include\c++\10.2.1\bits\alloc_traits.h **** 
  33:c:\program files\daisytoolchain\arm-none-eabi\include\c++\10.2.1\bits\alloc_traits.h **** #include <bits/stl_construct.h>
  34:c:\program files\daisytoolchain\arm-none-eabi\include\c++\10.2.1\bits\alloc_traits.h **** #include <bits/memoryfwd.h>
  35:c:\program files\daisytoolchain\arm-none-eabi\include\c++\10.2.1\bits\alloc_traits.h **** #if __cplusplus >= 201103L
  36:c:\program files\daisytoolchain\arm-none-eabi\include\c++\10.2.1\bits\alloc_traits.h **** # include <bits/allocator.h>
  37:c:\program files\daisytoolchain\arm-none-eabi\include\c++\10.2.1\bits\alloc_traits.h **** # include <bits/ptr_traits.h>
  38:c:\program files\daisytoolchain\arm-none-eabi\include\c++\10.2.1\bits\alloc_traits.h **** # include <ext/numeric_traits.h>
  39:c:\program files\daisytoolchain\arm-none-eabi\include\c++\10.2.1\bits\alloc_traits.h **** #endif
  40:c:\program files\daisytoolchain\arm-none-eabi\include\c++\10.2.1\bits\alloc_traits.h **** 
  41:c:\program files\daisytoolchain\arm-none-eabi\include\c++\10.2.1\bits\alloc_traits.h **** namespace std _GLIBCXX_VISIBILITY(default)
  42:c:\program files\daisytoolchain\arm-none-eabi\include\c++\10.2.1\bits\alloc_traits.h **** {
  43:c:\program files\daisytoolchain\arm-none-eabi\include\c++\10.2.1\bits\alloc_traits.h **** _GLIBCXX_BEGIN_NAMESPACE_VERSION
  44:c:\program files\daisytoolchain\arm-none-eabi\include\c++\10.2.1\bits\alloc_traits.h **** 
  45:c:\program files\daisytoolchain\arm-none-eabi\include\c++\10.2.1\bits\alloc_traits.h **** #if __cplusplus >= 201103L
  46:c:\program files\daisytoolchain\arm-none-eabi\include\c++\10.2.1\bits\alloc_traits.h **** #define __cpp_lib_allocator_traits_is_always_equal 201411
  47:c:\program files\daisytoolchain\arm-none-eabi\include\c++\10.2.1\bits\alloc_traits.h **** 
  48:c:\program files\daisytoolchain\arm-none-eabi\include\c++\10.2.1\bits\alloc_traits.h ****   struct __allocator_traits_base
  49:c:\program files\daisytoolchain\arm-none-eabi\include\c++\10.2.1\bits\alloc_traits.h ****   {
  50:c:\program files\daisytoolchain\arm-none-eabi\include\c++\10.2.1\bits\alloc_traits.h ****     template<typename _Tp, typename _Up, typename = void>
  51:c:\program files\daisytoolchain\arm-none-eabi\include\c++\10.2.1\bits\alloc_traits.h ****       struct __rebind : __replace_first_arg<_Tp, _Up> { };
  52:c:\program files\daisytoolchain\arm-none-eabi\include\c++\10.2.1\bits\alloc_traits.h **** 
  53:c:\program files\daisytoolchain\arm-none-eabi\include\c++\10.2.1\bits\alloc_traits.h ****     template<typename _Tp, typename _Up>
  54:c:\program files\daisytoolchain\arm-none-eabi\include\c++\10.2.1\bits\alloc_traits.h ****       struct __rebind<_Tp, _Up,
  55:c:\program files\daisytoolchain\arm-none-eabi\include\c++\10.2.1\bits\alloc_traits.h **** 		      __void_t<typename _Tp::template rebind<_Up>::other>>
  56:c:\program files\daisytoolchain\arm-none-eabi\include\c++\10.2.1\bits\alloc_traits.h ****       { using type = typename _Tp::template rebind<_Up>::other; };
  57:c:\program files\daisytoolchain\arm-none-eabi\include\c++\10.2.1\bits\alloc_traits.h **** 
  58:c:\program files\daisytoolchain\arm-none-eabi\include\c++\10.2.1\bits\alloc_traits.h ****   protected:
  59:c:\program files\daisytoolchain\arm-none-eabi\include\c++\10.2.1\bits\alloc_traits.h ****     template<typename _Tp>
  60:c:\program files\daisytoolchain\arm-none-eabi\include\c++\10.2.1\bits\alloc_traits.h ****       using __pointer = typename _Tp::pointer;
  61:c:\program files\daisytoolchain\arm-none-eabi\include\c++\10.2.1\bits\alloc_traits.h ****     template<typename _Tp>
  62:c:\program files\daisytoolchain\arm-none-eabi\include\c++\10.2.1\bits\alloc_traits.h ****       using __c_pointer = typename _Tp::const_pointer;
  63:c:\program files\daisytoolchain\arm-none-eabi\include\c++\10.2.1\bits\alloc_traits.h ****     template<typename _Tp>
  64:c:\program files\daisytoolchain\arm-none-eabi\include\c++\10.2.1\bits\alloc_traits.h ****       using __v_pointer = typename _Tp::void_pointer;
  65:c:\program files\daisytoolchain\arm-none-eabi\include\c++\10.2.1\bits\alloc_traits.h ****     template<typename _Tp>
  66:c:\program files\daisytoolchain\arm-none-eabi\include\c++\10.2.1\bits\alloc_traits.h ****       using __cv_pointer = typename _Tp::const_void_pointer;
  67:c:\program files\daisytoolchain\arm-none-eabi\include\c++\10.2.1\bits\alloc_traits.h ****     template<typename _Tp>
  68:c:\program files\daisytoolchain\arm-none-eabi\include\c++\10.2.1\bits\alloc_traits.h ****       using __pocca = typename _Tp::propagate_on_container_copy_assignment;
  69:c:\program files\daisytoolchain\arm-none-eabi\include\c++\10.2.1\bits\alloc_traits.h ****     template<typename _Tp>
  70:c:\program files\daisytoolchain\arm-none-eabi\include\c++\10.2.1\bits\alloc_traits.h ****       using __pocma = typename _Tp::propagate_on_container_move_assignment;
  71:c:\program files\daisytoolchain\arm-none-eabi\include\c++\10.2.1\bits\alloc_traits.h ****     template<typename _Tp>
  72:c:\program files\daisytoolchain\arm-none-eabi\include\c++\10.2.1\bits\alloc_traits.h ****       using __pocs = typename _Tp::propagate_on_container_swap;
  73:c:\program files\daisytoolchain\arm-none-eabi\include\c++\10.2.1\bits\alloc_traits.h ****     template<typename _Tp>
  74:c:\program files\daisytoolchain\arm-none-eabi\include\c++\10.2.1\bits\alloc_traits.h ****       using __equal = typename _Tp::is_always_equal;
  75:c:\program files\daisytoolchain\arm-none-eabi\include\c++\10.2.1\bits\alloc_traits.h ****   };
  76:c:\program files\daisytoolchain\arm-none-eabi\include\c++\10.2.1\bits\alloc_traits.h **** 
  77:c:\program files\daisytoolchain\arm-none-eabi\include\c++\10.2.1\bits\alloc_traits.h ****   template<typename _Alloc, typename _Up>
  78:c:\program files\daisytoolchain\arm-none-eabi\include\c++\10.2.1\bits\alloc_traits.h ****     using __alloc_rebind
ARM GAS  C:\Users\samue\AppData\Local\Temp\cci865ja.s 			page 117


  79:c:\program files\daisytoolchain\arm-none-eabi\include\c++\10.2.1\bits\alloc_traits.h ****       = typename __allocator_traits_base::template __rebind<_Alloc, _Up>::type;
  80:c:\program files\daisytoolchain\arm-none-eabi\include\c++\10.2.1\bits\alloc_traits.h **** 
  81:c:\program files\daisytoolchain\arm-none-eabi\include\c++\10.2.1\bits\alloc_traits.h ****   /**
  82:c:\program files\daisytoolchain\arm-none-eabi\include\c++\10.2.1\bits\alloc_traits.h ****    * @brief  Uniform interface to all allocator types.
  83:c:\program files\daisytoolchain\arm-none-eabi\include\c++\10.2.1\bits\alloc_traits.h ****    * @ingroup allocators
  84:c:\program files\daisytoolchain\arm-none-eabi\include\c++\10.2.1\bits\alloc_traits.h ****   */
  85:c:\program files\daisytoolchain\arm-none-eabi\include\c++\10.2.1\bits\alloc_traits.h ****   template<typename _Alloc>
  86:c:\program files\daisytoolchain\arm-none-eabi\include\c++\10.2.1\bits\alloc_traits.h ****     struct allocator_traits : __allocator_traits_base
  87:c:\program files\daisytoolchain\arm-none-eabi\include\c++\10.2.1\bits\alloc_traits.h ****     {
  88:c:\program files\daisytoolchain\arm-none-eabi\include\c++\10.2.1\bits\alloc_traits.h ****       /// The allocator type
  89:c:\program files\daisytoolchain\arm-none-eabi\include\c++\10.2.1\bits\alloc_traits.h ****       typedef _Alloc allocator_type;
  90:c:\program files\daisytoolchain\arm-none-eabi\include\c++\10.2.1\bits\alloc_traits.h ****       /// The allocated type
  91:c:\program files\daisytoolchain\arm-none-eabi\include\c++\10.2.1\bits\alloc_traits.h ****       typedef typename _Alloc::value_type value_type;
  92:c:\program files\daisytoolchain\arm-none-eabi\include\c++\10.2.1\bits\alloc_traits.h **** 
  93:c:\program files\daisytoolchain\arm-none-eabi\include\c++\10.2.1\bits\alloc_traits.h ****       /**
  94:c:\program files\daisytoolchain\arm-none-eabi\include\c++\10.2.1\bits\alloc_traits.h ****        * @brief   The allocator's pointer type.
  95:c:\program files\daisytoolchain\arm-none-eabi\include\c++\10.2.1\bits\alloc_traits.h ****        *
  96:c:\program files\daisytoolchain\arm-none-eabi\include\c++\10.2.1\bits\alloc_traits.h ****        * @c Alloc::pointer if that type exists, otherwise @c value_type*
  97:c:\program files\daisytoolchain\arm-none-eabi\include\c++\10.2.1\bits\alloc_traits.h ****       */
  98:c:\program files\daisytoolchain\arm-none-eabi\include\c++\10.2.1\bits\alloc_traits.h ****       using pointer = __detected_or_t<value_type*, __pointer, _Alloc>;
  99:c:\program files\daisytoolchain\arm-none-eabi\include\c++\10.2.1\bits\alloc_traits.h **** 
 100:c:\program files\daisytoolchain\arm-none-eabi\include\c++\10.2.1\bits\alloc_traits.h ****     private:
 101:c:\program files\daisytoolchain\arm-none-eabi\include\c++\10.2.1\bits\alloc_traits.h ****       // Select _Func<_Alloc> or pointer_traits<pointer>::rebind<_Tp>
 102:c:\program files\daisytoolchain\arm-none-eabi\include\c++\10.2.1\bits\alloc_traits.h ****       template<template<typename> class _Func, typename _Tp, typename = void>
 103:c:\program files\daisytoolchain\arm-none-eabi\include\c++\10.2.1\bits\alloc_traits.h **** 	struct _Ptr
 104:c:\program files\daisytoolchain\arm-none-eabi\include\c++\10.2.1\bits\alloc_traits.h **** 	{
 105:c:\program files\daisytoolchain\arm-none-eabi\include\c++\10.2.1\bits\alloc_traits.h **** 	  using type = typename pointer_traits<pointer>::template rebind<_Tp>;
 106:c:\program files\daisytoolchain\arm-none-eabi\include\c++\10.2.1\bits\alloc_traits.h **** 	};
 107:c:\program files\daisytoolchain\arm-none-eabi\include\c++\10.2.1\bits\alloc_traits.h **** 
 108:c:\program files\daisytoolchain\arm-none-eabi\include\c++\10.2.1\bits\alloc_traits.h ****       template<template<typename> class _Func, typename _Tp>
 109:c:\program files\daisytoolchain\arm-none-eabi\include\c++\10.2.1\bits\alloc_traits.h **** 	struct _Ptr<_Func, _Tp, __void_t<_Func<_Alloc>>>
 110:c:\program files\daisytoolchain\arm-none-eabi\include\c++\10.2.1\bits\alloc_traits.h **** 	{
 111:c:\program files\daisytoolchain\arm-none-eabi\include\c++\10.2.1\bits\alloc_traits.h **** 	  using type = _Func<_Alloc>;
 112:c:\program files\daisytoolchain\arm-none-eabi\include\c++\10.2.1\bits\alloc_traits.h **** 	};
 113:c:\program files\daisytoolchain\arm-none-eabi\include\c++\10.2.1\bits\alloc_traits.h **** 
 114:c:\program files\daisytoolchain\arm-none-eabi\include\c++\10.2.1\bits\alloc_traits.h ****       // Select _A2::difference_type or pointer_traits<_Ptr>::difference_type
 115:c:\program files\daisytoolchain\arm-none-eabi\include\c++\10.2.1\bits\alloc_traits.h ****       template<typename _A2, typename _PtrT, typename = void>
 116:c:\program files\daisytoolchain\arm-none-eabi\include\c++\10.2.1\bits\alloc_traits.h **** 	struct _Diff
 117:c:\program files\daisytoolchain\arm-none-eabi\include\c++\10.2.1\bits\alloc_traits.h **** 	{ using type = typename pointer_traits<_PtrT>::difference_type; };
 118:c:\program files\daisytoolchain\arm-none-eabi\include\c++\10.2.1\bits\alloc_traits.h **** 
 119:c:\program files\daisytoolchain\arm-none-eabi\include\c++\10.2.1\bits\alloc_traits.h ****       template<typename _A2, typename _PtrT>
 120:c:\program files\daisytoolchain\arm-none-eabi\include\c++\10.2.1\bits\alloc_traits.h **** 	struct _Diff<_A2, _PtrT, __void_t<typename _A2::difference_type>>
 121:c:\program files\daisytoolchain\arm-none-eabi\include\c++\10.2.1\bits\alloc_traits.h **** 	{ using type = typename _A2::difference_type; };
 122:c:\program files\daisytoolchain\arm-none-eabi\include\c++\10.2.1\bits\alloc_traits.h **** 
 123:c:\program files\daisytoolchain\arm-none-eabi\include\c++\10.2.1\bits\alloc_traits.h ****       // Select _A2::size_type or make_unsigned<_DiffT>::type
 124:c:\program files\daisytoolchain\arm-none-eabi\include\c++\10.2.1\bits\alloc_traits.h ****       template<typename _A2, typename _DiffT, typename = void>
 125:c:\program files\daisytoolchain\arm-none-eabi\include\c++\10.2.1\bits\alloc_traits.h **** 	struct _Size : make_unsigned<_DiffT> { };
 126:c:\program files\daisytoolchain\arm-none-eabi\include\c++\10.2.1\bits\alloc_traits.h **** 
 127:c:\program files\daisytoolchain\arm-none-eabi\include\c++\10.2.1\bits\alloc_traits.h ****       template<typename _A2, typename _DiffT>
 128:c:\program files\daisytoolchain\arm-none-eabi\include\c++\10.2.1\bits\alloc_traits.h **** 	struct _Size<_A2, _DiffT, __void_t<typename _A2::size_type>>
 129:c:\program files\daisytoolchain\arm-none-eabi\include\c++\10.2.1\bits\alloc_traits.h **** 	{ using type = typename _A2::size_type; };
 130:c:\program files\daisytoolchain\arm-none-eabi\include\c++\10.2.1\bits\alloc_traits.h **** 
 131:c:\program files\daisytoolchain\arm-none-eabi\include\c++\10.2.1\bits\alloc_traits.h ****     public:
 132:c:\program files\daisytoolchain\arm-none-eabi\include\c++\10.2.1\bits\alloc_traits.h ****       /**
 133:c:\program files\daisytoolchain\arm-none-eabi\include\c++\10.2.1\bits\alloc_traits.h ****        * @brief   The allocator's const pointer type.
 134:c:\program files\daisytoolchain\arm-none-eabi\include\c++\10.2.1\bits\alloc_traits.h ****        *
 135:c:\program files\daisytoolchain\arm-none-eabi\include\c++\10.2.1\bits\alloc_traits.h ****        * @c Alloc::const_pointer if that type exists, otherwise
ARM GAS  C:\Users\samue\AppData\Local\Temp\cci865ja.s 			page 118


 136:c:\program files\daisytoolchain\arm-none-eabi\include\c++\10.2.1\bits\alloc_traits.h ****        * <tt> pointer_traits<pointer>::rebind<const value_type> </tt>
 137:c:\program files\daisytoolchain\arm-none-eabi\include\c++\10.2.1\bits\alloc_traits.h ****       */
 138:c:\program files\daisytoolchain\arm-none-eabi\include\c++\10.2.1\bits\alloc_traits.h ****       using const_pointer = typename _Ptr<__c_pointer, const value_type>::type;
 139:c:\program files\daisytoolchain\arm-none-eabi\include\c++\10.2.1\bits\alloc_traits.h **** 
 140:c:\program files\daisytoolchain\arm-none-eabi\include\c++\10.2.1\bits\alloc_traits.h ****       /**
 141:c:\program files\daisytoolchain\arm-none-eabi\include\c++\10.2.1\bits\alloc_traits.h ****        * @brief   The allocator's void pointer type.
 142:c:\program files\daisytoolchain\arm-none-eabi\include\c++\10.2.1\bits\alloc_traits.h ****        *
 143:c:\program files\daisytoolchain\arm-none-eabi\include\c++\10.2.1\bits\alloc_traits.h ****        * @c Alloc::void_pointer if that type exists, otherwise
 144:c:\program files\daisytoolchain\arm-none-eabi\include\c++\10.2.1\bits\alloc_traits.h ****        * <tt> pointer_traits<pointer>::rebind<void> </tt>
 145:c:\program files\daisytoolchain\arm-none-eabi\include\c++\10.2.1\bits\alloc_traits.h ****       */
 146:c:\program files\daisytoolchain\arm-none-eabi\include\c++\10.2.1\bits\alloc_traits.h ****       using void_pointer = typename _Ptr<__v_pointer, void>::type;
 147:c:\program files\daisytoolchain\arm-none-eabi\include\c++\10.2.1\bits\alloc_traits.h **** 
 148:c:\program files\daisytoolchain\arm-none-eabi\include\c++\10.2.1\bits\alloc_traits.h ****       /**
 149:c:\program files\daisytoolchain\arm-none-eabi\include\c++\10.2.1\bits\alloc_traits.h ****        * @brief   The allocator's const void pointer type.
 150:c:\program files\daisytoolchain\arm-none-eabi\include\c++\10.2.1\bits\alloc_traits.h ****        *
 151:c:\program files\daisytoolchain\arm-none-eabi\include\c++\10.2.1\bits\alloc_traits.h ****        * @c Alloc::const_void_pointer if that type exists, otherwise
 152:c:\program files\daisytoolchain\arm-none-eabi\include\c++\10.2.1\bits\alloc_traits.h ****        * <tt> pointer_traits<pointer>::rebind<const void> </tt>
 153:c:\program files\daisytoolchain\arm-none-eabi\include\c++\10.2.1\bits\alloc_traits.h ****       */
 154:c:\program files\daisytoolchain\arm-none-eabi\include\c++\10.2.1\bits\alloc_traits.h ****       using const_void_pointer = typename _Ptr<__cv_pointer, const void>::type;
 155:c:\program files\daisytoolchain\arm-none-eabi\include\c++\10.2.1\bits\alloc_traits.h **** 
 156:c:\program files\daisytoolchain\arm-none-eabi\include\c++\10.2.1\bits\alloc_traits.h ****       /**
 157:c:\program files\daisytoolchain\arm-none-eabi\include\c++\10.2.1\bits\alloc_traits.h ****        * @brief   The allocator's difference type
 158:c:\program files\daisytoolchain\arm-none-eabi\include\c++\10.2.1\bits\alloc_traits.h ****        *
 159:c:\program files\daisytoolchain\arm-none-eabi\include\c++\10.2.1\bits\alloc_traits.h ****        * @c Alloc::difference_type if that type exists, otherwise
 160:c:\program files\daisytoolchain\arm-none-eabi\include\c++\10.2.1\bits\alloc_traits.h ****        * <tt> pointer_traits<pointer>::difference_type </tt>
 161:c:\program files\daisytoolchain\arm-none-eabi\include\c++\10.2.1\bits\alloc_traits.h ****       */
 162:c:\program files\daisytoolchain\arm-none-eabi\include\c++\10.2.1\bits\alloc_traits.h ****       using difference_type = typename _Diff<_Alloc, pointer>::type;
 163:c:\program files\daisytoolchain\arm-none-eabi\include\c++\10.2.1\bits\alloc_traits.h **** 
 164:c:\program files\daisytoolchain\arm-none-eabi\include\c++\10.2.1\bits\alloc_traits.h ****       /**
 165:c:\program files\daisytoolchain\arm-none-eabi\include\c++\10.2.1\bits\alloc_traits.h ****        * @brief   The allocator's size type
 166:c:\program files\daisytoolchain\arm-none-eabi\include\c++\10.2.1\bits\alloc_traits.h ****        *
 167:c:\program files\daisytoolchain\arm-none-eabi\include\c++\10.2.1\bits\alloc_traits.h ****        * @c Alloc::size_type if that type exists, otherwise
 168:c:\program files\daisytoolchain\arm-none-eabi\include\c++\10.2.1\bits\alloc_traits.h ****        * <tt> make_unsigned<difference_type>::type </tt>
 169:c:\program files\daisytoolchain\arm-none-eabi\include\c++\10.2.1\bits\alloc_traits.h ****       */
 170:c:\program files\daisytoolchain\arm-none-eabi\include\c++\10.2.1\bits\alloc_traits.h ****       using size_type = typename _Size<_Alloc, difference_type>::type;
 171:c:\program files\daisytoolchain\arm-none-eabi\include\c++\10.2.1\bits\alloc_traits.h **** 
 172:c:\program files\daisytoolchain\arm-none-eabi\include\c++\10.2.1\bits\alloc_traits.h ****       /**
 173:c:\program files\daisytoolchain\arm-none-eabi\include\c++\10.2.1\bits\alloc_traits.h ****        * @brief   How the allocator is propagated on copy assignment
 174:c:\program files\daisytoolchain\arm-none-eabi\include\c++\10.2.1\bits\alloc_traits.h ****        *
 175:c:\program files\daisytoolchain\arm-none-eabi\include\c++\10.2.1\bits\alloc_traits.h ****        * @c Alloc::propagate_on_container_copy_assignment if that type exists,
 176:c:\program files\daisytoolchain\arm-none-eabi\include\c++\10.2.1\bits\alloc_traits.h ****        * otherwise @c false_type
 177:c:\program files\daisytoolchain\arm-none-eabi\include\c++\10.2.1\bits\alloc_traits.h ****       */
 178:c:\program files\daisytoolchain\arm-none-eabi\include\c++\10.2.1\bits\alloc_traits.h ****       using propagate_on_container_copy_assignment
 179:c:\program files\daisytoolchain\arm-none-eabi\include\c++\10.2.1\bits\alloc_traits.h **** 	= __detected_or_t<false_type, __pocca, _Alloc>;
 180:c:\program files\daisytoolchain\arm-none-eabi\include\c++\10.2.1\bits\alloc_traits.h **** 
 181:c:\program files\daisytoolchain\arm-none-eabi\include\c++\10.2.1\bits\alloc_traits.h ****       /**
 182:c:\program files\daisytoolchain\arm-none-eabi\include\c++\10.2.1\bits\alloc_traits.h ****        * @brief   How the allocator is propagated on move assignment
 183:c:\program files\daisytoolchain\arm-none-eabi\include\c++\10.2.1\bits\alloc_traits.h ****        *
 184:c:\program files\daisytoolchain\arm-none-eabi\include\c++\10.2.1\bits\alloc_traits.h ****        * @c Alloc::propagate_on_container_move_assignment if that type exists,
 185:c:\program files\daisytoolchain\arm-none-eabi\include\c++\10.2.1\bits\alloc_traits.h ****        * otherwise @c false_type
 186:c:\program files\daisytoolchain\arm-none-eabi\include\c++\10.2.1\bits\alloc_traits.h ****       */
 187:c:\program files\daisytoolchain\arm-none-eabi\include\c++\10.2.1\bits\alloc_traits.h ****       using propagate_on_container_move_assignment
 188:c:\program files\daisytoolchain\arm-none-eabi\include\c++\10.2.1\bits\alloc_traits.h **** 	= __detected_or_t<false_type, __pocma, _Alloc>;
 189:c:\program files\daisytoolchain\arm-none-eabi\include\c++\10.2.1\bits\alloc_traits.h **** 
 190:c:\program files\daisytoolchain\arm-none-eabi\include\c++\10.2.1\bits\alloc_traits.h ****       /**
 191:c:\program files\daisytoolchain\arm-none-eabi\include\c++\10.2.1\bits\alloc_traits.h ****        * @brief   How the allocator is propagated on swap
 192:c:\program files\daisytoolchain\arm-none-eabi\include\c++\10.2.1\bits\alloc_traits.h ****        *
ARM GAS  C:\Users\samue\AppData\Local\Temp\cci865ja.s 			page 119


 193:c:\program files\daisytoolchain\arm-none-eabi\include\c++\10.2.1\bits\alloc_traits.h ****        * @c Alloc::propagate_on_container_swap if that type exists,
 194:c:\program files\daisytoolchain\arm-none-eabi\include\c++\10.2.1\bits\alloc_traits.h ****        * otherwise @c false_type
 195:c:\program files\daisytoolchain\arm-none-eabi\include\c++\10.2.1\bits\alloc_traits.h ****       */
 196:c:\program files\daisytoolchain\arm-none-eabi\include\c++\10.2.1\bits\alloc_traits.h ****       using propagate_on_container_swap
 197:c:\program files\daisytoolchain\arm-none-eabi\include\c++\10.2.1\bits\alloc_traits.h **** 	= __detected_or_t<false_type, __pocs, _Alloc>;
 198:c:\program files\daisytoolchain\arm-none-eabi\include\c++\10.2.1\bits\alloc_traits.h **** 
 199:c:\program files\daisytoolchain\arm-none-eabi\include\c++\10.2.1\bits\alloc_traits.h ****       /**
 200:c:\program files\daisytoolchain\arm-none-eabi\include\c++\10.2.1\bits\alloc_traits.h ****        * @brief   Whether all instances of the allocator type compare equal.
 201:c:\program files\daisytoolchain\arm-none-eabi\include\c++\10.2.1\bits\alloc_traits.h ****        *
 202:c:\program files\daisytoolchain\arm-none-eabi\include\c++\10.2.1\bits\alloc_traits.h ****        * @c Alloc::is_always_equal if that type exists,
 203:c:\program files\daisytoolchain\arm-none-eabi\include\c++\10.2.1\bits\alloc_traits.h ****        * otherwise @c is_empty<Alloc>::type
 204:c:\program files\daisytoolchain\arm-none-eabi\include\c++\10.2.1\bits\alloc_traits.h ****       */
 205:c:\program files\daisytoolchain\arm-none-eabi\include\c++\10.2.1\bits\alloc_traits.h ****       using is_always_equal
 206:c:\program files\daisytoolchain\arm-none-eabi\include\c++\10.2.1\bits\alloc_traits.h **** 	= __detected_or_t<typename is_empty<_Alloc>::type, __equal, _Alloc>;
 207:c:\program files\daisytoolchain\arm-none-eabi\include\c++\10.2.1\bits\alloc_traits.h **** 
 208:c:\program files\daisytoolchain\arm-none-eabi\include\c++\10.2.1\bits\alloc_traits.h ****       template<typename _Tp>
 209:c:\program files\daisytoolchain\arm-none-eabi\include\c++\10.2.1\bits\alloc_traits.h **** 	using rebind_alloc = __alloc_rebind<_Alloc, _Tp>;
 210:c:\program files\daisytoolchain\arm-none-eabi\include\c++\10.2.1\bits\alloc_traits.h ****       template<typename _Tp>
 211:c:\program files\daisytoolchain\arm-none-eabi\include\c++\10.2.1\bits\alloc_traits.h **** 	using rebind_traits = allocator_traits<rebind_alloc<_Tp>>;
 212:c:\program files\daisytoolchain\arm-none-eabi\include\c++\10.2.1\bits\alloc_traits.h **** 
 213:c:\program files\daisytoolchain\arm-none-eabi\include\c++\10.2.1\bits\alloc_traits.h ****     private:
 214:c:\program files\daisytoolchain\arm-none-eabi\include\c++\10.2.1\bits\alloc_traits.h ****       template<typename _Alloc2>
 215:c:\program files\daisytoolchain\arm-none-eabi\include\c++\10.2.1\bits\alloc_traits.h **** 	static constexpr auto
 216:c:\program files\daisytoolchain\arm-none-eabi\include\c++\10.2.1\bits\alloc_traits.h **** 	_S_allocate(_Alloc2& __a, size_type __n, const_void_pointer __hint, int)
 217:c:\program files\daisytoolchain\arm-none-eabi\include\c++\10.2.1\bits\alloc_traits.h **** 	-> decltype(__a.allocate(__n, __hint))
 218:c:\program files\daisytoolchain\arm-none-eabi\include\c++\10.2.1\bits\alloc_traits.h **** 	{ return __a.allocate(__n, __hint); }
 219:c:\program files\daisytoolchain\arm-none-eabi\include\c++\10.2.1\bits\alloc_traits.h **** 
 220:c:\program files\daisytoolchain\arm-none-eabi\include\c++\10.2.1\bits\alloc_traits.h ****       template<typename _Alloc2>
 221:c:\program files\daisytoolchain\arm-none-eabi\include\c++\10.2.1\bits\alloc_traits.h **** 	static constexpr pointer
 222:c:\program files\daisytoolchain\arm-none-eabi\include\c++\10.2.1\bits\alloc_traits.h **** 	_S_allocate(_Alloc2& __a, size_type __n, const_void_pointer, ...)
 223:c:\program files\daisytoolchain\arm-none-eabi\include\c++\10.2.1\bits\alloc_traits.h **** 	{ return __a.allocate(__n); }
 224:c:\program files\daisytoolchain\arm-none-eabi\include\c++\10.2.1\bits\alloc_traits.h **** 
 225:c:\program files\daisytoolchain\arm-none-eabi\include\c++\10.2.1\bits\alloc_traits.h ****       template<typename _Tp, typename... _Args>
 226:c:\program files\daisytoolchain\arm-none-eabi\include\c++\10.2.1\bits\alloc_traits.h **** 	struct __construct_helper
 227:c:\program files\daisytoolchain\arm-none-eabi\include\c++\10.2.1\bits\alloc_traits.h **** 	{
 228:c:\program files\daisytoolchain\arm-none-eabi\include\c++\10.2.1\bits\alloc_traits.h **** 	  template<typename _Alloc2,
 229:c:\program files\daisytoolchain\arm-none-eabi\include\c++\10.2.1\bits\alloc_traits.h **** 	    typename = decltype(std::declval<_Alloc2*>()->construct(
 230:c:\program files\daisytoolchain\arm-none-eabi\include\c++\10.2.1\bits\alloc_traits.h **** 		  std::declval<_Tp*>(), std::declval<_Args>()...))>
 231:c:\program files\daisytoolchain\arm-none-eabi\include\c++\10.2.1\bits\alloc_traits.h **** 	    static true_type __test(int);
 232:c:\program files\daisytoolchain\arm-none-eabi\include\c++\10.2.1\bits\alloc_traits.h **** 
 233:c:\program files\daisytoolchain\arm-none-eabi\include\c++\10.2.1\bits\alloc_traits.h **** 	  template<typename>
 234:c:\program files\daisytoolchain\arm-none-eabi\include\c++\10.2.1\bits\alloc_traits.h **** 	    static false_type __test(...);
 235:c:\program files\daisytoolchain\arm-none-eabi\include\c++\10.2.1\bits\alloc_traits.h **** 
 236:c:\program files\daisytoolchain\arm-none-eabi\include\c++\10.2.1\bits\alloc_traits.h **** 	  using type = decltype(__test<_Alloc>(0));
 237:c:\program files\daisytoolchain\arm-none-eabi\include\c++\10.2.1\bits\alloc_traits.h **** 	};
 238:c:\program files\daisytoolchain\arm-none-eabi\include\c++\10.2.1\bits\alloc_traits.h **** 
 239:c:\program files\daisytoolchain\arm-none-eabi\include\c++\10.2.1\bits\alloc_traits.h ****       template<typename _Tp, typename... _Args>
 240:c:\program files\daisytoolchain\arm-none-eabi\include\c++\10.2.1\bits\alloc_traits.h **** 	using __has_construct
 241:c:\program files\daisytoolchain\arm-none-eabi\include\c++\10.2.1\bits\alloc_traits.h **** 	  = typename __construct_helper<_Tp, _Args...>::type;
 242:c:\program files\daisytoolchain\arm-none-eabi\include\c++\10.2.1\bits\alloc_traits.h **** 
 243:c:\program files\daisytoolchain\arm-none-eabi\include\c++\10.2.1\bits\alloc_traits.h ****       template<typename _Tp, typename... _Args>
 244:c:\program files\daisytoolchain\arm-none-eabi\include\c++\10.2.1\bits\alloc_traits.h **** 	static _GLIBCXX14_CONSTEXPR _Require<__has_construct<_Tp, _Args...>>
 245:c:\program files\daisytoolchain\arm-none-eabi\include\c++\10.2.1\bits\alloc_traits.h **** 	_S_construct(_Alloc& __a, _Tp* __p, _Args&&... __args)
 246:c:\program files\daisytoolchain\arm-none-eabi\include\c++\10.2.1\bits\alloc_traits.h **** 	noexcept(noexcept(__a.construct(__p, std::forward<_Args>(__args)...)))
 247:c:\program files\daisytoolchain\arm-none-eabi\include\c++\10.2.1\bits\alloc_traits.h **** 	{ __a.construct(__p, std::forward<_Args>(__args)...); }
 248:c:\program files\daisytoolchain\arm-none-eabi\include\c++\10.2.1\bits\alloc_traits.h **** 
 249:c:\program files\daisytoolchain\arm-none-eabi\include\c++\10.2.1\bits\alloc_traits.h ****       template<typename _Tp, typename... _Args>
ARM GAS  C:\Users\samue\AppData\Local\Temp\cci865ja.s 			page 120


 250:c:\program files\daisytoolchain\arm-none-eabi\include\c++\10.2.1\bits\alloc_traits.h **** 	static _GLIBCXX14_CONSTEXPR
 251:c:\program files\daisytoolchain\arm-none-eabi\include\c++\10.2.1\bits\alloc_traits.h **** 	_Require<__and_<__not_<__has_construct<_Tp, _Args...>>,
 252:c:\program files\daisytoolchain\arm-none-eabi\include\c++\10.2.1\bits\alloc_traits.h **** 			       is_constructible<_Tp, _Args...>>>
 253:c:\program files\daisytoolchain\arm-none-eabi\include\c++\10.2.1\bits\alloc_traits.h **** 	_S_construct(_Alloc&, _Tp* __p, _Args&&... __args)
 254:c:\program files\daisytoolchain\arm-none-eabi\include\c++\10.2.1\bits\alloc_traits.h **** 	noexcept(std::is_nothrow_constructible<_Tp, _Args...>::value)
 255:c:\program files\daisytoolchain\arm-none-eabi\include\c++\10.2.1\bits\alloc_traits.h **** 	{
 256:c:\program files\daisytoolchain\arm-none-eabi\include\c++\10.2.1\bits\alloc_traits.h **** #if __cplusplus <= 201703L
 257:c:\program files\daisytoolchain\arm-none-eabi\include\c++\10.2.1\bits\alloc_traits.h **** 	  ::new((void*)__p) _Tp(std::forward<_Args>(__args)...);
 258:c:\program files\daisytoolchain\arm-none-eabi\include\c++\10.2.1\bits\alloc_traits.h **** #else
 259:c:\program files\daisytoolchain\arm-none-eabi\include\c++\10.2.1\bits\alloc_traits.h **** 	  std::construct_at(__p, std::forward<_Args>(__args)...);
 260:c:\program files\daisytoolchain\arm-none-eabi\include\c++\10.2.1\bits\alloc_traits.h **** #endif
 261:c:\program files\daisytoolchain\arm-none-eabi\include\c++\10.2.1\bits\alloc_traits.h **** 	}
 262:c:\program files\daisytoolchain\arm-none-eabi\include\c++\10.2.1\bits\alloc_traits.h **** 
 263:c:\program files\daisytoolchain\arm-none-eabi\include\c++\10.2.1\bits\alloc_traits.h ****       template<typename _Alloc2, typename _Tp>
 264:c:\program files\daisytoolchain\arm-none-eabi\include\c++\10.2.1\bits\alloc_traits.h **** 	static _GLIBCXX14_CONSTEXPR auto
 265:c:\program files\daisytoolchain\arm-none-eabi\include\c++\10.2.1\bits\alloc_traits.h **** 	_S_destroy(_Alloc2& __a, _Tp* __p, int)
 266:c:\program files\daisytoolchain\arm-none-eabi\include\c++\10.2.1\bits\alloc_traits.h **** 	noexcept(noexcept(__a.destroy(__p)))
 267:c:\program files\daisytoolchain\arm-none-eabi\include\c++\10.2.1\bits\alloc_traits.h **** 	-> decltype(__a.destroy(__p))
 268:c:\program files\daisytoolchain\arm-none-eabi\include\c++\10.2.1\bits\alloc_traits.h **** 	{ __a.destroy(__p); }
 269:c:\program files\daisytoolchain\arm-none-eabi\include\c++\10.2.1\bits\alloc_traits.h **** 
 270:c:\program files\daisytoolchain\arm-none-eabi\include\c++\10.2.1\bits\alloc_traits.h ****       template<typename _Alloc2, typename _Tp>
 271:c:\program files\daisytoolchain\arm-none-eabi\include\c++\10.2.1\bits\alloc_traits.h **** 	static _GLIBCXX14_CONSTEXPR void
 272:c:\program files\daisytoolchain\arm-none-eabi\include\c++\10.2.1\bits\alloc_traits.h **** 	_S_destroy(_Alloc2&, _Tp* __p, ...)
 273:c:\program files\daisytoolchain\arm-none-eabi\include\c++\10.2.1\bits\alloc_traits.h **** 	noexcept(std::is_nothrow_destructible<_Tp>::value)
 274:c:\program files\daisytoolchain\arm-none-eabi\include\c++\10.2.1\bits\alloc_traits.h **** 	{ std::_Destroy(__p); }
 275:c:\program files\daisytoolchain\arm-none-eabi\include\c++\10.2.1\bits\alloc_traits.h **** 
 276:c:\program files\daisytoolchain\arm-none-eabi\include\c++\10.2.1\bits\alloc_traits.h ****       template<typename _Alloc2>
 277:c:\program files\daisytoolchain\arm-none-eabi\include\c++\10.2.1\bits\alloc_traits.h **** 	static constexpr auto
 278:c:\program files\daisytoolchain\arm-none-eabi\include\c++\10.2.1\bits\alloc_traits.h **** 	_S_max_size(_Alloc2& __a, int)
 279:c:\program files\daisytoolchain\arm-none-eabi\include\c++\10.2.1\bits\alloc_traits.h **** 	-> decltype(__a.max_size())
 280:c:\program files\daisytoolchain\arm-none-eabi\include\c++\10.2.1\bits\alloc_traits.h **** 	{ return __a.max_size(); }
 281:c:\program files\daisytoolchain\arm-none-eabi\include\c++\10.2.1\bits\alloc_traits.h **** 
 282:c:\program files\daisytoolchain\arm-none-eabi\include\c++\10.2.1\bits\alloc_traits.h ****       template<typename _Alloc2>
 283:c:\program files\daisytoolchain\arm-none-eabi\include\c++\10.2.1\bits\alloc_traits.h **** 	static constexpr size_type
 284:c:\program files\daisytoolchain\arm-none-eabi\include\c++\10.2.1\bits\alloc_traits.h **** 	_S_max_size(_Alloc2&, ...)
 285:c:\program files\daisytoolchain\arm-none-eabi\include\c++\10.2.1\bits\alloc_traits.h **** 	{
 286:c:\program files\daisytoolchain\arm-none-eabi\include\c++\10.2.1\bits\alloc_traits.h **** 	  // _GLIBCXX_RESOLVE_LIB_DEFECTS
 287:c:\program files\daisytoolchain\arm-none-eabi\include\c++\10.2.1\bits\alloc_traits.h **** 	  // 2466. allocator_traits::max_size() default behavior is incorrect
 288:c:\program files\daisytoolchain\arm-none-eabi\include\c++\10.2.1\bits\alloc_traits.h **** 	  return __gnu_cxx::__numeric_traits<size_type>::__max
 289:c:\program files\daisytoolchain\arm-none-eabi\include\c++\10.2.1\bits\alloc_traits.h **** 	    / sizeof(value_type);
 290:c:\program files\daisytoolchain\arm-none-eabi\include\c++\10.2.1\bits\alloc_traits.h **** 	}
 291:c:\program files\daisytoolchain\arm-none-eabi\include\c++\10.2.1\bits\alloc_traits.h **** 
 292:c:\program files\daisytoolchain\arm-none-eabi\include\c++\10.2.1\bits\alloc_traits.h ****       template<typename _Alloc2>
 293:c:\program files\daisytoolchain\arm-none-eabi\include\c++\10.2.1\bits\alloc_traits.h **** 	static constexpr auto
 294:c:\program files\daisytoolchain\arm-none-eabi\include\c++\10.2.1\bits\alloc_traits.h **** 	_S_select(_Alloc2& __a, int)
 295:c:\program files\daisytoolchain\arm-none-eabi\include\c++\10.2.1\bits\alloc_traits.h **** 	-> decltype(__a.select_on_container_copy_construction())
 296:c:\program files\daisytoolchain\arm-none-eabi\include\c++\10.2.1\bits\alloc_traits.h **** 	{ return __a.select_on_container_copy_construction(); }
 297:c:\program files\daisytoolchain\arm-none-eabi\include\c++\10.2.1\bits\alloc_traits.h **** 
 298:c:\program files\daisytoolchain\arm-none-eabi\include\c++\10.2.1\bits\alloc_traits.h ****       template<typename _Alloc2>
 299:c:\program files\daisytoolchain\arm-none-eabi\include\c++\10.2.1\bits\alloc_traits.h **** 	static constexpr _Alloc2
 300:c:\program files\daisytoolchain\arm-none-eabi\include\c++\10.2.1\bits\alloc_traits.h **** 	_S_select(_Alloc2& __a, ...)
 301:c:\program files\daisytoolchain\arm-none-eabi\include\c++\10.2.1\bits\alloc_traits.h **** 	{ return __a; }
 302:c:\program files\daisytoolchain\arm-none-eabi\include\c++\10.2.1\bits\alloc_traits.h **** 
 303:c:\program files\daisytoolchain\arm-none-eabi\include\c++\10.2.1\bits\alloc_traits.h ****     public:
 304:c:\program files\daisytoolchain\arm-none-eabi\include\c++\10.2.1\bits\alloc_traits.h **** 
 305:c:\program files\daisytoolchain\arm-none-eabi\include\c++\10.2.1\bits\alloc_traits.h ****       /**
 306:c:\program files\daisytoolchain\arm-none-eabi\include\c++\10.2.1\bits\alloc_traits.h ****        *  @brief  Allocate memory.
ARM GAS  C:\Users\samue\AppData\Local\Temp\cci865ja.s 			page 121


 307:c:\program files\daisytoolchain\arm-none-eabi\include\c++\10.2.1\bits\alloc_traits.h ****        *  @param  __a  An allocator.
 308:c:\program files\daisytoolchain\arm-none-eabi\include\c++\10.2.1\bits\alloc_traits.h ****        *  @param  __n  The number of objects to allocate space for.
 309:c:\program files\daisytoolchain\arm-none-eabi\include\c++\10.2.1\bits\alloc_traits.h ****        *
 310:c:\program files\daisytoolchain\arm-none-eabi\include\c++\10.2.1\bits\alloc_traits.h ****        *  Calls @c a.allocate(n)
 311:c:\program files\daisytoolchain\arm-none-eabi\include\c++\10.2.1\bits\alloc_traits.h ****       */
 312:c:\program files\daisytoolchain\arm-none-eabi\include\c++\10.2.1\bits\alloc_traits.h ****       _GLIBCXX_NODISCARD static _GLIBCXX20_CONSTEXPR pointer
 313:c:\program files\daisytoolchain\arm-none-eabi\include\c++\10.2.1\bits\alloc_traits.h ****       allocate(_Alloc& __a, size_type __n)
 314:c:\program files\daisytoolchain\arm-none-eabi\include\c++\10.2.1\bits\alloc_traits.h ****       { return __a.allocate(__n); }
 315:c:\program files\daisytoolchain\arm-none-eabi\include\c++\10.2.1\bits\alloc_traits.h **** 
 316:c:\program files\daisytoolchain\arm-none-eabi\include\c++\10.2.1\bits\alloc_traits.h ****       /**
 317:c:\program files\daisytoolchain\arm-none-eabi\include\c++\10.2.1\bits\alloc_traits.h ****        *  @brief  Allocate memory.
 318:c:\program files\daisytoolchain\arm-none-eabi\include\c++\10.2.1\bits\alloc_traits.h ****        *  @param  __a  An allocator.
 319:c:\program files\daisytoolchain\arm-none-eabi\include\c++\10.2.1\bits\alloc_traits.h ****        *  @param  __n  The number of objects to allocate space for.
 320:c:\program files\daisytoolchain\arm-none-eabi\include\c++\10.2.1\bits\alloc_traits.h ****        *  @param  __hint Aid to locality.
 321:c:\program files\daisytoolchain\arm-none-eabi\include\c++\10.2.1\bits\alloc_traits.h ****        *  @return Memory of suitable size and alignment for @a n objects
 322:c:\program files\daisytoolchain\arm-none-eabi\include\c++\10.2.1\bits\alloc_traits.h ****        *          of type @c value_type
 323:c:\program files\daisytoolchain\arm-none-eabi\include\c++\10.2.1\bits\alloc_traits.h ****        *
 324:c:\program files\daisytoolchain\arm-none-eabi\include\c++\10.2.1\bits\alloc_traits.h ****        *  Returns <tt> a.allocate(n, hint) </tt> if that expression is
 325:c:\program files\daisytoolchain\arm-none-eabi\include\c++\10.2.1\bits\alloc_traits.h ****        *  well-formed, otherwise returns @c a.allocate(n)
 326:c:\program files\daisytoolchain\arm-none-eabi\include\c++\10.2.1\bits\alloc_traits.h ****       */
 327:c:\program files\daisytoolchain\arm-none-eabi\include\c++\10.2.1\bits\alloc_traits.h ****       _GLIBCXX_NODISCARD static _GLIBCXX20_CONSTEXPR pointer
 328:c:\program files\daisytoolchain\arm-none-eabi\include\c++\10.2.1\bits\alloc_traits.h ****       allocate(_Alloc& __a, size_type __n, const_void_pointer __hint)
 329:c:\program files\daisytoolchain\arm-none-eabi\include\c++\10.2.1\bits\alloc_traits.h ****       { return _S_allocate(__a, __n, __hint, 0); }
 330:c:\program files\daisytoolchain\arm-none-eabi\include\c++\10.2.1\bits\alloc_traits.h **** 
 331:c:\program files\daisytoolchain\arm-none-eabi\include\c++\10.2.1\bits\alloc_traits.h ****       /**
 332:c:\program files\daisytoolchain\arm-none-eabi\include\c++\10.2.1\bits\alloc_traits.h ****        *  @brief  Deallocate memory.
 333:c:\program files\daisytoolchain\arm-none-eabi\include\c++\10.2.1\bits\alloc_traits.h ****        *  @param  __a  An allocator.
 334:c:\program files\daisytoolchain\arm-none-eabi\include\c++\10.2.1\bits\alloc_traits.h ****        *  @param  __p  Pointer to the memory to deallocate.
 335:c:\program files\daisytoolchain\arm-none-eabi\include\c++\10.2.1\bits\alloc_traits.h ****        *  @param  __n  The number of objects space was allocated for.
 336:c:\program files\daisytoolchain\arm-none-eabi\include\c++\10.2.1\bits\alloc_traits.h ****        *
 337:c:\program files\daisytoolchain\arm-none-eabi\include\c++\10.2.1\bits\alloc_traits.h ****        *  Calls <tt> a.deallocate(p, n) </tt>
 338:c:\program files\daisytoolchain\arm-none-eabi\include\c++\10.2.1\bits\alloc_traits.h ****       */
 339:c:\program files\daisytoolchain\arm-none-eabi\include\c++\10.2.1\bits\alloc_traits.h ****       static _GLIBCXX20_CONSTEXPR void
 340:c:\program files\daisytoolchain\arm-none-eabi\include\c++\10.2.1\bits\alloc_traits.h ****       deallocate(_Alloc& __a, pointer __p, size_type __n)
 341:c:\program files\daisytoolchain\arm-none-eabi\include\c++\10.2.1\bits\alloc_traits.h ****       { __a.deallocate(__p, __n); }
 342:c:\program files\daisytoolchain\arm-none-eabi\include\c++\10.2.1\bits\alloc_traits.h **** 
 343:c:\program files\daisytoolchain\arm-none-eabi\include\c++\10.2.1\bits\alloc_traits.h ****       /**
 344:c:\program files\daisytoolchain\arm-none-eabi\include\c++\10.2.1\bits\alloc_traits.h ****        *  @brief  Construct an object of type @a _Tp
 345:c:\program files\daisytoolchain\arm-none-eabi\include\c++\10.2.1\bits\alloc_traits.h ****        *  @param  __a  An allocator.
 346:c:\program files\daisytoolchain\arm-none-eabi\include\c++\10.2.1\bits\alloc_traits.h ****        *  @param  __p  Pointer to memory of suitable size and alignment for Tp
 347:c:\program files\daisytoolchain\arm-none-eabi\include\c++\10.2.1\bits\alloc_traits.h ****        *  @param  __args Constructor arguments.
 348:c:\program files\daisytoolchain\arm-none-eabi\include\c++\10.2.1\bits\alloc_traits.h ****        *
 349:c:\program files\daisytoolchain\arm-none-eabi\include\c++\10.2.1\bits\alloc_traits.h ****        *  Calls <tt> __a.construct(__p, std::forward<Args>(__args)...) </tt>
 350:c:\program files\daisytoolchain\arm-none-eabi\include\c++\10.2.1\bits\alloc_traits.h ****        *  if that expression is well-formed, otherwise uses placement-new
 351:c:\program files\daisytoolchain\arm-none-eabi\include\c++\10.2.1\bits\alloc_traits.h ****        *  to construct an object of type @a _Tp at location @a __p from the
 352:c:\program files\daisytoolchain\arm-none-eabi\include\c++\10.2.1\bits\alloc_traits.h ****        *  arguments @a __args...
 353:c:\program files\daisytoolchain\arm-none-eabi\include\c++\10.2.1\bits\alloc_traits.h ****       */
 354:c:\program files\daisytoolchain\arm-none-eabi\include\c++\10.2.1\bits\alloc_traits.h ****       template<typename _Tp, typename... _Args>
 355:c:\program files\daisytoolchain\arm-none-eabi\include\c++\10.2.1\bits\alloc_traits.h **** 	static _GLIBCXX20_CONSTEXPR auto
 356:c:\program files\daisytoolchain\arm-none-eabi\include\c++\10.2.1\bits\alloc_traits.h **** 	construct(_Alloc& __a, _Tp* __p, _Args&&... __args)
 357:c:\program files\daisytoolchain\arm-none-eabi\include\c++\10.2.1\bits\alloc_traits.h **** 	noexcept(noexcept(_S_construct(__a, __p,
 358:c:\program files\daisytoolchain\arm-none-eabi\include\c++\10.2.1\bits\alloc_traits.h **** 				       std::forward<_Args>(__args)...)))
 359:c:\program files\daisytoolchain\arm-none-eabi\include\c++\10.2.1\bits\alloc_traits.h **** 	-> decltype(_S_construct(__a, __p, std::forward<_Args>(__args)...))
 360:c:\program files\daisytoolchain\arm-none-eabi\include\c++\10.2.1\bits\alloc_traits.h **** 	{ _S_construct(__a, __p, std::forward<_Args>(__args)...); }
 361:c:\program files\daisytoolchain\arm-none-eabi\include\c++\10.2.1\bits\alloc_traits.h **** 
 362:c:\program files\daisytoolchain\arm-none-eabi\include\c++\10.2.1\bits\alloc_traits.h ****       /**
 363:c:\program files\daisytoolchain\arm-none-eabi\include\c++\10.2.1\bits\alloc_traits.h ****        *  @brief  Destroy an object of type @a _Tp
ARM GAS  C:\Users\samue\AppData\Local\Temp\cci865ja.s 			page 122


 364:c:\program files\daisytoolchain\arm-none-eabi\include\c++\10.2.1\bits\alloc_traits.h ****        *  @param  __a  An allocator.
 365:c:\program files\daisytoolchain\arm-none-eabi\include\c++\10.2.1\bits\alloc_traits.h ****        *  @param  __p  Pointer to the object to destroy
 366:c:\program files\daisytoolchain\arm-none-eabi\include\c++\10.2.1\bits\alloc_traits.h ****        *
 367:c:\program files\daisytoolchain\arm-none-eabi\include\c++\10.2.1\bits\alloc_traits.h ****        *  Calls @c __a.destroy(__p) if that expression is well-formed,
 368:c:\program files\daisytoolchain\arm-none-eabi\include\c++\10.2.1\bits\alloc_traits.h ****        *  otherwise calls @c __p->~_Tp()
 369:c:\program files\daisytoolchain\arm-none-eabi\include\c++\10.2.1\bits\alloc_traits.h ****       */
 370:c:\program files\daisytoolchain\arm-none-eabi\include\c++\10.2.1\bits\alloc_traits.h ****       template<typename _Tp>
 371:c:\program files\daisytoolchain\arm-none-eabi\include\c++\10.2.1\bits\alloc_traits.h **** 	static _GLIBCXX20_CONSTEXPR void
 372:c:\program files\daisytoolchain\arm-none-eabi\include\c++\10.2.1\bits\alloc_traits.h **** 	destroy(_Alloc& __a, _Tp* __p)
 373:c:\program files\daisytoolchain\arm-none-eabi\include\c++\10.2.1\bits\alloc_traits.h **** 	noexcept(noexcept(_S_destroy(__a, __p, 0)))
 374:c:\program files\daisytoolchain\arm-none-eabi\include\c++\10.2.1\bits\alloc_traits.h **** 	{ _S_destroy(__a, __p, 0); }
 375:c:\program files\daisytoolchain\arm-none-eabi\include\c++\10.2.1\bits\alloc_traits.h **** 
 376:c:\program files\daisytoolchain\arm-none-eabi\include\c++\10.2.1\bits\alloc_traits.h ****       /**
 377:c:\program files\daisytoolchain\arm-none-eabi\include\c++\10.2.1\bits\alloc_traits.h ****        *  @brief  The maximum supported allocation size
 378:c:\program files\daisytoolchain\arm-none-eabi\include\c++\10.2.1\bits\alloc_traits.h ****        *  @param  __a  An allocator.
 379:c:\program files\daisytoolchain\arm-none-eabi\include\c++\10.2.1\bits\alloc_traits.h ****        *  @return @c __a.max_size() or @c numeric_limits<size_type>::max()
 380:c:\program files\daisytoolchain\arm-none-eabi\include\c++\10.2.1\bits\alloc_traits.h ****        *
 381:c:\program files\daisytoolchain\arm-none-eabi\include\c++\10.2.1\bits\alloc_traits.h ****        *  Returns @c __a.max_size() if that expression is well-formed,
 382:c:\program files\daisytoolchain\arm-none-eabi\include\c++\10.2.1\bits\alloc_traits.h ****        *  otherwise returns @c numeric_limits<size_type>::max()
 383:c:\program files\daisytoolchain\arm-none-eabi\include\c++\10.2.1\bits\alloc_traits.h ****       */
 384:c:\program files\daisytoolchain\arm-none-eabi\include\c++\10.2.1\bits\alloc_traits.h ****       static _GLIBCXX20_CONSTEXPR size_type
 385:c:\program files\daisytoolchain\arm-none-eabi\include\c++\10.2.1\bits\alloc_traits.h ****       max_size(const _Alloc& __a) noexcept
 386:c:\program files\daisytoolchain\arm-none-eabi\include\c++\10.2.1\bits\alloc_traits.h ****       { return _S_max_size(__a, 0); }
 387:c:\program files\daisytoolchain\arm-none-eabi\include\c++\10.2.1\bits\alloc_traits.h **** 
 388:c:\program files\daisytoolchain\arm-none-eabi\include\c++\10.2.1\bits\alloc_traits.h ****       /**
 389:c:\program files\daisytoolchain\arm-none-eabi\include\c++\10.2.1\bits\alloc_traits.h ****        *  @brief  Obtain an allocator to use when copying a container.
 390:c:\program files\daisytoolchain\arm-none-eabi\include\c++\10.2.1\bits\alloc_traits.h ****        *  @param  __rhs  An allocator.
 391:c:\program files\daisytoolchain\arm-none-eabi\include\c++\10.2.1\bits\alloc_traits.h ****        *  @return @c __rhs.select_on_container_copy_construction() or @a __rhs
 392:c:\program files\daisytoolchain\arm-none-eabi\include\c++\10.2.1\bits\alloc_traits.h ****        *
 393:c:\program files\daisytoolchain\arm-none-eabi\include\c++\10.2.1\bits\alloc_traits.h ****        *  Returns @c __rhs.select_on_container_copy_construction() if that
 394:c:\program files\daisytoolchain\arm-none-eabi\include\c++\10.2.1\bits\alloc_traits.h ****        *  expression is well-formed, otherwise returns @a __rhs
 395:c:\program files\daisytoolchain\arm-none-eabi\include\c++\10.2.1\bits\alloc_traits.h ****       */
 396:c:\program files\daisytoolchain\arm-none-eabi\include\c++\10.2.1\bits\alloc_traits.h ****       static _GLIBCXX20_CONSTEXPR _Alloc
 397:c:\program files\daisytoolchain\arm-none-eabi\include\c++\10.2.1\bits\alloc_traits.h ****       select_on_container_copy_construction(const _Alloc& __rhs)
 398:c:\program files\daisytoolchain\arm-none-eabi\include\c++\10.2.1\bits\alloc_traits.h ****       { return _S_select(__rhs, 0); }
 399:c:\program files\daisytoolchain\arm-none-eabi\include\c++\10.2.1\bits\alloc_traits.h ****     };
 400:c:\program files\daisytoolchain\arm-none-eabi\include\c++\10.2.1\bits\alloc_traits.h **** 
 401:c:\program files\daisytoolchain\arm-none-eabi\include\c++\10.2.1\bits\alloc_traits.h **** #if __cplusplus > 201703L
 402:c:\program files\daisytoolchain\arm-none-eabi\include\c++\10.2.1\bits\alloc_traits.h **** # define __cpp_lib_constexpr_dynamic_alloc 201907L
 403:c:\program files\daisytoolchain\arm-none-eabi\include\c++\10.2.1\bits\alloc_traits.h **** #endif
 404:c:\program files\daisytoolchain\arm-none-eabi\include\c++\10.2.1\bits\alloc_traits.h **** 
 405:c:\program files\daisytoolchain\arm-none-eabi\include\c++\10.2.1\bits\alloc_traits.h ****   /// Partial specialization for std::allocator.
 406:c:\program files\daisytoolchain\arm-none-eabi\include\c++\10.2.1\bits\alloc_traits.h ****   template<typename _Tp>
 407:c:\program files\daisytoolchain\arm-none-eabi\include\c++\10.2.1\bits\alloc_traits.h ****     struct allocator_traits<allocator<_Tp>>
 408:c:\program files\daisytoolchain\arm-none-eabi\include\c++\10.2.1\bits\alloc_traits.h ****     {
 409:c:\program files\daisytoolchain\arm-none-eabi\include\c++\10.2.1\bits\alloc_traits.h ****       /// The allocator type
 410:c:\program files\daisytoolchain\arm-none-eabi\include\c++\10.2.1\bits\alloc_traits.h ****       using allocator_type = allocator<_Tp>;
 411:c:\program files\daisytoolchain\arm-none-eabi\include\c++\10.2.1\bits\alloc_traits.h **** 
 412:c:\program files\daisytoolchain\arm-none-eabi\include\c++\10.2.1\bits\alloc_traits.h ****       /// The allocated type
 413:c:\program files\daisytoolchain\arm-none-eabi\include\c++\10.2.1\bits\alloc_traits.h ****       using value_type = _Tp;
 414:c:\program files\daisytoolchain\arm-none-eabi\include\c++\10.2.1\bits\alloc_traits.h **** 
 415:c:\program files\daisytoolchain\arm-none-eabi\include\c++\10.2.1\bits\alloc_traits.h ****       /// The allocator's pointer type.
 416:c:\program files\daisytoolchain\arm-none-eabi\include\c++\10.2.1\bits\alloc_traits.h ****       using pointer = _Tp*;
 417:c:\program files\daisytoolchain\arm-none-eabi\include\c++\10.2.1\bits\alloc_traits.h **** 
 418:c:\program files\daisytoolchain\arm-none-eabi\include\c++\10.2.1\bits\alloc_traits.h ****       /// The allocator's const pointer type.
 419:c:\program files\daisytoolchain\arm-none-eabi\include\c++\10.2.1\bits\alloc_traits.h ****       using const_pointer = const _Tp*;
 420:c:\program files\daisytoolchain\arm-none-eabi\include\c++\10.2.1\bits\alloc_traits.h **** 
ARM GAS  C:\Users\samue\AppData\Local\Temp\cci865ja.s 			page 123


 421:c:\program files\daisytoolchain\arm-none-eabi\include\c++\10.2.1\bits\alloc_traits.h ****       /// The allocator's void pointer type.
 422:c:\program files\daisytoolchain\arm-none-eabi\include\c++\10.2.1\bits\alloc_traits.h ****       using void_pointer = void*;
 423:c:\program files\daisytoolchain\arm-none-eabi\include\c++\10.2.1\bits\alloc_traits.h **** 
 424:c:\program files\daisytoolchain\arm-none-eabi\include\c++\10.2.1\bits\alloc_traits.h ****       /// The allocator's const void pointer type.
 425:c:\program files\daisytoolchain\arm-none-eabi\include\c++\10.2.1\bits\alloc_traits.h ****       using const_void_pointer = const void*;
 426:c:\program files\daisytoolchain\arm-none-eabi\include\c++\10.2.1\bits\alloc_traits.h **** 
 427:c:\program files\daisytoolchain\arm-none-eabi\include\c++\10.2.1\bits\alloc_traits.h ****       /// The allocator's difference type
 428:c:\program files\daisytoolchain\arm-none-eabi\include\c++\10.2.1\bits\alloc_traits.h ****       using difference_type = std::ptrdiff_t;
 429:c:\program files\daisytoolchain\arm-none-eabi\include\c++\10.2.1\bits\alloc_traits.h **** 
 430:c:\program files\daisytoolchain\arm-none-eabi\include\c++\10.2.1\bits\alloc_traits.h ****       /// The allocator's size type
 431:c:\program files\daisytoolchain\arm-none-eabi\include\c++\10.2.1\bits\alloc_traits.h ****       using size_type = std::size_t;
 432:c:\program files\daisytoolchain\arm-none-eabi\include\c++\10.2.1\bits\alloc_traits.h **** 
 433:c:\program files\daisytoolchain\arm-none-eabi\include\c++\10.2.1\bits\alloc_traits.h ****       /// How the allocator is propagated on copy assignment
 434:c:\program files\daisytoolchain\arm-none-eabi\include\c++\10.2.1\bits\alloc_traits.h ****       using propagate_on_container_copy_assignment = false_type;
 435:c:\program files\daisytoolchain\arm-none-eabi\include\c++\10.2.1\bits\alloc_traits.h **** 
 436:c:\program files\daisytoolchain\arm-none-eabi\include\c++\10.2.1\bits\alloc_traits.h ****       /// How the allocator is propagated on move assignment
 437:c:\program files\daisytoolchain\arm-none-eabi\include\c++\10.2.1\bits\alloc_traits.h ****       using propagate_on_container_move_assignment = true_type;
 438:c:\program files\daisytoolchain\arm-none-eabi\include\c++\10.2.1\bits\alloc_traits.h **** 
 439:c:\program files\daisytoolchain\arm-none-eabi\include\c++\10.2.1\bits\alloc_traits.h ****       /// How the allocator is propagated on swap
 440:c:\program files\daisytoolchain\arm-none-eabi\include\c++\10.2.1\bits\alloc_traits.h ****       using propagate_on_container_swap = false_type;
 441:c:\program files\daisytoolchain\arm-none-eabi\include\c++\10.2.1\bits\alloc_traits.h **** 
 442:c:\program files\daisytoolchain\arm-none-eabi\include\c++\10.2.1\bits\alloc_traits.h ****       /// Whether all instances of the allocator type compare equal.
 443:c:\program files\daisytoolchain\arm-none-eabi\include\c++\10.2.1\bits\alloc_traits.h ****       using is_always_equal = true_type;
 444:c:\program files\daisytoolchain\arm-none-eabi\include\c++\10.2.1\bits\alloc_traits.h **** 
 445:c:\program files\daisytoolchain\arm-none-eabi\include\c++\10.2.1\bits\alloc_traits.h ****       template<typename _Up>
 446:c:\program files\daisytoolchain\arm-none-eabi\include\c++\10.2.1\bits\alloc_traits.h **** 	using rebind_alloc = allocator<_Up>;
 447:c:\program files\daisytoolchain\arm-none-eabi\include\c++\10.2.1\bits\alloc_traits.h **** 
 448:c:\program files\daisytoolchain\arm-none-eabi\include\c++\10.2.1\bits\alloc_traits.h ****       template<typename _Up>
 449:c:\program files\daisytoolchain\arm-none-eabi\include\c++\10.2.1\bits\alloc_traits.h **** 	using rebind_traits = allocator_traits<allocator<_Up>>;
 450:c:\program files\daisytoolchain\arm-none-eabi\include\c++\10.2.1\bits\alloc_traits.h **** 
 451:c:\program files\daisytoolchain\arm-none-eabi\include\c++\10.2.1\bits\alloc_traits.h ****       /**
 452:c:\program files\daisytoolchain\arm-none-eabi\include\c++\10.2.1\bits\alloc_traits.h ****        *  @brief  Allocate memory.
 453:c:\program files\daisytoolchain\arm-none-eabi\include\c++\10.2.1\bits\alloc_traits.h ****        *  @param  __a  An allocator.
 454:c:\program files\daisytoolchain\arm-none-eabi\include\c++\10.2.1\bits\alloc_traits.h ****        *  @param  __n  The number of objects to allocate space for.
 455:c:\program files\daisytoolchain\arm-none-eabi\include\c++\10.2.1\bits\alloc_traits.h ****        *
 456:c:\program files\daisytoolchain\arm-none-eabi\include\c++\10.2.1\bits\alloc_traits.h ****        *  Calls @c a.allocate(n)
 457:c:\program files\daisytoolchain\arm-none-eabi\include\c++\10.2.1\bits\alloc_traits.h ****       */
 458:c:\program files\daisytoolchain\arm-none-eabi\include\c++\10.2.1\bits\alloc_traits.h ****       _GLIBCXX_NODISCARD static _GLIBCXX20_CONSTEXPR pointer
 459:c:\program files\daisytoolchain\arm-none-eabi\include\c++\10.2.1\bits\alloc_traits.h ****       allocate(allocator_type& __a, size_type __n)
 460:c:\program files\daisytoolchain\arm-none-eabi\include\c++\10.2.1\bits\alloc_traits.h ****       { return __a.allocate(__n); }
 461:c:\program files\daisytoolchain\arm-none-eabi\include\c++\10.2.1\bits\alloc_traits.h **** 
 462:c:\program files\daisytoolchain\arm-none-eabi\include\c++\10.2.1\bits\alloc_traits.h ****       /**
 463:c:\program files\daisytoolchain\arm-none-eabi\include\c++\10.2.1\bits\alloc_traits.h ****        *  @brief  Allocate memory.
 464:c:\program files\daisytoolchain\arm-none-eabi\include\c++\10.2.1\bits\alloc_traits.h ****        *  @param  __a  An allocator.
 465:c:\program files\daisytoolchain\arm-none-eabi\include\c++\10.2.1\bits\alloc_traits.h ****        *  @param  __n  The number of objects to allocate space for.
 466:c:\program files\daisytoolchain\arm-none-eabi\include\c++\10.2.1\bits\alloc_traits.h ****        *  @param  __hint Aid to locality.
 467:c:\program files\daisytoolchain\arm-none-eabi\include\c++\10.2.1\bits\alloc_traits.h ****        *  @return Memory of suitable size and alignment for @a n objects
 468:c:\program files\daisytoolchain\arm-none-eabi\include\c++\10.2.1\bits\alloc_traits.h ****        *          of type @c value_type
 469:c:\program files\daisytoolchain\arm-none-eabi\include\c++\10.2.1\bits\alloc_traits.h ****        *
 470:c:\program files\daisytoolchain\arm-none-eabi\include\c++\10.2.1\bits\alloc_traits.h ****        *  Returns <tt> a.allocate(n, hint) </tt>
 471:c:\program files\daisytoolchain\arm-none-eabi\include\c++\10.2.1\bits\alloc_traits.h ****       */
 472:c:\program files\daisytoolchain\arm-none-eabi\include\c++\10.2.1\bits\alloc_traits.h ****       _GLIBCXX_NODISCARD static _GLIBCXX20_CONSTEXPR pointer
 473:c:\program files\daisytoolchain\arm-none-eabi\include\c++\10.2.1\bits\alloc_traits.h ****       allocate(allocator_type& __a, size_type __n, const_void_pointer __hint)
 474:c:\program files\daisytoolchain\arm-none-eabi\include\c++\10.2.1\bits\alloc_traits.h ****       {
 475:c:\program files\daisytoolchain\arm-none-eabi\include\c++\10.2.1\bits\alloc_traits.h **** #if __cplusplus <= 201703L
 476:c:\program files\daisytoolchain\arm-none-eabi\include\c++\10.2.1\bits\alloc_traits.h **** 	return __a.allocate(__n, __hint);
 477:c:\program files\daisytoolchain\arm-none-eabi\include\c++\10.2.1\bits\alloc_traits.h **** #else
ARM GAS  C:\Users\samue\AppData\Local\Temp\cci865ja.s 			page 124


 478:c:\program files\daisytoolchain\arm-none-eabi\include\c++\10.2.1\bits\alloc_traits.h **** 	return __a.allocate(__n);
 479:c:\program files\daisytoolchain\arm-none-eabi\include\c++\10.2.1\bits\alloc_traits.h **** #endif
 480:c:\program files\daisytoolchain\arm-none-eabi\include\c++\10.2.1\bits\alloc_traits.h ****       }
 481:c:\program files\daisytoolchain\arm-none-eabi\include\c++\10.2.1\bits\alloc_traits.h **** 
 482:c:\program files\daisytoolchain\arm-none-eabi\include\c++\10.2.1\bits\alloc_traits.h ****       /**
 483:c:\program files\daisytoolchain\arm-none-eabi\include\c++\10.2.1\bits\alloc_traits.h ****        *  @brief  Deallocate memory.
 484:c:\program files\daisytoolchain\arm-none-eabi\include\c++\10.2.1\bits\alloc_traits.h ****        *  @param  __a  An allocator.
 485:c:\program files\daisytoolchain\arm-none-eabi\include\c++\10.2.1\bits\alloc_traits.h ****        *  @param  __p  Pointer to the memory to deallocate.
 486:c:\program files\daisytoolchain\arm-none-eabi\include\c++\10.2.1\bits\alloc_traits.h ****        *  @param  __n  The number of objects space was allocated for.
 487:c:\program files\daisytoolchain\arm-none-eabi\include\c++\10.2.1\bits\alloc_traits.h ****        *
 488:c:\program files\daisytoolchain\arm-none-eabi\include\c++\10.2.1\bits\alloc_traits.h ****        *  Calls <tt> a.deallocate(p, n) </tt>
 489:c:\program files\daisytoolchain\arm-none-eabi\include\c++\10.2.1\bits\alloc_traits.h ****       */
 490:c:\program files\daisytoolchain\arm-none-eabi\include\c++\10.2.1\bits\alloc_traits.h ****       static _GLIBCXX20_CONSTEXPR void
 491:c:\program files\daisytoolchain\arm-none-eabi\include\c++\10.2.1\bits\alloc_traits.h ****       deallocate(allocator_type& __a, pointer __p, size_type __n)
 492:c:\program files\daisytoolchain\arm-none-eabi\include\c++\10.2.1\bits\alloc_traits.h ****       { __a.deallocate(__p, __n); }
 493:c:\program files\daisytoolchain\arm-none-eabi\include\c++\10.2.1\bits\alloc_traits.h **** 
 494:c:\program files\daisytoolchain\arm-none-eabi\include\c++\10.2.1\bits\alloc_traits.h ****       /**
 495:c:\program files\daisytoolchain\arm-none-eabi\include\c++\10.2.1\bits\alloc_traits.h ****        *  @brief  Construct an object of type `_Up`
 496:c:\program files\daisytoolchain\arm-none-eabi\include\c++\10.2.1\bits\alloc_traits.h ****        *  @param  __a  An allocator.
 497:c:\program files\daisytoolchain\arm-none-eabi\include\c++\10.2.1\bits\alloc_traits.h ****        *  @param  __p  Pointer to memory of suitable size and alignment for
 498:c:\program files\daisytoolchain\arm-none-eabi\include\c++\10.2.1\bits\alloc_traits.h ****        *	       an object of type `_Up`.
 499:c:\program files\daisytoolchain\arm-none-eabi\include\c++\10.2.1\bits\alloc_traits.h ****        *  @param  __args Constructor arguments.
 500:c:\program files\daisytoolchain\arm-none-eabi\include\c++\10.2.1\bits\alloc_traits.h ****        *
 501:c:\program files\daisytoolchain\arm-none-eabi\include\c++\10.2.1\bits\alloc_traits.h ****        *  Calls `__a.construct(__p, std::forward<_Args>(__args)...)`
 502:c:\program files\daisytoolchain\arm-none-eabi\include\c++\10.2.1\bits\alloc_traits.h ****        *  in C++11, C++14 and C++17. Changed in C++20 to call
 503:c:\program files\daisytoolchain\arm-none-eabi\include\c++\10.2.1\bits\alloc_traits.h ****        *  `std::construct_at(__p, std::forward<_Args>(__args)...)` instead.
 504:c:\program files\daisytoolchain\arm-none-eabi\include\c++\10.2.1\bits\alloc_traits.h ****       */
 505:c:\program files\daisytoolchain\arm-none-eabi\include\c++\10.2.1\bits\alloc_traits.h ****       template<typename _Up, typename... _Args>
 506:c:\program files\daisytoolchain\arm-none-eabi\include\c++\10.2.1\bits\alloc_traits.h **** 	static _GLIBCXX20_CONSTEXPR void
 507:c:\program files\daisytoolchain\arm-none-eabi\include\c++\10.2.1\bits\alloc_traits.h **** 	construct(allocator_type& __a __attribute__((__unused__)), _Up* __p,
 2057              		.loc 10 507 2 is_stmt 1 view .LVU514
 2058              	.LBB511:
 2059              	.LBI511:
 2060              		.file 11 "c:\\program files\\daisytoolchain\\arm-none-eabi\\include\\c++\\10.2.1\\ext\\new_allocat
   1:c:\program files\daisytoolchain\arm-none-eabi\include\c++\10.2.1\ext\new_allocator.h **** // Allocator that wraps operator new -*- C++ -*-
   2:c:\program files\daisytoolchain\arm-none-eabi\include\c++\10.2.1\ext\new_allocator.h **** 
   3:c:\program files\daisytoolchain\arm-none-eabi\include\c++\10.2.1\ext\new_allocator.h **** // Copyright (C) 2001-2020 Free Software Foundation, Inc.
   4:c:\program files\daisytoolchain\arm-none-eabi\include\c++\10.2.1\ext\new_allocator.h **** //
   5:c:\program files\daisytoolchain\arm-none-eabi\include\c++\10.2.1\ext\new_allocator.h **** // This file is part of the GNU ISO C++ Library.  This library is free
   6:c:\program files\daisytoolchain\arm-none-eabi\include\c++\10.2.1\ext\new_allocator.h **** // software; you can redistribute it and/or modify it under the
   7:c:\program files\daisytoolchain\arm-none-eabi\include\c++\10.2.1\ext\new_allocator.h **** // terms of the GNU General Public License as published by the
   8:c:\program files\daisytoolchain\arm-none-eabi\include\c++\10.2.1\ext\new_allocator.h **** // Free Software Foundation; either version 3, or (at your option)
   9:c:\program files\daisytoolchain\arm-none-eabi\include\c++\10.2.1\ext\new_allocator.h **** // any later version.
  10:c:\program files\daisytoolchain\arm-none-eabi\include\c++\10.2.1\ext\new_allocator.h **** 
  11:c:\program files\daisytoolchain\arm-none-eabi\include\c++\10.2.1\ext\new_allocator.h **** // This library is distributed in the hope that it will be useful,
  12:c:\program files\daisytoolchain\arm-none-eabi\include\c++\10.2.1\ext\new_allocator.h **** // but WITHOUT ANY WARRANTY; without even the implied warranty of
  13:c:\program files\daisytoolchain\arm-none-eabi\include\c++\10.2.1\ext\new_allocator.h **** // MERCHANTABILITY or FITNESS FOR A PARTICULAR PURPOSE.  See the
  14:c:\program files\daisytoolchain\arm-none-eabi\include\c++\10.2.1\ext\new_allocator.h **** // GNU General Public License for more details.
  15:c:\program files\daisytoolchain\arm-none-eabi\include\c++\10.2.1\ext\new_allocator.h **** 
  16:c:\program files\daisytoolchain\arm-none-eabi\include\c++\10.2.1\ext\new_allocator.h **** // Under Section 7 of GPL version 3, you are granted additional
  17:c:\program files\daisytoolchain\arm-none-eabi\include\c++\10.2.1\ext\new_allocator.h **** // permissions described in the GCC Runtime Library Exception, version
  18:c:\program files\daisytoolchain\arm-none-eabi\include\c++\10.2.1\ext\new_allocator.h **** // 3.1, as published by the Free Software Foundation.
  19:c:\program files\daisytoolchain\arm-none-eabi\include\c++\10.2.1\ext\new_allocator.h **** 
  20:c:\program files\daisytoolchain\arm-none-eabi\include\c++\10.2.1\ext\new_allocator.h **** // You should have received a copy of the GNU General Public License and
  21:c:\program files\daisytoolchain\arm-none-eabi\include\c++\10.2.1\ext\new_allocator.h **** // a copy of the GCC Runtime Library Exception along with this program;
  22:c:\program files\daisytoolchain\arm-none-eabi\include\c++\10.2.1\ext\new_allocator.h **** // see the files COPYING3 and COPYING.RUNTIME respectively.  If not, see
  23:c:\program files\daisytoolchain\arm-none-eabi\include\c++\10.2.1\ext\new_allocator.h **** // <http://www.gnu.org/licenses/>.
ARM GAS  C:\Users\samue\AppData\Local\Temp\cci865ja.s 			page 125


  24:c:\program files\daisytoolchain\arm-none-eabi\include\c++\10.2.1\ext\new_allocator.h **** 
  25:c:\program files\daisytoolchain\arm-none-eabi\include\c++\10.2.1\ext\new_allocator.h **** /** @file ext/new_allocator.h
  26:c:\program files\daisytoolchain\arm-none-eabi\include\c++\10.2.1\ext\new_allocator.h ****  *  This file is a GNU extension to the Standard C++ Library.
  27:c:\program files\daisytoolchain\arm-none-eabi\include\c++\10.2.1\ext\new_allocator.h ****  */
  28:c:\program files\daisytoolchain\arm-none-eabi\include\c++\10.2.1\ext\new_allocator.h **** 
  29:c:\program files\daisytoolchain\arm-none-eabi\include\c++\10.2.1\ext\new_allocator.h **** #ifndef _NEW_ALLOCATOR_H
  30:c:\program files\daisytoolchain\arm-none-eabi\include\c++\10.2.1\ext\new_allocator.h **** #define _NEW_ALLOCATOR_H 1
  31:c:\program files\daisytoolchain\arm-none-eabi\include\c++\10.2.1\ext\new_allocator.h **** 
  32:c:\program files\daisytoolchain\arm-none-eabi\include\c++\10.2.1\ext\new_allocator.h **** #include <bits/c++config.h>
  33:c:\program files\daisytoolchain\arm-none-eabi\include\c++\10.2.1\ext\new_allocator.h **** #include <new>
  34:c:\program files\daisytoolchain\arm-none-eabi\include\c++\10.2.1\ext\new_allocator.h **** #include <bits/functexcept.h>
  35:c:\program files\daisytoolchain\arm-none-eabi\include\c++\10.2.1\ext\new_allocator.h **** #include <bits/move.h>
  36:c:\program files\daisytoolchain\arm-none-eabi\include\c++\10.2.1\ext\new_allocator.h **** #if __cplusplus >= 201103L
  37:c:\program files\daisytoolchain\arm-none-eabi\include\c++\10.2.1\ext\new_allocator.h **** #include <type_traits>
  38:c:\program files\daisytoolchain\arm-none-eabi\include\c++\10.2.1\ext\new_allocator.h **** #endif
  39:c:\program files\daisytoolchain\arm-none-eabi\include\c++\10.2.1\ext\new_allocator.h **** 
  40:c:\program files\daisytoolchain\arm-none-eabi\include\c++\10.2.1\ext\new_allocator.h **** namespace __gnu_cxx _GLIBCXX_VISIBILITY(default)
  41:c:\program files\daisytoolchain\arm-none-eabi\include\c++\10.2.1\ext\new_allocator.h **** {
  42:c:\program files\daisytoolchain\arm-none-eabi\include\c++\10.2.1\ext\new_allocator.h **** _GLIBCXX_BEGIN_NAMESPACE_VERSION
  43:c:\program files\daisytoolchain\arm-none-eabi\include\c++\10.2.1\ext\new_allocator.h **** 
  44:c:\program files\daisytoolchain\arm-none-eabi\include\c++\10.2.1\ext\new_allocator.h ****   /**
  45:c:\program files\daisytoolchain\arm-none-eabi\include\c++\10.2.1\ext\new_allocator.h ****    *  @brief  An allocator that uses global new, as per [20.4].
  46:c:\program files\daisytoolchain\arm-none-eabi\include\c++\10.2.1\ext\new_allocator.h ****    *  @ingroup allocators
  47:c:\program files\daisytoolchain\arm-none-eabi\include\c++\10.2.1\ext\new_allocator.h ****    *
  48:c:\program files\daisytoolchain\arm-none-eabi\include\c++\10.2.1\ext\new_allocator.h ****    *  This is precisely the allocator defined in the C++ Standard.
  49:c:\program files\daisytoolchain\arm-none-eabi\include\c++\10.2.1\ext\new_allocator.h ****    *    - all allocation calls operator new
  50:c:\program files\daisytoolchain\arm-none-eabi\include\c++\10.2.1\ext\new_allocator.h ****    *    - all deallocation calls operator delete
  51:c:\program files\daisytoolchain\arm-none-eabi\include\c++\10.2.1\ext\new_allocator.h ****    *
  52:c:\program files\daisytoolchain\arm-none-eabi\include\c++\10.2.1\ext\new_allocator.h ****    *  @tparam  _Tp  Type of allocated object.
  53:c:\program files\daisytoolchain\arm-none-eabi\include\c++\10.2.1\ext\new_allocator.h ****    */
  54:c:\program files\daisytoolchain\arm-none-eabi\include\c++\10.2.1\ext\new_allocator.h ****   template<typename _Tp>
  55:c:\program files\daisytoolchain\arm-none-eabi\include\c++\10.2.1\ext\new_allocator.h ****     class new_allocator
  56:c:\program files\daisytoolchain\arm-none-eabi\include\c++\10.2.1\ext\new_allocator.h ****     {
  57:c:\program files\daisytoolchain\arm-none-eabi\include\c++\10.2.1\ext\new_allocator.h ****     public:
  58:c:\program files\daisytoolchain\arm-none-eabi\include\c++\10.2.1\ext\new_allocator.h ****       typedef _Tp        value_type;
  59:c:\program files\daisytoolchain\arm-none-eabi\include\c++\10.2.1\ext\new_allocator.h ****       typedef std::size_t     size_type;
  60:c:\program files\daisytoolchain\arm-none-eabi\include\c++\10.2.1\ext\new_allocator.h ****       typedef std::ptrdiff_t  difference_type;
  61:c:\program files\daisytoolchain\arm-none-eabi\include\c++\10.2.1\ext\new_allocator.h **** #if __cplusplus <= 201703L
  62:c:\program files\daisytoolchain\arm-none-eabi\include\c++\10.2.1\ext\new_allocator.h ****       typedef _Tp*       pointer;
  63:c:\program files\daisytoolchain\arm-none-eabi\include\c++\10.2.1\ext\new_allocator.h ****       typedef const _Tp* const_pointer;
  64:c:\program files\daisytoolchain\arm-none-eabi\include\c++\10.2.1\ext\new_allocator.h ****       typedef _Tp&       reference;
  65:c:\program files\daisytoolchain\arm-none-eabi\include\c++\10.2.1\ext\new_allocator.h ****       typedef const _Tp& const_reference;
  66:c:\program files\daisytoolchain\arm-none-eabi\include\c++\10.2.1\ext\new_allocator.h **** 
  67:c:\program files\daisytoolchain\arm-none-eabi\include\c++\10.2.1\ext\new_allocator.h ****       template<typename _Tp1>
  68:c:\program files\daisytoolchain\arm-none-eabi\include\c++\10.2.1\ext\new_allocator.h **** 	struct rebind
  69:c:\program files\daisytoolchain\arm-none-eabi\include\c++\10.2.1\ext\new_allocator.h **** 	{ typedef new_allocator<_Tp1> other; };
  70:c:\program files\daisytoolchain\arm-none-eabi\include\c++\10.2.1\ext\new_allocator.h **** #endif
  71:c:\program files\daisytoolchain\arm-none-eabi\include\c++\10.2.1\ext\new_allocator.h **** 
  72:c:\program files\daisytoolchain\arm-none-eabi\include\c++\10.2.1\ext\new_allocator.h **** #if __cplusplus >= 201103L
  73:c:\program files\daisytoolchain\arm-none-eabi\include\c++\10.2.1\ext\new_allocator.h ****       // _GLIBCXX_RESOLVE_LIB_DEFECTS
  74:c:\program files\daisytoolchain\arm-none-eabi\include\c++\10.2.1\ext\new_allocator.h ****       // 2103. propagate_on_container_move_assignment
  75:c:\program files\daisytoolchain\arm-none-eabi\include\c++\10.2.1\ext\new_allocator.h ****       typedef std::true_type propagate_on_container_move_assignment;
  76:c:\program files\daisytoolchain\arm-none-eabi\include\c++\10.2.1\ext\new_allocator.h **** #endif
  77:c:\program files\daisytoolchain\arm-none-eabi\include\c++\10.2.1\ext\new_allocator.h **** 
  78:c:\program files\daisytoolchain\arm-none-eabi\include\c++\10.2.1\ext\new_allocator.h ****       _GLIBCXX20_CONSTEXPR
  79:c:\program files\daisytoolchain\arm-none-eabi\include\c++\10.2.1\ext\new_allocator.h ****       new_allocator() _GLIBCXX_USE_NOEXCEPT { }
  80:c:\program files\daisytoolchain\arm-none-eabi\include\c++\10.2.1\ext\new_allocator.h **** 
ARM GAS  C:\Users\samue\AppData\Local\Temp\cci865ja.s 			page 126


  81:c:\program files\daisytoolchain\arm-none-eabi\include\c++\10.2.1\ext\new_allocator.h ****       _GLIBCXX20_CONSTEXPR
  82:c:\program files\daisytoolchain\arm-none-eabi\include\c++\10.2.1\ext\new_allocator.h ****       new_allocator(const new_allocator&) _GLIBCXX_USE_NOEXCEPT { }
  83:c:\program files\daisytoolchain\arm-none-eabi\include\c++\10.2.1\ext\new_allocator.h **** 
  84:c:\program files\daisytoolchain\arm-none-eabi\include\c++\10.2.1\ext\new_allocator.h ****       template<typename _Tp1>
  85:c:\program files\daisytoolchain\arm-none-eabi\include\c++\10.2.1\ext\new_allocator.h **** 	_GLIBCXX20_CONSTEXPR
  86:c:\program files\daisytoolchain\arm-none-eabi\include\c++\10.2.1\ext\new_allocator.h **** 	new_allocator(const new_allocator<_Tp1>&) _GLIBCXX_USE_NOEXCEPT { }
  87:c:\program files\daisytoolchain\arm-none-eabi\include\c++\10.2.1\ext\new_allocator.h **** 
  88:c:\program files\daisytoolchain\arm-none-eabi\include\c++\10.2.1\ext\new_allocator.h **** #if __cplusplus <= 201703L
  89:c:\program files\daisytoolchain\arm-none-eabi\include\c++\10.2.1\ext\new_allocator.h ****       ~new_allocator() _GLIBCXX_USE_NOEXCEPT { }
  90:c:\program files\daisytoolchain\arm-none-eabi\include\c++\10.2.1\ext\new_allocator.h **** 
  91:c:\program files\daisytoolchain\arm-none-eabi\include\c++\10.2.1\ext\new_allocator.h ****       pointer
  92:c:\program files\daisytoolchain\arm-none-eabi\include\c++\10.2.1\ext\new_allocator.h ****       address(reference __x) const _GLIBCXX_NOEXCEPT
  93:c:\program files\daisytoolchain\arm-none-eabi\include\c++\10.2.1\ext\new_allocator.h ****       { return std::__addressof(__x); }
  94:c:\program files\daisytoolchain\arm-none-eabi\include\c++\10.2.1\ext\new_allocator.h **** 
  95:c:\program files\daisytoolchain\arm-none-eabi\include\c++\10.2.1\ext\new_allocator.h ****       const_pointer
  96:c:\program files\daisytoolchain\arm-none-eabi\include\c++\10.2.1\ext\new_allocator.h ****       address(const_reference __x) const _GLIBCXX_NOEXCEPT
  97:c:\program files\daisytoolchain\arm-none-eabi\include\c++\10.2.1\ext\new_allocator.h ****       { return std::__addressof(__x); }
  98:c:\program files\daisytoolchain\arm-none-eabi\include\c++\10.2.1\ext\new_allocator.h **** #endif
  99:c:\program files\daisytoolchain\arm-none-eabi\include\c++\10.2.1\ext\new_allocator.h **** 
 100:c:\program files\daisytoolchain\arm-none-eabi\include\c++\10.2.1\ext\new_allocator.h ****       // NB: __n is permitted to be 0.  The C++ standard says nothing
 101:c:\program files\daisytoolchain\arm-none-eabi\include\c++\10.2.1\ext\new_allocator.h ****       // about what the return value is when __n == 0.
 102:c:\program files\daisytoolchain\arm-none-eabi\include\c++\10.2.1\ext\new_allocator.h ****       _GLIBCXX_NODISCARD _Tp*
 103:c:\program files\daisytoolchain\arm-none-eabi\include\c++\10.2.1\ext\new_allocator.h ****       allocate(size_type __n, const void* = static_cast<const void*>(0))
 104:c:\program files\daisytoolchain\arm-none-eabi\include\c++\10.2.1\ext\new_allocator.h ****       {
 105:c:\program files\daisytoolchain\arm-none-eabi\include\c++\10.2.1\ext\new_allocator.h **** 	if (__n > this->_M_max_size())
 106:c:\program files\daisytoolchain\arm-none-eabi\include\c++\10.2.1\ext\new_allocator.h **** 	  std::__throw_bad_alloc();
 107:c:\program files\daisytoolchain\arm-none-eabi\include\c++\10.2.1\ext\new_allocator.h **** 
 108:c:\program files\daisytoolchain\arm-none-eabi\include\c++\10.2.1\ext\new_allocator.h **** #if __cpp_aligned_new
 109:c:\program files\daisytoolchain\arm-none-eabi\include\c++\10.2.1\ext\new_allocator.h **** 	if (alignof(_Tp) > __STDCPP_DEFAULT_NEW_ALIGNMENT__)
 110:c:\program files\daisytoolchain\arm-none-eabi\include\c++\10.2.1\ext\new_allocator.h **** 	  {
 111:c:\program files\daisytoolchain\arm-none-eabi\include\c++\10.2.1\ext\new_allocator.h **** 	    std::align_val_t __al = std::align_val_t(alignof(_Tp));
 112:c:\program files\daisytoolchain\arm-none-eabi\include\c++\10.2.1\ext\new_allocator.h **** 	    return static_cast<_Tp*>(::operator new(__n * sizeof(_Tp), __al));
 113:c:\program files\daisytoolchain\arm-none-eabi\include\c++\10.2.1\ext\new_allocator.h **** 	  }
 114:c:\program files\daisytoolchain\arm-none-eabi\include\c++\10.2.1\ext\new_allocator.h **** #endif
 115:c:\program files\daisytoolchain\arm-none-eabi\include\c++\10.2.1\ext\new_allocator.h **** 	return static_cast<_Tp*>(::operator new(__n * sizeof(_Tp)));
 116:c:\program files\daisytoolchain\arm-none-eabi\include\c++\10.2.1\ext\new_allocator.h ****       }
 117:c:\program files\daisytoolchain\arm-none-eabi\include\c++\10.2.1\ext\new_allocator.h **** 
 118:c:\program files\daisytoolchain\arm-none-eabi\include\c++\10.2.1\ext\new_allocator.h ****       // __p is not permitted to be a null pointer.
 119:c:\program files\daisytoolchain\arm-none-eabi\include\c++\10.2.1\ext\new_allocator.h ****       void
 120:c:\program files\daisytoolchain\arm-none-eabi\include\c++\10.2.1\ext\new_allocator.h ****       deallocate(_Tp* __p, size_type __t)
 121:c:\program files\daisytoolchain\arm-none-eabi\include\c++\10.2.1\ext\new_allocator.h ****       {
 122:c:\program files\daisytoolchain\arm-none-eabi\include\c++\10.2.1\ext\new_allocator.h **** #if __cpp_aligned_new
 123:c:\program files\daisytoolchain\arm-none-eabi\include\c++\10.2.1\ext\new_allocator.h **** 	if (alignof(_Tp) > __STDCPP_DEFAULT_NEW_ALIGNMENT__)
 124:c:\program files\daisytoolchain\arm-none-eabi\include\c++\10.2.1\ext\new_allocator.h **** 	  {
 125:c:\program files\daisytoolchain\arm-none-eabi\include\c++\10.2.1\ext\new_allocator.h **** 	    ::operator delete(__p,
 126:c:\program files\daisytoolchain\arm-none-eabi\include\c++\10.2.1\ext\new_allocator.h **** # if __cpp_sized_deallocation
 127:c:\program files\daisytoolchain\arm-none-eabi\include\c++\10.2.1\ext\new_allocator.h **** 			      __t * sizeof(_Tp),
 128:c:\program files\daisytoolchain\arm-none-eabi\include\c++\10.2.1\ext\new_allocator.h **** # endif
 129:c:\program files\daisytoolchain\arm-none-eabi\include\c++\10.2.1\ext\new_allocator.h **** 			      std::align_val_t(alignof(_Tp)));
 130:c:\program files\daisytoolchain\arm-none-eabi\include\c++\10.2.1\ext\new_allocator.h **** 	    return;
 131:c:\program files\daisytoolchain\arm-none-eabi\include\c++\10.2.1\ext\new_allocator.h **** 	  }
 132:c:\program files\daisytoolchain\arm-none-eabi\include\c++\10.2.1\ext\new_allocator.h **** #endif
 133:c:\program files\daisytoolchain\arm-none-eabi\include\c++\10.2.1\ext\new_allocator.h **** 	::operator delete(__p
 134:c:\program files\daisytoolchain\arm-none-eabi\include\c++\10.2.1\ext\new_allocator.h **** #if __cpp_sized_deallocation
 135:c:\program files\daisytoolchain\arm-none-eabi\include\c++\10.2.1\ext\new_allocator.h **** 			  , __t * sizeof(_Tp)
 136:c:\program files\daisytoolchain\arm-none-eabi\include\c++\10.2.1\ext\new_allocator.h **** #endif
 137:c:\program files\daisytoolchain\arm-none-eabi\include\c++\10.2.1\ext\new_allocator.h **** 			 );
ARM GAS  C:\Users\samue\AppData\Local\Temp\cci865ja.s 			page 127


 138:c:\program files\daisytoolchain\arm-none-eabi\include\c++\10.2.1\ext\new_allocator.h ****       }
 139:c:\program files\daisytoolchain\arm-none-eabi\include\c++\10.2.1\ext\new_allocator.h **** 
 140:c:\program files\daisytoolchain\arm-none-eabi\include\c++\10.2.1\ext\new_allocator.h **** #if __cplusplus <= 201703L
 141:c:\program files\daisytoolchain\arm-none-eabi\include\c++\10.2.1\ext\new_allocator.h ****       size_type
 142:c:\program files\daisytoolchain\arm-none-eabi\include\c++\10.2.1\ext\new_allocator.h ****       max_size() const _GLIBCXX_USE_NOEXCEPT
 143:c:\program files\daisytoolchain\arm-none-eabi\include\c++\10.2.1\ext\new_allocator.h ****       { return _M_max_size(); }
 144:c:\program files\daisytoolchain\arm-none-eabi\include\c++\10.2.1\ext\new_allocator.h **** 
 145:c:\program files\daisytoolchain\arm-none-eabi\include\c++\10.2.1\ext\new_allocator.h **** #if __cplusplus >= 201103L
 146:c:\program files\daisytoolchain\arm-none-eabi\include\c++\10.2.1\ext\new_allocator.h ****       template<typename _Up, typename... _Args>
 147:c:\program files\daisytoolchain\arm-none-eabi\include\c++\10.2.1\ext\new_allocator.h **** 	void
 148:c:\program files\daisytoolchain\arm-none-eabi\include\c++\10.2.1\ext\new_allocator.h **** 	construct(_Up* __p, _Args&&... __args)
 2061              		.loc 11 148 2 view .LVU515
 2062              		.loc 11 148 2 is_stmt 0 view .LVU516
 2063              	.LBE511:
 2064              	.LBE510:
 2065              		.file 12 "c:\\program files\\daisytoolchain\\arm-none-eabi\\include\\c++\\10.2.1\\new"
   1:c:\program files\daisytoolchain\arm-none-eabi\include\c++\10.2.1\new **** // The -*- C++ -*- dynamic memory management header.
   2:c:\program files\daisytoolchain\arm-none-eabi\include\c++\10.2.1\new **** 
   3:c:\program files\daisytoolchain\arm-none-eabi\include\c++\10.2.1\new **** // Copyright (C) 1994-2020 Free Software Foundation, Inc.
   4:c:\program files\daisytoolchain\arm-none-eabi\include\c++\10.2.1\new **** 
   5:c:\program files\daisytoolchain\arm-none-eabi\include\c++\10.2.1\new **** // This file is part of GCC.
   6:c:\program files\daisytoolchain\arm-none-eabi\include\c++\10.2.1\new **** //
   7:c:\program files\daisytoolchain\arm-none-eabi\include\c++\10.2.1\new **** // GCC is free software; you can redistribute it and/or modify
   8:c:\program files\daisytoolchain\arm-none-eabi\include\c++\10.2.1\new **** // it under the terms of the GNU General Public License as published by
   9:c:\program files\daisytoolchain\arm-none-eabi\include\c++\10.2.1\new **** // the Free Software Foundation; either version 3, or (at your option)
  10:c:\program files\daisytoolchain\arm-none-eabi\include\c++\10.2.1\new **** // any later version.
  11:c:\program files\daisytoolchain\arm-none-eabi\include\c++\10.2.1\new **** // 
  12:c:\program files\daisytoolchain\arm-none-eabi\include\c++\10.2.1\new **** // GCC is distributed in the hope that it will be useful,
  13:c:\program files\daisytoolchain\arm-none-eabi\include\c++\10.2.1\new **** // but WITHOUT ANY WARRANTY; without even the implied warranty of
  14:c:\program files\daisytoolchain\arm-none-eabi\include\c++\10.2.1\new **** // MERCHANTABILITY or FITNESS FOR A PARTICULAR PURPOSE.  See the
  15:c:\program files\daisytoolchain\arm-none-eabi\include\c++\10.2.1\new **** // GNU General Public License for more details.
  16:c:\program files\daisytoolchain\arm-none-eabi\include\c++\10.2.1\new **** // 
  17:c:\program files\daisytoolchain\arm-none-eabi\include\c++\10.2.1\new **** // Under Section 7 of GPL version 3, you are granted additional
  18:c:\program files\daisytoolchain\arm-none-eabi\include\c++\10.2.1\new **** // permissions described in the GCC Runtime Library Exception, version
  19:c:\program files\daisytoolchain\arm-none-eabi\include\c++\10.2.1\new **** // 3.1, as published by the Free Software Foundation.
  20:c:\program files\daisytoolchain\arm-none-eabi\include\c++\10.2.1\new **** 
  21:c:\program files\daisytoolchain\arm-none-eabi\include\c++\10.2.1\new **** // You should have received a copy of the GNU General Public License and
  22:c:\program files\daisytoolchain\arm-none-eabi\include\c++\10.2.1\new **** // a copy of the GCC Runtime Library Exception along with this program;
  23:c:\program files\daisytoolchain\arm-none-eabi\include\c++\10.2.1\new **** // see the files COPYING3 and COPYING.RUNTIME respectively.  If not, see
  24:c:\program files\daisytoolchain\arm-none-eabi\include\c++\10.2.1\new **** // <http://www.gnu.org/licenses/>.
  25:c:\program files\daisytoolchain\arm-none-eabi\include\c++\10.2.1\new **** 
  26:c:\program files\daisytoolchain\arm-none-eabi\include\c++\10.2.1\new **** /** @file new
  27:c:\program files\daisytoolchain\arm-none-eabi\include\c++\10.2.1\new ****  *  This is a Standard C++ Library header.
  28:c:\program files\daisytoolchain\arm-none-eabi\include\c++\10.2.1\new ****  *
  29:c:\program files\daisytoolchain\arm-none-eabi\include\c++\10.2.1\new ****  *  The header @c new defines several functions to manage dynamic memory and
  30:c:\program files\daisytoolchain\arm-none-eabi\include\c++\10.2.1\new ****  *  handling memory allocation errors; see
  31:c:\program files\daisytoolchain\arm-none-eabi\include\c++\10.2.1\new ****  *  https://gcc.gnu.org/onlinedocs/libstdc++/manual/dynamic_memory.html
  32:c:\program files\daisytoolchain\arm-none-eabi\include\c++\10.2.1\new ****  *  for more.
  33:c:\program files\daisytoolchain\arm-none-eabi\include\c++\10.2.1\new ****  */
  34:c:\program files\daisytoolchain\arm-none-eabi\include\c++\10.2.1\new **** 
  35:c:\program files\daisytoolchain\arm-none-eabi\include\c++\10.2.1\new **** #ifndef _NEW
  36:c:\program files\daisytoolchain\arm-none-eabi\include\c++\10.2.1\new **** #define _NEW
  37:c:\program files\daisytoolchain\arm-none-eabi\include\c++\10.2.1\new **** 
  38:c:\program files\daisytoolchain\arm-none-eabi\include\c++\10.2.1\new **** #pragma GCC system_header
  39:c:\program files\daisytoolchain\arm-none-eabi\include\c++\10.2.1\new **** 
  40:c:\program files\daisytoolchain\arm-none-eabi\include\c++\10.2.1\new **** #include <bits/c++config.h>
  41:c:\program files\daisytoolchain\arm-none-eabi\include\c++\10.2.1\new **** #include <exception>
ARM GAS  C:\Users\samue\AppData\Local\Temp\cci865ja.s 			page 128


  42:c:\program files\daisytoolchain\arm-none-eabi\include\c++\10.2.1\new **** 
  43:c:\program files\daisytoolchain\arm-none-eabi\include\c++\10.2.1\new **** #pragma GCC visibility push(default)
  44:c:\program files\daisytoolchain\arm-none-eabi\include\c++\10.2.1\new **** 
  45:c:\program files\daisytoolchain\arm-none-eabi\include\c++\10.2.1\new **** extern "C++" {
  46:c:\program files\daisytoolchain\arm-none-eabi\include\c++\10.2.1\new **** 
  47:c:\program files\daisytoolchain\arm-none-eabi\include\c++\10.2.1\new **** namespace std 
  48:c:\program files\daisytoolchain\arm-none-eabi\include\c++\10.2.1\new **** {
  49:c:\program files\daisytoolchain\arm-none-eabi\include\c++\10.2.1\new ****   /**
  50:c:\program files\daisytoolchain\arm-none-eabi\include\c++\10.2.1\new ****    *  @brief  Exception possibly thrown by @c new.
  51:c:\program files\daisytoolchain\arm-none-eabi\include\c++\10.2.1\new ****    *  @ingroup exceptions
  52:c:\program files\daisytoolchain\arm-none-eabi\include\c++\10.2.1\new ****    *
  53:c:\program files\daisytoolchain\arm-none-eabi\include\c++\10.2.1\new ****    *  @c bad_alloc (or classes derived from it) is used to report allocation
  54:c:\program files\daisytoolchain\arm-none-eabi\include\c++\10.2.1\new ****    *  errors from the throwing forms of @c new.  */
  55:c:\program files\daisytoolchain\arm-none-eabi\include\c++\10.2.1\new ****   class bad_alloc : public exception 
  56:c:\program files\daisytoolchain\arm-none-eabi\include\c++\10.2.1\new ****   {
  57:c:\program files\daisytoolchain\arm-none-eabi\include\c++\10.2.1\new ****   public:
  58:c:\program files\daisytoolchain\arm-none-eabi\include\c++\10.2.1\new ****     bad_alloc() throw() { }
  59:c:\program files\daisytoolchain\arm-none-eabi\include\c++\10.2.1\new **** 
  60:c:\program files\daisytoolchain\arm-none-eabi\include\c++\10.2.1\new **** #if __cplusplus >= 201103L
  61:c:\program files\daisytoolchain\arm-none-eabi\include\c++\10.2.1\new ****     bad_alloc(const bad_alloc&) = default;
  62:c:\program files\daisytoolchain\arm-none-eabi\include\c++\10.2.1\new ****     bad_alloc& operator=(const bad_alloc&) = default;
  63:c:\program files\daisytoolchain\arm-none-eabi\include\c++\10.2.1\new **** #endif
  64:c:\program files\daisytoolchain\arm-none-eabi\include\c++\10.2.1\new **** 
  65:c:\program files\daisytoolchain\arm-none-eabi\include\c++\10.2.1\new ****     // This declaration is not useless:
  66:c:\program files\daisytoolchain\arm-none-eabi\include\c++\10.2.1\new ****     // http://gcc.gnu.org/onlinedocs/gcc-3.0.2/gcc_6.html#SEC118
  67:c:\program files\daisytoolchain\arm-none-eabi\include\c++\10.2.1\new ****     virtual ~bad_alloc() throw();
  68:c:\program files\daisytoolchain\arm-none-eabi\include\c++\10.2.1\new **** 
  69:c:\program files\daisytoolchain\arm-none-eabi\include\c++\10.2.1\new ****     // See comment in eh_exception.cc.
  70:c:\program files\daisytoolchain\arm-none-eabi\include\c++\10.2.1\new ****     virtual const char* what() const throw();
  71:c:\program files\daisytoolchain\arm-none-eabi\include\c++\10.2.1\new ****   };
  72:c:\program files\daisytoolchain\arm-none-eabi\include\c++\10.2.1\new **** 
  73:c:\program files\daisytoolchain\arm-none-eabi\include\c++\10.2.1\new **** #if __cplusplus >= 201103L
  74:c:\program files\daisytoolchain\arm-none-eabi\include\c++\10.2.1\new ****   class bad_array_new_length : public bad_alloc
  75:c:\program files\daisytoolchain\arm-none-eabi\include\c++\10.2.1\new ****   {
  76:c:\program files\daisytoolchain\arm-none-eabi\include\c++\10.2.1\new ****   public:
  77:c:\program files\daisytoolchain\arm-none-eabi\include\c++\10.2.1\new ****     bad_array_new_length() throw() { }
  78:c:\program files\daisytoolchain\arm-none-eabi\include\c++\10.2.1\new **** 
  79:c:\program files\daisytoolchain\arm-none-eabi\include\c++\10.2.1\new ****     // This declaration is not useless:
  80:c:\program files\daisytoolchain\arm-none-eabi\include\c++\10.2.1\new ****     // http://gcc.gnu.org/onlinedocs/gcc-3.0.2/gcc_6.html#SEC118
  81:c:\program files\daisytoolchain\arm-none-eabi\include\c++\10.2.1\new ****     virtual ~bad_array_new_length() throw();
  82:c:\program files\daisytoolchain\arm-none-eabi\include\c++\10.2.1\new **** 
  83:c:\program files\daisytoolchain\arm-none-eabi\include\c++\10.2.1\new ****     // See comment in eh_exception.cc.
  84:c:\program files\daisytoolchain\arm-none-eabi\include\c++\10.2.1\new ****     virtual const char* what() const throw();
  85:c:\program files\daisytoolchain\arm-none-eabi\include\c++\10.2.1\new ****   };
  86:c:\program files\daisytoolchain\arm-none-eabi\include\c++\10.2.1\new **** #endif
  87:c:\program files\daisytoolchain\arm-none-eabi\include\c++\10.2.1\new **** 
  88:c:\program files\daisytoolchain\arm-none-eabi\include\c++\10.2.1\new **** #if __cpp_aligned_new
  89:c:\program files\daisytoolchain\arm-none-eabi\include\c++\10.2.1\new ****   enum class align_val_t: size_t {};
  90:c:\program files\daisytoolchain\arm-none-eabi\include\c++\10.2.1\new **** #endif
  91:c:\program files\daisytoolchain\arm-none-eabi\include\c++\10.2.1\new **** 
  92:c:\program files\daisytoolchain\arm-none-eabi\include\c++\10.2.1\new ****   struct nothrow_t
  93:c:\program files\daisytoolchain\arm-none-eabi\include\c++\10.2.1\new ****   {
  94:c:\program files\daisytoolchain\arm-none-eabi\include\c++\10.2.1\new **** #if __cplusplus >= 201103L
  95:c:\program files\daisytoolchain\arm-none-eabi\include\c++\10.2.1\new ****     explicit nothrow_t() = default;
  96:c:\program files\daisytoolchain\arm-none-eabi\include\c++\10.2.1\new **** #endif
  97:c:\program files\daisytoolchain\arm-none-eabi\include\c++\10.2.1\new ****   };
  98:c:\program files\daisytoolchain\arm-none-eabi\include\c++\10.2.1\new **** 
ARM GAS  C:\Users\samue\AppData\Local\Temp\cci865ja.s 			page 129


  99:c:\program files\daisytoolchain\arm-none-eabi\include\c++\10.2.1\new ****   extern const nothrow_t nothrow;
 100:c:\program files\daisytoolchain\arm-none-eabi\include\c++\10.2.1\new **** 
 101:c:\program files\daisytoolchain\arm-none-eabi\include\c++\10.2.1\new ****   /** If you write your own error handler to be called by @c new, it must
 102:c:\program files\daisytoolchain\arm-none-eabi\include\c++\10.2.1\new ****    *  be of this type.  */
 103:c:\program files\daisytoolchain\arm-none-eabi\include\c++\10.2.1\new ****   typedef void (*new_handler)();
 104:c:\program files\daisytoolchain\arm-none-eabi\include\c++\10.2.1\new **** 
 105:c:\program files\daisytoolchain\arm-none-eabi\include\c++\10.2.1\new ****   /// Takes a replacement handler as the argument, returns the
 106:c:\program files\daisytoolchain\arm-none-eabi\include\c++\10.2.1\new ****   /// previous handler.
 107:c:\program files\daisytoolchain\arm-none-eabi\include\c++\10.2.1\new ****   new_handler set_new_handler(new_handler) throw();
 108:c:\program files\daisytoolchain\arm-none-eabi\include\c++\10.2.1\new **** 
 109:c:\program files\daisytoolchain\arm-none-eabi\include\c++\10.2.1\new **** #if __cplusplus >= 201103L
 110:c:\program files\daisytoolchain\arm-none-eabi\include\c++\10.2.1\new ****   /// Return the current new handler.
 111:c:\program files\daisytoolchain\arm-none-eabi\include\c++\10.2.1\new ****   new_handler get_new_handler() noexcept;
 112:c:\program files\daisytoolchain\arm-none-eabi\include\c++\10.2.1\new **** #endif
 113:c:\program files\daisytoolchain\arm-none-eabi\include\c++\10.2.1\new **** } // namespace std
 114:c:\program files\daisytoolchain\arm-none-eabi\include\c++\10.2.1\new **** 
 115:c:\program files\daisytoolchain\arm-none-eabi\include\c++\10.2.1\new **** //@{
 116:c:\program files\daisytoolchain\arm-none-eabi\include\c++\10.2.1\new **** /** These are replaceable signatures:
 117:c:\program files\daisytoolchain\arm-none-eabi\include\c++\10.2.1\new ****  *  - normal single new and delete (no arguments, throw @c bad_alloc on error)
 118:c:\program files\daisytoolchain\arm-none-eabi\include\c++\10.2.1\new ****  *  - normal array new and delete (same)
 119:c:\program files\daisytoolchain\arm-none-eabi\include\c++\10.2.1\new ****  *  - @c nothrow single new and delete (take a @c nothrow argument, return
 120:c:\program files\daisytoolchain\arm-none-eabi\include\c++\10.2.1\new ****  *    @c NULL on error)
 121:c:\program files\daisytoolchain\arm-none-eabi\include\c++\10.2.1\new ****  *  - @c nothrow array new and delete (same)
 122:c:\program files\daisytoolchain\arm-none-eabi\include\c++\10.2.1\new ****  *
 123:c:\program files\daisytoolchain\arm-none-eabi\include\c++\10.2.1\new ****  *  Placement new and delete signatures (take a memory address argument,
 124:c:\program files\daisytoolchain\arm-none-eabi\include\c++\10.2.1\new ****  *  does nothing) may not be replaced by a user's program.
 125:c:\program files\daisytoolchain\arm-none-eabi\include\c++\10.2.1\new **** */
 126:c:\program files\daisytoolchain\arm-none-eabi\include\c++\10.2.1\new **** _GLIBCXX_NODISCARD void* operator new(std::size_t) _GLIBCXX_THROW (std::bad_alloc)
 127:c:\program files\daisytoolchain\arm-none-eabi\include\c++\10.2.1\new ****   __attribute__((__externally_visible__));
 128:c:\program files\daisytoolchain\arm-none-eabi\include\c++\10.2.1\new **** _GLIBCXX_NODISCARD void* operator new[](std::size_t) _GLIBCXX_THROW (std::bad_alloc)
 129:c:\program files\daisytoolchain\arm-none-eabi\include\c++\10.2.1\new ****   __attribute__((__externally_visible__));
 130:c:\program files\daisytoolchain\arm-none-eabi\include\c++\10.2.1\new **** void operator delete(void*) _GLIBCXX_USE_NOEXCEPT
 131:c:\program files\daisytoolchain\arm-none-eabi\include\c++\10.2.1\new ****   __attribute__((__externally_visible__));
 132:c:\program files\daisytoolchain\arm-none-eabi\include\c++\10.2.1\new **** void operator delete[](void*) _GLIBCXX_USE_NOEXCEPT
 133:c:\program files\daisytoolchain\arm-none-eabi\include\c++\10.2.1\new ****   __attribute__((__externally_visible__));
 134:c:\program files\daisytoolchain\arm-none-eabi\include\c++\10.2.1\new **** #if __cpp_sized_deallocation
 135:c:\program files\daisytoolchain\arm-none-eabi\include\c++\10.2.1\new **** void operator delete(void*, std::size_t) _GLIBCXX_USE_NOEXCEPT
 136:c:\program files\daisytoolchain\arm-none-eabi\include\c++\10.2.1\new ****   __attribute__((__externally_visible__));
 137:c:\program files\daisytoolchain\arm-none-eabi\include\c++\10.2.1\new **** void operator delete[](void*, std::size_t) _GLIBCXX_USE_NOEXCEPT
 138:c:\program files\daisytoolchain\arm-none-eabi\include\c++\10.2.1\new ****   __attribute__((__externally_visible__));
 139:c:\program files\daisytoolchain\arm-none-eabi\include\c++\10.2.1\new **** #endif
 140:c:\program files\daisytoolchain\arm-none-eabi\include\c++\10.2.1\new **** _GLIBCXX_NODISCARD void* operator new(std::size_t, const std::nothrow_t&) _GLIBCXX_USE_NOEXCEPT
 141:c:\program files\daisytoolchain\arm-none-eabi\include\c++\10.2.1\new ****   __attribute__((__externally_visible__, __malloc__));
 142:c:\program files\daisytoolchain\arm-none-eabi\include\c++\10.2.1\new **** _GLIBCXX_NODISCARD void* operator new[](std::size_t, const std::nothrow_t&) _GLIBCXX_USE_NOEXCEPT
 143:c:\program files\daisytoolchain\arm-none-eabi\include\c++\10.2.1\new ****   __attribute__((__externally_visible__, __malloc__));
 144:c:\program files\daisytoolchain\arm-none-eabi\include\c++\10.2.1\new **** void operator delete(void*, const std::nothrow_t&) _GLIBCXX_USE_NOEXCEPT
 145:c:\program files\daisytoolchain\arm-none-eabi\include\c++\10.2.1\new ****   __attribute__((__externally_visible__));
 146:c:\program files\daisytoolchain\arm-none-eabi\include\c++\10.2.1\new **** void operator delete[](void*, const std::nothrow_t&) _GLIBCXX_USE_NOEXCEPT
 147:c:\program files\daisytoolchain\arm-none-eabi\include\c++\10.2.1\new ****   __attribute__((__externally_visible__));
 148:c:\program files\daisytoolchain\arm-none-eabi\include\c++\10.2.1\new **** #if __cpp_aligned_new
 149:c:\program files\daisytoolchain\arm-none-eabi\include\c++\10.2.1\new **** _GLIBCXX_NODISCARD void* operator new(std::size_t, std::align_val_t)
 150:c:\program files\daisytoolchain\arm-none-eabi\include\c++\10.2.1\new ****   __attribute__((__externally_visible__));
 151:c:\program files\daisytoolchain\arm-none-eabi\include\c++\10.2.1\new **** _GLIBCXX_NODISCARD void* operator new(std::size_t, std::align_val_t, const std::nothrow_t&)
 152:c:\program files\daisytoolchain\arm-none-eabi\include\c++\10.2.1\new ****   _GLIBCXX_USE_NOEXCEPT __attribute__((__externally_visible__, __malloc__));
 153:c:\program files\daisytoolchain\arm-none-eabi\include\c++\10.2.1\new **** void operator delete(void*, std::align_val_t)
 154:c:\program files\daisytoolchain\arm-none-eabi\include\c++\10.2.1\new ****   _GLIBCXX_USE_NOEXCEPT __attribute__((__externally_visible__));
 155:c:\program files\daisytoolchain\arm-none-eabi\include\c++\10.2.1\new **** void operator delete(void*, std::align_val_t, const std::nothrow_t&)
ARM GAS  C:\Users\samue\AppData\Local\Temp\cci865ja.s 			page 130


 156:c:\program files\daisytoolchain\arm-none-eabi\include\c++\10.2.1\new ****   _GLIBCXX_USE_NOEXCEPT __attribute__((__externally_visible__));
 157:c:\program files\daisytoolchain\arm-none-eabi\include\c++\10.2.1\new **** _GLIBCXX_NODISCARD void* operator new[](std::size_t, std::align_val_t)
 158:c:\program files\daisytoolchain\arm-none-eabi\include\c++\10.2.1\new ****   __attribute__((__externally_visible__));
 159:c:\program files\daisytoolchain\arm-none-eabi\include\c++\10.2.1\new **** _GLIBCXX_NODISCARD void* operator new[](std::size_t, std::align_val_t, const std::nothrow_t&)
 160:c:\program files\daisytoolchain\arm-none-eabi\include\c++\10.2.1\new ****   _GLIBCXX_USE_NOEXCEPT __attribute__((__externally_visible__, __malloc__));
 161:c:\program files\daisytoolchain\arm-none-eabi\include\c++\10.2.1\new **** void operator delete[](void*, std::align_val_t)
 162:c:\program files\daisytoolchain\arm-none-eabi\include\c++\10.2.1\new ****   _GLIBCXX_USE_NOEXCEPT __attribute__((__externally_visible__));
 163:c:\program files\daisytoolchain\arm-none-eabi\include\c++\10.2.1\new **** void operator delete[](void*, std::align_val_t, const std::nothrow_t&)
 164:c:\program files\daisytoolchain\arm-none-eabi\include\c++\10.2.1\new ****   _GLIBCXX_USE_NOEXCEPT __attribute__((__externally_visible__));
 165:c:\program files\daisytoolchain\arm-none-eabi\include\c++\10.2.1\new **** #if __cpp_sized_deallocation
 166:c:\program files\daisytoolchain\arm-none-eabi\include\c++\10.2.1\new **** void operator delete(void*, std::size_t, std::align_val_t)
 167:c:\program files\daisytoolchain\arm-none-eabi\include\c++\10.2.1\new ****   _GLIBCXX_USE_NOEXCEPT __attribute__((__externally_visible__));
 168:c:\program files\daisytoolchain\arm-none-eabi\include\c++\10.2.1\new **** void operator delete[](void*, std::size_t, std::align_val_t)
 169:c:\program files\daisytoolchain\arm-none-eabi\include\c++\10.2.1\new ****   _GLIBCXX_USE_NOEXCEPT __attribute__((__externally_visible__));
 170:c:\program files\daisytoolchain\arm-none-eabi\include\c++\10.2.1\new **** #endif // __cpp_sized_deallocation
 171:c:\program files\daisytoolchain\arm-none-eabi\include\c++\10.2.1\new **** #endif // __cpp_aligned_new
 172:c:\program files\daisytoolchain\arm-none-eabi\include\c++\10.2.1\new **** 
 173:c:\program files\daisytoolchain\arm-none-eabi\include\c++\10.2.1\new **** // Default placement versions of operator new.
 174:c:\program files\daisytoolchain\arm-none-eabi\include\c++\10.2.1\new **** _GLIBCXX_NODISCARD inline void* operator new(std::size_t, void* __p) _GLIBCXX_USE_NOEXCEPT
 175:c:\program files\daisytoolchain\arm-none-eabi\include\c++\10.2.1\new **** { return __p; }
 2066              		.loc 12 175 3 is_stmt 1 view .LVU517
 2067              	.LBB516:
 2068              	.LBB514:
 2069              	.LBB512:
 149:c:\program files\daisytoolchain\arm-none-eabi\include\c++\10.2.1\ext\new_allocator.h **** 	noexcept(std::is_nothrow_constructible<_Up, _Args...>::value)
 150:c:\program files\daisytoolchain\arm-none-eabi\include\c++\10.2.1\ext\new_allocator.h **** 	{ ::new((void *)__p) _Up(std::forward<_Args>(__args)...); }
 2070              		.loc 11 150 4 is_stmt 0 view .LVU518
 2071 003c 09EB020C 		add	ip, r9, r2
 2072              	.LVL119:
 2073              		.loc 11 150 4 view .LVU519
 2074              	.LBE512:
 2075              	.LBE514:
 2076              	.LBE516:
 2077              	.LBB517:
 2078              	.LBB518:
 2079              	.LBB519:
 2080              	.LBB520:
 2081              	.LBB521:
 2082              	.LBB522:
 2083              		.file 13 "c:\\program files\\daisytoolchain\\arm-none-eabi\\include\\c++\\10.2.1\\bits\\stl_uninit
   1:c:\program files\daisytoolchain\arm-none-eabi\include\c++\10.2.1\bits\stl_uninitialized.h **** // Raw memory manipulators -*- C++ -*-
   2:c:\program files\daisytoolchain\arm-none-eabi\include\c++\10.2.1\bits\stl_uninitialized.h **** 
   3:c:\program files\daisytoolchain\arm-none-eabi\include\c++\10.2.1\bits\stl_uninitialized.h **** // Copyright (C) 2001-2020 Free Software Foundation, Inc.
   4:c:\program files\daisytoolchain\arm-none-eabi\include\c++\10.2.1\bits\stl_uninitialized.h **** //
   5:c:\program files\daisytoolchain\arm-none-eabi\include\c++\10.2.1\bits\stl_uninitialized.h **** // This file is part of the GNU ISO C++ Library.  This library is free
   6:c:\program files\daisytoolchain\arm-none-eabi\include\c++\10.2.1\bits\stl_uninitialized.h **** // software; you can redistribute it and/or modify it under the
   7:c:\program files\daisytoolchain\arm-none-eabi\include\c++\10.2.1\bits\stl_uninitialized.h **** // terms of the GNU General Public License as published by the
   8:c:\program files\daisytoolchain\arm-none-eabi\include\c++\10.2.1\bits\stl_uninitialized.h **** // Free Software Foundation; either version 3, or (at your option)
   9:c:\program files\daisytoolchain\arm-none-eabi\include\c++\10.2.1\bits\stl_uninitialized.h **** // any later version.
  10:c:\program files\daisytoolchain\arm-none-eabi\include\c++\10.2.1\bits\stl_uninitialized.h **** 
  11:c:\program files\daisytoolchain\arm-none-eabi\include\c++\10.2.1\bits\stl_uninitialized.h **** // This library is distributed in the hope that it will be useful,
  12:c:\program files\daisytoolchain\arm-none-eabi\include\c++\10.2.1\bits\stl_uninitialized.h **** // but WITHOUT ANY WARRANTY; without even the implied warranty of
  13:c:\program files\daisytoolchain\arm-none-eabi\include\c++\10.2.1\bits\stl_uninitialized.h **** // MERCHANTABILITY or FITNESS FOR A PARTICULAR PURPOSE.  See the
  14:c:\program files\daisytoolchain\arm-none-eabi\include\c++\10.2.1\bits\stl_uninitialized.h **** // GNU General Public License for more details.
  15:c:\program files\daisytoolchain\arm-none-eabi\include\c++\10.2.1\bits\stl_uninitialized.h **** 
  16:c:\program files\daisytoolchain\arm-none-eabi\include\c++\10.2.1\bits\stl_uninitialized.h **** // Under Section 7 of GPL version 3, you are granted additional
  17:c:\program files\daisytoolchain\arm-none-eabi\include\c++\10.2.1\bits\stl_uninitialized.h **** // permissions described in the GCC Runtime Library Exception, version
ARM GAS  C:\Users\samue\AppData\Local\Temp\cci865ja.s 			page 131


  18:c:\program files\daisytoolchain\arm-none-eabi\include\c++\10.2.1\bits\stl_uninitialized.h **** // 3.1, as published by the Free Software Foundation.
  19:c:\program files\daisytoolchain\arm-none-eabi\include\c++\10.2.1\bits\stl_uninitialized.h **** 
  20:c:\program files\daisytoolchain\arm-none-eabi\include\c++\10.2.1\bits\stl_uninitialized.h **** // You should have received a copy of the GNU General Public License and
  21:c:\program files\daisytoolchain\arm-none-eabi\include\c++\10.2.1\bits\stl_uninitialized.h **** // a copy of the GCC Runtime Library Exception along with this program;
  22:c:\program files\daisytoolchain\arm-none-eabi\include\c++\10.2.1\bits\stl_uninitialized.h **** // see the files COPYING3 and COPYING.RUNTIME respectively.  If not, see
  23:c:\program files\daisytoolchain\arm-none-eabi\include\c++\10.2.1\bits\stl_uninitialized.h **** // <http://www.gnu.org/licenses/>.
  24:c:\program files\daisytoolchain\arm-none-eabi\include\c++\10.2.1\bits\stl_uninitialized.h **** 
  25:c:\program files\daisytoolchain\arm-none-eabi\include\c++\10.2.1\bits\stl_uninitialized.h **** /*
  26:c:\program files\daisytoolchain\arm-none-eabi\include\c++\10.2.1\bits\stl_uninitialized.h ****  *
  27:c:\program files\daisytoolchain\arm-none-eabi\include\c++\10.2.1\bits\stl_uninitialized.h ****  * Copyright (c) 1994
  28:c:\program files\daisytoolchain\arm-none-eabi\include\c++\10.2.1\bits\stl_uninitialized.h ****  * Hewlett-Packard Company
  29:c:\program files\daisytoolchain\arm-none-eabi\include\c++\10.2.1\bits\stl_uninitialized.h ****  *
  30:c:\program files\daisytoolchain\arm-none-eabi\include\c++\10.2.1\bits\stl_uninitialized.h ****  * Permission to use, copy, modify, distribute and sell this software
  31:c:\program files\daisytoolchain\arm-none-eabi\include\c++\10.2.1\bits\stl_uninitialized.h ****  * and its documentation for any purpose is hereby granted without fee,
  32:c:\program files\daisytoolchain\arm-none-eabi\include\c++\10.2.1\bits\stl_uninitialized.h ****  * provided that the above copyright notice appear in all copies and
  33:c:\program files\daisytoolchain\arm-none-eabi\include\c++\10.2.1\bits\stl_uninitialized.h ****  * that both that copyright notice and this permission notice appear
  34:c:\program files\daisytoolchain\arm-none-eabi\include\c++\10.2.1\bits\stl_uninitialized.h ****  * in supporting documentation.  Hewlett-Packard Company makes no
  35:c:\program files\daisytoolchain\arm-none-eabi\include\c++\10.2.1\bits\stl_uninitialized.h ****  * representations about the suitability of this software for any
  36:c:\program files\daisytoolchain\arm-none-eabi\include\c++\10.2.1\bits\stl_uninitialized.h ****  * purpose.  It is provided "as is" without express or implied warranty.
  37:c:\program files\daisytoolchain\arm-none-eabi\include\c++\10.2.1\bits\stl_uninitialized.h ****  *
  38:c:\program files\daisytoolchain\arm-none-eabi\include\c++\10.2.1\bits\stl_uninitialized.h ****  *
  39:c:\program files\daisytoolchain\arm-none-eabi\include\c++\10.2.1\bits\stl_uninitialized.h ****  * Copyright (c) 1996,1997
  40:c:\program files\daisytoolchain\arm-none-eabi\include\c++\10.2.1\bits\stl_uninitialized.h ****  * Silicon Graphics Computer Systems, Inc.
  41:c:\program files\daisytoolchain\arm-none-eabi\include\c++\10.2.1\bits\stl_uninitialized.h ****  *
  42:c:\program files\daisytoolchain\arm-none-eabi\include\c++\10.2.1\bits\stl_uninitialized.h ****  * Permission to use, copy, modify, distribute and sell this software
  43:c:\program files\daisytoolchain\arm-none-eabi\include\c++\10.2.1\bits\stl_uninitialized.h ****  * and its documentation for any purpose is hereby granted without fee,
  44:c:\program files\daisytoolchain\arm-none-eabi\include\c++\10.2.1\bits\stl_uninitialized.h ****  * provided that the above copyright notice appear in all copies and
  45:c:\program files\daisytoolchain\arm-none-eabi\include\c++\10.2.1\bits\stl_uninitialized.h ****  * that both that copyright notice and this permission notice appear
  46:c:\program files\daisytoolchain\arm-none-eabi\include\c++\10.2.1\bits\stl_uninitialized.h ****  * in supporting documentation.  Silicon Graphics makes no
  47:c:\program files\daisytoolchain\arm-none-eabi\include\c++\10.2.1\bits\stl_uninitialized.h ****  * representations about the suitability of this software for any
  48:c:\program files\daisytoolchain\arm-none-eabi\include\c++\10.2.1\bits\stl_uninitialized.h ****  * purpose.  It is provided "as is" without express or implied warranty.
  49:c:\program files\daisytoolchain\arm-none-eabi\include\c++\10.2.1\bits\stl_uninitialized.h ****  */
  50:c:\program files\daisytoolchain\arm-none-eabi\include\c++\10.2.1\bits\stl_uninitialized.h **** 
  51:c:\program files\daisytoolchain\arm-none-eabi\include\c++\10.2.1\bits\stl_uninitialized.h **** /** @file bits/stl_uninitialized.h
  52:c:\program files\daisytoolchain\arm-none-eabi\include\c++\10.2.1\bits\stl_uninitialized.h ****  *  This is an internal header file, included by other library headers.
  53:c:\program files\daisytoolchain\arm-none-eabi\include\c++\10.2.1\bits\stl_uninitialized.h ****  *  Do not attempt to use it directly. @headername{memory}
  54:c:\program files\daisytoolchain\arm-none-eabi\include\c++\10.2.1\bits\stl_uninitialized.h ****  */
  55:c:\program files\daisytoolchain\arm-none-eabi\include\c++\10.2.1\bits\stl_uninitialized.h **** 
  56:c:\program files\daisytoolchain\arm-none-eabi\include\c++\10.2.1\bits\stl_uninitialized.h **** #ifndef _STL_UNINITIALIZED_H
  57:c:\program files\daisytoolchain\arm-none-eabi\include\c++\10.2.1\bits\stl_uninitialized.h **** #define _STL_UNINITIALIZED_H 1
  58:c:\program files\daisytoolchain\arm-none-eabi\include\c++\10.2.1\bits\stl_uninitialized.h **** 
  59:c:\program files\daisytoolchain\arm-none-eabi\include\c++\10.2.1\bits\stl_uninitialized.h **** #if __cplusplus > 201402L
  60:c:\program files\daisytoolchain\arm-none-eabi\include\c++\10.2.1\bits\stl_uninitialized.h **** #include <bits/stl_pair.h>
  61:c:\program files\daisytoolchain\arm-none-eabi\include\c++\10.2.1\bits\stl_uninitialized.h **** #endif
  62:c:\program files\daisytoolchain\arm-none-eabi\include\c++\10.2.1\bits\stl_uninitialized.h **** 
  63:c:\program files\daisytoolchain\arm-none-eabi\include\c++\10.2.1\bits\stl_uninitialized.h **** #if __cplusplus >= 201103L
  64:c:\program files\daisytoolchain\arm-none-eabi\include\c++\10.2.1\bits\stl_uninitialized.h **** #include <type_traits>
  65:c:\program files\daisytoolchain\arm-none-eabi\include\c++\10.2.1\bits\stl_uninitialized.h **** #endif
  66:c:\program files\daisytoolchain\arm-none-eabi\include\c++\10.2.1\bits\stl_uninitialized.h **** 
  67:c:\program files\daisytoolchain\arm-none-eabi\include\c++\10.2.1\bits\stl_uninitialized.h **** #include <ext/alloc_traits.h>
  68:c:\program files\daisytoolchain\arm-none-eabi\include\c++\10.2.1\bits\stl_uninitialized.h **** 
  69:c:\program files\daisytoolchain\arm-none-eabi\include\c++\10.2.1\bits\stl_uninitialized.h **** namespace std _GLIBCXX_VISIBILITY(default)
  70:c:\program files\daisytoolchain\arm-none-eabi\include\c++\10.2.1\bits\stl_uninitialized.h **** {
  71:c:\program files\daisytoolchain\arm-none-eabi\include\c++\10.2.1\bits\stl_uninitialized.h **** _GLIBCXX_BEGIN_NAMESPACE_VERSION
  72:c:\program files\daisytoolchain\arm-none-eabi\include\c++\10.2.1\bits\stl_uninitialized.h **** 
  73:c:\program files\daisytoolchain\arm-none-eabi\include\c++\10.2.1\bits\stl_uninitialized.h ****   /** @addtogroup memory
  74:c:\program files\daisytoolchain\arm-none-eabi\include\c++\10.2.1\bits\stl_uninitialized.h ****    *  @{
ARM GAS  C:\Users\samue\AppData\Local\Temp\cci865ja.s 			page 132


  75:c:\program files\daisytoolchain\arm-none-eabi\include\c++\10.2.1\bits\stl_uninitialized.h ****    */
  76:c:\program files\daisytoolchain\arm-none-eabi\include\c++\10.2.1\bits\stl_uninitialized.h **** 
  77:c:\program files\daisytoolchain\arm-none-eabi\include\c++\10.2.1\bits\stl_uninitialized.h ****   /// @cond undocumented
  78:c:\program files\daisytoolchain\arm-none-eabi\include\c++\10.2.1\bits\stl_uninitialized.h **** 
  79:c:\program files\daisytoolchain\arm-none-eabi\include\c++\10.2.1\bits\stl_uninitialized.h ****   template<bool _TrivialValueTypes>
  80:c:\program files\daisytoolchain\arm-none-eabi\include\c++\10.2.1\bits\stl_uninitialized.h ****     struct __uninitialized_copy
  81:c:\program files\daisytoolchain\arm-none-eabi\include\c++\10.2.1\bits\stl_uninitialized.h ****     {
  82:c:\program files\daisytoolchain\arm-none-eabi\include\c++\10.2.1\bits\stl_uninitialized.h ****       template<typename _InputIterator, typename _ForwardIterator>
  83:c:\program files\daisytoolchain\arm-none-eabi\include\c++\10.2.1\bits\stl_uninitialized.h ****         static _ForwardIterator
  84:c:\program files\daisytoolchain\arm-none-eabi\include\c++\10.2.1\bits\stl_uninitialized.h ****         __uninit_copy(_InputIterator __first, _InputIterator __last,
  85:c:\program files\daisytoolchain\arm-none-eabi\include\c++\10.2.1\bits\stl_uninitialized.h **** 		      _ForwardIterator __result)
  86:c:\program files\daisytoolchain\arm-none-eabi\include\c++\10.2.1\bits\stl_uninitialized.h ****         {
  87:c:\program files\daisytoolchain\arm-none-eabi\include\c++\10.2.1\bits\stl_uninitialized.h **** 	  _ForwardIterator __cur = __result;
  88:c:\program files\daisytoolchain\arm-none-eabi\include\c++\10.2.1\bits\stl_uninitialized.h **** 	  __try
  89:c:\program files\daisytoolchain\arm-none-eabi\include\c++\10.2.1\bits\stl_uninitialized.h **** 	    {
  90:c:\program files\daisytoolchain\arm-none-eabi\include\c++\10.2.1\bits\stl_uninitialized.h **** 	      for (; __first != __last; ++__first, (void)++__cur)
  91:c:\program files\daisytoolchain\arm-none-eabi\include\c++\10.2.1\bits\stl_uninitialized.h **** 		std::_Construct(std::__addressof(*__cur), *__first);
  92:c:\program files\daisytoolchain\arm-none-eabi\include\c++\10.2.1\bits\stl_uninitialized.h **** 	      return __cur;
  93:c:\program files\daisytoolchain\arm-none-eabi\include\c++\10.2.1\bits\stl_uninitialized.h **** 	    }
  94:c:\program files\daisytoolchain\arm-none-eabi\include\c++\10.2.1\bits\stl_uninitialized.h **** 	  __catch(...)
  95:c:\program files\daisytoolchain\arm-none-eabi\include\c++\10.2.1\bits\stl_uninitialized.h **** 	    {
  96:c:\program files\daisytoolchain\arm-none-eabi\include\c++\10.2.1\bits\stl_uninitialized.h **** 	      std::_Destroy(__result, __cur);
  97:c:\program files\daisytoolchain\arm-none-eabi\include\c++\10.2.1\bits\stl_uninitialized.h **** 	      __throw_exception_again;
  98:c:\program files\daisytoolchain\arm-none-eabi\include\c++\10.2.1\bits\stl_uninitialized.h **** 	    }
  99:c:\program files\daisytoolchain\arm-none-eabi\include\c++\10.2.1\bits\stl_uninitialized.h **** 	}
 100:c:\program files\daisytoolchain\arm-none-eabi\include\c++\10.2.1\bits\stl_uninitialized.h ****     };
 101:c:\program files\daisytoolchain\arm-none-eabi\include\c++\10.2.1\bits\stl_uninitialized.h **** 
 102:c:\program files\daisytoolchain\arm-none-eabi\include\c++\10.2.1\bits\stl_uninitialized.h ****   template<>
 103:c:\program files\daisytoolchain\arm-none-eabi\include\c++\10.2.1\bits\stl_uninitialized.h ****     struct __uninitialized_copy<true>
 104:c:\program files\daisytoolchain\arm-none-eabi\include\c++\10.2.1\bits\stl_uninitialized.h ****     {
 105:c:\program files\daisytoolchain\arm-none-eabi\include\c++\10.2.1\bits\stl_uninitialized.h ****       template<typename _InputIterator, typename _ForwardIterator>
 106:c:\program files\daisytoolchain\arm-none-eabi\include\c++\10.2.1\bits\stl_uninitialized.h ****         static _ForwardIterator
 107:c:\program files\daisytoolchain\arm-none-eabi\include\c++\10.2.1\bits\stl_uninitialized.h ****         __uninit_copy(_InputIterator __first, _InputIterator __last,
 108:c:\program files\daisytoolchain\arm-none-eabi\include\c++\10.2.1\bits\stl_uninitialized.h **** 		      _ForwardIterator __result)
 109:c:\program files\daisytoolchain\arm-none-eabi\include\c++\10.2.1\bits\stl_uninitialized.h ****         { return std::copy(__first, __last, __result); }
 110:c:\program files\daisytoolchain\arm-none-eabi\include\c++\10.2.1\bits\stl_uninitialized.h ****     };
 111:c:\program files\daisytoolchain\arm-none-eabi\include\c++\10.2.1\bits\stl_uninitialized.h **** 
 112:c:\program files\daisytoolchain\arm-none-eabi\include\c++\10.2.1\bits\stl_uninitialized.h ****   /// @endcond
 113:c:\program files\daisytoolchain\arm-none-eabi\include\c++\10.2.1\bits\stl_uninitialized.h **** 
 114:c:\program files\daisytoolchain\arm-none-eabi\include\c++\10.2.1\bits\stl_uninitialized.h ****   /**
 115:c:\program files\daisytoolchain\arm-none-eabi\include\c++\10.2.1\bits\stl_uninitialized.h ****    *  @brief Copies the range [first,last) into result.
 116:c:\program files\daisytoolchain\arm-none-eabi\include\c++\10.2.1\bits\stl_uninitialized.h ****    *  @param  __first  An input iterator.
 117:c:\program files\daisytoolchain\arm-none-eabi\include\c++\10.2.1\bits\stl_uninitialized.h ****    *  @param  __last   An input iterator.
 118:c:\program files\daisytoolchain\arm-none-eabi\include\c++\10.2.1\bits\stl_uninitialized.h ****    *  @param  __result An output iterator.
 119:c:\program files\daisytoolchain\arm-none-eabi\include\c++\10.2.1\bits\stl_uninitialized.h ****    *  @return   __result + (__first - __last)
 120:c:\program files\daisytoolchain\arm-none-eabi\include\c++\10.2.1\bits\stl_uninitialized.h ****    *
 121:c:\program files\daisytoolchain\arm-none-eabi\include\c++\10.2.1\bits\stl_uninitialized.h ****    *  Like copy(), but does not require an initialized output range.
 122:c:\program files\daisytoolchain\arm-none-eabi\include\c++\10.2.1\bits\stl_uninitialized.h ****   */
 123:c:\program files\daisytoolchain\arm-none-eabi\include\c++\10.2.1\bits\stl_uninitialized.h ****   template<typename _InputIterator, typename _ForwardIterator>
 124:c:\program files\daisytoolchain\arm-none-eabi\include\c++\10.2.1\bits\stl_uninitialized.h ****     inline _ForwardIterator
 125:c:\program files\daisytoolchain\arm-none-eabi\include\c++\10.2.1\bits\stl_uninitialized.h ****     uninitialized_copy(_InputIterator __first, _InputIterator __last,
 126:c:\program files\daisytoolchain\arm-none-eabi\include\c++\10.2.1\bits\stl_uninitialized.h **** 		       _ForwardIterator __result)
 127:c:\program files\daisytoolchain\arm-none-eabi\include\c++\10.2.1\bits\stl_uninitialized.h ****     {
 128:c:\program files\daisytoolchain\arm-none-eabi\include\c++\10.2.1\bits\stl_uninitialized.h ****       typedef typename iterator_traits<_InputIterator>::value_type
 129:c:\program files\daisytoolchain\arm-none-eabi\include\c++\10.2.1\bits\stl_uninitialized.h **** 	_ValueType1;
 130:c:\program files\daisytoolchain\arm-none-eabi\include\c++\10.2.1\bits\stl_uninitialized.h ****       typedef typename iterator_traits<_ForwardIterator>::value_type
 131:c:\program files\daisytoolchain\arm-none-eabi\include\c++\10.2.1\bits\stl_uninitialized.h **** 	_ValueType2;
ARM GAS  C:\Users\samue\AppData\Local\Temp\cci865ja.s 			page 133


 132:c:\program files\daisytoolchain\arm-none-eabi\include\c++\10.2.1\bits\stl_uninitialized.h **** #if __cplusplus < 201103L
 133:c:\program files\daisytoolchain\arm-none-eabi\include\c++\10.2.1\bits\stl_uninitialized.h ****       const bool __assignable = true;
 134:c:\program files\daisytoolchain\arm-none-eabi\include\c++\10.2.1\bits\stl_uninitialized.h **** #else
 135:c:\program files\daisytoolchain\arm-none-eabi\include\c++\10.2.1\bits\stl_uninitialized.h ****       // Trivial types can have deleted copy constructor, but the std::copy
 136:c:\program files\daisytoolchain\arm-none-eabi\include\c++\10.2.1\bits\stl_uninitialized.h ****       // optimization that uses memmove would happily "copy" them anyway.
 137:c:\program files\daisytoolchain\arm-none-eabi\include\c++\10.2.1\bits\stl_uninitialized.h ****       static_assert(is_constructible<_ValueType2, decltype(*__first)>::value,
 138:c:\program files\daisytoolchain\arm-none-eabi\include\c++\10.2.1\bits\stl_uninitialized.h **** 	  "result type must be constructible from value type of input range");
 139:c:\program files\daisytoolchain\arm-none-eabi\include\c++\10.2.1\bits\stl_uninitialized.h **** 
 140:c:\program files\daisytoolchain\arm-none-eabi\include\c++\10.2.1\bits\stl_uninitialized.h ****       typedef typename iterator_traits<_InputIterator>::reference _RefType1;
 141:c:\program files\daisytoolchain\arm-none-eabi\include\c++\10.2.1\bits\stl_uninitialized.h ****       typedef typename iterator_traits<_ForwardIterator>::reference _RefType2;
 142:c:\program files\daisytoolchain\arm-none-eabi\include\c++\10.2.1\bits\stl_uninitialized.h ****       // Trivial types can have deleted assignment, so using std::copy
 143:c:\program files\daisytoolchain\arm-none-eabi\include\c++\10.2.1\bits\stl_uninitialized.h ****       // would be ill-formed. Require assignability before using std::copy:
 144:c:\program files\daisytoolchain\arm-none-eabi\include\c++\10.2.1\bits\stl_uninitialized.h ****       const bool __assignable = is_assignable<_RefType2, _RefType1>::value;
 145:c:\program files\daisytoolchain\arm-none-eabi\include\c++\10.2.1\bits\stl_uninitialized.h **** #endif
 146:c:\program files\daisytoolchain\arm-none-eabi\include\c++\10.2.1\bits\stl_uninitialized.h **** 
 147:c:\program files\daisytoolchain\arm-none-eabi\include\c++\10.2.1\bits\stl_uninitialized.h ****       return std::__uninitialized_copy<__is_trivial(_ValueType1)
 148:c:\program files\daisytoolchain\arm-none-eabi\include\c++\10.2.1\bits\stl_uninitialized.h **** 				       && __is_trivial(_ValueType2)
 149:c:\program files\daisytoolchain\arm-none-eabi\include\c++\10.2.1\bits\stl_uninitialized.h **** 				       && __assignable>::
 150:c:\program files\daisytoolchain\arm-none-eabi\include\c++\10.2.1\bits\stl_uninitialized.h **** 	__uninit_copy(__first, __last, __result);
 151:c:\program files\daisytoolchain\arm-none-eabi\include\c++\10.2.1\bits\stl_uninitialized.h ****     }
 152:c:\program files\daisytoolchain\arm-none-eabi\include\c++\10.2.1\bits\stl_uninitialized.h **** 
 153:c:\program files\daisytoolchain\arm-none-eabi\include\c++\10.2.1\bits\stl_uninitialized.h ****   /// @cond undocumented
 154:c:\program files\daisytoolchain\arm-none-eabi\include\c++\10.2.1\bits\stl_uninitialized.h **** 
 155:c:\program files\daisytoolchain\arm-none-eabi\include\c++\10.2.1\bits\stl_uninitialized.h ****   template<bool _TrivialValueType>
 156:c:\program files\daisytoolchain\arm-none-eabi\include\c++\10.2.1\bits\stl_uninitialized.h ****     struct __uninitialized_fill
 157:c:\program files\daisytoolchain\arm-none-eabi\include\c++\10.2.1\bits\stl_uninitialized.h ****     {
 158:c:\program files\daisytoolchain\arm-none-eabi\include\c++\10.2.1\bits\stl_uninitialized.h ****       template<typename _ForwardIterator, typename _Tp>
 159:c:\program files\daisytoolchain\arm-none-eabi\include\c++\10.2.1\bits\stl_uninitialized.h ****         static void
 160:c:\program files\daisytoolchain\arm-none-eabi\include\c++\10.2.1\bits\stl_uninitialized.h ****         __uninit_fill(_ForwardIterator __first, _ForwardIterator __last,
 161:c:\program files\daisytoolchain\arm-none-eabi\include\c++\10.2.1\bits\stl_uninitialized.h **** 		      const _Tp& __x)
 162:c:\program files\daisytoolchain\arm-none-eabi\include\c++\10.2.1\bits\stl_uninitialized.h ****         {
 163:c:\program files\daisytoolchain\arm-none-eabi\include\c++\10.2.1\bits\stl_uninitialized.h **** 	  _ForwardIterator __cur = __first;
 164:c:\program files\daisytoolchain\arm-none-eabi\include\c++\10.2.1\bits\stl_uninitialized.h **** 	  __try
 165:c:\program files\daisytoolchain\arm-none-eabi\include\c++\10.2.1\bits\stl_uninitialized.h **** 	    {
 166:c:\program files\daisytoolchain\arm-none-eabi\include\c++\10.2.1\bits\stl_uninitialized.h **** 	      for (; __cur != __last; ++__cur)
 167:c:\program files\daisytoolchain\arm-none-eabi\include\c++\10.2.1\bits\stl_uninitialized.h **** 		std::_Construct(std::__addressof(*__cur), __x);
 168:c:\program files\daisytoolchain\arm-none-eabi\include\c++\10.2.1\bits\stl_uninitialized.h **** 	    }
 169:c:\program files\daisytoolchain\arm-none-eabi\include\c++\10.2.1\bits\stl_uninitialized.h **** 	  __catch(...)
 170:c:\program files\daisytoolchain\arm-none-eabi\include\c++\10.2.1\bits\stl_uninitialized.h **** 	    {
 171:c:\program files\daisytoolchain\arm-none-eabi\include\c++\10.2.1\bits\stl_uninitialized.h **** 	      std::_Destroy(__first, __cur);
 172:c:\program files\daisytoolchain\arm-none-eabi\include\c++\10.2.1\bits\stl_uninitialized.h **** 	      __throw_exception_again;
 173:c:\program files\daisytoolchain\arm-none-eabi\include\c++\10.2.1\bits\stl_uninitialized.h **** 	    }
 174:c:\program files\daisytoolchain\arm-none-eabi\include\c++\10.2.1\bits\stl_uninitialized.h **** 	}
 175:c:\program files\daisytoolchain\arm-none-eabi\include\c++\10.2.1\bits\stl_uninitialized.h ****     };
 176:c:\program files\daisytoolchain\arm-none-eabi\include\c++\10.2.1\bits\stl_uninitialized.h **** 
 177:c:\program files\daisytoolchain\arm-none-eabi\include\c++\10.2.1\bits\stl_uninitialized.h ****   template<>
 178:c:\program files\daisytoolchain\arm-none-eabi\include\c++\10.2.1\bits\stl_uninitialized.h ****     struct __uninitialized_fill<true>
 179:c:\program files\daisytoolchain\arm-none-eabi\include\c++\10.2.1\bits\stl_uninitialized.h ****     {
 180:c:\program files\daisytoolchain\arm-none-eabi\include\c++\10.2.1\bits\stl_uninitialized.h ****       template<typename _ForwardIterator, typename _Tp>
 181:c:\program files\daisytoolchain\arm-none-eabi\include\c++\10.2.1\bits\stl_uninitialized.h ****         static void
 182:c:\program files\daisytoolchain\arm-none-eabi\include\c++\10.2.1\bits\stl_uninitialized.h ****         __uninit_fill(_ForwardIterator __first, _ForwardIterator __last,
 183:c:\program files\daisytoolchain\arm-none-eabi\include\c++\10.2.1\bits\stl_uninitialized.h **** 		      const _Tp& __x)
 184:c:\program files\daisytoolchain\arm-none-eabi\include\c++\10.2.1\bits\stl_uninitialized.h ****         { std::fill(__first, __last, __x); }
 185:c:\program files\daisytoolchain\arm-none-eabi\include\c++\10.2.1\bits\stl_uninitialized.h ****     };
 186:c:\program files\daisytoolchain\arm-none-eabi\include\c++\10.2.1\bits\stl_uninitialized.h **** 
 187:c:\program files\daisytoolchain\arm-none-eabi\include\c++\10.2.1\bits\stl_uninitialized.h ****   /// @endcond
 188:c:\program files\daisytoolchain\arm-none-eabi\include\c++\10.2.1\bits\stl_uninitialized.h **** 
ARM GAS  C:\Users\samue\AppData\Local\Temp\cci865ja.s 			page 134


 189:c:\program files\daisytoolchain\arm-none-eabi\include\c++\10.2.1\bits\stl_uninitialized.h ****   /**
 190:c:\program files\daisytoolchain\arm-none-eabi\include\c++\10.2.1\bits\stl_uninitialized.h ****    *  @brief Copies the value x into the range [first,last).
 191:c:\program files\daisytoolchain\arm-none-eabi\include\c++\10.2.1\bits\stl_uninitialized.h ****    *  @param  __first  An input iterator.
 192:c:\program files\daisytoolchain\arm-none-eabi\include\c++\10.2.1\bits\stl_uninitialized.h ****    *  @param  __last   An input iterator.
 193:c:\program files\daisytoolchain\arm-none-eabi\include\c++\10.2.1\bits\stl_uninitialized.h ****    *  @param  __x      The source value.
 194:c:\program files\daisytoolchain\arm-none-eabi\include\c++\10.2.1\bits\stl_uninitialized.h ****    *  @return   Nothing.
 195:c:\program files\daisytoolchain\arm-none-eabi\include\c++\10.2.1\bits\stl_uninitialized.h ****    *
 196:c:\program files\daisytoolchain\arm-none-eabi\include\c++\10.2.1\bits\stl_uninitialized.h ****    *  Like fill(), but does not require an initialized output range.
 197:c:\program files\daisytoolchain\arm-none-eabi\include\c++\10.2.1\bits\stl_uninitialized.h ****   */
 198:c:\program files\daisytoolchain\arm-none-eabi\include\c++\10.2.1\bits\stl_uninitialized.h ****   template<typename _ForwardIterator, typename _Tp>
 199:c:\program files\daisytoolchain\arm-none-eabi\include\c++\10.2.1\bits\stl_uninitialized.h ****     inline void
 200:c:\program files\daisytoolchain\arm-none-eabi\include\c++\10.2.1\bits\stl_uninitialized.h ****     uninitialized_fill(_ForwardIterator __first, _ForwardIterator __last,
 201:c:\program files\daisytoolchain\arm-none-eabi\include\c++\10.2.1\bits\stl_uninitialized.h **** 		       const _Tp& __x)
 202:c:\program files\daisytoolchain\arm-none-eabi\include\c++\10.2.1\bits\stl_uninitialized.h ****     {
 203:c:\program files\daisytoolchain\arm-none-eabi\include\c++\10.2.1\bits\stl_uninitialized.h ****       typedef typename iterator_traits<_ForwardIterator>::value_type
 204:c:\program files\daisytoolchain\arm-none-eabi\include\c++\10.2.1\bits\stl_uninitialized.h **** 	_ValueType;
 205:c:\program files\daisytoolchain\arm-none-eabi\include\c++\10.2.1\bits\stl_uninitialized.h **** #if __cplusplus < 201103L
 206:c:\program files\daisytoolchain\arm-none-eabi\include\c++\10.2.1\bits\stl_uninitialized.h ****       const bool __assignable = true;
 207:c:\program files\daisytoolchain\arm-none-eabi\include\c++\10.2.1\bits\stl_uninitialized.h **** #else
 208:c:\program files\daisytoolchain\arm-none-eabi\include\c++\10.2.1\bits\stl_uninitialized.h ****       // Trivial types can have deleted copy constructor, but the std::fill
 209:c:\program files\daisytoolchain\arm-none-eabi\include\c++\10.2.1\bits\stl_uninitialized.h ****       // optimization that uses memmove would happily "copy" them anyway.
 210:c:\program files\daisytoolchain\arm-none-eabi\include\c++\10.2.1\bits\stl_uninitialized.h ****       static_assert(is_constructible<_ValueType, const _Tp&>::value,
 211:c:\program files\daisytoolchain\arm-none-eabi\include\c++\10.2.1\bits\stl_uninitialized.h **** 	  "result type must be constructible from input type");
 212:c:\program files\daisytoolchain\arm-none-eabi\include\c++\10.2.1\bits\stl_uninitialized.h **** 
 213:c:\program files\daisytoolchain\arm-none-eabi\include\c++\10.2.1\bits\stl_uninitialized.h ****       // Trivial types can have deleted assignment, so using std::fill
 214:c:\program files\daisytoolchain\arm-none-eabi\include\c++\10.2.1\bits\stl_uninitialized.h ****       // would be ill-formed. Require assignability before using std::fill:
 215:c:\program files\daisytoolchain\arm-none-eabi\include\c++\10.2.1\bits\stl_uninitialized.h ****       const bool __assignable = is_copy_assignable<_ValueType>::value;
 216:c:\program files\daisytoolchain\arm-none-eabi\include\c++\10.2.1\bits\stl_uninitialized.h **** #endif
 217:c:\program files\daisytoolchain\arm-none-eabi\include\c++\10.2.1\bits\stl_uninitialized.h **** 
 218:c:\program files\daisytoolchain\arm-none-eabi\include\c++\10.2.1\bits\stl_uninitialized.h ****       std::__uninitialized_fill<__is_trivial(_ValueType) && __assignable>::
 219:c:\program files\daisytoolchain\arm-none-eabi\include\c++\10.2.1\bits\stl_uninitialized.h **** 	__uninit_fill(__first, __last, __x);
 220:c:\program files\daisytoolchain\arm-none-eabi\include\c++\10.2.1\bits\stl_uninitialized.h ****     }
 221:c:\program files\daisytoolchain\arm-none-eabi\include\c++\10.2.1\bits\stl_uninitialized.h **** 
 222:c:\program files\daisytoolchain\arm-none-eabi\include\c++\10.2.1\bits\stl_uninitialized.h ****   /// @cond undocumented
 223:c:\program files\daisytoolchain\arm-none-eabi\include\c++\10.2.1\bits\stl_uninitialized.h **** 
 224:c:\program files\daisytoolchain\arm-none-eabi\include\c++\10.2.1\bits\stl_uninitialized.h ****   template<bool _TrivialValueType>
 225:c:\program files\daisytoolchain\arm-none-eabi\include\c++\10.2.1\bits\stl_uninitialized.h ****     struct __uninitialized_fill_n
 226:c:\program files\daisytoolchain\arm-none-eabi\include\c++\10.2.1\bits\stl_uninitialized.h ****     {
 227:c:\program files\daisytoolchain\arm-none-eabi\include\c++\10.2.1\bits\stl_uninitialized.h ****       template<typename _ForwardIterator, typename _Size, typename _Tp>
 228:c:\program files\daisytoolchain\arm-none-eabi\include\c++\10.2.1\bits\stl_uninitialized.h ****         static _ForwardIterator
 229:c:\program files\daisytoolchain\arm-none-eabi\include\c++\10.2.1\bits\stl_uninitialized.h ****         __uninit_fill_n(_ForwardIterator __first, _Size __n,
 230:c:\program files\daisytoolchain\arm-none-eabi\include\c++\10.2.1\bits\stl_uninitialized.h **** 			const _Tp& __x)
 231:c:\program files\daisytoolchain\arm-none-eabi\include\c++\10.2.1\bits\stl_uninitialized.h ****         {
 232:c:\program files\daisytoolchain\arm-none-eabi\include\c++\10.2.1\bits\stl_uninitialized.h **** 	  _ForwardIterator __cur = __first;
 233:c:\program files\daisytoolchain\arm-none-eabi\include\c++\10.2.1\bits\stl_uninitialized.h **** 	  __try
 234:c:\program files\daisytoolchain\arm-none-eabi\include\c++\10.2.1\bits\stl_uninitialized.h **** 	    {
 235:c:\program files\daisytoolchain\arm-none-eabi\include\c++\10.2.1\bits\stl_uninitialized.h **** 	      for (; __n > 0; --__n, (void) ++__cur)
 236:c:\program files\daisytoolchain\arm-none-eabi\include\c++\10.2.1\bits\stl_uninitialized.h **** 		std::_Construct(std::__addressof(*__cur), __x);
 237:c:\program files\daisytoolchain\arm-none-eabi\include\c++\10.2.1\bits\stl_uninitialized.h **** 	      return __cur;
 238:c:\program files\daisytoolchain\arm-none-eabi\include\c++\10.2.1\bits\stl_uninitialized.h **** 	    }
 239:c:\program files\daisytoolchain\arm-none-eabi\include\c++\10.2.1\bits\stl_uninitialized.h **** 	  __catch(...)
 240:c:\program files\daisytoolchain\arm-none-eabi\include\c++\10.2.1\bits\stl_uninitialized.h **** 	    {
 241:c:\program files\daisytoolchain\arm-none-eabi\include\c++\10.2.1\bits\stl_uninitialized.h **** 	      std::_Destroy(__first, __cur);
 242:c:\program files\daisytoolchain\arm-none-eabi\include\c++\10.2.1\bits\stl_uninitialized.h **** 	      __throw_exception_again;
 243:c:\program files\daisytoolchain\arm-none-eabi\include\c++\10.2.1\bits\stl_uninitialized.h **** 	    }
 244:c:\program files\daisytoolchain\arm-none-eabi\include\c++\10.2.1\bits\stl_uninitialized.h **** 	}
 245:c:\program files\daisytoolchain\arm-none-eabi\include\c++\10.2.1\bits\stl_uninitialized.h ****     };
ARM GAS  C:\Users\samue\AppData\Local\Temp\cci865ja.s 			page 135


 246:c:\program files\daisytoolchain\arm-none-eabi\include\c++\10.2.1\bits\stl_uninitialized.h **** 
 247:c:\program files\daisytoolchain\arm-none-eabi\include\c++\10.2.1\bits\stl_uninitialized.h ****   template<>
 248:c:\program files\daisytoolchain\arm-none-eabi\include\c++\10.2.1\bits\stl_uninitialized.h ****     struct __uninitialized_fill_n<true>
 249:c:\program files\daisytoolchain\arm-none-eabi\include\c++\10.2.1\bits\stl_uninitialized.h ****     {
 250:c:\program files\daisytoolchain\arm-none-eabi\include\c++\10.2.1\bits\stl_uninitialized.h ****       template<typename _ForwardIterator, typename _Size, typename _Tp>
 251:c:\program files\daisytoolchain\arm-none-eabi\include\c++\10.2.1\bits\stl_uninitialized.h ****         static _ForwardIterator
 252:c:\program files\daisytoolchain\arm-none-eabi\include\c++\10.2.1\bits\stl_uninitialized.h ****         __uninit_fill_n(_ForwardIterator __first, _Size __n,
 253:c:\program files\daisytoolchain\arm-none-eabi\include\c++\10.2.1\bits\stl_uninitialized.h **** 			const _Tp& __x)
 254:c:\program files\daisytoolchain\arm-none-eabi\include\c++\10.2.1\bits\stl_uninitialized.h ****         { return std::fill_n(__first, __n, __x); }
 255:c:\program files\daisytoolchain\arm-none-eabi\include\c++\10.2.1\bits\stl_uninitialized.h ****     };
 256:c:\program files\daisytoolchain\arm-none-eabi\include\c++\10.2.1\bits\stl_uninitialized.h **** 
 257:c:\program files\daisytoolchain\arm-none-eabi\include\c++\10.2.1\bits\stl_uninitialized.h ****   /// @endcond
 258:c:\program files\daisytoolchain\arm-none-eabi\include\c++\10.2.1\bits\stl_uninitialized.h **** 
 259:c:\program files\daisytoolchain\arm-none-eabi\include\c++\10.2.1\bits\stl_uninitialized.h ****    // _GLIBCXX_RESOLVE_LIB_DEFECTS
 260:c:\program files\daisytoolchain\arm-none-eabi\include\c++\10.2.1\bits\stl_uninitialized.h ****    // DR 1339. uninitialized_fill_n should return the end of its range
 261:c:\program files\daisytoolchain\arm-none-eabi\include\c++\10.2.1\bits\stl_uninitialized.h ****   /**
 262:c:\program files\daisytoolchain\arm-none-eabi\include\c++\10.2.1\bits\stl_uninitialized.h ****    *  @brief Copies the value x into the range [first,first+n).
 263:c:\program files\daisytoolchain\arm-none-eabi\include\c++\10.2.1\bits\stl_uninitialized.h ****    *  @param  __first  An input iterator.
 264:c:\program files\daisytoolchain\arm-none-eabi\include\c++\10.2.1\bits\stl_uninitialized.h ****    *  @param  __n      The number of copies to make.
 265:c:\program files\daisytoolchain\arm-none-eabi\include\c++\10.2.1\bits\stl_uninitialized.h ****    *  @param  __x      The source value.
 266:c:\program files\daisytoolchain\arm-none-eabi\include\c++\10.2.1\bits\stl_uninitialized.h ****    *  @return   Nothing.
 267:c:\program files\daisytoolchain\arm-none-eabi\include\c++\10.2.1\bits\stl_uninitialized.h ****    *
 268:c:\program files\daisytoolchain\arm-none-eabi\include\c++\10.2.1\bits\stl_uninitialized.h ****    *  Like fill_n(), but does not require an initialized output range.
 269:c:\program files\daisytoolchain\arm-none-eabi\include\c++\10.2.1\bits\stl_uninitialized.h ****   */
 270:c:\program files\daisytoolchain\arm-none-eabi\include\c++\10.2.1\bits\stl_uninitialized.h ****   template<typename _ForwardIterator, typename _Size, typename _Tp>
 271:c:\program files\daisytoolchain\arm-none-eabi\include\c++\10.2.1\bits\stl_uninitialized.h ****     inline _ForwardIterator
 272:c:\program files\daisytoolchain\arm-none-eabi\include\c++\10.2.1\bits\stl_uninitialized.h ****     uninitialized_fill_n(_ForwardIterator __first, _Size __n, const _Tp& __x)
 273:c:\program files\daisytoolchain\arm-none-eabi\include\c++\10.2.1\bits\stl_uninitialized.h ****     {
 274:c:\program files\daisytoolchain\arm-none-eabi\include\c++\10.2.1\bits\stl_uninitialized.h ****       typedef typename iterator_traits<_ForwardIterator>::value_type
 275:c:\program files\daisytoolchain\arm-none-eabi\include\c++\10.2.1\bits\stl_uninitialized.h **** 	_ValueType;
 276:c:\program files\daisytoolchain\arm-none-eabi\include\c++\10.2.1\bits\stl_uninitialized.h **** #if __cplusplus < 201103L
 277:c:\program files\daisytoolchain\arm-none-eabi\include\c++\10.2.1\bits\stl_uninitialized.h ****       const bool __assignable = true;
 278:c:\program files\daisytoolchain\arm-none-eabi\include\c++\10.2.1\bits\stl_uninitialized.h **** #else
 279:c:\program files\daisytoolchain\arm-none-eabi\include\c++\10.2.1\bits\stl_uninitialized.h ****       // Trivial types can have deleted copy constructor, but the std::fill
 280:c:\program files\daisytoolchain\arm-none-eabi\include\c++\10.2.1\bits\stl_uninitialized.h ****       // optimization that uses memmove would happily "copy" them anyway.
 281:c:\program files\daisytoolchain\arm-none-eabi\include\c++\10.2.1\bits\stl_uninitialized.h ****       static_assert(is_constructible<_ValueType, const _Tp&>::value,
 282:c:\program files\daisytoolchain\arm-none-eabi\include\c++\10.2.1\bits\stl_uninitialized.h **** 	  "result type must be constructible from input type");
 283:c:\program files\daisytoolchain\arm-none-eabi\include\c++\10.2.1\bits\stl_uninitialized.h **** 
 284:c:\program files\daisytoolchain\arm-none-eabi\include\c++\10.2.1\bits\stl_uninitialized.h ****       // Trivial types can have deleted assignment, so using std::fill
 285:c:\program files\daisytoolchain\arm-none-eabi\include\c++\10.2.1\bits\stl_uninitialized.h ****       // would be ill-formed. Require assignability before using std::fill:
 286:c:\program files\daisytoolchain\arm-none-eabi\include\c++\10.2.1\bits\stl_uninitialized.h ****       const bool __assignable = is_copy_assignable<_ValueType>::value;
 287:c:\program files\daisytoolchain\arm-none-eabi\include\c++\10.2.1\bits\stl_uninitialized.h **** #endif
 288:c:\program files\daisytoolchain\arm-none-eabi\include\c++\10.2.1\bits\stl_uninitialized.h ****       return __uninitialized_fill_n<__is_trivial(_ValueType) && __assignable>::
 289:c:\program files\daisytoolchain\arm-none-eabi\include\c++\10.2.1\bits\stl_uninitialized.h **** 	__uninit_fill_n(__first, __n, __x);
 290:c:\program files\daisytoolchain\arm-none-eabi\include\c++\10.2.1\bits\stl_uninitialized.h ****     }
 291:c:\program files\daisytoolchain\arm-none-eabi\include\c++\10.2.1\bits\stl_uninitialized.h **** 
 292:c:\program files\daisytoolchain\arm-none-eabi\include\c++\10.2.1\bits\stl_uninitialized.h ****   /// @cond undocumented
 293:c:\program files\daisytoolchain\arm-none-eabi\include\c++\10.2.1\bits\stl_uninitialized.h **** 
 294:c:\program files\daisytoolchain\arm-none-eabi\include\c++\10.2.1\bits\stl_uninitialized.h ****   // Extensions: versions of uninitialized_copy, uninitialized_fill,
 295:c:\program files\daisytoolchain\arm-none-eabi\include\c++\10.2.1\bits\stl_uninitialized.h ****   //  and uninitialized_fill_n that take an allocator parameter.
 296:c:\program files\daisytoolchain\arm-none-eabi\include\c++\10.2.1\bits\stl_uninitialized.h ****   //  We dispatch back to the standard versions when we're given the
 297:c:\program files\daisytoolchain\arm-none-eabi\include\c++\10.2.1\bits\stl_uninitialized.h ****   //  default allocator.  For nondefault allocators we do not use 
 298:c:\program files\daisytoolchain\arm-none-eabi\include\c++\10.2.1\bits\stl_uninitialized.h ****   //  any of the POD optimizations.
 299:c:\program files\daisytoolchain\arm-none-eabi\include\c++\10.2.1\bits\stl_uninitialized.h **** 
 300:c:\program files\daisytoolchain\arm-none-eabi\include\c++\10.2.1\bits\stl_uninitialized.h ****   template<typename _InputIterator, typename _ForwardIterator,
 301:c:\program files\daisytoolchain\arm-none-eabi\include\c++\10.2.1\bits\stl_uninitialized.h **** 	   typename _Allocator>
 302:c:\program files\daisytoolchain\arm-none-eabi\include\c++\10.2.1\bits\stl_uninitialized.h ****     _ForwardIterator
ARM GAS  C:\Users\samue\AppData\Local\Temp\cci865ja.s 			page 136


 303:c:\program files\daisytoolchain\arm-none-eabi\include\c++\10.2.1\bits\stl_uninitialized.h ****     __uninitialized_copy_a(_InputIterator __first, _InputIterator __last,
 304:c:\program files\daisytoolchain\arm-none-eabi\include\c++\10.2.1\bits\stl_uninitialized.h **** 			   _ForwardIterator __result, _Allocator& __alloc)
 305:c:\program files\daisytoolchain\arm-none-eabi\include\c++\10.2.1\bits\stl_uninitialized.h ****     {
 306:c:\program files\daisytoolchain\arm-none-eabi\include\c++\10.2.1\bits\stl_uninitialized.h ****       _ForwardIterator __cur = __result;
 307:c:\program files\daisytoolchain\arm-none-eabi\include\c++\10.2.1\bits\stl_uninitialized.h ****       __try
 308:c:\program files\daisytoolchain\arm-none-eabi\include\c++\10.2.1\bits\stl_uninitialized.h **** 	{
 309:c:\program files\daisytoolchain\arm-none-eabi\include\c++\10.2.1\bits\stl_uninitialized.h **** 	  typedef __gnu_cxx::__alloc_traits<_Allocator> __traits;
 310:c:\program files\daisytoolchain\arm-none-eabi\include\c++\10.2.1\bits\stl_uninitialized.h **** 	  for (; __first != __last; ++__first, (void)++__cur)
 311:c:\program files\daisytoolchain\arm-none-eabi\include\c++\10.2.1\bits\stl_uninitialized.h **** 	    __traits::construct(__alloc, std::__addressof(*__cur), *__first);
 312:c:\program files\daisytoolchain\arm-none-eabi\include\c++\10.2.1\bits\stl_uninitialized.h **** 	  return __cur;
 313:c:\program files\daisytoolchain\arm-none-eabi\include\c++\10.2.1\bits\stl_uninitialized.h **** 	}
 314:c:\program files\daisytoolchain\arm-none-eabi\include\c++\10.2.1\bits\stl_uninitialized.h ****       __catch(...)
 315:c:\program files\daisytoolchain\arm-none-eabi\include\c++\10.2.1\bits\stl_uninitialized.h **** 	{
 316:c:\program files\daisytoolchain\arm-none-eabi\include\c++\10.2.1\bits\stl_uninitialized.h **** 	  std::_Destroy(__result, __cur, __alloc);
 317:c:\program files\daisytoolchain\arm-none-eabi\include\c++\10.2.1\bits\stl_uninitialized.h **** 	  __throw_exception_again;
 318:c:\program files\daisytoolchain\arm-none-eabi\include\c++\10.2.1\bits\stl_uninitialized.h **** 	}
 319:c:\program files\daisytoolchain\arm-none-eabi\include\c++\10.2.1\bits\stl_uninitialized.h ****     }
 320:c:\program files\daisytoolchain\arm-none-eabi\include\c++\10.2.1\bits\stl_uninitialized.h **** 
 321:c:\program files\daisytoolchain\arm-none-eabi\include\c++\10.2.1\bits\stl_uninitialized.h ****   template<typename _InputIterator, typename _ForwardIterator, typename _Tp>
 322:c:\program files\daisytoolchain\arm-none-eabi\include\c++\10.2.1\bits\stl_uninitialized.h ****     inline _ForwardIterator
 323:c:\program files\daisytoolchain\arm-none-eabi\include\c++\10.2.1\bits\stl_uninitialized.h ****     __uninitialized_copy_a(_InputIterator __first, _InputIterator __last,
 324:c:\program files\daisytoolchain\arm-none-eabi\include\c++\10.2.1\bits\stl_uninitialized.h **** 			   _ForwardIterator __result, allocator<_Tp>&)
 325:c:\program files\daisytoolchain\arm-none-eabi\include\c++\10.2.1\bits\stl_uninitialized.h ****     { return std::uninitialized_copy(__first, __last, __result); }
 326:c:\program files\daisytoolchain\arm-none-eabi\include\c++\10.2.1\bits\stl_uninitialized.h **** 
 327:c:\program files\daisytoolchain\arm-none-eabi\include\c++\10.2.1\bits\stl_uninitialized.h ****   template<typename _InputIterator, typename _ForwardIterator,
 328:c:\program files\daisytoolchain\arm-none-eabi\include\c++\10.2.1\bits\stl_uninitialized.h **** 	   typename _Allocator>
 329:c:\program files\daisytoolchain\arm-none-eabi\include\c++\10.2.1\bits\stl_uninitialized.h ****     inline _ForwardIterator
 330:c:\program files\daisytoolchain\arm-none-eabi\include\c++\10.2.1\bits\stl_uninitialized.h ****     __uninitialized_move_a(_InputIterator __first, _InputIterator __last,
 331:c:\program files\daisytoolchain\arm-none-eabi\include\c++\10.2.1\bits\stl_uninitialized.h **** 			   _ForwardIterator __result, _Allocator& __alloc)
 332:c:\program files\daisytoolchain\arm-none-eabi\include\c++\10.2.1\bits\stl_uninitialized.h ****     {
 333:c:\program files\daisytoolchain\arm-none-eabi\include\c++\10.2.1\bits\stl_uninitialized.h ****       return std::__uninitialized_copy_a(_GLIBCXX_MAKE_MOVE_ITERATOR(__first),
 334:c:\program files\daisytoolchain\arm-none-eabi\include\c++\10.2.1\bits\stl_uninitialized.h **** 					 _GLIBCXX_MAKE_MOVE_ITERATOR(__last),
 335:c:\program files\daisytoolchain\arm-none-eabi\include\c++\10.2.1\bits\stl_uninitialized.h **** 					 __result, __alloc);
 336:c:\program files\daisytoolchain\arm-none-eabi\include\c++\10.2.1\bits\stl_uninitialized.h ****     }
 337:c:\program files\daisytoolchain\arm-none-eabi\include\c++\10.2.1\bits\stl_uninitialized.h **** 
 338:c:\program files\daisytoolchain\arm-none-eabi\include\c++\10.2.1\bits\stl_uninitialized.h ****   template<typename _InputIterator, typename _ForwardIterator,
 339:c:\program files\daisytoolchain\arm-none-eabi\include\c++\10.2.1\bits\stl_uninitialized.h **** 	   typename _Allocator>
 340:c:\program files\daisytoolchain\arm-none-eabi\include\c++\10.2.1\bits\stl_uninitialized.h ****     inline _ForwardIterator
 341:c:\program files\daisytoolchain\arm-none-eabi\include\c++\10.2.1\bits\stl_uninitialized.h ****     __uninitialized_move_if_noexcept_a(_InputIterator __first,
 342:c:\program files\daisytoolchain\arm-none-eabi\include\c++\10.2.1\bits\stl_uninitialized.h **** 				       _InputIterator __last,
 343:c:\program files\daisytoolchain\arm-none-eabi\include\c++\10.2.1\bits\stl_uninitialized.h **** 				       _ForwardIterator __result,
 344:c:\program files\daisytoolchain\arm-none-eabi\include\c++\10.2.1\bits\stl_uninitialized.h **** 				       _Allocator& __alloc)
 345:c:\program files\daisytoolchain\arm-none-eabi\include\c++\10.2.1\bits\stl_uninitialized.h ****     {
 346:c:\program files\daisytoolchain\arm-none-eabi\include\c++\10.2.1\bits\stl_uninitialized.h ****       return std::__uninitialized_copy_a
 347:c:\program files\daisytoolchain\arm-none-eabi\include\c++\10.2.1\bits\stl_uninitialized.h **** 	(_GLIBCXX_MAKE_MOVE_IF_NOEXCEPT_ITERATOR(__first),
 348:c:\program files\daisytoolchain\arm-none-eabi\include\c++\10.2.1\bits\stl_uninitialized.h **** 	 _GLIBCXX_MAKE_MOVE_IF_NOEXCEPT_ITERATOR(__last), __result, __alloc);
 349:c:\program files\daisytoolchain\arm-none-eabi\include\c++\10.2.1\bits\stl_uninitialized.h ****     }
 350:c:\program files\daisytoolchain\arm-none-eabi\include\c++\10.2.1\bits\stl_uninitialized.h **** 
 351:c:\program files\daisytoolchain\arm-none-eabi\include\c++\10.2.1\bits\stl_uninitialized.h ****   template<typename _ForwardIterator, typename _Tp, typename _Allocator>
 352:c:\program files\daisytoolchain\arm-none-eabi\include\c++\10.2.1\bits\stl_uninitialized.h ****     void
 353:c:\program files\daisytoolchain\arm-none-eabi\include\c++\10.2.1\bits\stl_uninitialized.h ****     __uninitialized_fill_a(_ForwardIterator __first, _ForwardIterator __last,
 354:c:\program files\daisytoolchain\arm-none-eabi\include\c++\10.2.1\bits\stl_uninitialized.h **** 			   const _Tp& __x, _Allocator& __alloc)
 355:c:\program files\daisytoolchain\arm-none-eabi\include\c++\10.2.1\bits\stl_uninitialized.h ****     {
 356:c:\program files\daisytoolchain\arm-none-eabi\include\c++\10.2.1\bits\stl_uninitialized.h ****       _ForwardIterator __cur = __first;
 357:c:\program files\daisytoolchain\arm-none-eabi\include\c++\10.2.1\bits\stl_uninitialized.h ****       __try
 358:c:\program files\daisytoolchain\arm-none-eabi\include\c++\10.2.1\bits\stl_uninitialized.h **** 	{
 359:c:\program files\daisytoolchain\arm-none-eabi\include\c++\10.2.1\bits\stl_uninitialized.h **** 	  typedef __gnu_cxx::__alloc_traits<_Allocator> __traits;
ARM GAS  C:\Users\samue\AppData\Local\Temp\cci865ja.s 			page 137


 360:c:\program files\daisytoolchain\arm-none-eabi\include\c++\10.2.1\bits\stl_uninitialized.h **** 	  for (; __cur != __last; ++__cur)
 361:c:\program files\daisytoolchain\arm-none-eabi\include\c++\10.2.1\bits\stl_uninitialized.h **** 	    __traits::construct(__alloc, std::__addressof(*__cur), __x);
 362:c:\program files\daisytoolchain\arm-none-eabi\include\c++\10.2.1\bits\stl_uninitialized.h **** 	}
 363:c:\program files\daisytoolchain\arm-none-eabi\include\c++\10.2.1\bits\stl_uninitialized.h ****       __catch(...)
 364:c:\program files\daisytoolchain\arm-none-eabi\include\c++\10.2.1\bits\stl_uninitialized.h **** 	{
 365:c:\program files\daisytoolchain\arm-none-eabi\include\c++\10.2.1\bits\stl_uninitialized.h **** 	  std::_Destroy(__first, __cur, __alloc);
 366:c:\program files\daisytoolchain\arm-none-eabi\include\c++\10.2.1\bits\stl_uninitialized.h **** 	  __throw_exception_again;
 367:c:\program files\daisytoolchain\arm-none-eabi\include\c++\10.2.1\bits\stl_uninitialized.h **** 	}
 368:c:\program files\daisytoolchain\arm-none-eabi\include\c++\10.2.1\bits\stl_uninitialized.h ****     }
 369:c:\program files\daisytoolchain\arm-none-eabi\include\c++\10.2.1\bits\stl_uninitialized.h **** 
 370:c:\program files\daisytoolchain\arm-none-eabi\include\c++\10.2.1\bits\stl_uninitialized.h ****   template<typename _ForwardIterator, typename _Tp, typename _Tp2>
 371:c:\program files\daisytoolchain\arm-none-eabi\include\c++\10.2.1\bits\stl_uninitialized.h ****     inline void
 372:c:\program files\daisytoolchain\arm-none-eabi\include\c++\10.2.1\bits\stl_uninitialized.h ****     __uninitialized_fill_a(_ForwardIterator __first, _ForwardIterator __last,
 373:c:\program files\daisytoolchain\arm-none-eabi\include\c++\10.2.1\bits\stl_uninitialized.h **** 			   const _Tp& __x, allocator<_Tp2>&)
 374:c:\program files\daisytoolchain\arm-none-eabi\include\c++\10.2.1\bits\stl_uninitialized.h ****     { std::uninitialized_fill(__first, __last, __x); }
 375:c:\program files\daisytoolchain\arm-none-eabi\include\c++\10.2.1\bits\stl_uninitialized.h **** 
 376:c:\program files\daisytoolchain\arm-none-eabi\include\c++\10.2.1\bits\stl_uninitialized.h ****   template<typename _ForwardIterator, typename _Size, typename _Tp,
 377:c:\program files\daisytoolchain\arm-none-eabi\include\c++\10.2.1\bits\stl_uninitialized.h **** 	   typename _Allocator>
 378:c:\program files\daisytoolchain\arm-none-eabi\include\c++\10.2.1\bits\stl_uninitialized.h ****     _ForwardIterator
 379:c:\program files\daisytoolchain\arm-none-eabi\include\c++\10.2.1\bits\stl_uninitialized.h ****     __uninitialized_fill_n_a(_ForwardIterator __first, _Size __n, 
 380:c:\program files\daisytoolchain\arm-none-eabi\include\c++\10.2.1\bits\stl_uninitialized.h **** 			     const _Tp& __x, _Allocator& __alloc)
 381:c:\program files\daisytoolchain\arm-none-eabi\include\c++\10.2.1\bits\stl_uninitialized.h ****     {
 382:c:\program files\daisytoolchain\arm-none-eabi\include\c++\10.2.1\bits\stl_uninitialized.h ****       _ForwardIterator __cur = __first;
 383:c:\program files\daisytoolchain\arm-none-eabi\include\c++\10.2.1\bits\stl_uninitialized.h ****       __try
 384:c:\program files\daisytoolchain\arm-none-eabi\include\c++\10.2.1\bits\stl_uninitialized.h **** 	{
 385:c:\program files\daisytoolchain\arm-none-eabi\include\c++\10.2.1\bits\stl_uninitialized.h **** 	  typedef __gnu_cxx::__alloc_traits<_Allocator> __traits;
 386:c:\program files\daisytoolchain\arm-none-eabi\include\c++\10.2.1\bits\stl_uninitialized.h **** 	  for (; __n > 0; --__n, (void) ++__cur)
 387:c:\program files\daisytoolchain\arm-none-eabi\include\c++\10.2.1\bits\stl_uninitialized.h **** 	    __traits::construct(__alloc, std::__addressof(*__cur), __x);
 388:c:\program files\daisytoolchain\arm-none-eabi\include\c++\10.2.1\bits\stl_uninitialized.h **** 	  return __cur;
 389:c:\program files\daisytoolchain\arm-none-eabi\include\c++\10.2.1\bits\stl_uninitialized.h **** 	}
 390:c:\program files\daisytoolchain\arm-none-eabi\include\c++\10.2.1\bits\stl_uninitialized.h ****       __catch(...)
 391:c:\program files\daisytoolchain\arm-none-eabi\include\c++\10.2.1\bits\stl_uninitialized.h **** 	{
 392:c:\program files\daisytoolchain\arm-none-eabi\include\c++\10.2.1\bits\stl_uninitialized.h **** 	  std::_Destroy(__first, __cur, __alloc);
 393:c:\program files\daisytoolchain\arm-none-eabi\include\c++\10.2.1\bits\stl_uninitialized.h **** 	  __throw_exception_again;
 394:c:\program files\daisytoolchain\arm-none-eabi\include\c++\10.2.1\bits\stl_uninitialized.h **** 	}
 395:c:\program files\daisytoolchain\arm-none-eabi\include\c++\10.2.1\bits\stl_uninitialized.h ****     }
 396:c:\program files\daisytoolchain\arm-none-eabi\include\c++\10.2.1\bits\stl_uninitialized.h **** 
 397:c:\program files\daisytoolchain\arm-none-eabi\include\c++\10.2.1\bits\stl_uninitialized.h ****   template<typename _ForwardIterator, typename _Size, typename _Tp,
 398:c:\program files\daisytoolchain\arm-none-eabi\include\c++\10.2.1\bits\stl_uninitialized.h **** 	   typename _Tp2>
 399:c:\program files\daisytoolchain\arm-none-eabi\include\c++\10.2.1\bits\stl_uninitialized.h ****     inline _ForwardIterator
 400:c:\program files\daisytoolchain\arm-none-eabi\include\c++\10.2.1\bits\stl_uninitialized.h ****     __uninitialized_fill_n_a(_ForwardIterator __first, _Size __n, 
 401:c:\program files\daisytoolchain\arm-none-eabi\include\c++\10.2.1\bits\stl_uninitialized.h **** 			     const _Tp& __x, allocator<_Tp2>&)
 402:c:\program files\daisytoolchain\arm-none-eabi\include\c++\10.2.1\bits\stl_uninitialized.h ****     { return std::uninitialized_fill_n(__first, __n, __x); }
 403:c:\program files\daisytoolchain\arm-none-eabi\include\c++\10.2.1\bits\stl_uninitialized.h **** 
 404:c:\program files\daisytoolchain\arm-none-eabi\include\c++\10.2.1\bits\stl_uninitialized.h **** 
 405:c:\program files\daisytoolchain\arm-none-eabi\include\c++\10.2.1\bits\stl_uninitialized.h ****   // Extensions: __uninitialized_copy_move, __uninitialized_move_copy,
 406:c:\program files\daisytoolchain\arm-none-eabi\include\c++\10.2.1\bits\stl_uninitialized.h ****   // __uninitialized_fill_move, __uninitialized_move_fill.
 407:c:\program files\daisytoolchain\arm-none-eabi\include\c++\10.2.1\bits\stl_uninitialized.h ****   // All of these algorithms take a user-supplied allocator, which is used
 408:c:\program files\daisytoolchain\arm-none-eabi\include\c++\10.2.1\bits\stl_uninitialized.h ****   // for construction and destruction.
 409:c:\program files\daisytoolchain\arm-none-eabi\include\c++\10.2.1\bits\stl_uninitialized.h **** 
 410:c:\program files\daisytoolchain\arm-none-eabi\include\c++\10.2.1\bits\stl_uninitialized.h ****   // __uninitialized_copy_move
 411:c:\program files\daisytoolchain\arm-none-eabi\include\c++\10.2.1\bits\stl_uninitialized.h ****   // Copies [first1, last1) into [result, result + (last1 - first1)), and
 412:c:\program files\daisytoolchain\arm-none-eabi\include\c++\10.2.1\bits\stl_uninitialized.h ****   //  move [first2, last2) into
 413:c:\program files\daisytoolchain\arm-none-eabi\include\c++\10.2.1\bits\stl_uninitialized.h ****   //  [result, result + (last1 - first1) + (last2 - first2)).
 414:c:\program files\daisytoolchain\arm-none-eabi\include\c++\10.2.1\bits\stl_uninitialized.h ****   template<typename _InputIterator1, typename _InputIterator2,
 415:c:\program files\daisytoolchain\arm-none-eabi\include\c++\10.2.1\bits\stl_uninitialized.h **** 	   typename _ForwardIterator, typename _Allocator>
 416:c:\program files\daisytoolchain\arm-none-eabi\include\c++\10.2.1\bits\stl_uninitialized.h ****     inline _ForwardIterator
ARM GAS  C:\Users\samue\AppData\Local\Temp\cci865ja.s 			page 138


 417:c:\program files\daisytoolchain\arm-none-eabi\include\c++\10.2.1\bits\stl_uninitialized.h ****     __uninitialized_copy_move(_InputIterator1 __first1,
 418:c:\program files\daisytoolchain\arm-none-eabi\include\c++\10.2.1\bits\stl_uninitialized.h **** 			      _InputIterator1 __last1,
 419:c:\program files\daisytoolchain\arm-none-eabi\include\c++\10.2.1\bits\stl_uninitialized.h **** 			      _InputIterator2 __first2,
 420:c:\program files\daisytoolchain\arm-none-eabi\include\c++\10.2.1\bits\stl_uninitialized.h **** 			      _InputIterator2 __last2,
 421:c:\program files\daisytoolchain\arm-none-eabi\include\c++\10.2.1\bits\stl_uninitialized.h **** 			      _ForwardIterator __result,
 422:c:\program files\daisytoolchain\arm-none-eabi\include\c++\10.2.1\bits\stl_uninitialized.h **** 			      _Allocator& __alloc)
 423:c:\program files\daisytoolchain\arm-none-eabi\include\c++\10.2.1\bits\stl_uninitialized.h ****     {
 424:c:\program files\daisytoolchain\arm-none-eabi\include\c++\10.2.1\bits\stl_uninitialized.h ****       _ForwardIterator __mid = std::__uninitialized_copy_a(__first1, __last1,
 425:c:\program files\daisytoolchain\arm-none-eabi\include\c++\10.2.1\bits\stl_uninitialized.h **** 							   __result,
 426:c:\program files\daisytoolchain\arm-none-eabi\include\c++\10.2.1\bits\stl_uninitialized.h **** 							   __alloc);
 427:c:\program files\daisytoolchain\arm-none-eabi\include\c++\10.2.1\bits\stl_uninitialized.h ****       __try
 428:c:\program files\daisytoolchain\arm-none-eabi\include\c++\10.2.1\bits\stl_uninitialized.h **** 	{
 429:c:\program files\daisytoolchain\arm-none-eabi\include\c++\10.2.1\bits\stl_uninitialized.h **** 	  return std::__uninitialized_move_a(__first2, __last2, __mid, __alloc);
 430:c:\program files\daisytoolchain\arm-none-eabi\include\c++\10.2.1\bits\stl_uninitialized.h **** 	}
 431:c:\program files\daisytoolchain\arm-none-eabi\include\c++\10.2.1\bits\stl_uninitialized.h ****       __catch(...)
 432:c:\program files\daisytoolchain\arm-none-eabi\include\c++\10.2.1\bits\stl_uninitialized.h **** 	{
 433:c:\program files\daisytoolchain\arm-none-eabi\include\c++\10.2.1\bits\stl_uninitialized.h **** 	  std::_Destroy(__result, __mid, __alloc);
 434:c:\program files\daisytoolchain\arm-none-eabi\include\c++\10.2.1\bits\stl_uninitialized.h **** 	  __throw_exception_again;
 435:c:\program files\daisytoolchain\arm-none-eabi\include\c++\10.2.1\bits\stl_uninitialized.h **** 	}
 436:c:\program files\daisytoolchain\arm-none-eabi\include\c++\10.2.1\bits\stl_uninitialized.h ****     }
 437:c:\program files\daisytoolchain\arm-none-eabi\include\c++\10.2.1\bits\stl_uninitialized.h **** 
 438:c:\program files\daisytoolchain\arm-none-eabi\include\c++\10.2.1\bits\stl_uninitialized.h ****   // __uninitialized_move_copy
 439:c:\program files\daisytoolchain\arm-none-eabi\include\c++\10.2.1\bits\stl_uninitialized.h ****   // Moves [first1, last1) into [result, result + (last1 - first1)), and
 440:c:\program files\daisytoolchain\arm-none-eabi\include\c++\10.2.1\bits\stl_uninitialized.h ****   //  copies [first2, last2) into
 441:c:\program files\daisytoolchain\arm-none-eabi\include\c++\10.2.1\bits\stl_uninitialized.h ****   //  [result, result + (last1 - first1) + (last2 - first2)).
 442:c:\program files\daisytoolchain\arm-none-eabi\include\c++\10.2.1\bits\stl_uninitialized.h ****   template<typename _InputIterator1, typename _InputIterator2,
 443:c:\program files\daisytoolchain\arm-none-eabi\include\c++\10.2.1\bits\stl_uninitialized.h **** 	   typename _ForwardIterator, typename _Allocator>
 444:c:\program files\daisytoolchain\arm-none-eabi\include\c++\10.2.1\bits\stl_uninitialized.h ****     inline _ForwardIterator
 445:c:\program files\daisytoolchain\arm-none-eabi\include\c++\10.2.1\bits\stl_uninitialized.h ****     __uninitialized_move_copy(_InputIterator1 __first1,
 446:c:\program files\daisytoolchain\arm-none-eabi\include\c++\10.2.1\bits\stl_uninitialized.h **** 			      _InputIterator1 __last1,
 447:c:\program files\daisytoolchain\arm-none-eabi\include\c++\10.2.1\bits\stl_uninitialized.h **** 			      _InputIterator2 __first2,
 448:c:\program files\daisytoolchain\arm-none-eabi\include\c++\10.2.1\bits\stl_uninitialized.h **** 			      _InputIterator2 __last2,
 449:c:\program files\daisytoolchain\arm-none-eabi\include\c++\10.2.1\bits\stl_uninitialized.h **** 			      _ForwardIterator __result,
 450:c:\program files\daisytoolchain\arm-none-eabi\include\c++\10.2.1\bits\stl_uninitialized.h **** 			      _Allocator& __alloc)
 451:c:\program files\daisytoolchain\arm-none-eabi\include\c++\10.2.1\bits\stl_uninitialized.h ****     {
 452:c:\program files\daisytoolchain\arm-none-eabi\include\c++\10.2.1\bits\stl_uninitialized.h ****       _ForwardIterator __mid = std::__uninitialized_move_a(__first1, __last1,
 453:c:\program files\daisytoolchain\arm-none-eabi\include\c++\10.2.1\bits\stl_uninitialized.h **** 							   __result,
 454:c:\program files\daisytoolchain\arm-none-eabi\include\c++\10.2.1\bits\stl_uninitialized.h **** 							   __alloc);
 455:c:\program files\daisytoolchain\arm-none-eabi\include\c++\10.2.1\bits\stl_uninitialized.h ****       __try
 456:c:\program files\daisytoolchain\arm-none-eabi\include\c++\10.2.1\bits\stl_uninitialized.h **** 	{
 457:c:\program files\daisytoolchain\arm-none-eabi\include\c++\10.2.1\bits\stl_uninitialized.h **** 	  return std::__uninitialized_copy_a(__first2, __last2, __mid, __alloc);
 458:c:\program files\daisytoolchain\arm-none-eabi\include\c++\10.2.1\bits\stl_uninitialized.h **** 	}
 459:c:\program files\daisytoolchain\arm-none-eabi\include\c++\10.2.1\bits\stl_uninitialized.h ****       __catch(...)
 460:c:\program files\daisytoolchain\arm-none-eabi\include\c++\10.2.1\bits\stl_uninitialized.h **** 	{
 461:c:\program files\daisytoolchain\arm-none-eabi\include\c++\10.2.1\bits\stl_uninitialized.h **** 	  std::_Destroy(__result, __mid, __alloc);
 462:c:\program files\daisytoolchain\arm-none-eabi\include\c++\10.2.1\bits\stl_uninitialized.h **** 	  __throw_exception_again;
 463:c:\program files\daisytoolchain\arm-none-eabi\include\c++\10.2.1\bits\stl_uninitialized.h **** 	}
 464:c:\program files\daisytoolchain\arm-none-eabi\include\c++\10.2.1\bits\stl_uninitialized.h ****     }
 465:c:\program files\daisytoolchain\arm-none-eabi\include\c++\10.2.1\bits\stl_uninitialized.h ****   
 466:c:\program files\daisytoolchain\arm-none-eabi\include\c++\10.2.1\bits\stl_uninitialized.h ****   // __uninitialized_fill_move
 467:c:\program files\daisytoolchain\arm-none-eabi\include\c++\10.2.1\bits\stl_uninitialized.h ****   // Fills [result, mid) with x, and moves [first, last) into
 468:c:\program files\daisytoolchain\arm-none-eabi\include\c++\10.2.1\bits\stl_uninitialized.h ****   //  [mid, mid + (last - first)).
 469:c:\program files\daisytoolchain\arm-none-eabi\include\c++\10.2.1\bits\stl_uninitialized.h ****   template<typename _ForwardIterator, typename _Tp, typename _InputIterator,
 470:c:\program files\daisytoolchain\arm-none-eabi\include\c++\10.2.1\bits\stl_uninitialized.h **** 	   typename _Allocator>
 471:c:\program files\daisytoolchain\arm-none-eabi\include\c++\10.2.1\bits\stl_uninitialized.h ****     inline _ForwardIterator
 472:c:\program files\daisytoolchain\arm-none-eabi\include\c++\10.2.1\bits\stl_uninitialized.h ****     __uninitialized_fill_move(_ForwardIterator __result, _ForwardIterator __mid,
 473:c:\program files\daisytoolchain\arm-none-eabi\include\c++\10.2.1\bits\stl_uninitialized.h **** 			      const _Tp& __x, _InputIterator __first,
ARM GAS  C:\Users\samue\AppData\Local\Temp\cci865ja.s 			page 139


 474:c:\program files\daisytoolchain\arm-none-eabi\include\c++\10.2.1\bits\stl_uninitialized.h **** 			      _InputIterator __last, _Allocator& __alloc)
 475:c:\program files\daisytoolchain\arm-none-eabi\include\c++\10.2.1\bits\stl_uninitialized.h ****     {
 476:c:\program files\daisytoolchain\arm-none-eabi\include\c++\10.2.1\bits\stl_uninitialized.h ****       std::__uninitialized_fill_a(__result, __mid, __x, __alloc);
 477:c:\program files\daisytoolchain\arm-none-eabi\include\c++\10.2.1\bits\stl_uninitialized.h ****       __try
 478:c:\program files\daisytoolchain\arm-none-eabi\include\c++\10.2.1\bits\stl_uninitialized.h **** 	{
 479:c:\program files\daisytoolchain\arm-none-eabi\include\c++\10.2.1\bits\stl_uninitialized.h **** 	  return std::__uninitialized_move_a(__first, __last, __mid, __alloc);
 480:c:\program files\daisytoolchain\arm-none-eabi\include\c++\10.2.1\bits\stl_uninitialized.h **** 	}
 481:c:\program files\daisytoolchain\arm-none-eabi\include\c++\10.2.1\bits\stl_uninitialized.h ****       __catch(...)
 482:c:\program files\daisytoolchain\arm-none-eabi\include\c++\10.2.1\bits\stl_uninitialized.h **** 	{
 483:c:\program files\daisytoolchain\arm-none-eabi\include\c++\10.2.1\bits\stl_uninitialized.h **** 	  std::_Destroy(__result, __mid, __alloc);
 484:c:\program files\daisytoolchain\arm-none-eabi\include\c++\10.2.1\bits\stl_uninitialized.h **** 	  __throw_exception_again;
 485:c:\program files\daisytoolchain\arm-none-eabi\include\c++\10.2.1\bits\stl_uninitialized.h **** 	}
 486:c:\program files\daisytoolchain\arm-none-eabi\include\c++\10.2.1\bits\stl_uninitialized.h ****     }
 487:c:\program files\daisytoolchain\arm-none-eabi\include\c++\10.2.1\bits\stl_uninitialized.h **** 
 488:c:\program files\daisytoolchain\arm-none-eabi\include\c++\10.2.1\bits\stl_uninitialized.h ****   // __uninitialized_move_fill
 489:c:\program files\daisytoolchain\arm-none-eabi\include\c++\10.2.1\bits\stl_uninitialized.h ****   // Moves [first1, last1) into [first2, first2 + (last1 - first1)), and
 490:c:\program files\daisytoolchain\arm-none-eabi\include\c++\10.2.1\bits\stl_uninitialized.h ****   //  fills [first2 + (last1 - first1), last2) with x.
 491:c:\program files\daisytoolchain\arm-none-eabi\include\c++\10.2.1\bits\stl_uninitialized.h ****   template<typename _InputIterator, typename _ForwardIterator, typename _Tp,
 492:c:\program files\daisytoolchain\arm-none-eabi\include\c++\10.2.1\bits\stl_uninitialized.h **** 	   typename _Allocator>
 493:c:\program files\daisytoolchain\arm-none-eabi\include\c++\10.2.1\bits\stl_uninitialized.h ****     inline void
 494:c:\program files\daisytoolchain\arm-none-eabi\include\c++\10.2.1\bits\stl_uninitialized.h ****     __uninitialized_move_fill(_InputIterator __first1, _InputIterator __last1,
 495:c:\program files\daisytoolchain\arm-none-eabi\include\c++\10.2.1\bits\stl_uninitialized.h **** 			      _ForwardIterator __first2,
 496:c:\program files\daisytoolchain\arm-none-eabi\include\c++\10.2.1\bits\stl_uninitialized.h **** 			      _ForwardIterator __last2, const _Tp& __x,
 497:c:\program files\daisytoolchain\arm-none-eabi\include\c++\10.2.1\bits\stl_uninitialized.h **** 			      _Allocator& __alloc)
 498:c:\program files\daisytoolchain\arm-none-eabi\include\c++\10.2.1\bits\stl_uninitialized.h ****     {
 499:c:\program files\daisytoolchain\arm-none-eabi\include\c++\10.2.1\bits\stl_uninitialized.h ****       _ForwardIterator __mid2 = std::__uninitialized_move_a(__first1, __last1,
 500:c:\program files\daisytoolchain\arm-none-eabi\include\c++\10.2.1\bits\stl_uninitialized.h **** 							    __first2,
 501:c:\program files\daisytoolchain\arm-none-eabi\include\c++\10.2.1\bits\stl_uninitialized.h **** 							    __alloc);
 502:c:\program files\daisytoolchain\arm-none-eabi\include\c++\10.2.1\bits\stl_uninitialized.h ****       __try
 503:c:\program files\daisytoolchain\arm-none-eabi\include\c++\10.2.1\bits\stl_uninitialized.h **** 	{
 504:c:\program files\daisytoolchain\arm-none-eabi\include\c++\10.2.1\bits\stl_uninitialized.h **** 	  std::__uninitialized_fill_a(__mid2, __last2, __x, __alloc);
 505:c:\program files\daisytoolchain\arm-none-eabi\include\c++\10.2.1\bits\stl_uninitialized.h **** 	}
 506:c:\program files\daisytoolchain\arm-none-eabi\include\c++\10.2.1\bits\stl_uninitialized.h ****       __catch(...)
 507:c:\program files\daisytoolchain\arm-none-eabi\include\c++\10.2.1\bits\stl_uninitialized.h **** 	{
 508:c:\program files\daisytoolchain\arm-none-eabi\include\c++\10.2.1\bits\stl_uninitialized.h **** 	  std::_Destroy(__first2, __mid2, __alloc);
 509:c:\program files\daisytoolchain\arm-none-eabi\include\c++\10.2.1\bits\stl_uninitialized.h **** 	  __throw_exception_again;
 510:c:\program files\daisytoolchain\arm-none-eabi\include\c++\10.2.1\bits\stl_uninitialized.h **** 	}
 511:c:\program files\daisytoolchain\arm-none-eabi\include\c++\10.2.1\bits\stl_uninitialized.h ****     }
 512:c:\program files\daisytoolchain\arm-none-eabi\include\c++\10.2.1\bits\stl_uninitialized.h **** 
 513:c:\program files\daisytoolchain\arm-none-eabi\include\c++\10.2.1\bits\stl_uninitialized.h ****   /// @endcond
 514:c:\program files\daisytoolchain\arm-none-eabi\include\c++\10.2.1\bits\stl_uninitialized.h **** 
 515:c:\program files\daisytoolchain\arm-none-eabi\include\c++\10.2.1\bits\stl_uninitialized.h **** #if __cplusplus >= 201103L
 516:c:\program files\daisytoolchain\arm-none-eabi\include\c++\10.2.1\bits\stl_uninitialized.h ****   /// @cond undocumented
 517:c:\program files\daisytoolchain\arm-none-eabi\include\c++\10.2.1\bits\stl_uninitialized.h **** 
 518:c:\program files\daisytoolchain\arm-none-eabi\include\c++\10.2.1\bits\stl_uninitialized.h ****   // Extensions: __uninitialized_default, __uninitialized_default_n,
 519:c:\program files\daisytoolchain\arm-none-eabi\include\c++\10.2.1\bits\stl_uninitialized.h ****   // __uninitialized_default_a, __uninitialized_default_n_a.
 520:c:\program files\daisytoolchain\arm-none-eabi\include\c++\10.2.1\bits\stl_uninitialized.h **** 
 521:c:\program files\daisytoolchain\arm-none-eabi\include\c++\10.2.1\bits\stl_uninitialized.h ****   template<bool _TrivialValueType>
 522:c:\program files\daisytoolchain\arm-none-eabi\include\c++\10.2.1\bits\stl_uninitialized.h ****     struct __uninitialized_default_1
 523:c:\program files\daisytoolchain\arm-none-eabi\include\c++\10.2.1\bits\stl_uninitialized.h ****     {
 524:c:\program files\daisytoolchain\arm-none-eabi\include\c++\10.2.1\bits\stl_uninitialized.h ****       template<typename _ForwardIterator>
 525:c:\program files\daisytoolchain\arm-none-eabi\include\c++\10.2.1\bits\stl_uninitialized.h ****         static void
 526:c:\program files\daisytoolchain\arm-none-eabi\include\c++\10.2.1\bits\stl_uninitialized.h ****         __uninit_default(_ForwardIterator __first, _ForwardIterator __last)
 527:c:\program files\daisytoolchain\arm-none-eabi\include\c++\10.2.1\bits\stl_uninitialized.h ****         {
 528:c:\program files\daisytoolchain\arm-none-eabi\include\c++\10.2.1\bits\stl_uninitialized.h **** 	  _ForwardIterator __cur = __first;
 529:c:\program files\daisytoolchain\arm-none-eabi\include\c++\10.2.1\bits\stl_uninitialized.h **** 	  __try
 530:c:\program files\daisytoolchain\arm-none-eabi\include\c++\10.2.1\bits\stl_uninitialized.h **** 	    {
ARM GAS  C:\Users\samue\AppData\Local\Temp\cci865ja.s 			page 140


 531:c:\program files\daisytoolchain\arm-none-eabi\include\c++\10.2.1\bits\stl_uninitialized.h **** 	      for (; __cur != __last; ++__cur)
 532:c:\program files\daisytoolchain\arm-none-eabi\include\c++\10.2.1\bits\stl_uninitialized.h **** 		std::_Construct(std::__addressof(*__cur));
 533:c:\program files\daisytoolchain\arm-none-eabi\include\c++\10.2.1\bits\stl_uninitialized.h **** 	    }
 534:c:\program files\daisytoolchain\arm-none-eabi\include\c++\10.2.1\bits\stl_uninitialized.h **** 	  __catch(...)
 535:c:\program files\daisytoolchain\arm-none-eabi\include\c++\10.2.1\bits\stl_uninitialized.h **** 	    {
 536:c:\program files\daisytoolchain\arm-none-eabi\include\c++\10.2.1\bits\stl_uninitialized.h **** 	      std::_Destroy(__first, __cur);
 537:c:\program files\daisytoolchain\arm-none-eabi\include\c++\10.2.1\bits\stl_uninitialized.h **** 	      __throw_exception_again;
 538:c:\program files\daisytoolchain\arm-none-eabi\include\c++\10.2.1\bits\stl_uninitialized.h **** 	    }
 539:c:\program files\daisytoolchain\arm-none-eabi\include\c++\10.2.1\bits\stl_uninitialized.h **** 	}
 540:c:\program files\daisytoolchain\arm-none-eabi\include\c++\10.2.1\bits\stl_uninitialized.h ****     };
 541:c:\program files\daisytoolchain\arm-none-eabi\include\c++\10.2.1\bits\stl_uninitialized.h **** 
 542:c:\program files\daisytoolchain\arm-none-eabi\include\c++\10.2.1\bits\stl_uninitialized.h ****   template<>
 543:c:\program files\daisytoolchain\arm-none-eabi\include\c++\10.2.1\bits\stl_uninitialized.h ****     struct __uninitialized_default_1<true>
 544:c:\program files\daisytoolchain\arm-none-eabi\include\c++\10.2.1\bits\stl_uninitialized.h ****     {
 545:c:\program files\daisytoolchain\arm-none-eabi\include\c++\10.2.1\bits\stl_uninitialized.h ****       template<typename _ForwardIterator>
 546:c:\program files\daisytoolchain\arm-none-eabi\include\c++\10.2.1\bits\stl_uninitialized.h ****         static void
 547:c:\program files\daisytoolchain\arm-none-eabi\include\c++\10.2.1\bits\stl_uninitialized.h ****         __uninit_default(_ForwardIterator __first, _ForwardIterator __last)
 548:c:\program files\daisytoolchain\arm-none-eabi\include\c++\10.2.1\bits\stl_uninitialized.h ****         {
 549:c:\program files\daisytoolchain\arm-none-eabi\include\c++\10.2.1\bits\stl_uninitialized.h **** 	  typedef typename iterator_traits<_ForwardIterator>::value_type
 550:c:\program files\daisytoolchain\arm-none-eabi\include\c++\10.2.1\bits\stl_uninitialized.h **** 	    _ValueType;
 551:c:\program files\daisytoolchain\arm-none-eabi\include\c++\10.2.1\bits\stl_uninitialized.h **** 
 552:c:\program files\daisytoolchain\arm-none-eabi\include\c++\10.2.1\bits\stl_uninitialized.h **** 	  std::fill(__first, __last, _ValueType());
 553:c:\program files\daisytoolchain\arm-none-eabi\include\c++\10.2.1\bits\stl_uninitialized.h **** 	}
 554:c:\program files\daisytoolchain\arm-none-eabi\include\c++\10.2.1\bits\stl_uninitialized.h ****     };
 555:c:\program files\daisytoolchain\arm-none-eabi\include\c++\10.2.1\bits\stl_uninitialized.h **** 
 556:c:\program files\daisytoolchain\arm-none-eabi\include\c++\10.2.1\bits\stl_uninitialized.h ****   template<bool _TrivialValueType>
 557:c:\program files\daisytoolchain\arm-none-eabi\include\c++\10.2.1\bits\stl_uninitialized.h ****     struct __uninitialized_default_n_1
 558:c:\program files\daisytoolchain\arm-none-eabi\include\c++\10.2.1\bits\stl_uninitialized.h ****     {
 559:c:\program files\daisytoolchain\arm-none-eabi\include\c++\10.2.1\bits\stl_uninitialized.h ****       template<typename _ForwardIterator, typename _Size>
 560:c:\program files\daisytoolchain\arm-none-eabi\include\c++\10.2.1\bits\stl_uninitialized.h ****         static _ForwardIterator
 561:c:\program files\daisytoolchain\arm-none-eabi\include\c++\10.2.1\bits\stl_uninitialized.h ****         __uninit_default_n(_ForwardIterator __first, _Size __n)
 562:c:\program files\daisytoolchain\arm-none-eabi\include\c++\10.2.1\bits\stl_uninitialized.h ****         {
 563:c:\program files\daisytoolchain\arm-none-eabi\include\c++\10.2.1\bits\stl_uninitialized.h **** 	  _ForwardIterator __cur = __first;
 564:c:\program files\daisytoolchain\arm-none-eabi\include\c++\10.2.1\bits\stl_uninitialized.h **** 	  __try
 565:c:\program files\daisytoolchain\arm-none-eabi\include\c++\10.2.1\bits\stl_uninitialized.h **** 	    {
 566:c:\program files\daisytoolchain\arm-none-eabi\include\c++\10.2.1\bits\stl_uninitialized.h **** 	      for (; __n > 0; --__n, (void) ++__cur)
 567:c:\program files\daisytoolchain\arm-none-eabi\include\c++\10.2.1\bits\stl_uninitialized.h **** 		std::_Construct(std::__addressof(*__cur));
 568:c:\program files\daisytoolchain\arm-none-eabi\include\c++\10.2.1\bits\stl_uninitialized.h **** 	      return __cur;
 569:c:\program files\daisytoolchain\arm-none-eabi\include\c++\10.2.1\bits\stl_uninitialized.h **** 	    }
 570:c:\program files\daisytoolchain\arm-none-eabi\include\c++\10.2.1\bits\stl_uninitialized.h **** 	  __catch(...)
 571:c:\program files\daisytoolchain\arm-none-eabi\include\c++\10.2.1\bits\stl_uninitialized.h **** 	    {
 572:c:\program files\daisytoolchain\arm-none-eabi\include\c++\10.2.1\bits\stl_uninitialized.h **** 	      std::_Destroy(__first, __cur);
 573:c:\program files\daisytoolchain\arm-none-eabi\include\c++\10.2.1\bits\stl_uninitialized.h **** 	      __throw_exception_again;
 574:c:\program files\daisytoolchain\arm-none-eabi\include\c++\10.2.1\bits\stl_uninitialized.h **** 	    }
 575:c:\program files\daisytoolchain\arm-none-eabi\include\c++\10.2.1\bits\stl_uninitialized.h **** 	}
 576:c:\program files\daisytoolchain\arm-none-eabi\include\c++\10.2.1\bits\stl_uninitialized.h ****     };
 577:c:\program files\daisytoolchain\arm-none-eabi\include\c++\10.2.1\bits\stl_uninitialized.h **** 
 578:c:\program files\daisytoolchain\arm-none-eabi\include\c++\10.2.1\bits\stl_uninitialized.h ****   template<>
 579:c:\program files\daisytoolchain\arm-none-eabi\include\c++\10.2.1\bits\stl_uninitialized.h ****     struct __uninitialized_default_n_1<true>
 580:c:\program files\daisytoolchain\arm-none-eabi\include\c++\10.2.1\bits\stl_uninitialized.h ****     {
 581:c:\program files\daisytoolchain\arm-none-eabi\include\c++\10.2.1\bits\stl_uninitialized.h ****       template<typename _ForwardIterator, typename _Size>
 582:c:\program files\daisytoolchain\arm-none-eabi\include\c++\10.2.1\bits\stl_uninitialized.h ****         static _ForwardIterator
 583:c:\program files\daisytoolchain\arm-none-eabi\include\c++\10.2.1\bits\stl_uninitialized.h ****         __uninit_default_n(_ForwardIterator __first, _Size __n)
 584:c:\program files\daisytoolchain\arm-none-eabi\include\c++\10.2.1\bits\stl_uninitialized.h ****         {
 585:c:\program files\daisytoolchain\arm-none-eabi\include\c++\10.2.1\bits\stl_uninitialized.h **** 	  typedef typename iterator_traits<_ForwardIterator>::value_type
 586:c:\program files\daisytoolchain\arm-none-eabi\include\c++\10.2.1\bits\stl_uninitialized.h **** 	    _ValueType;
 587:c:\program files\daisytoolchain\arm-none-eabi\include\c++\10.2.1\bits\stl_uninitialized.h **** 
ARM GAS  C:\Users\samue\AppData\Local\Temp\cci865ja.s 			page 141


 588:c:\program files\daisytoolchain\arm-none-eabi\include\c++\10.2.1\bits\stl_uninitialized.h **** 	  return std::fill_n(__first, __n, _ValueType());
 589:c:\program files\daisytoolchain\arm-none-eabi\include\c++\10.2.1\bits\stl_uninitialized.h **** 	}
 590:c:\program files\daisytoolchain\arm-none-eabi\include\c++\10.2.1\bits\stl_uninitialized.h ****     };
 591:c:\program files\daisytoolchain\arm-none-eabi\include\c++\10.2.1\bits\stl_uninitialized.h **** 
 592:c:\program files\daisytoolchain\arm-none-eabi\include\c++\10.2.1\bits\stl_uninitialized.h ****   // __uninitialized_default
 593:c:\program files\daisytoolchain\arm-none-eabi\include\c++\10.2.1\bits\stl_uninitialized.h ****   // Fills [first, last) with std::distance(first, last) default
 594:c:\program files\daisytoolchain\arm-none-eabi\include\c++\10.2.1\bits\stl_uninitialized.h ****   // constructed value_types(s).
 595:c:\program files\daisytoolchain\arm-none-eabi\include\c++\10.2.1\bits\stl_uninitialized.h ****   template<typename _ForwardIterator>
 596:c:\program files\daisytoolchain\arm-none-eabi\include\c++\10.2.1\bits\stl_uninitialized.h ****     inline void
 597:c:\program files\daisytoolchain\arm-none-eabi\include\c++\10.2.1\bits\stl_uninitialized.h ****     __uninitialized_default(_ForwardIterator __first,
 598:c:\program files\daisytoolchain\arm-none-eabi\include\c++\10.2.1\bits\stl_uninitialized.h **** 			    _ForwardIterator __last)
 599:c:\program files\daisytoolchain\arm-none-eabi\include\c++\10.2.1\bits\stl_uninitialized.h ****     {
 600:c:\program files\daisytoolchain\arm-none-eabi\include\c++\10.2.1\bits\stl_uninitialized.h ****       typedef typename iterator_traits<_ForwardIterator>::value_type
 601:c:\program files\daisytoolchain\arm-none-eabi\include\c++\10.2.1\bits\stl_uninitialized.h **** 	_ValueType;
 602:c:\program files\daisytoolchain\arm-none-eabi\include\c++\10.2.1\bits\stl_uninitialized.h ****       // trivial types can have deleted assignment
 603:c:\program files\daisytoolchain\arm-none-eabi\include\c++\10.2.1\bits\stl_uninitialized.h ****       const bool __assignable = is_copy_assignable<_ValueType>::value;
 604:c:\program files\daisytoolchain\arm-none-eabi\include\c++\10.2.1\bits\stl_uninitialized.h **** 
 605:c:\program files\daisytoolchain\arm-none-eabi\include\c++\10.2.1\bits\stl_uninitialized.h ****       std::__uninitialized_default_1<__is_trivial(_ValueType)
 606:c:\program files\daisytoolchain\arm-none-eabi\include\c++\10.2.1\bits\stl_uninitialized.h **** 				     && __assignable>::
 607:c:\program files\daisytoolchain\arm-none-eabi\include\c++\10.2.1\bits\stl_uninitialized.h **** 	__uninit_default(__first, __last);
 608:c:\program files\daisytoolchain\arm-none-eabi\include\c++\10.2.1\bits\stl_uninitialized.h ****     }
 609:c:\program files\daisytoolchain\arm-none-eabi\include\c++\10.2.1\bits\stl_uninitialized.h **** 
 610:c:\program files\daisytoolchain\arm-none-eabi\include\c++\10.2.1\bits\stl_uninitialized.h ****   // __uninitialized_default_n
 611:c:\program files\daisytoolchain\arm-none-eabi\include\c++\10.2.1\bits\stl_uninitialized.h ****   // Fills [first, first + n) with n default constructed value_type(s).
 612:c:\program files\daisytoolchain\arm-none-eabi\include\c++\10.2.1\bits\stl_uninitialized.h ****   template<typename _ForwardIterator, typename _Size>
 613:c:\program files\daisytoolchain\arm-none-eabi\include\c++\10.2.1\bits\stl_uninitialized.h ****     inline _ForwardIterator
 614:c:\program files\daisytoolchain\arm-none-eabi\include\c++\10.2.1\bits\stl_uninitialized.h ****     __uninitialized_default_n(_ForwardIterator __first, _Size __n)
 615:c:\program files\daisytoolchain\arm-none-eabi\include\c++\10.2.1\bits\stl_uninitialized.h ****     {
 616:c:\program files\daisytoolchain\arm-none-eabi\include\c++\10.2.1\bits\stl_uninitialized.h ****       typedef typename iterator_traits<_ForwardIterator>::value_type
 617:c:\program files\daisytoolchain\arm-none-eabi\include\c++\10.2.1\bits\stl_uninitialized.h **** 	_ValueType;
 618:c:\program files\daisytoolchain\arm-none-eabi\include\c++\10.2.1\bits\stl_uninitialized.h ****       // trivial types can have deleted assignment
 619:c:\program files\daisytoolchain\arm-none-eabi\include\c++\10.2.1\bits\stl_uninitialized.h ****       const bool __assignable = is_copy_assignable<_ValueType>::value;
 620:c:\program files\daisytoolchain\arm-none-eabi\include\c++\10.2.1\bits\stl_uninitialized.h **** 
 621:c:\program files\daisytoolchain\arm-none-eabi\include\c++\10.2.1\bits\stl_uninitialized.h ****       return __uninitialized_default_n_1<__is_trivial(_ValueType)
 622:c:\program files\daisytoolchain\arm-none-eabi\include\c++\10.2.1\bits\stl_uninitialized.h **** 				       && __assignable>::
 623:c:\program files\daisytoolchain\arm-none-eabi\include\c++\10.2.1\bits\stl_uninitialized.h **** 	__uninit_default_n(__first, __n);
 624:c:\program files\daisytoolchain\arm-none-eabi\include\c++\10.2.1\bits\stl_uninitialized.h ****     }
 625:c:\program files\daisytoolchain\arm-none-eabi\include\c++\10.2.1\bits\stl_uninitialized.h **** 
 626:c:\program files\daisytoolchain\arm-none-eabi\include\c++\10.2.1\bits\stl_uninitialized.h **** 
 627:c:\program files\daisytoolchain\arm-none-eabi\include\c++\10.2.1\bits\stl_uninitialized.h ****   // __uninitialized_default_a
 628:c:\program files\daisytoolchain\arm-none-eabi\include\c++\10.2.1\bits\stl_uninitialized.h ****   // Fills [first, last) with std::distance(first, last) default
 629:c:\program files\daisytoolchain\arm-none-eabi\include\c++\10.2.1\bits\stl_uninitialized.h ****   // constructed value_types(s), constructed with the allocator alloc.
 630:c:\program files\daisytoolchain\arm-none-eabi\include\c++\10.2.1\bits\stl_uninitialized.h ****   template<typename _ForwardIterator, typename _Allocator>
 631:c:\program files\daisytoolchain\arm-none-eabi\include\c++\10.2.1\bits\stl_uninitialized.h ****     void
 632:c:\program files\daisytoolchain\arm-none-eabi\include\c++\10.2.1\bits\stl_uninitialized.h ****     __uninitialized_default_a(_ForwardIterator __first,
 633:c:\program files\daisytoolchain\arm-none-eabi\include\c++\10.2.1\bits\stl_uninitialized.h **** 			      _ForwardIterator __last,
 634:c:\program files\daisytoolchain\arm-none-eabi\include\c++\10.2.1\bits\stl_uninitialized.h **** 			      _Allocator& __alloc)
 635:c:\program files\daisytoolchain\arm-none-eabi\include\c++\10.2.1\bits\stl_uninitialized.h ****     {
 636:c:\program files\daisytoolchain\arm-none-eabi\include\c++\10.2.1\bits\stl_uninitialized.h ****       _ForwardIterator __cur = __first;
 637:c:\program files\daisytoolchain\arm-none-eabi\include\c++\10.2.1\bits\stl_uninitialized.h ****       __try
 638:c:\program files\daisytoolchain\arm-none-eabi\include\c++\10.2.1\bits\stl_uninitialized.h **** 	{
 639:c:\program files\daisytoolchain\arm-none-eabi\include\c++\10.2.1\bits\stl_uninitialized.h **** 	  typedef __gnu_cxx::__alloc_traits<_Allocator> __traits;
 640:c:\program files\daisytoolchain\arm-none-eabi\include\c++\10.2.1\bits\stl_uninitialized.h **** 	  for (; __cur != __last; ++__cur)
 641:c:\program files\daisytoolchain\arm-none-eabi\include\c++\10.2.1\bits\stl_uninitialized.h **** 	    __traits::construct(__alloc, std::__addressof(*__cur));
 642:c:\program files\daisytoolchain\arm-none-eabi\include\c++\10.2.1\bits\stl_uninitialized.h **** 	}
 643:c:\program files\daisytoolchain\arm-none-eabi\include\c++\10.2.1\bits\stl_uninitialized.h ****       __catch(...)
 644:c:\program files\daisytoolchain\arm-none-eabi\include\c++\10.2.1\bits\stl_uninitialized.h **** 	{
ARM GAS  C:\Users\samue\AppData\Local\Temp\cci865ja.s 			page 142


 645:c:\program files\daisytoolchain\arm-none-eabi\include\c++\10.2.1\bits\stl_uninitialized.h **** 	  std::_Destroy(__first, __cur, __alloc);
 646:c:\program files\daisytoolchain\arm-none-eabi\include\c++\10.2.1\bits\stl_uninitialized.h **** 	  __throw_exception_again;
 647:c:\program files\daisytoolchain\arm-none-eabi\include\c++\10.2.1\bits\stl_uninitialized.h **** 	}
 648:c:\program files\daisytoolchain\arm-none-eabi\include\c++\10.2.1\bits\stl_uninitialized.h ****     }
 649:c:\program files\daisytoolchain\arm-none-eabi\include\c++\10.2.1\bits\stl_uninitialized.h **** 
 650:c:\program files\daisytoolchain\arm-none-eabi\include\c++\10.2.1\bits\stl_uninitialized.h ****   template<typename _ForwardIterator, typename _Tp>
 651:c:\program files\daisytoolchain\arm-none-eabi\include\c++\10.2.1\bits\stl_uninitialized.h ****     inline void
 652:c:\program files\daisytoolchain\arm-none-eabi\include\c++\10.2.1\bits\stl_uninitialized.h ****     __uninitialized_default_a(_ForwardIterator __first,
 653:c:\program files\daisytoolchain\arm-none-eabi\include\c++\10.2.1\bits\stl_uninitialized.h **** 			      _ForwardIterator __last,
 654:c:\program files\daisytoolchain\arm-none-eabi\include\c++\10.2.1\bits\stl_uninitialized.h **** 			      allocator<_Tp>&)
 655:c:\program files\daisytoolchain\arm-none-eabi\include\c++\10.2.1\bits\stl_uninitialized.h ****     { std::__uninitialized_default(__first, __last); }
 656:c:\program files\daisytoolchain\arm-none-eabi\include\c++\10.2.1\bits\stl_uninitialized.h **** 
 657:c:\program files\daisytoolchain\arm-none-eabi\include\c++\10.2.1\bits\stl_uninitialized.h **** 
 658:c:\program files\daisytoolchain\arm-none-eabi\include\c++\10.2.1\bits\stl_uninitialized.h ****   // __uninitialized_default_n_a
 659:c:\program files\daisytoolchain\arm-none-eabi\include\c++\10.2.1\bits\stl_uninitialized.h ****   // Fills [first, first + n) with n default constructed value_types(s),
 660:c:\program files\daisytoolchain\arm-none-eabi\include\c++\10.2.1\bits\stl_uninitialized.h ****   // constructed with the allocator alloc.
 661:c:\program files\daisytoolchain\arm-none-eabi\include\c++\10.2.1\bits\stl_uninitialized.h ****   template<typename _ForwardIterator, typename _Size, typename _Allocator>
 662:c:\program files\daisytoolchain\arm-none-eabi\include\c++\10.2.1\bits\stl_uninitialized.h ****     _ForwardIterator
 663:c:\program files\daisytoolchain\arm-none-eabi\include\c++\10.2.1\bits\stl_uninitialized.h ****     __uninitialized_default_n_a(_ForwardIterator __first, _Size __n, 
 664:c:\program files\daisytoolchain\arm-none-eabi\include\c++\10.2.1\bits\stl_uninitialized.h **** 				_Allocator& __alloc)
 665:c:\program files\daisytoolchain\arm-none-eabi\include\c++\10.2.1\bits\stl_uninitialized.h ****     {
 666:c:\program files\daisytoolchain\arm-none-eabi\include\c++\10.2.1\bits\stl_uninitialized.h ****       _ForwardIterator __cur = __first;
 667:c:\program files\daisytoolchain\arm-none-eabi\include\c++\10.2.1\bits\stl_uninitialized.h ****       __try
 668:c:\program files\daisytoolchain\arm-none-eabi\include\c++\10.2.1\bits\stl_uninitialized.h **** 	{
 669:c:\program files\daisytoolchain\arm-none-eabi\include\c++\10.2.1\bits\stl_uninitialized.h **** 	  typedef __gnu_cxx::__alloc_traits<_Allocator> __traits;
 670:c:\program files\daisytoolchain\arm-none-eabi\include\c++\10.2.1\bits\stl_uninitialized.h **** 	  for (; __n > 0; --__n, (void) ++__cur)
 671:c:\program files\daisytoolchain\arm-none-eabi\include\c++\10.2.1\bits\stl_uninitialized.h **** 	    __traits::construct(__alloc, std::__addressof(*__cur));
 672:c:\program files\daisytoolchain\arm-none-eabi\include\c++\10.2.1\bits\stl_uninitialized.h **** 	  return __cur;
 673:c:\program files\daisytoolchain\arm-none-eabi\include\c++\10.2.1\bits\stl_uninitialized.h **** 	}
 674:c:\program files\daisytoolchain\arm-none-eabi\include\c++\10.2.1\bits\stl_uninitialized.h ****       __catch(...)
 675:c:\program files\daisytoolchain\arm-none-eabi\include\c++\10.2.1\bits\stl_uninitialized.h **** 	{
 676:c:\program files\daisytoolchain\arm-none-eabi\include\c++\10.2.1\bits\stl_uninitialized.h **** 	  std::_Destroy(__first, __cur, __alloc);
 677:c:\program files\daisytoolchain\arm-none-eabi\include\c++\10.2.1\bits\stl_uninitialized.h **** 	  __throw_exception_again;
 678:c:\program files\daisytoolchain\arm-none-eabi\include\c++\10.2.1\bits\stl_uninitialized.h **** 	}
 679:c:\program files\daisytoolchain\arm-none-eabi\include\c++\10.2.1\bits\stl_uninitialized.h ****     }
 680:c:\program files\daisytoolchain\arm-none-eabi\include\c++\10.2.1\bits\stl_uninitialized.h **** 
 681:c:\program files\daisytoolchain\arm-none-eabi\include\c++\10.2.1\bits\stl_uninitialized.h ****   template<typename _ForwardIterator, typename _Size, typename _Tp>
 682:c:\program files\daisytoolchain\arm-none-eabi\include\c++\10.2.1\bits\stl_uninitialized.h ****     inline _ForwardIterator
 683:c:\program files\daisytoolchain\arm-none-eabi\include\c++\10.2.1\bits\stl_uninitialized.h ****     __uninitialized_default_n_a(_ForwardIterator __first, _Size __n, 
 684:c:\program files\daisytoolchain\arm-none-eabi\include\c++\10.2.1\bits\stl_uninitialized.h **** 				allocator<_Tp>&)
 685:c:\program files\daisytoolchain\arm-none-eabi\include\c++\10.2.1\bits\stl_uninitialized.h ****     { return std::__uninitialized_default_n(__first, __n); }
 686:c:\program files\daisytoolchain\arm-none-eabi\include\c++\10.2.1\bits\stl_uninitialized.h **** 
 687:c:\program files\daisytoolchain\arm-none-eabi\include\c++\10.2.1\bits\stl_uninitialized.h ****   template<bool _TrivialValueType>
 688:c:\program files\daisytoolchain\arm-none-eabi\include\c++\10.2.1\bits\stl_uninitialized.h ****     struct __uninitialized_default_novalue_1
 689:c:\program files\daisytoolchain\arm-none-eabi\include\c++\10.2.1\bits\stl_uninitialized.h ****     {
 690:c:\program files\daisytoolchain\arm-none-eabi\include\c++\10.2.1\bits\stl_uninitialized.h ****       template<typename _ForwardIterator>
 691:c:\program files\daisytoolchain\arm-none-eabi\include\c++\10.2.1\bits\stl_uninitialized.h **** 	static void
 692:c:\program files\daisytoolchain\arm-none-eabi\include\c++\10.2.1\bits\stl_uninitialized.h **** 	__uninit_default_novalue(_ForwardIterator __first,
 693:c:\program files\daisytoolchain\arm-none-eabi\include\c++\10.2.1\bits\stl_uninitialized.h **** 				 _ForwardIterator __last)
 694:c:\program files\daisytoolchain\arm-none-eabi\include\c++\10.2.1\bits\stl_uninitialized.h **** 	{
 695:c:\program files\daisytoolchain\arm-none-eabi\include\c++\10.2.1\bits\stl_uninitialized.h **** 	  _ForwardIterator __cur = __first;
 696:c:\program files\daisytoolchain\arm-none-eabi\include\c++\10.2.1\bits\stl_uninitialized.h **** 	  __try
 697:c:\program files\daisytoolchain\arm-none-eabi\include\c++\10.2.1\bits\stl_uninitialized.h **** 	    {
 698:c:\program files\daisytoolchain\arm-none-eabi\include\c++\10.2.1\bits\stl_uninitialized.h **** 	      for (; __cur != __last; ++__cur)
 699:c:\program files\daisytoolchain\arm-none-eabi\include\c++\10.2.1\bits\stl_uninitialized.h **** 		std::_Construct_novalue(std::__addressof(*__cur));
 700:c:\program files\daisytoolchain\arm-none-eabi\include\c++\10.2.1\bits\stl_uninitialized.h **** 	    }
 701:c:\program files\daisytoolchain\arm-none-eabi\include\c++\10.2.1\bits\stl_uninitialized.h **** 	  __catch(...)
ARM GAS  C:\Users\samue\AppData\Local\Temp\cci865ja.s 			page 143


 702:c:\program files\daisytoolchain\arm-none-eabi\include\c++\10.2.1\bits\stl_uninitialized.h **** 	    {
 703:c:\program files\daisytoolchain\arm-none-eabi\include\c++\10.2.1\bits\stl_uninitialized.h **** 	      std::_Destroy(__first, __cur);
 704:c:\program files\daisytoolchain\arm-none-eabi\include\c++\10.2.1\bits\stl_uninitialized.h **** 	      __throw_exception_again;
 705:c:\program files\daisytoolchain\arm-none-eabi\include\c++\10.2.1\bits\stl_uninitialized.h **** 	    }
 706:c:\program files\daisytoolchain\arm-none-eabi\include\c++\10.2.1\bits\stl_uninitialized.h **** 	}
 707:c:\program files\daisytoolchain\arm-none-eabi\include\c++\10.2.1\bits\stl_uninitialized.h ****     };
 708:c:\program files\daisytoolchain\arm-none-eabi\include\c++\10.2.1\bits\stl_uninitialized.h **** 
 709:c:\program files\daisytoolchain\arm-none-eabi\include\c++\10.2.1\bits\stl_uninitialized.h ****   template<>
 710:c:\program files\daisytoolchain\arm-none-eabi\include\c++\10.2.1\bits\stl_uninitialized.h ****     struct __uninitialized_default_novalue_1<true>
 711:c:\program files\daisytoolchain\arm-none-eabi\include\c++\10.2.1\bits\stl_uninitialized.h ****     {
 712:c:\program files\daisytoolchain\arm-none-eabi\include\c++\10.2.1\bits\stl_uninitialized.h ****       template<typename _ForwardIterator>
 713:c:\program files\daisytoolchain\arm-none-eabi\include\c++\10.2.1\bits\stl_uninitialized.h ****         static void
 714:c:\program files\daisytoolchain\arm-none-eabi\include\c++\10.2.1\bits\stl_uninitialized.h ****         __uninit_default_novalue(_ForwardIterator __first,
 715:c:\program files\daisytoolchain\arm-none-eabi\include\c++\10.2.1\bits\stl_uninitialized.h **** 				 _ForwardIterator __last)
 716:c:\program files\daisytoolchain\arm-none-eabi\include\c++\10.2.1\bits\stl_uninitialized.h **** 	{
 717:c:\program files\daisytoolchain\arm-none-eabi\include\c++\10.2.1\bits\stl_uninitialized.h **** 	}
 718:c:\program files\daisytoolchain\arm-none-eabi\include\c++\10.2.1\bits\stl_uninitialized.h ****     };
 719:c:\program files\daisytoolchain\arm-none-eabi\include\c++\10.2.1\bits\stl_uninitialized.h **** 
 720:c:\program files\daisytoolchain\arm-none-eabi\include\c++\10.2.1\bits\stl_uninitialized.h ****   template<bool _TrivialValueType>
 721:c:\program files\daisytoolchain\arm-none-eabi\include\c++\10.2.1\bits\stl_uninitialized.h ****     struct __uninitialized_default_novalue_n_1
 722:c:\program files\daisytoolchain\arm-none-eabi\include\c++\10.2.1\bits\stl_uninitialized.h ****     {
 723:c:\program files\daisytoolchain\arm-none-eabi\include\c++\10.2.1\bits\stl_uninitialized.h ****       template<typename _ForwardIterator, typename _Size>
 724:c:\program files\daisytoolchain\arm-none-eabi\include\c++\10.2.1\bits\stl_uninitialized.h **** 	static _ForwardIterator
 725:c:\program files\daisytoolchain\arm-none-eabi\include\c++\10.2.1\bits\stl_uninitialized.h **** 	__uninit_default_novalue_n(_ForwardIterator __first, _Size __n)
 726:c:\program files\daisytoolchain\arm-none-eabi\include\c++\10.2.1\bits\stl_uninitialized.h **** 	{
 727:c:\program files\daisytoolchain\arm-none-eabi\include\c++\10.2.1\bits\stl_uninitialized.h **** 	  _ForwardIterator __cur = __first;
 728:c:\program files\daisytoolchain\arm-none-eabi\include\c++\10.2.1\bits\stl_uninitialized.h **** 	  __try
 729:c:\program files\daisytoolchain\arm-none-eabi\include\c++\10.2.1\bits\stl_uninitialized.h **** 	    {
 730:c:\program files\daisytoolchain\arm-none-eabi\include\c++\10.2.1\bits\stl_uninitialized.h **** 	      for (; __n > 0; --__n, (void) ++__cur)
 731:c:\program files\daisytoolchain\arm-none-eabi\include\c++\10.2.1\bits\stl_uninitialized.h **** 		std::_Construct_novalue(std::__addressof(*__cur));
 732:c:\program files\daisytoolchain\arm-none-eabi\include\c++\10.2.1\bits\stl_uninitialized.h **** 	      return __cur;
 733:c:\program files\daisytoolchain\arm-none-eabi\include\c++\10.2.1\bits\stl_uninitialized.h **** 	    }
 734:c:\program files\daisytoolchain\arm-none-eabi\include\c++\10.2.1\bits\stl_uninitialized.h **** 	  __catch(...)
 735:c:\program files\daisytoolchain\arm-none-eabi\include\c++\10.2.1\bits\stl_uninitialized.h **** 	    {
 736:c:\program files\daisytoolchain\arm-none-eabi\include\c++\10.2.1\bits\stl_uninitialized.h **** 	      std::_Destroy(__first, __cur);
 737:c:\program files\daisytoolchain\arm-none-eabi\include\c++\10.2.1\bits\stl_uninitialized.h **** 	      __throw_exception_again;
 738:c:\program files\daisytoolchain\arm-none-eabi\include\c++\10.2.1\bits\stl_uninitialized.h **** 	    }
 739:c:\program files\daisytoolchain\arm-none-eabi\include\c++\10.2.1\bits\stl_uninitialized.h **** 	}
 740:c:\program files\daisytoolchain\arm-none-eabi\include\c++\10.2.1\bits\stl_uninitialized.h ****     };
 741:c:\program files\daisytoolchain\arm-none-eabi\include\c++\10.2.1\bits\stl_uninitialized.h **** 
 742:c:\program files\daisytoolchain\arm-none-eabi\include\c++\10.2.1\bits\stl_uninitialized.h ****   template<>
 743:c:\program files\daisytoolchain\arm-none-eabi\include\c++\10.2.1\bits\stl_uninitialized.h ****     struct __uninitialized_default_novalue_n_1<true>
 744:c:\program files\daisytoolchain\arm-none-eabi\include\c++\10.2.1\bits\stl_uninitialized.h ****     {
 745:c:\program files\daisytoolchain\arm-none-eabi\include\c++\10.2.1\bits\stl_uninitialized.h ****       template<typename _ForwardIterator, typename _Size>
 746:c:\program files\daisytoolchain\arm-none-eabi\include\c++\10.2.1\bits\stl_uninitialized.h **** 	static _ForwardIterator
 747:c:\program files\daisytoolchain\arm-none-eabi\include\c++\10.2.1\bits\stl_uninitialized.h **** 	__uninit_default_novalue_n(_ForwardIterator __first, _Size __n)
 748:c:\program files\daisytoolchain\arm-none-eabi\include\c++\10.2.1\bits\stl_uninitialized.h **** 	{ return std::next(__first, __n); }
 749:c:\program files\daisytoolchain\arm-none-eabi\include\c++\10.2.1\bits\stl_uninitialized.h ****     };
 750:c:\program files\daisytoolchain\arm-none-eabi\include\c++\10.2.1\bits\stl_uninitialized.h **** 
 751:c:\program files\daisytoolchain\arm-none-eabi\include\c++\10.2.1\bits\stl_uninitialized.h ****   // __uninitialized_default_novalue
 752:c:\program files\daisytoolchain\arm-none-eabi\include\c++\10.2.1\bits\stl_uninitialized.h ****   // Fills [first, last) with std::distance(first, last) default-initialized
 753:c:\program files\daisytoolchain\arm-none-eabi\include\c++\10.2.1\bits\stl_uninitialized.h ****   // value_types(s).
 754:c:\program files\daisytoolchain\arm-none-eabi\include\c++\10.2.1\bits\stl_uninitialized.h ****   template<typename _ForwardIterator>
 755:c:\program files\daisytoolchain\arm-none-eabi\include\c++\10.2.1\bits\stl_uninitialized.h ****     inline void
 756:c:\program files\daisytoolchain\arm-none-eabi\include\c++\10.2.1\bits\stl_uninitialized.h ****     __uninitialized_default_novalue(_ForwardIterator __first,
 757:c:\program files\daisytoolchain\arm-none-eabi\include\c++\10.2.1\bits\stl_uninitialized.h **** 				    _ForwardIterator __last)
 758:c:\program files\daisytoolchain\arm-none-eabi\include\c++\10.2.1\bits\stl_uninitialized.h ****     {
ARM GAS  C:\Users\samue\AppData\Local\Temp\cci865ja.s 			page 144


 759:c:\program files\daisytoolchain\arm-none-eabi\include\c++\10.2.1\bits\stl_uninitialized.h ****       typedef typename iterator_traits<_ForwardIterator>::value_type
 760:c:\program files\daisytoolchain\arm-none-eabi\include\c++\10.2.1\bits\stl_uninitialized.h **** 	_ValueType;
 761:c:\program files\daisytoolchain\arm-none-eabi\include\c++\10.2.1\bits\stl_uninitialized.h **** 
 762:c:\program files\daisytoolchain\arm-none-eabi\include\c++\10.2.1\bits\stl_uninitialized.h ****       std::__uninitialized_default_novalue_1<
 763:c:\program files\daisytoolchain\arm-none-eabi\include\c++\10.2.1\bits\stl_uninitialized.h **** 	is_trivially_default_constructible<_ValueType>::value>::
 764:c:\program files\daisytoolchain\arm-none-eabi\include\c++\10.2.1\bits\stl_uninitialized.h **** 	__uninit_default_novalue(__first, __last);
 765:c:\program files\daisytoolchain\arm-none-eabi\include\c++\10.2.1\bits\stl_uninitialized.h ****     }
 766:c:\program files\daisytoolchain\arm-none-eabi\include\c++\10.2.1\bits\stl_uninitialized.h **** 
 767:c:\program files\daisytoolchain\arm-none-eabi\include\c++\10.2.1\bits\stl_uninitialized.h ****   // __uninitialized_default_n
 768:c:\program files\daisytoolchain\arm-none-eabi\include\c++\10.2.1\bits\stl_uninitialized.h ****   // Fills [first, first + n) with n default-initialized value_type(s).
 769:c:\program files\daisytoolchain\arm-none-eabi\include\c++\10.2.1\bits\stl_uninitialized.h ****   template<typename _ForwardIterator, typename _Size>
 770:c:\program files\daisytoolchain\arm-none-eabi\include\c++\10.2.1\bits\stl_uninitialized.h ****     inline _ForwardIterator
 771:c:\program files\daisytoolchain\arm-none-eabi\include\c++\10.2.1\bits\stl_uninitialized.h ****     __uninitialized_default_novalue_n(_ForwardIterator __first, _Size __n)
 772:c:\program files\daisytoolchain\arm-none-eabi\include\c++\10.2.1\bits\stl_uninitialized.h ****     {
 773:c:\program files\daisytoolchain\arm-none-eabi\include\c++\10.2.1\bits\stl_uninitialized.h ****       typedef typename iterator_traits<_ForwardIterator>::value_type
 774:c:\program files\daisytoolchain\arm-none-eabi\include\c++\10.2.1\bits\stl_uninitialized.h **** 	_ValueType;
 775:c:\program files\daisytoolchain\arm-none-eabi\include\c++\10.2.1\bits\stl_uninitialized.h **** 
 776:c:\program files\daisytoolchain\arm-none-eabi\include\c++\10.2.1\bits\stl_uninitialized.h ****       return __uninitialized_default_novalue_n_1<
 777:c:\program files\daisytoolchain\arm-none-eabi\include\c++\10.2.1\bits\stl_uninitialized.h **** 	is_trivially_default_constructible<_ValueType>::value>::
 778:c:\program files\daisytoolchain\arm-none-eabi\include\c++\10.2.1\bits\stl_uninitialized.h **** 	__uninit_default_novalue_n(__first, __n);
 779:c:\program files\daisytoolchain\arm-none-eabi\include\c++\10.2.1\bits\stl_uninitialized.h ****     }
 780:c:\program files\daisytoolchain\arm-none-eabi\include\c++\10.2.1\bits\stl_uninitialized.h **** 
 781:c:\program files\daisytoolchain\arm-none-eabi\include\c++\10.2.1\bits\stl_uninitialized.h ****   template<typename _InputIterator, typename _Size,
 782:c:\program files\daisytoolchain\arm-none-eabi\include\c++\10.2.1\bits\stl_uninitialized.h **** 	   typename _ForwardIterator>
 783:c:\program files\daisytoolchain\arm-none-eabi\include\c++\10.2.1\bits\stl_uninitialized.h ****     _ForwardIterator
 784:c:\program files\daisytoolchain\arm-none-eabi\include\c++\10.2.1\bits\stl_uninitialized.h ****     __uninitialized_copy_n(_InputIterator __first, _Size __n,
 785:c:\program files\daisytoolchain\arm-none-eabi\include\c++\10.2.1\bits\stl_uninitialized.h **** 			   _ForwardIterator __result, input_iterator_tag)
 786:c:\program files\daisytoolchain\arm-none-eabi\include\c++\10.2.1\bits\stl_uninitialized.h ****     {
 787:c:\program files\daisytoolchain\arm-none-eabi\include\c++\10.2.1\bits\stl_uninitialized.h ****       _ForwardIterator __cur = __result;
 788:c:\program files\daisytoolchain\arm-none-eabi\include\c++\10.2.1\bits\stl_uninitialized.h ****       __try
 789:c:\program files\daisytoolchain\arm-none-eabi\include\c++\10.2.1\bits\stl_uninitialized.h **** 	{
 790:c:\program files\daisytoolchain\arm-none-eabi\include\c++\10.2.1\bits\stl_uninitialized.h **** 	  for (; __n > 0; --__n, (void) ++__first, ++__cur)
 791:c:\program files\daisytoolchain\arm-none-eabi\include\c++\10.2.1\bits\stl_uninitialized.h **** 	    std::_Construct(std::__addressof(*__cur), *__first);
 792:c:\program files\daisytoolchain\arm-none-eabi\include\c++\10.2.1\bits\stl_uninitialized.h **** 	  return __cur;
 793:c:\program files\daisytoolchain\arm-none-eabi\include\c++\10.2.1\bits\stl_uninitialized.h **** 	}
 794:c:\program files\daisytoolchain\arm-none-eabi\include\c++\10.2.1\bits\stl_uninitialized.h ****       __catch(...)
 795:c:\program files\daisytoolchain\arm-none-eabi\include\c++\10.2.1\bits\stl_uninitialized.h **** 	{
 796:c:\program files\daisytoolchain\arm-none-eabi\include\c++\10.2.1\bits\stl_uninitialized.h **** 	  std::_Destroy(__result, __cur);
 797:c:\program files\daisytoolchain\arm-none-eabi\include\c++\10.2.1\bits\stl_uninitialized.h **** 	  __throw_exception_again;
 798:c:\program files\daisytoolchain\arm-none-eabi\include\c++\10.2.1\bits\stl_uninitialized.h **** 	}
 799:c:\program files\daisytoolchain\arm-none-eabi\include\c++\10.2.1\bits\stl_uninitialized.h ****     }
 800:c:\program files\daisytoolchain\arm-none-eabi\include\c++\10.2.1\bits\stl_uninitialized.h **** 
 801:c:\program files\daisytoolchain\arm-none-eabi\include\c++\10.2.1\bits\stl_uninitialized.h ****   template<typename _RandomAccessIterator, typename _Size,
 802:c:\program files\daisytoolchain\arm-none-eabi\include\c++\10.2.1\bits\stl_uninitialized.h **** 	   typename _ForwardIterator>
 803:c:\program files\daisytoolchain\arm-none-eabi\include\c++\10.2.1\bits\stl_uninitialized.h ****     inline _ForwardIterator
 804:c:\program files\daisytoolchain\arm-none-eabi\include\c++\10.2.1\bits\stl_uninitialized.h ****     __uninitialized_copy_n(_RandomAccessIterator __first, _Size __n,
 805:c:\program files\daisytoolchain\arm-none-eabi\include\c++\10.2.1\bits\stl_uninitialized.h **** 			   _ForwardIterator __result,
 806:c:\program files\daisytoolchain\arm-none-eabi\include\c++\10.2.1\bits\stl_uninitialized.h **** 			   random_access_iterator_tag)
 807:c:\program files\daisytoolchain\arm-none-eabi\include\c++\10.2.1\bits\stl_uninitialized.h ****     { return std::uninitialized_copy(__first, __first + __n, __result); }
 808:c:\program files\daisytoolchain\arm-none-eabi\include\c++\10.2.1\bits\stl_uninitialized.h **** 
 809:c:\program files\daisytoolchain\arm-none-eabi\include\c++\10.2.1\bits\stl_uninitialized.h ****   template<typename _InputIterator, typename _Size,
 810:c:\program files\daisytoolchain\arm-none-eabi\include\c++\10.2.1\bits\stl_uninitialized.h **** 	   typename _ForwardIterator>
 811:c:\program files\daisytoolchain\arm-none-eabi\include\c++\10.2.1\bits\stl_uninitialized.h ****     pair<_InputIterator, _ForwardIterator>
 812:c:\program files\daisytoolchain\arm-none-eabi\include\c++\10.2.1\bits\stl_uninitialized.h ****     __uninitialized_copy_n_pair(_InputIterator __first, _Size __n,
 813:c:\program files\daisytoolchain\arm-none-eabi\include\c++\10.2.1\bits\stl_uninitialized.h **** 			   _ForwardIterator __result, input_iterator_tag)
 814:c:\program files\daisytoolchain\arm-none-eabi\include\c++\10.2.1\bits\stl_uninitialized.h ****     {
 815:c:\program files\daisytoolchain\arm-none-eabi\include\c++\10.2.1\bits\stl_uninitialized.h ****       _ForwardIterator __cur = __result;
ARM GAS  C:\Users\samue\AppData\Local\Temp\cci865ja.s 			page 145


 816:c:\program files\daisytoolchain\arm-none-eabi\include\c++\10.2.1\bits\stl_uninitialized.h ****       __try
 817:c:\program files\daisytoolchain\arm-none-eabi\include\c++\10.2.1\bits\stl_uninitialized.h **** 	{
 818:c:\program files\daisytoolchain\arm-none-eabi\include\c++\10.2.1\bits\stl_uninitialized.h **** 	  for (; __n > 0; --__n, (void) ++__first, ++__cur)
 819:c:\program files\daisytoolchain\arm-none-eabi\include\c++\10.2.1\bits\stl_uninitialized.h **** 	    std::_Construct(std::__addressof(*__cur), *__first);
 820:c:\program files\daisytoolchain\arm-none-eabi\include\c++\10.2.1\bits\stl_uninitialized.h **** 	  return {__first, __cur};
 821:c:\program files\daisytoolchain\arm-none-eabi\include\c++\10.2.1\bits\stl_uninitialized.h **** 	}
 822:c:\program files\daisytoolchain\arm-none-eabi\include\c++\10.2.1\bits\stl_uninitialized.h ****       __catch(...)
 823:c:\program files\daisytoolchain\arm-none-eabi\include\c++\10.2.1\bits\stl_uninitialized.h **** 	{
 824:c:\program files\daisytoolchain\arm-none-eabi\include\c++\10.2.1\bits\stl_uninitialized.h **** 	  std::_Destroy(__result, __cur);
 825:c:\program files\daisytoolchain\arm-none-eabi\include\c++\10.2.1\bits\stl_uninitialized.h **** 	  __throw_exception_again;
 826:c:\program files\daisytoolchain\arm-none-eabi\include\c++\10.2.1\bits\stl_uninitialized.h **** 	}
 827:c:\program files\daisytoolchain\arm-none-eabi\include\c++\10.2.1\bits\stl_uninitialized.h ****     }
 828:c:\program files\daisytoolchain\arm-none-eabi\include\c++\10.2.1\bits\stl_uninitialized.h **** 
 829:c:\program files\daisytoolchain\arm-none-eabi\include\c++\10.2.1\bits\stl_uninitialized.h ****   template<typename _RandomAccessIterator, typename _Size,
 830:c:\program files\daisytoolchain\arm-none-eabi\include\c++\10.2.1\bits\stl_uninitialized.h **** 	   typename _ForwardIterator>
 831:c:\program files\daisytoolchain\arm-none-eabi\include\c++\10.2.1\bits\stl_uninitialized.h ****     inline pair<_RandomAccessIterator, _ForwardIterator>
 832:c:\program files\daisytoolchain\arm-none-eabi\include\c++\10.2.1\bits\stl_uninitialized.h ****     __uninitialized_copy_n_pair(_RandomAccessIterator __first, _Size __n,
 833:c:\program files\daisytoolchain\arm-none-eabi\include\c++\10.2.1\bits\stl_uninitialized.h **** 			   _ForwardIterator __result,
 834:c:\program files\daisytoolchain\arm-none-eabi\include\c++\10.2.1\bits\stl_uninitialized.h **** 			   random_access_iterator_tag)
 835:c:\program files\daisytoolchain\arm-none-eabi\include\c++\10.2.1\bits\stl_uninitialized.h ****     {
 836:c:\program files\daisytoolchain\arm-none-eabi\include\c++\10.2.1\bits\stl_uninitialized.h ****       auto __second_res = uninitialized_copy(__first, __first + __n, __result);
 837:c:\program files\daisytoolchain\arm-none-eabi\include\c++\10.2.1\bits\stl_uninitialized.h ****       auto __first_res = std::next(__first, __n);
 838:c:\program files\daisytoolchain\arm-none-eabi\include\c++\10.2.1\bits\stl_uninitialized.h ****       return {__first_res, __second_res};
 839:c:\program files\daisytoolchain\arm-none-eabi\include\c++\10.2.1\bits\stl_uninitialized.h ****     }
 840:c:\program files\daisytoolchain\arm-none-eabi\include\c++\10.2.1\bits\stl_uninitialized.h **** 
 841:c:\program files\daisytoolchain\arm-none-eabi\include\c++\10.2.1\bits\stl_uninitialized.h ****   /// @endcond
 842:c:\program files\daisytoolchain\arm-none-eabi\include\c++\10.2.1\bits\stl_uninitialized.h **** 
 843:c:\program files\daisytoolchain\arm-none-eabi\include\c++\10.2.1\bits\stl_uninitialized.h ****   /**
 844:c:\program files\daisytoolchain\arm-none-eabi\include\c++\10.2.1\bits\stl_uninitialized.h ****    *  @brief Copies the range [first,first+n) into result.
 845:c:\program files\daisytoolchain\arm-none-eabi\include\c++\10.2.1\bits\stl_uninitialized.h ****    *  @param  __first  An input iterator.
 846:c:\program files\daisytoolchain\arm-none-eabi\include\c++\10.2.1\bits\stl_uninitialized.h ****    *  @param  __n      The number of elements to copy.
 847:c:\program files\daisytoolchain\arm-none-eabi\include\c++\10.2.1\bits\stl_uninitialized.h ****    *  @param  __result An output iterator.
 848:c:\program files\daisytoolchain\arm-none-eabi\include\c++\10.2.1\bits\stl_uninitialized.h ****    *  @return  __result + __n
 849:c:\program files\daisytoolchain\arm-none-eabi\include\c++\10.2.1\bits\stl_uninitialized.h ****    *
 850:c:\program files\daisytoolchain\arm-none-eabi\include\c++\10.2.1\bits\stl_uninitialized.h ****    *  Like copy_n(), but does not require an initialized output range.
 851:c:\program files\daisytoolchain\arm-none-eabi\include\c++\10.2.1\bits\stl_uninitialized.h ****   */
 852:c:\program files\daisytoolchain\arm-none-eabi\include\c++\10.2.1\bits\stl_uninitialized.h ****   template<typename _InputIterator, typename _Size, typename _ForwardIterator>
 853:c:\program files\daisytoolchain\arm-none-eabi\include\c++\10.2.1\bits\stl_uninitialized.h ****     inline _ForwardIterator
 854:c:\program files\daisytoolchain\arm-none-eabi\include\c++\10.2.1\bits\stl_uninitialized.h ****     uninitialized_copy_n(_InputIterator __first, _Size __n,
 855:c:\program files\daisytoolchain\arm-none-eabi\include\c++\10.2.1\bits\stl_uninitialized.h **** 			 _ForwardIterator __result)
 856:c:\program files\daisytoolchain\arm-none-eabi\include\c++\10.2.1\bits\stl_uninitialized.h ****     { return std::__uninitialized_copy_n(__first, __n, __result,
 857:c:\program files\daisytoolchain\arm-none-eabi\include\c++\10.2.1\bits\stl_uninitialized.h **** 					 std::__iterator_category(__first)); }
 858:c:\program files\daisytoolchain\arm-none-eabi\include\c++\10.2.1\bits\stl_uninitialized.h **** 
 859:c:\program files\daisytoolchain\arm-none-eabi\include\c++\10.2.1\bits\stl_uninitialized.h ****   /// @cond undocumented
 860:c:\program files\daisytoolchain\arm-none-eabi\include\c++\10.2.1\bits\stl_uninitialized.h ****   template<typename _InputIterator, typename _Size, typename _ForwardIterator>
 861:c:\program files\daisytoolchain\arm-none-eabi\include\c++\10.2.1\bits\stl_uninitialized.h ****     inline pair<_InputIterator, _ForwardIterator>
 862:c:\program files\daisytoolchain\arm-none-eabi\include\c++\10.2.1\bits\stl_uninitialized.h ****     __uninitialized_copy_n_pair(_InputIterator __first, _Size __n,
 863:c:\program files\daisytoolchain\arm-none-eabi\include\c++\10.2.1\bits\stl_uninitialized.h **** 			      _ForwardIterator __result)
 864:c:\program files\daisytoolchain\arm-none-eabi\include\c++\10.2.1\bits\stl_uninitialized.h ****     {
 865:c:\program files\daisytoolchain\arm-none-eabi\include\c++\10.2.1\bits\stl_uninitialized.h ****       return
 866:c:\program files\daisytoolchain\arm-none-eabi\include\c++\10.2.1\bits\stl_uninitialized.h **** 	std::__uninitialized_copy_n_pair(__first, __n, __result,
 867:c:\program files\daisytoolchain\arm-none-eabi\include\c++\10.2.1\bits\stl_uninitialized.h **** 					 std::__iterator_category(__first));
 868:c:\program files\daisytoolchain\arm-none-eabi\include\c++\10.2.1\bits\stl_uninitialized.h ****     }
 869:c:\program files\daisytoolchain\arm-none-eabi\include\c++\10.2.1\bits\stl_uninitialized.h ****   /// @endcond
 870:c:\program files\daisytoolchain\arm-none-eabi\include\c++\10.2.1\bits\stl_uninitialized.h **** #endif
 871:c:\program files\daisytoolchain\arm-none-eabi\include\c++\10.2.1\bits\stl_uninitialized.h **** 
 872:c:\program files\daisytoolchain\arm-none-eabi\include\c++\10.2.1\bits\stl_uninitialized.h **** #if __cplusplus >= 201703L
ARM GAS  C:\Users\samue\AppData\Local\Temp\cci865ja.s 			page 146


 873:c:\program files\daisytoolchain\arm-none-eabi\include\c++\10.2.1\bits\stl_uninitialized.h **** # define __cpp_lib_raw_memory_algorithms 201606L
 874:c:\program files\daisytoolchain\arm-none-eabi\include\c++\10.2.1\bits\stl_uninitialized.h **** 
 875:c:\program files\daisytoolchain\arm-none-eabi\include\c++\10.2.1\bits\stl_uninitialized.h ****   /**
 876:c:\program files\daisytoolchain\arm-none-eabi\include\c++\10.2.1\bits\stl_uninitialized.h ****    *  @brief Default-initializes objects in the range [first,last).
 877:c:\program files\daisytoolchain\arm-none-eabi\include\c++\10.2.1\bits\stl_uninitialized.h ****    *  @param  __first  A forward iterator.
 878:c:\program files\daisytoolchain\arm-none-eabi\include\c++\10.2.1\bits\stl_uninitialized.h ****    *  @param  __last   A forward iterator.
 879:c:\program files\daisytoolchain\arm-none-eabi\include\c++\10.2.1\bits\stl_uninitialized.h ****   */
 880:c:\program files\daisytoolchain\arm-none-eabi\include\c++\10.2.1\bits\stl_uninitialized.h ****   template <typename _ForwardIterator>
 881:c:\program files\daisytoolchain\arm-none-eabi\include\c++\10.2.1\bits\stl_uninitialized.h ****     inline void
 882:c:\program files\daisytoolchain\arm-none-eabi\include\c++\10.2.1\bits\stl_uninitialized.h ****     uninitialized_default_construct(_ForwardIterator __first,
 883:c:\program files\daisytoolchain\arm-none-eabi\include\c++\10.2.1\bits\stl_uninitialized.h **** 				    _ForwardIterator __last)
 884:c:\program files\daisytoolchain\arm-none-eabi\include\c++\10.2.1\bits\stl_uninitialized.h ****     {
 885:c:\program files\daisytoolchain\arm-none-eabi\include\c++\10.2.1\bits\stl_uninitialized.h ****       __uninitialized_default_novalue(__first, __last);
 886:c:\program files\daisytoolchain\arm-none-eabi\include\c++\10.2.1\bits\stl_uninitialized.h ****     }
 887:c:\program files\daisytoolchain\arm-none-eabi\include\c++\10.2.1\bits\stl_uninitialized.h **** 
 888:c:\program files\daisytoolchain\arm-none-eabi\include\c++\10.2.1\bits\stl_uninitialized.h ****   /**
 889:c:\program files\daisytoolchain\arm-none-eabi\include\c++\10.2.1\bits\stl_uninitialized.h ****    *  @brief Default-initializes objects in the range [first,first+count).
 890:c:\program files\daisytoolchain\arm-none-eabi\include\c++\10.2.1\bits\stl_uninitialized.h ****    *  @param  __first  A forward iterator.
 891:c:\program files\daisytoolchain\arm-none-eabi\include\c++\10.2.1\bits\stl_uninitialized.h ****    *  @param  __count  The number of objects to construct.
 892:c:\program files\daisytoolchain\arm-none-eabi\include\c++\10.2.1\bits\stl_uninitialized.h ****    *  @return   __first + __count
 893:c:\program files\daisytoolchain\arm-none-eabi\include\c++\10.2.1\bits\stl_uninitialized.h ****   */
 894:c:\program files\daisytoolchain\arm-none-eabi\include\c++\10.2.1\bits\stl_uninitialized.h ****   template <typename _ForwardIterator, typename _Size>
 895:c:\program files\daisytoolchain\arm-none-eabi\include\c++\10.2.1\bits\stl_uninitialized.h ****     inline _ForwardIterator
 896:c:\program files\daisytoolchain\arm-none-eabi\include\c++\10.2.1\bits\stl_uninitialized.h ****     uninitialized_default_construct_n(_ForwardIterator __first, _Size __count)
 897:c:\program files\daisytoolchain\arm-none-eabi\include\c++\10.2.1\bits\stl_uninitialized.h ****     {
 898:c:\program files\daisytoolchain\arm-none-eabi\include\c++\10.2.1\bits\stl_uninitialized.h ****       return __uninitialized_default_novalue_n(__first, __count);
 899:c:\program files\daisytoolchain\arm-none-eabi\include\c++\10.2.1\bits\stl_uninitialized.h ****     }
 900:c:\program files\daisytoolchain\arm-none-eabi\include\c++\10.2.1\bits\stl_uninitialized.h **** 
 901:c:\program files\daisytoolchain\arm-none-eabi\include\c++\10.2.1\bits\stl_uninitialized.h ****   /**
 902:c:\program files\daisytoolchain\arm-none-eabi\include\c++\10.2.1\bits\stl_uninitialized.h ****    *  @brief Value-initializes objects in the range [first,last).
 903:c:\program files\daisytoolchain\arm-none-eabi\include\c++\10.2.1\bits\stl_uninitialized.h ****    *  @param  __first  A forward iterator.
 904:c:\program files\daisytoolchain\arm-none-eabi\include\c++\10.2.1\bits\stl_uninitialized.h ****    *  @param  __last   A forward iterator.
 905:c:\program files\daisytoolchain\arm-none-eabi\include\c++\10.2.1\bits\stl_uninitialized.h ****   */
 906:c:\program files\daisytoolchain\arm-none-eabi\include\c++\10.2.1\bits\stl_uninitialized.h ****   template <typename _ForwardIterator>
 907:c:\program files\daisytoolchain\arm-none-eabi\include\c++\10.2.1\bits\stl_uninitialized.h ****     inline void
 908:c:\program files\daisytoolchain\arm-none-eabi\include\c++\10.2.1\bits\stl_uninitialized.h ****     uninitialized_value_construct(_ForwardIterator __first,
 909:c:\program files\daisytoolchain\arm-none-eabi\include\c++\10.2.1\bits\stl_uninitialized.h **** 				  _ForwardIterator __last)
 910:c:\program files\daisytoolchain\arm-none-eabi\include\c++\10.2.1\bits\stl_uninitialized.h ****     {
 911:c:\program files\daisytoolchain\arm-none-eabi\include\c++\10.2.1\bits\stl_uninitialized.h ****       return __uninitialized_default(__first, __last);
 912:c:\program files\daisytoolchain\arm-none-eabi\include\c++\10.2.1\bits\stl_uninitialized.h ****     }
 913:c:\program files\daisytoolchain\arm-none-eabi\include\c++\10.2.1\bits\stl_uninitialized.h **** 
 914:c:\program files\daisytoolchain\arm-none-eabi\include\c++\10.2.1\bits\stl_uninitialized.h ****   /**
 915:c:\program files\daisytoolchain\arm-none-eabi\include\c++\10.2.1\bits\stl_uninitialized.h ****    *  @brief Value-initializes objects in the range [first,first+count).
 916:c:\program files\daisytoolchain\arm-none-eabi\include\c++\10.2.1\bits\stl_uninitialized.h ****    *  @param  __first  A forward iterator.
 917:c:\program files\daisytoolchain\arm-none-eabi\include\c++\10.2.1\bits\stl_uninitialized.h ****    *  @param  __count  The number of objects to construct.
 918:c:\program files\daisytoolchain\arm-none-eabi\include\c++\10.2.1\bits\stl_uninitialized.h ****    *  @return   __result + __count
 919:c:\program files\daisytoolchain\arm-none-eabi\include\c++\10.2.1\bits\stl_uninitialized.h ****   */
 920:c:\program files\daisytoolchain\arm-none-eabi\include\c++\10.2.1\bits\stl_uninitialized.h ****   template <typename _ForwardIterator, typename _Size>
 921:c:\program files\daisytoolchain\arm-none-eabi\include\c++\10.2.1\bits\stl_uninitialized.h ****     inline _ForwardIterator
 922:c:\program files\daisytoolchain\arm-none-eabi\include\c++\10.2.1\bits\stl_uninitialized.h ****     uninitialized_value_construct_n(_ForwardIterator __first, _Size __count)
 923:c:\program files\daisytoolchain\arm-none-eabi\include\c++\10.2.1\bits\stl_uninitialized.h ****     {
 924:c:\program files\daisytoolchain\arm-none-eabi\include\c++\10.2.1\bits\stl_uninitialized.h ****       return __uninitialized_default_n(__first, __count);
 925:c:\program files\daisytoolchain\arm-none-eabi\include\c++\10.2.1\bits\stl_uninitialized.h ****     }
 926:c:\program files\daisytoolchain\arm-none-eabi\include\c++\10.2.1\bits\stl_uninitialized.h **** 
 927:c:\program files\daisytoolchain\arm-none-eabi\include\c++\10.2.1\bits\stl_uninitialized.h ****   /**
 928:c:\program files\daisytoolchain\arm-none-eabi\include\c++\10.2.1\bits\stl_uninitialized.h ****    *  @brief Move-construct from the range [first,last) into result.
 929:c:\program files\daisytoolchain\arm-none-eabi\include\c++\10.2.1\bits\stl_uninitialized.h ****    *  @param  __first  An input iterator.
ARM GAS  C:\Users\samue\AppData\Local\Temp\cci865ja.s 			page 147


 930:c:\program files\daisytoolchain\arm-none-eabi\include\c++\10.2.1\bits\stl_uninitialized.h ****    *  @param  __last   An input iterator.
 931:c:\program files\daisytoolchain\arm-none-eabi\include\c++\10.2.1\bits\stl_uninitialized.h ****    *  @param  __result An output iterator.
 932:c:\program files\daisytoolchain\arm-none-eabi\include\c++\10.2.1\bits\stl_uninitialized.h ****    *  @return   __result + (__first - __last)
 933:c:\program files\daisytoolchain\arm-none-eabi\include\c++\10.2.1\bits\stl_uninitialized.h ****   */
 934:c:\program files\daisytoolchain\arm-none-eabi\include\c++\10.2.1\bits\stl_uninitialized.h ****   template <typename _InputIterator, typename _ForwardIterator>
 935:c:\program files\daisytoolchain\arm-none-eabi\include\c++\10.2.1\bits\stl_uninitialized.h ****     inline _ForwardIterator
 936:c:\program files\daisytoolchain\arm-none-eabi\include\c++\10.2.1\bits\stl_uninitialized.h ****     uninitialized_move(_InputIterator __first, _InputIterator __last,
 937:c:\program files\daisytoolchain\arm-none-eabi\include\c++\10.2.1\bits\stl_uninitialized.h **** 		       _ForwardIterator __result)
 938:c:\program files\daisytoolchain\arm-none-eabi\include\c++\10.2.1\bits\stl_uninitialized.h ****     {
 939:c:\program files\daisytoolchain\arm-none-eabi\include\c++\10.2.1\bits\stl_uninitialized.h ****       return std::uninitialized_copy
 940:c:\program files\daisytoolchain\arm-none-eabi\include\c++\10.2.1\bits\stl_uninitialized.h **** 	(_GLIBCXX_MAKE_MOVE_ITERATOR(__first),
 941:c:\program files\daisytoolchain\arm-none-eabi\include\c++\10.2.1\bits\stl_uninitialized.h **** 	 _GLIBCXX_MAKE_MOVE_ITERATOR(__last), __result);
 942:c:\program files\daisytoolchain\arm-none-eabi\include\c++\10.2.1\bits\stl_uninitialized.h ****     }
 943:c:\program files\daisytoolchain\arm-none-eabi\include\c++\10.2.1\bits\stl_uninitialized.h **** 
 944:c:\program files\daisytoolchain\arm-none-eabi\include\c++\10.2.1\bits\stl_uninitialized.h ****   /**
 945:c:\program files\daisytoolchain\arm-none-eabi\include\c++\10.2.1\bits\stl_uninitialized.h ****    *  @brief Move-construct from the range [first,first+count) into result.
 946:c:\program files\daisytoolchain\arm-none-eabi\include\c++\10.2.1\bits\stl_uninitialized.h ****    *  @param  __first  An input iterator.
 947:c:\program files\daisytoolchain\arm-none-eabi\include\c++\10.2.1\bits\stl_uninitialized.h ****    *  @param  __count  The number of objects to initialize.
 948:c:\program files\daisytoolchain\arm-none-eabi\include\c++\10.2.1\bits\stl_uninitialized.h ****    *  @param  __result An output iterator.
 949:c:\program files\daisytoolchain\arm-none-eabi\include\c++\10.2.1\bits\stl_uninitialized.h ****    *  @return  __result + __count
 950:c:\program files\daisytoolchain\arm-none-eabi\include\c++\10.2.1\bits\stl_uninitialized.h ****   */
 951:c:\program files\daisytoolchain\arm-none-eabi\include\c++\10.2.1\bits\stl_uninitialized.h ****   template <typename _InputIterator, typename _Size, typename _ForwardIterator>
 952:c:\program files\daisytoolchain\arm-none-eabi\include\c++\10.2.1\bits\stl_uninitialized.h ****     inline pair<_InputIterator, _ForwardIterator>
 953:c:\program files\daisytoolchain\arm-none-eabi\include\c++\10.2.1\bits\stl_uninitialized.h ****     uninitialized_move_n(_InputIterator __first, _Size __count,
 954:c:\program files\daisytoolchain\arm-none-eabi\include\c++\10.2.1\bits\stl_uninitialized.h **** 			 _ForwardIterator __result)
 955:c:\program files\daisytoolchain\arm-none-eabi\include\c++\10.2.1\bits\stl_uninitialized.h ****     {
 956:c:\program files\daisytoolchain\arm-none-eabi\include\c++\10.2.1\bits\stl_uninitialized.h ****       auto __res = std::__uninitialized_copy_n_pair
 957:c:\program files\daisytoolchain\arm-none-eabi\include\c++\10.2.1\bits\stl_uninitialized.h **** 	(_GLIBCXX_MAKE_MOVE_ITERATOR(__first),
 958:c:\program files\daisytoolchain\arm-none-eabi\include\c++\10.2.1\bits\stl_uninitialized.h **** 	 __count, __result);
 959:c:\program files\daisytoolchain\arm-none-eabi\include\c++\10.2.1\bits\stl_uninitialized.h ****       return {__res.first.base(), __res.second};
 960:c:\program files\daisytoolchain\arm-none-eabi\include\c++\10.2.1\bits\stl_uninitialized.h ****     }
 961:c:\program files\daisytoolchain\arm-none-eabi\include\c++\10.2.1\bits\stl_uninitialized.h **** #endif // C++17
 962:c:\program files\daisytoolchain\arm-none-eabi\include\c++\10.2.1\bits\stl_uninitialized.h **** 
 963:c:\program files\daisytoolchain\arm-none-eabi\include\c++\10.2.1\bits\stl_uninitialized.h **** #if __cplusplus >= 201103L
 964:c:\program files\daisytoolchain\arm-none-eabi\include\c++\10.2.1\bits\stl_uninitialized.h ****   /// @cond undocumented
 965:c:\program files\daisytoolchain\arm-none-eabi\include\c++\10.2.1\bits\stl_uninitialized.h **** 
 966:c:\program files\daisytoolchain\arm-none-eabi\include\c++\10.2.1\bits\stl_uninitialized.h ****   template<typename _Tp, typename _Up, typename _Allocator>
 967:c:\program files\daisytoolchain\arm-none-eabi\include\c++\10.2.1\bits\stl_uninitialized.h ****     inline void
 968:c:\program files\daisytoolchain\arm-none-eabi\include\c++\10.2.1\bits\stl_uninitialized.h ****     __relocate_object_a(_Tp* __restrict __dest, _Up* __restrict __orig,
 969:c:\program files\daisytoolchain\arm-none-eabi\include\c++\10.2.1\bits\stl_uninitialized.h **** 			_Allocator& __alloc)
 970:c:\program files\daisytoolchain\arm-none-eabi\include\c++\10.2.1\bits\stl_uninitialized.h ****     noexcept(noexcept(std::allocator_traits<_Allocator>::construct(__alloc,
 971:c:\program files\daisytoolchain\arm-none-eabi\include\c++\10.2.1\bits\stl_uninitialized.h **** 			 __dest, std::move(*__orig)))
 972:c:\program files\daisytoolchain\arm-none-eabi\include\c++\10.2.1\bits\stl_uninitialized.h **** 	     && noexcept(std::allocator_traits<_Allocator>::destroy(
 973:c:\program files\daisytoolchain\arm-none-eabi\include\c++\10.2.1\bits\stl_uninitialized.h **** 			    __alloc, std::__addressof(*__orig))))
 974:c:\program files\daisytoolchain\arm-none-eabi\include\c++\10.2.1\bits\stl_uninitialized.h ****     {
 975:c:\program files\daisytoolchain\arm-none-eabi\include\c++\10.2.1\bits\stl_uninitialized.h ****       typedef std::allocator_traits<_Allocator> __traits;
 976:c:\program files\daisytoolchain\arm-none-eabi\include\c++\10.2.1\bits\stl_uninitialized.h ****       __traits::construct(__alloc, __dest, std::move(*__orig));
 977:c:\program files\daisytoolchain\arm-none-eabi\include\c++\10.2.1\bits\stl_uninitialized.h ****       __traits::destroy(__alloc, std::__addressof(*__orig));
 978:c:\program files\daisytoolchain\arm-none-eabi\include\c++\10.2.1\bits\stl_uninitialized.h ****     }
 979:c:\program files\daisytoolchain\arm-none-eabi\include\c++\10.2.1\bits\stl_uninitialized.h **** 
 980:c:\program files\daisytoolchain\arm-none-eabi\include\c++\10.2.1\bits\stl_uninitialized.h ****   // This class may be specialized for specific types.
 981:c:\program files\daisytoolchain\arm-none-eabi\include\c++\10.2.1\bits\stl_uninitialized.h ****   // Also known as is_trivially_relocatable.
 982:c:\program files\daisytoolchain\arm-none-eabi\include\c++\10.2.1\bits\stl_uninitialized.h ****   template<typename _Tp, typename = void>
 983:c:\program files\daisytoolchain\arm-none-eabi\include\c++\10.2.1\bits\stl_uninitialized.h ****     struct __is_bitwise_relocatable
 984:c:\program files\daisytoolchain\arm-none-eabi\include\c++\10.2.1\bits\stl_uninitialized.h ****     : is_trivial<_Tp> { };
 985:c:\program files\daisytoolchain\arm-none-eabi\include\c++\10.2.1\bits\stl_uninitialized.h **** 
 986:c:\program files\daisytoolchain\arm-none-eabi\include\c++\10.2.1\bits\stl_uninitialized.h ****   template <typename _Tp, typename _Up>
ARM GAS  C:\Users\samue\AppData\Local\Temp\cci865ja.s 			page 148


 987:c:\program files\daisytoolchain\arm-none-eabi\include\c++\10.2.1\bits\stl_uninitialized.h ****     inline __enable_if_t<std::__is_bitwise_relocatable<_Tp>::value, _Tp*>
 988:c:\program files\daisytoolchain\arm-none-eabi\include\c++\10.2.1\bits\stl_uninitialized.h ****     __relocate_a_1(_Tp* __first, _Tp* __last,
 989:c:\program files\daisytoolchain\arm-none-eabi\include\c++\10.2.1\bits\stl_uninitialized.h **** 		   _Tp* __result, allocator<_Up>&) noexcept
 990:c:\program files\daisytoolchain\arm-none-eabi\include\c++\10.2.1\bits\stl_uninitialized.h ****     {
 991:c:\program files\daisytoolchain\arm-none-eabi\include\c++\10.2.1\bits\stl_uninitialized.h ****       ptrdiff_t __count = __last - __first;
 992:c:\program files\daisytoolchain\arm-none-eabi\include\c++\10.2.1\bits\stl_uninitialized.h ****       if (__count > 0)
 993:c:\program files\daisytoolchain\arm-none-eabi\include\c++\10.2.1\bits\stl_uninitialized.h **** 	__builtin_memmove(__result, __first, __count * sizeof(_Tp));
 994:c:\program files\daisytoolchain\arm-none-eabi\include\c++\10.2.1\bits\stl_uninitialized.h ****       return __result + __count;
 995:c:\program files\daisytoolchain\arm-none-eabi\include\c++\10.2.1\bits\stl_uninitialized.h ****     }
 996:c:\program files\daisytoolchain\arm-none-eabi\include\c++\10.2.1\bits\stl_uninitialized.h **** 
 997:c:\program files\daisytoolchain\arm-none-eabi\include\c++\10.2.1\bits\stl_uninitialized.h ****   template <typename _InputIterator, typename _ForwardIterator,
 998:c:\program files\daisytoolchain\arm-none-eabi\include\c++\10.2.1\bits\stl_uninitialized.h **** 	    typename _Allocator>
 999:c:\program files\daisytoolchain\arm-none-eabi\include\c++\10.2.1\bits\stl_uninitialized.h ****     inline _ForwardIterator
1000:c:\program files\daisytoolchain\arm-none-eabi\include\c++\10.2.1\bits\stl_uninitialized.h ****     __relocate_a_1(_InputIterator __first, _InputIterator __last,
1001:c:\program files\daisytoolchain\arm-none-eabi\include\c++\10.2.1\bits\stl_uninitialized.h **** 		   _ForwardIterator __result, _Allocator& __alloc)
1002:c:\program files\daisytoolchain\arm-none-eabi\include\c++\10.2.1\bits\stl_uninitialized.h ****     noexcept(noexcept(std::__relocate_object_a(std::addressof(*__result),
1003:c:\program files\daisytoolchain\arm-none-eabi\include\c++\10.2.1\bits\stl_uninitialized.h **** 					       std::addressof(*__first),
1004:c:\program files\daisytoolchain\arm-none-eabi\include\c++\10.2.1\bits\stl_uninitialized.h **** 					       __alloc)))
1005:c:\program files\daisytoolchain\arm-none-eabi\include\c++\10.2.1\bits\stl_uninitialized.h ****     {
1006:c:\program files\daisytoolchain\arm-none-eabi\include\c++\10.2.1\bits\stl_uninitialized.h ****       typedef typename iterator_traits<_InputIterator>::value_type
1007:c:\program files\daisytoolchain\arm-none-eabi\include\c++\10.2.1\bits\stl_uninitialized.h **** 	_ValueType;
1008:c:\program files\daisytoolchain\arm-none-eabi\include\c++\10.2.1\bits\stl_uninitialized.h ****       typedef typename iterator_traits<_ForwardIterator>::value_type
1009:c:\program files\daisytoolchain\arm-none-eabi\include\c++\10.2.1\bits\stl_uninitialized.h **** 	_ValueType2;
1010:c:\program files\daisytoolchain\arm-none-eabi\include\c++\10.2.1\bits\stl_uninitialized.h ****       static_assert(std::is_same<_ValueType, _ValueType2>::value,
1011:c:\program files\daisytoolchain\arm-none-eabi\include\c++\10.2.1\bits\stl_uninitialized.h **** 	  "relocation is only possible for values of the same type");
1012:c:\program files\daisytoolchain\arm-none-eabi\include\c++\10.2.1\bits\stl_uninitialized.h ****       _ForwardIterator __cur = __result;
1013:c:\program files\daisytoolchain\arm-none-eabi\include\c++\10.2.1\bits\stl_uninitialized.h ****       for (; __first != __last; ++__first, (void)++__cur)
 2084              		.loc 13 1013 22 view .LVU520
 2085 0040 4545     		cmp	r5, r8
 2086              	.LBE522:
 2087              	.LBE521:
 2088              	.LBE520:
 2089              	.LBE519:
 2090              	.LBE518:
 2091              	.LBE517:
 2092              	.LBB557:
 2093              	.LBB515:
 2094              	.LBB513:
 2095              		.loc 11 150 4 view .LVU521
 2096 0042 BBE80F00 		ldmia	fp!, {r0, r1, r2, r3}
 2097              	.LVL120:
 2098              		.loc 11 150 4 view .LVU522
 2099 0046 ACE80F00 		stmia	ip!, {r0, r1, r2, r3}
 2100              	.LVL121:
 2101              		.loc 11 150 4 view .LVU523
 2102 004a DBF80030 		ldr	r3, [fp]
 2103 004e CCF80030 		str	r3, [ip]
 2104              	.LVL122:
 2105              		.loc 11 150 4 view .LVU524
 2106              	.LBE513:
 2107              	.LBE515:
 2108              	.LBE557:
 2109              	.LBB558:
 2110              	.LBI517:
 465:c:\program files\daisytoolchain\arm-none-eabi\include\c++\10.2.1\bits\stl_vector.h **** 		  _Tp_alloc_type& __alloc) noexcept
 2111              		.loc 7 465 7 is_stmt 1 view .LVU525
 2112              	.LBB554:
ARM GAS  C:\Users\samue\AppData\Local\Temp\cci865ja.s 			page 149


 2113              	.LBB551:
 2114              	.LBB548:
 2115              	.LBB545:
 2116              	.LBB542:
 2117              		.loc 13 1013 22 view .LVU526
 2118 0052 24D0     		beq	.L139
 2119 0054 09F1140B 		add	fp, r9, #20
 2120              	.LVL123:
 2121              		.loc 13 1013 22 is_stmt 0 view .LVU527
 2122 0058 C246     		mov	r10, r8
 2123              	.LVL124:
 2124              	.L140:
 2125              	.LBB523:
 2126              	.LBI523:
 968:c:\program files\daisytoolchain\arm-none-eabi\include\c++\10.2.1\bits\stl_uninitialized.h **** 			_Allocator& __alloc)
 2127              		.loc 13 968 5 is_stmt 1 view .LVU528
 2128              	.LBB524:
 2129              	.LBB525:
 2130              	.LBI525:
 2131              		.loc 10 507 2 view .LVU529
 2132              	.LBB526:
 2133              	.LBI526:
 148:c:\program files\daisytoolchain\arm-none-eabi\include\c++\10.2.1\ext\new_allocator.h **** 	noexcept(std::is_nothrow_constructible<_Up, _Args...>::value)
 2134              		.loc 11 148 2 view .LVU530
 148:c:\program files\daisytoolchain\arm-none-eabi\include\c++\10.2.1\ext\new_allocator.h **** 	noexcept(std::is_nothrow_constructible<_Up, _Args...>::value)
 2135              		.loc 11 148 2 is_stmt 0 view .LVU531
 2136              	.LBE526:
 2137              	.LBE525:
 2138              	.LBE524:
 2139              	.LBE523:
 2140              	.LBE542:
 2141              	.LBE545:
 2142              	.LBE548:
 2143              	.LBE551:
 2144              	.LBE554:
 2145              	.LBE558:
 2146              		.loc 12 175 3 is_stmt 1 view .LVU532
 2147              	.LBB559:
 2148              	.LBB555:
 2149              	.LBB552:
 2150              	.LBB549:
 2151              	.LBB546:
 2152              	.LBB543:
 2153              	.LBB539:
 2154              	.LBB536:
 2155              	.LBB533:
 2156              	.LBB530:
 2157              	.LBB527:
 2158              		.loc 11 150 4 is_stmt 0 view .LVU533
 2159 005a D646     		mov	lr, r10
 2160 005c ABF1140C 		sub	ip, fp, #20
 2161              	.LBE527:
 2162              	.LBE530:
 2163              	.LBE533:
 2164              	.LBE536:
 2165              	.LBE539:
 2166              		.loc 13 1013 7 view .LVU534
ARM GAS  C:\Users\samue\AppData\Local\Temp\cci865ja.s 			page 150


 2167 0060 0AF1140A 		add	r10, r10, #20
 2168              	.LVL125:
 2169              		.loc 13 1013 22 view .LVU535
 2170 0064 0BF1140B 		add	fp, fp, #20
 2171              	.LBB540:
 2172              	.LBB537:
 2173              	.LBB534:
 2174              	.LBB531:
 2175              	.LBB528:
 2176              		.loc 11 150 4 view .LVU536
 2177 0068 BEE80F00 		ldmia	lr!, {r0, r1, r2, r3}
 2178              	.LVL126:
 2179              		.loc 11 150 4 view .LVU537
 2180              	.LBE528:
 2181              	.LBE531:
 2182              	.LBE534:
 2183              	.LBE537:
 2184              	.LBE540:
 2185              		.loc 13 1013 22 view .LVU538
 2186 006c AA45     		cmp	r10, r5
 2187              	.LBB541:
 2188              	.LBB538:
 2189              	.LBB535:
 2190              	.LBB532:
 2191              	.LBB529:
 2192              		.loc 11 150 4 view .LVU539
 2193 006e ACE80F00 		stmia	ip!, {r0, r1, r2, r3}
 2194 0072 DEF80030 		ldr	r3, [lr]
 2195 0076 CCF80030 		str	r3, [ip]
 2196              	.LVL127:
 2197              		.loc 11 150 4 view .LVU540
 2198              	.LBE529:
 2199              	.LBE532:
 2200              	.LBE535:
 2201              	.LBE538:
 2202              	.LBE541:
 2203              		.loc 13 1013 7 is_stmt 1 view .LVU541
 2204              		.loc 13 1013 22 view .LVU542
 2205 007a EED1     		bne	.L140
 2206              	.LBE543:
 2207              	.LBE546:
 2208              	.LBE549:
 2209              	.LBE552:
 2210              	.LBE555:
 2211              	.LBE559:
 427:c:\program files\daisytoolchain\arm-none-eabi\include\c++\10.2.1\bits\vector.tcc ****       _M_realloc_insert(iterator __position, _Args&&... __args)
 428:c:\program files\daisytoolchain\arm-none-eabi\include\c++\10.2.1\bits\vector.tcc **** #else
 429:c:\program files\daisytoolchain\arm-none-eabi\include\c++\10.2.1\bits\vector.tcc ****   template<typename _Tp, typename _Alloc>
 430:c:\program files\daisytoolchain\arm-none-eabi\include\c++\10.2.1\bits\vector.tcc ****     void
 431:c:\program files\daisytoolchain\arm-none-eabi\include\c++\10.2.1\bits\vector.tcc ****     vector<_Tp, _Alloc>::
 432:c:\program files\daisytoolchain\arm-none-eabi\include\c++\10.2.1\bits\vector.tcc ****     _M_realloc_insert(iterator __position, const _Tp& __x)
 433:c:\program files\daisytoolchain\arm-none-eabi\include\c++\10.2.1\bits\vector.tcc **** #endif
 434:c:\program files\daisytoolchain\arm-none-eabi\include\c++\10.2.1\bits\vector.tcc ****     {
 435:c:\program files\daisytoolchain\arm-none-eabi\include\c++\10.2.1\bits\vector.tcc ****       const size_type __len =
 436:c:\program files\daisytoolchain\arm-none-eabi\include\c++\10.2.1\bits\vector.tcc **** 	_M_check_len(size_type(1), "vector::_M_realloc_insert");
 437:c:\program files\daisytoolchain\arm-none-eabi\include\c++\10.2.1\bits\vector.tcc ****       pointer __old_start = this->_M_impl._M_start;
 438:c:\program files\daisytoolchain\arm-none-eabi\include\c++\10.2.1\bits\vector.tcc ****       pointer __old_finish = this->_M_impl._M_finish;
ARM GAS  C:\Users\samue\AppData\Local\Temp\cci865ja.s 			page 151


 439:c:\program files\daisytoolchain\arm-none-eabi\include\c++\10.2.1\bits\vector.tcc ****       const size_type __elems_before = __position - begin();
 440:c:\program files\daisytoolchain\arm-none-eabi\include\c++\10.2.1\bits\vector.tcc ****       pointer __new_start(this->_M_allocate(__len));
 441:c:\program files\daisytoolchain\arm-none-eabi\include\c++\10.2.1\bits\vector.tcc ****       pointer __new_finish(__new_start);
 442:c:\program files\daisytoolchain\arm-none-eabi\include\c++\10.2.1\bits\vector.tcc ****       __try
 443:c:\program files\daisytoolchain\arm-none-eabi\include\c++\10.2.1\bits\vector.tcc **** 	{
 444:c:\program files\daisytoolchain\arm-none-eabi\include\c++\10.2.1\bits\vector.tcc **** 	  // The order of the three operations is dictated by the C++11
 445:c:\program files\daisytoolchain\arm-none-eabi\include\c++\10.2.1\bits\vector.tcc **** 	  // case, where the moves could alter a new element belonging
 446:c:\program files\daisytoolchain\arm-none-eabi\include\c++\10.2.1\bits\vector.tcc **** 	  // to the existing vector.  This is an issue only for callers
 447:c:\program files\daisytoolchain\arm-none-eabi\include\c++\10.2.1\bits\vector.tcc **** 	  // taking the element by lvalue ref (see last bullet of C++11
 448:c:\program files\daisytoolchain\arm-none-eabi\include\c++\10.2.1\bits\vector.tcc **** 	  // [res.on.arguments]).
 449:c:\program files\daisytoolchain\arm-none-eabi\include\c++\10.2.1\bits\vector.tcc **** 	  _Alloc_traits::construct(this->_M_impl,
 450:c:\program files\daisytoolchain\arm-none-eabi\include\c++\10.2.1\bits\vector.tcc **** 				   __new_start + __elems_before,
 451:c:\program files\daisytoolchain\arm-none-eabi\include\c++\10.2.1\bits\vector.tcc **** #if __cplusplus >= 201103L
 452:c:\program files\daisytoolchain\arm-none-eabi\include\c++\10.2.1\bits\vector.tcc **** 				   std::forward<_Args>(__args)...);
 453:c:\program files\daisytoolchain\arm-none-eabi\include\c++\10.2.1\bits\vector.tcc **** #else
 454:c:\program files\daisytoolchain\arm-none-eabi\include\c++\10.2.1\bits\vector.tcc **** 				   __x);
 455:c:\program files\daisytoolchain\arm-none-eabi\include\c++\10.2.1\bits\vector.tcc **** #endif
 456:c:\program files\daisytoolchain\arm-none-eabi\include\c++\10.2.1\bits\vector.tcc **** 	  __new_finish = pointer();
 457:c:\program files\daisytoolchain\arm-none-eabi\include\c++\10.2.1\bits\vector.tcc **** 
 458:c:\program files\daisytoolchain\arm-none-eabi\include\c++\10.2.1\bits\vector.tcc **** #if __cplusplus >= 201103L
 459:c:\program files\daisytoolchain\arm-none-eabi\include\c++\10.2.1\bits\vector.tcc **** 	  if _GLIBCXX17_CONSTEXPR (_S_use_relocate())
 460:c:\program files\daisytoolchain\arm-none-eabi\include\c++\10.2.1\bits\vector.tcc **** 	    {
 461:c:\program files\daisytoolchain\arm-none-eabi\include\c++\10.2.1\bits\vector.tcc **** 	      __new_finish = _S_relocate(__old_start, __position.base(),
 462:c:\program files\daisytoolchain\arm-none-eabi\include\c++\10.2.1\bits\vector.tcc **** 					 __new_start, _M_get_Tp_allocator());
 463:c:\program files\daisytoolchain\arm-none-eabi\include\c++\10.2.1\bits\vector.tcc **** 
 464:c:\program files\daisytoolchain\arm-none-eabi\include\c++\10.2.1\bits\vector.tcc **** 	      ++__new_finish;
 2212              		.loc 9 464 8 is_stmt 0 view .LVU543
 2213 007c A5F1140A 		sub	r10, r5, #20
 2214              	.LVL128:
 2215              		.loc 9 464 8 view .LVU544
 2216 0080 244B     		ldr	r3, .L153+8
 2217 0082 AAEB080A 		sub	r10, r10, r8
 2218 0086 4FEA9A0A 		lsr	r10, r10, #2
 2219 008a 03FB0AFA 		mul	r10, r3, r10
 2220 008e 2AF0404A 		bic	r10, r10, #-1073741824
 2221 0092 0AF1020A 		add	r10, r10, #2
 2222 0096 0AEB8A0A 		add	r10, r10, r10, lsl #2
 2223 009a 09EB8A0A 		add	r10, r9, r10, lsl #2
 2224              	.LVL129:
 2225              	.L139:
 2226              	.LBB560:
 2227              	.LBI560:
 465:c:\program files\daisytoolchain\arm-none-eabi\include\c++\10.2.1\bits\stl_vector.h **** 		  _Tp_alloc_type& __alloc) noexcept
 2228              		.loc 7 465 7 is_stmt 1 view .LVU545
 2229              	.LBB561:
 2230              	.LBB562:
 2231              	.LBB563:
 2232              	.LBB564:
 2233              	.LBB565:
 2234              		.loc 13 1013 22 view .LVU546
 2235 009e A542     		cmp	r5, r4
 2236 00a0 10D0     		beq	.L141
 2237              	.LBB566:
 2238              	.LBB567:
 2239              	.LBB568:
 2240              	.LBB569:
 2241              	.LBB570:
ARM GAS  C:\Users\samue\AppData\Local\Temp\cci865ja.s 			page 152


 2242              		.loc 11 150 4 is_stmt 0 view .LVU547
 2243 00a2 621B     		subs	r2, r4, r5
 2244 00a4 1B4B     		ldr	r3, .L153+8
 2245 00a6 5046     		mov	r0, r10
 2246 00a8 2946     		mov	r1, r5
 2247 00aa 143A     		subs	r2, r2, #20
 2248 00ac 9208     		lsrs	r2, r2, #2
 2249 00ae 03FB02F2 		mul	r2, r3, r2
 2250 00b2 22F04042 		bic	r2, r2, #-1073741824
 2251 00b6 0132     		adds	r2, r2, #1
 2252 00b8 02EB8202 		add	r2, r2, r2, lsl #2
 2253 00bc 9200     		lsls	r2, r2, #2
 2254              	.LBE570:
 2255              	.LBE569:
 2256              	.LBE568:
 2257              	.LBE567:
 2258              	.LBE566:
 2259              		.loc 13 1013 44 view .LVU548
 2260 00be 9244     		add	r10, r10, r2
 2261              	.LBB575:
 2262              	.LBB574:
 2263              	.LBB573:
 2264              	.LBB572:
 2265              	.LBB571:
 2266              		.loc 11 150 4 view .LVU549
 2267 00c0 FFF7FEFF 		bl	memcpy
 2268              	.LVL130:
 2269              	.L141:
 2270              		.loc 11 150 4 view .LVU550
 2271              	.LBE571:
 2272              	.LBE572:
 2273              	.LBE573:
 2274              	.LBE574:
 2275              	.LBE575:
 2276              	.LBE565:
 2277              	.LBE564:
 2278              	.LBE563:
 2279              	.LBE562:
 2280              	.LBE561:
 2281              	.LBE560:
 2282              	.LBB576:
 2283              	.LBI576:
 350:c:\program files\daisytoolchain\arm-none-eabi\include\c++\10.2.1\bits\stl_vector.h ****       {
 2284              		.loc 7 350 7 is_stmt 1 view .LVU551
 2285              	.LBB577:
 353:c:\program files\daisytoolchain\arm-none-eabi\include\c++\10.2.1\bits\stl_vector.h **** 	  _Tr::deallocate(_M_impl, __p, __n);
 2286              		.loc 7 353 2 is_stmt 0 view .LVU552
 2287 00c4 B8F1000F 		cmp	r8, #0
 2288 00c8 05D0     		beq	.L142
 2289              	.LVL131:
 2290              	.LBB578:
 2291              	.LBI578:
 491:c:\program files\daisytoolchain\arm-none-eabi\include\c++\10.2.1\bits\alloc_traits.h ****       { __a.deallocate(__p, __n); }
 2292              		.loc 10 491 7 is_stmt 1 view .LVU553
 2293              	.LBB579:
 2294              	.LBB580:
 2295              	.LBI580:
ARM GAS  C:\Users\samue\AppData\Local\Temp\cci865ja.s 			page 153


 120:c:\program files\daisytoolchain\arm-none-eabi\include\c++\10.2.1\ext\new_allocator.h ****       {
 2296              		.loc 11 120 7 view .LVU554
 2297              	.LBE580:
 2298              	.LBE579:
 2299              	.LBE578:
 2300              	.LBE577:
 2301              	.LBE576:
 465:c:\program files\daisytoolchain\arm-none-eabi\include\c++\10.2.1\bits\vector.tcc **** 
 466:c:\program files\daisytoolchain\arm-none-eabi\include\c++\10.2.1\bits\vector.tcc **** 	      __new_finish = _S_relocate(__position.base(), __old_finish,
 467:c:\program files\daisytoolchain\arm-none-eabi\include\c++\10.2.1\bits\vector.tcc **** 					 __new_finish, _M_get_Tp_allocator());
 468:c:\program files\daisytoolchain\arm-none-eabi\include\c++\10.2.1\bits\vector.tcc **** 	    }
 469:c:\program files\daisytoolchain\arm-none-eabi\include\c++\10.2.1\bits\vector.tcc **** 	  else
 470:c:\program files\daisytoolchain\arm-none-eabi\include\c++\10.2.1\bits\vector.tcc **** #endif
 471:c:\program files\daisytoolchain\arm-none-eabi\include\c++\10.2.1\bits\vector.tcc **** 	    {
 472:c:\program files\daisytoolchain\arm-none-eabi\include\c++\10.2.1\bits\vector.tcc **** 	      __new_finish
 473:c:\program files\daisytoolchain\arm-none-eabi\include\c++\10.2.1\bits\vector.tcc **** 		= std::__uninitialized_move_if_noexcept_a
 474:c:\program files\daisytoolchain\arm-none-eabi\include\c++\10.2.1\bits\vector.tcc **** 		(__old_start, __position.base(),
 475:c:\program files\daisytoolchain\arm-none-eabi\include\c++\10.2.1\bits\vector.tcc **** 		 __new_start, _M_get_Tp_allocator());
 476:c:\program files\daisytoolchain\arm-none-eabi\include\c++\10.2.1\bits\vector.tcc **** 
 477:c:\program files\daisytoolchain\arm-none-eabi\include\c++\10.2.1\bits\vector.tcc **** 	      ++__new_finish;
 478:c:\program files\daisytoolchain\arm-none-eabi\include\c++\10.2.1\bits\vector.tcc **** 
 479:c:\program files\daisytoolchain\arm-none-eabi\include\c++\10.2.1\bits\vector.tcc **** 	      __new_finish
 480:c:\program files\daisytoolchain\arm-none-eabi\include\c++\10.2.1\bits\vector.tcc **** 		= std::__uninitialized_move_if_noexcept_a
 481:c:\program files\daisytoolchain\arm-none-eabi\include\c++\10.2.1\bits\vector.tcc **** 		(__position.base(), __old_finish,
 482:c:\program files\daisytoolchain\arm-none-eabi\include\c++\10.2.1\bits\vector.tcc **** 		 __new_finish, _M_get_Tp_allocator());
 483:c:\program files\daisytoolchain\arm-none-eabi\include\c++\10.2.1\bits\vector.tcc **** 	    }
 484:c:\program files\daisytoolchain\arm-none-eabi\include\c++\10.2.1\bits\vector.tcc **** 	}
 485:c:\program files\daisytoolchain\arm-none-eabi\include\c++\10.2.1\bits\vector.tcc ****       __catch(...)
 486:c:\program files\daisytoolchain\arm-none-eabi\include\c++\10.2.1\bits\vector.tcc **** 	{
 487:c:\program files\daisytoolchain\arm-none-eabi\include\c++\10.2.1\bits\vector.tcc **** 	  if (!__new_finish)
 488:c:\program files\daisytoolchain\arm-none-eabi\include\c++\10.2.1\bits\vector.tcc **** 	    _Alloc_traits::destroy(this->_M_impl,
 489:c:\program files\daisytoolchain\arm-none-eabi\include\c++\10.2.1\bits\vector.tcc **** 				   __new_start + __elems_before);
 490:c:\program files\daisytoolchain\arm-none-eabi\include\c++\10.2.1\bits\vector.tcc **** 	  else
 491:c:\program files\daisytoolchain\arm-none-eabi\include\c++\10.2.1\bits\vector.tcc **** 	    std::_Destroy(__new_start, __new_finish, _M_get_Tp_allocator());
 492:c:\program files\daisytoolchain\arm-none-eabi\include\c++\10.2.1\bits\vector.tcc **** 	  _M_deallocate(__new_start, __len);
 493:c:\program files\daisytoolchain\arm-none-eabi\include\c++\10.2.1\bits\vector.tcc **** 	  __throw_exception_again;
 494:c:\program files\daisytoolchain\arm-none-eabi\include\c++\10.2.1\bits\vector.tcc **** 	}
 495:c:\program files\daisytoolchain\arm-none-eabi\include\c++\10.2.1\bits\vector.tcc **** #if __cplusplus >= 201103L
 496:c:\program files\daisytoolchain\arm-none-eabi\include\c++\10.2.1\bits\vector.tcc ****       if _GLIBCXX17_CONSTEXPR (!_S_use_relocate())
 497:c:\program files\daisytoolchain\arm-none-eabi\include\c++\10.2.1\bits\vector.tcc **** #endif
 498:c:\program files\daisytoolchain\arm-none-eabi\include\c++\10.2.1\bits\vector.tcc **** 	std::_Destroy(__old_start, __old_finish, _M_get_Tp_allocator());
 499:c:\program files\daisytoolchain\arm-none-eabi\include\c++\10.2.1\bits\vector.tcc ****       _GLIBCXX_ASAN_ANNOTATE_REINIT;
 500:c:\program files\daisytoolchain\arm-none-eabi\include\c++\10.2.1\bits\vector.tcc ****       _M_deallocate(__old_start,
 501:c:\program files\daisytoolchain\arm-none-eabi\include\c++\10.2.1\bits\vector.tcc **** 		    this->_M_impl._M_end_of_storage - __old_start);
 2302              		.loc 9 501 39 is_stmt 0 view .LVU555
 2303 00ca B968     		ldr	r1, [r7, #8]
 2304              	.LBB586:
 2305              	.LBB585:
 2306              	.LBB584:
 2307              	.LBB583:
 2308              	.LBB582:
 2309              	.LBB581:
 133:c:\program files\daisytoolchain\arm-none-eabi\include\c++\10.2.1\ext\new_allocator.h **** #if __cpp_sized_deallocation
 2310              		.loc 11 133 19 view .LVU556
 2311 00cc 4046     		mov	r0, r8
 2312 00ce A1EB0801 		sub	r1, r1, r8
 2313 00d2 FFF7FEFF 		bl	_ZdlPvj
ARM GAS  C:\Users\samue\AppData\Local\Temp\cci865ja.s 			page 154


 2314              	.LVL132:
 2315              	.L142:
 133:c:\program files\daisytoolchain\arm-none-eabi\include\c++\10.2.1\ext\new_allocator.h **** #if __cpp_sized_deallocation
 2316              		.loc 11 133 19 view .LVU557
 2317              	.LBE581:
 2318              	.LBE582:
 2319              	.LBE583:
 2320              	.LBE584:
 2321              	.LBE585:
 2322              	.LBE586:
 502:c:\program files\daisytoolchain\arm-none-eabi\include\c++\10.2.1\bits\vector.tcc ****       this->_M_impl._M_start = __new_start;
 503:c:\program files\daisytoolchain\arm-none-eabi\include\c++\10.2.1\bits\vector.tcc ****       this->_M_impl._M_finish = __new_finish;
 504:c:\program files\daisytoolchain\arm-none-eabi\include\c++\10.2.1\bits\vector.tcc ****       this->_M_impl._M_end_of_storage = __new_start + __len;
 2323              		.loc 9 504 39 view .LVU558
 2324 00d6 BE60     		str	r6, [r7, #8]
 503:c:\program files\daisytoolchain\arm-none-eabi\include\c++\10.2.1\bits\vector.tcc ****       this->_M_impl._M_end_of_storage = __new_start + __len;
 2325              		.loc 9 503 31 view .LVU559
 2326 00d8 C7E9009A 		strd	r9, r10, [r7]
 505:c:\program files\daisytoolchain\arm-none-eabi\include\c++\10.2.1\bits\vector.tcc ****     }
 2327              		.loc 9 505 5 view .LVU560
 2328 00dc 03B0     		add	sp, sp, #12
 2329              		.cfi_remember_state
 2330              		.cfi_def_cfa_offset 36
 2331              		@ sp needed
 2332 00de BDE8F08F 		pop	{r4, r5, r6, r7, r8, r9, r10, fp, pc}
 2333              	.LVL133:
 2334              	.L152:
 2335              		.cfi_restore_state
 2336              	.LBB587:
 2337              	.LBB508:
 2338              	.LBB500:
 2339              	.LBB501:
 2340              	.LBB502:
 115:c:\program files\daisytoolchain\arm-none-eabi\include\c++\10.2.1\ext\new_allocator.h ****       }
 2341              		.loc 11 115 41 view .LVU561
 2342 00e2 8E42     		cmp	r6, r1
 2343 00e4 28BF     		it	cs
 2344 00e6 0E46     		movcs	r6, r1
 2345              	.LVL134:
 115:c:\program files\daisytoolchain\arm-none-eabi\include\c++\10.2.1\ext\new_allocator.h ****       }
 2346              		.loc 11 115 41 view .LVU562
 2347 00e8 06EB8606 		add	r6, r6, r6, lsl #2
 2348 00ec B600     		lsls	r6, r6, #2
 2349              	.LVL135:
 2350              	.L137:
 115:c:\program files\daisytoolchain\arm-none-eabi\include\c++\10.2.1\ext\new_allocator.h ****       }
 2351              		.loc 11 115 41 view .LVU563
 2352 00ee 3046     		mov	r0, r6
 2353              	.LVL136:
 115:c:\program files\daisytoolchain\arm-none-eabi\include\c++\10.2.1\ext\new_allocator.h ****       }
 2354              		.loc 11 115 41 view .LVU564
 2355 00f0 0192     		str	r2, [sp, #4]
 2356              	.LBE502:
 2357              	.LBE501:
 2358              	.LBI500:
 459:c:\program files\daisytoolchain\arm-none-eabi\include\c++\10.2.1\bits\alloc_traits.h ****       { return __a.allocate(__n); }
 2359              		.loc 10 459 7 is_stmt 1 view .LVU565
ARM GAS  C:\Users\samue\AppData\Local\Temp\cci865ja.s 			page 155


 2360              	.LVL137:
 2361              	.LBB505:
 2362              	.LBI501:
 103:c:\program files\daisytoolchain\arm-none-eabi\include\c++\10.2.1\ext\new_allocator.h ****       {
 2363              		.loc 11 103 7 view .LVU566
 2364              	.LBB503:
 115:c:\program files\daisytoolchain\arm-none-eabi\include\c++\10.2.1\ext\new_allocator.h ****       }
 2365              		.loc 11 115 41 is_stmt 0 view .LVU567
 2366 00f2 FFF7FEFF 		bl	_Znwj
 2367              	.LVL138:
 2368              	.LBE503:
 2369              	.LBE505:
 2370              	.LBE500:
 2371 00f6 019A     		ldr	r2, [sp, #4]
 2372              	.LBB507:
 2373              	.LBB506:
 2374              	.LBB504:
 2375 00f8 8146     		mov	r9, r0
 2376              	.LVL139:
 115:c:\program files\daisytoolchain\arm-none-eabi\include\c++\10.2.1\ext\new_allocator.h ****       }
 2377              		.loc 11 115 41 view .LVU568
 2378              	.LBE504:
 2379              	.LBE506:
 2380              	.LBE507:
 2381              	.LBE508:
 2382              	.LBE587:
 504:c:\program files\daisytoolchain\arm-none-eabi\include\c++\10.2.1\bits\vector.tcc ****     }
 2383              		.loc 9 504 53 view .LVU569
 2384 00fa 0644     		add	r6, r6, r0
 2385              	.LBB588:
 2386              	.LBB556:
 2387              	.LBB553:
 2388              	.LBB550:
 2389              	.LBB547:
 2390              	.LBB544:
 2391              		.loc 13 1013 44 view .LVU570
 2392 00fc 00F1140A 		add	r10, r0, #20
 2393              	.LBE544:
 2394              	.LBE547:
 2395              	.LBE550:
 2396              	.LBE553:
 2397              	.LBE556:
 2398              	.LBE588:
 2399              	.LBB589:
 2400              	.LBB509:
 2401 0100 9CE7     		b	.L143
 2402              	.LVL140:
 2403              	.L135:
 2404              		.loc 13 1013 44 view .LVU571
 2405              	.LBE509:
 2406              	.LBE589:
 2407              	.LBB590:
 811:c:\program files\daisytoolchain\arm-none-eabi\include\c++\10.2.1\bits\stl_vector.h ****       { return iterator(this->_M_impl._M_start); }
 2408              		.loc 7 811 7 is_stmt 1 view .LVU572
 2409              	.LBB496:
 978:c:\program files\daisytoolchain\arm-none-eabi\include\c++\10.2.1\bits\stl_iterator.h ****       : _M_current(__i) { }
 2410              		.loc 8 978 7 view .LVU573
ARM GAS  C:\Users\samue\AppData\Local\Temp\cci865ja.s 			page 156


 978:c:\program files\daisytoolchain\arm-none-eabi\include\c++\10.2.1\bits\stl_iterator.h ****       : _M_current(__i) { }
 2411              		.loc 8 978 7 is_stmt 0 view .LVU574
 2412              	.LBE496:
 2413              	.LBE590:
 2414              	.LBB591:
1202:c:\program files\daisytoolchain\arm-none-eabi\include\c++\10.2.1\bits\stl_iterator.h **** 	      const __normal_iterator<_Iterator, _Container>& __rhs)
 2415              		.loc 8 1202 5 is_stmt 1 view .LVU575
1202:c:\program files\daisytoolchain\arm-none-eabi\include\c++\10.2.1\bits\stl_iterator.h **** 	      const __normal_iterator<_Iterator, _Container>& __rhs)
 2416              		.loc 8 1202 5 is_stmt 0 view .LVU576
 2417              	.LBE591:
 2418              	.LBB592:
 343:c:\program files\daisytoolchain\arm-none-eabi\include\c++\10.2.1\bits\stl_vector.h ****       {
 2419              		.loc 7 343 7 is_stmt 1 view .LVU577
 2420              	.LBE592:
 2421              	.LBB593:
 2422              	.LBB493:
 2423              		.loc 8 1205 27 is_stmt 0 view .LVU578
 2424 0102 054E     		ldr	r6, .L153+12
 2425 0104 F3E7     		b	.L137
 2426              	.LVL141:
 2427              	.L151:
 2428              		.loc 8 1205 27 view .LVU579
 2429              	.LBE493:
 2430              	.LBE593:
 2431              	.LBB594:
 2432              	.LBB488:
1759:c:\program files\daisytoolchain\arm-none-eabi\include\c++\10.2.1\bits\stl_vector.h **** 	  __throw_length_error(__N(__s));
 2433              		.loc 7 1759 24 view .LVU580
 2434 0106 0548     		ldr	r0, .L153+16
 2435              	.LVL142:
 2436              		.loc 7 1759 24 view .LVU581
 2437 0108 FFF7FEFF 		bl	_ZSt20__throw_length_errorPKc
 2438              	.LVL143:
 2439              	.L154:
 2440              		.loc 7 1759 24 view .LVU582
 2441              		.align	2
 2442              	.L153:
 2443 010c CDCCCCCC 		.word	-858993459
 2444 0110 66666606 		.word	107374182
 2445 0114 CDCCCC0C 		.word	214748365
 2446 0118 F8FFFF7F 		.word	2147483640
 2447 011c 00000000 		.word	.LC16
 2448              	.LBE488:
 2449              	.LBE594:
 2450              		.cfi_endproc
 2451              	.LFE3158:
 2453              		.section	.text._ZN5daisy11daisyCommon6add_cvEii,"ax",%progbits
 2454              		.align	1
 2455              		.p2align 2,,3
 2456              		.global	_ZN5daisy11daisyCommon6add_cvEii
 2457              		.syntax unified
 2458              		.thumb
 2459              		.thumb_func
 2460              		.fpu fpv5-d16
 2462              	_ZN5daisy11daisyCommon6add_cvEii:
 2463              	.LVL144:
 2464              	.LFB3064:
ARM GAS  C:\Users\samue\AppData\Local\Temp\cci865ja.s 			page 157


  96:daisy_common.cpp **** {
 2465              		.loc 1 96 1 is_stmt 1 view -0
 2466              		.cfi_startproc
 2467              		@ args = 0, pretend = 0, frame = 24
 2468              		@ frame_needed = 0, uses_anonymous_args = 0
  97:daisy_common.cpp ****     struct cv ctrl;
 2469              		.loc 1 97 5 view .LVU584
  96:daisy_common.cpp **** {
 2470              		.loc 1 96 1 is_stmt 0 view .LVU585
 2471 0000 30B5     		push	{r4, r5, lr}
 2472              		.cfi_def_cfa_offset 12
 2473              		.cfi_offset 4, -12
 2474              		.cfi_offset 5, -8
 2475              		.cfi_offset 14, -4
 2476 0002 87B0     		sub	sp, sp, #28
 2477              		.cfi_def_cfa_offset 40
 2478              	.LVL145:
 2479              	.LBB609:
 2480              	.LBI609:
   6:daisy_common.h **** {
 2481              		.loc 3 6 8 is_stmt 1 view .LVU586
 2482              	.LBB610:
 2483              	.LBI610:
 272:../../DaisyExamples/libDaisy//src/daisy_core.h **** 
 2484              		.loc 4 272 15 view .LVU587
 272:../../DaisyExamples/libDaisy//src/daisy_core.h **** 
 2485              		.loc 4 272 15 is_stmt 0 view .LVU588
 2486              	.LBE610:
 2487              	.LBE609:
  98:daisy_common.cpp ****     ctrl.user_name = user_name;
 2488              		.loc 1 98 5 is_stmt 1 view .LVU589
 2489              	.LBB611:
 2490              	.LBB612:
 107:daisy_common.cpp ****     Pin pin;
 2491              		.loc 1 107 9 is_stmt 0 view .LVU590
 2492 0004 082A     		cmp	r2, #8
 2493              	.LBE612:
 2494              	.LBE611:
  98:daisy_common.cpp ****     ctrl.user_name = user_name;
 2495              		.loc 1 98 20 view .LVU591
 2496 0006 0191     		str	r1, [sp, #4]
  99:daisy_common.cpp ****     ctrl.jack = jack;
 2497              		.loc 1 99 5 is_stmt 1 view .LVU592
  99:daisy_common.cpp ****     ctrl.jack = jack;
 2498              		.loc 1 99 15 is_stmt 0 view .LVU593
 2499 0008 0292     		str	r2, [sp, #8]
 100:daisy_common.cpp ****     ctrl.adc_channel_num = cvs.size();
 2500              		.loc 1 100 5 is_stmt 1 view .LVU594
 2501              	.LVL146:
 2502              	.LBB616:
 2503              	.LBI616:
 918:c:\program files\daisytoolchain\arm-none-eabi\include\c++\10.2.1\bits\stl_vector.h ****       { return size_type(this->_M_impl._M_finish - this->_M_impl._M_start); }
 2504              		.loc 7 918 7 view .LVU595
 2505              	.LBB617:
 919:c:\program files\daisytoolchain\arm-none-eabi\include\c++\10.2.1\bits\stl_vector.h **** 
 2506              		.loc 7 919 50 is_stmt 0 view .LVU596
 2507 000a 164A     		ldr	r2, .L161
ARM GAS  C:\Users\samue\AppData\Local\Temp\cci865ja.s 			page 158


 2508              	.LVL147:
 919:c:\program files\daisytoolchain\arm-none-eabi\include\c++\10.2.1\bits\stl_vector.h **** 
 2509              		.loc 7 919 50 view .LVU597
 2510 000c D0E90031 		ldrd	r3, r1, [r0]
 2511              	.LVL148:
 919:c:\program files\daisytoolchain\arm-none-eabi\include\c++\10.2.1\bits\stl_vector.h **** 
 2512              		.loc 7 919 50 view .LVU598
 2513 0010 A1EB0303 		sub	r3, r1, r3
 2514 0014 4FEAA303 		asr	r3, r3, #2
 2515 0018 02FB03F3 		mul	r3, r2, r3
 2516              	.LBE617:
 2517              	.LBE616:
 2518              	.LBB618:
 2519              	.LBB613:
 107:daisy_common.cpp ****     Pin pin;
 2520              		.loc 1 107 9 view .LVU599
 2521 001c 34BF     		ite	cc
 2522 001e 0422     		movcc	r2, #4
 2523 0020 FF22     		movcs	r2, #255
 2524              	.LBE613:
 2525              	.LBE618:
 100:daisy_common.cpp ****     ctrl.adc_channel_num = cvs.size();
 2526              		.loc 1 100 26 view .LVU600
 2527 0022 0393     		str	r3, [sp, #12]
 101:daisy_common.cpp ****     ctrl.pin = getCVPin(jack);
 2528              		.loc 1 101 5 is_stmt 1 view .LVU601
 2529              	.LVL149:
 2530              	.LBB619:
 2531              	.LBI611:
 105:daisy_common.cpp **** Pin daisyCommon::getCVPin(int jack)
 2532              		.loc 1 105 5 view .LVU602
 2533              	.LBB614:
 107:daisy_common.cpp ****     Pin pin;
 2534              		.loc 1 107 5 view .LVU603
 108:daisy_common.cpp ****     switch(jack)
 2535              		.loc 1 108 5 view .LVU604
 107:daisy_common.cpp ****     Pin pin;
 2536              		.loc 1 107 9 is_stmt 0 view .LVU605
 2537 0024 38BF     		it	cc
 2538 0026 0023     		movcc	r3, #0
 2539              	.LBE614:
 2540              	.LBE619:
 101:daisy_common.cpp ****     ctrl.pin = getCVPin(jack);
 2541              		.loc 1 101 29 view .LVU606
 2542 0028 8DF81120 		strb	r2, [sp, #17]
 2543              	.LBB620:
 2544              	.LBB615:
 107:daisy_common.cpp ****     Pin pin;
 2545              		.loc 1 107 9 view .LVU607
 2546 002c 28BF     		it	cs
 2547 002e 0B23     		movcs	r3, #11
 2548              	.LVL150:
 118:daisy_common.cpp ****         default: break;
 2549              		.loc 1 118 9 is_stmt 1 view .LVU608
 118:daisy_common.cpp ****         default: break;
 2550              		.loc 1 118 18 view .LVU609
 120:daisy_common.cpp ****     return pin;
ARM GAS  C:\Users\samue\AppData\Local\Temp\cci865ja.s 			page 159


 2551              		.loc 1 120 5 view .LVU610
 120:daisy_common.cpp ****     return pin;
 2552              		.loc 1 120 5 is_stmt 0 view .LVU611
 2553              	.LBE615:
 2554              	.LBE620:
 102:daisy_common.cpp ****     cvs.push_back(ctrl);
 2555              		.loc 1 102 5 is_stmt 1 view .LVU612
 2556              	.LBB621:
 2557              	.LBI621:
1187:c:\program files\daisytoolchain\arm-none-eabi\include\c++\10.2.1\bits\stl_vector.h ****       {
 2558              		.loc 7 1187 7 view .LVU613
 2559              	.LBB622:
1189:c:\program files\daisytoolchain\arm-none-eabi\include\c++\10.2.1\bits\stl_vector.h **** 	  {
 2560              		.loc 7 1189 2 is_stmt 0 view .LVU614
 2561 0030 8268     		ldr	r2, [r0, #8]
 2562              	.LBE622:
 2563              	.LBE621:
 101:daisy_common.cpp ****     ctrl.pin = getCVPin(jack);
 2564              		.loc 1 101 29 view .LVU615
 2565 0032 8DF81030 		strb	r3, [sp, #16]
 2566              	.LBB635:
 2567              	.LBB632:
1189:c:\program files\daisytoolchain\arm-none-eabi\include\c++\10.2.1\bits\stl_vector.h **** 	  {
 2568              		.loc 7 1189 2 view .LVU616
 2569 0036 9142     		cmp	r1, r2
 2570 0038 0ED0     		beq	.L157
 2571              	.LBB623:
 2572              	.LBB624:
 2573              	.LBB625:
 2574              		.loc 11 150 4 view .LVU617
 2575 003a 01AC     		add	r4, sp, #4
 2576              	.LVL151:
 2577              		.loc 11 150 4 view .LVU618
 2578 003c 8646     		mov	lr, r0
 2579              	.LVL152:
 2580              		.loc 11 150 4 view .LVU619
 2581              	.LBE625:
 2582              	.LBE624:
 2583              	.LBI623:
 2584              		.loc 10 507 2 is_stmt 1 view .LVU620
 2585              	.LBB627:
 2586              	.LBI624:
 148:c:\program files\daisytoolchain\arm-none-eabi\include\c++\10.2.1\ext\new_allocator.h **** 	noexcept(std::is_nothrow_constructible<_Up, _Args...>::value)
 2587              		.loc 11 148 2 view .LVU621
 148:c:\program files\daisytoolchain\arm-none-eabi\include\c++\10.2.1\ext\new_allocator.h **** 	noexcept(std::is_nothrow_constructible<_Up, _Args...>::value)
 2588              		.loc 11 148 2 is_stmt 0 view .LVU622
 2589              	.LBE627:
 2590              	.LBE623:
 2591              	.LBE632:
 2592              	.LBE635:
 2593              		.loc 12 175 3 is_stmt 1 view .LVU623
 2594              	.LBB636:
 2595              	.LBB633:
1194:c:\program files\daisytoolchain\arm-none-eabi\include\c++\10.2.1\bits\stl_vector.h **** 	    _GLIBCXX_ASAN_ANNOTATE_GREW(1);
 2596              		.loc 7 1194 6 is_stmt 0 view .LVU624
 2597 003e 01F11405 		add	r5, r1, #20
 2598              	.LBB629:
ARM GAS  C:\Users\samue\AppData\Local\Temp\cci865ja.s 			page 160


 2599              	.LBB628:
 2600              	.LBB626:
 2601              		.loc 11 150 4 view .LVU625
 2602 0042 8C46     		mov	ip, r1
 2603 0044 0FCC     		ldmia	r4!, {r0, r1, r2, r3}
 2604              	.LVL153:
 2605              		.loc 11 150 4 view .LVU626
 2606 0046 ACE80F00 		stmia	ip!, {r0, r1, r2, r3}
 2607              	.LVL154:
 2608              		.loc 11 150 4 view .LVU627
 2609 004a 2368     		ldr	r3, [r4]
 2610 004c CCF80030 		str	r3, [ip]
 2611              	.LVL155:
 2612              		.loc 11 150 4 view .LVU628
 2613              	.LBE626:
 2614              	.LBE628:
 2615              	.LBE629:
1194:c:\program files\daisytoolchain\arm-none-eabi\include\c++\10.2.1\bits\stl_vector.h **** 	    _GLIBCXX_ASAN_ANNOTATE_GREW(1);
 2616              		.loc 7 1194 6 view .LVU629
 2617 0050 CEF80450 		str	r5, [lr, #4]
 2618              	.LBE633:
 2619              	.LBE636:
 103:daisy_common.cpp **** }
 2620              		.loc 1 103 1 view .LVU630
 2621 0054 07B0     		add	sp, sp, #28
 2622              		.cfi_remember_state
 2623              		.cfi_def_cfa_offset 12
 2624              		@ sp needed
 2625 0056 30BD     		pop	{r4, r5, pc}
 2626              	.LVL156:
 2627              	.L157:
 2628              		.cfi_restore_state
 2629              	.LBB637:
 2630              	.LBB634:
 2631              	.LBB630:
 2632              	.LBI630:
 829:c:\program files\daisytoolchain\arm-none-eabi\include\c++\10.2.1\bits\stl_vector.h ****       { return iterator(this->_M_impl._M_finish); }
 2633              		.loc 7 829 7 is_stmt 1 view .LVU631
 2634              	.LBB631:
 2635              	.LBI631:
 978:c:\program files\daisytoolchain\arm-none-eabi\include\c++\10.2.1\bits\stl_iterator.h ****       : _M_current(__i) { }
 2636              		.loc 8 978 7 view .LVU632
 978:c:\program files\daisytoolchain\arm-none-eabi\include\c++\10.2.1\bits\stl_iterator.h ****       : _M_current(__i) { }
 2637              		.loc 8 978 7 is_stmt 0 view .LVU633
 2638              	.LBE631:
 2639              	.LBE630:
1198:c:\program files\daisytoolchain\arm-none-eabi\include\c++\10.2.1\bits\stl_vector.h ****       }
 2640              		.loc 7 1198 21 view .LVU634
 2641 0058 01AA     		add	r2, sp, #4
 2642              	.LVL157:
1198:c:\program files\daisytoolchain\arm-none-eabi\include\c++\10.2.1\bits\stl_vector.h ****       }
 2643              		.loc 7 1198 21 view .LVU635
 2644 005a FFF7FEFF 		bl	_ZNSt6vectorI2cvSaIS0_EE17_M_realloc_insertIJRKS0_EEEvN9__gnu_cxx17__normal_iteratorIPS0_S2_EED
 2645              	.LVL158:
1198:c:\program files\daisytoolchain\arm-none-eabi\include\c++\10.2.1\bits\stl_vector.h ****       }
 2646              		.loc 7 1198 21 view .LVU636
 2647              	.LBE634:
ARM GAS  C:\Users\samue\AppData\Local\Temp\cci865ja.s 			page 161


 2648              	.LBE637:
 103:daisy_common.cpp **** }
 2649              		.loc 1 103 1 view .LVU637
 2650 005e 07B0     		add	sp, sp, #28
 2651              		.cfi_def_cfa_offset 12
 2652              		@ sp needed
 2653 0060 30BD     		pop	{r4, r5, pc}
 2654              	.L162:
 2655 0062 00BF     		.align	2
 2656              	.L161:
 2657 0064 CDCCCCCC 		.word	-858993459
 2658              		.cfi_endproc
 2659              	.LFE3064:
 2661              		.section	.rodata._ZN5daisy4seedL2D2E,"a"
 2662              		.align	2
 2663              		.set	.LANCHOR2,. + 0
 2666              	_ZN5daisy4seedL2D2E:
 2667 0000 02       		.byte	2
 2668 0001 0A       		.byte	10
 2669              		.section	.rodata._ZN5daisy4seedL2D3E,"a"
 2670              		.align	2
 2671              		.set	.LANCHOR0,. + 0
 2674              	_ZN5daisy4seedL2D3E:
 2675 0000 02       		.byte	2
 2676 0001 09       		.byte	9
 2677              		.section	.rodata._ZN5daisy4seedL2D4E,"a"
 2678              		.align	2
 2679              		.set	.LANCHOR3,. + 0
 2682              	_ZN5daisy4seedL2D4E:
 2683 0000 02       		.byte	2
 2684 0001 08       		.byte	8
 2685              		.section	.rodata._ZN5daisy4seedL2D5E,"a"
 2686              		.align	2
 2687              		.set	.LANCHOR1,. + 0
 2690              	_ZN5daisy4seedL2D5E:
 2691 0000 03       		.byte	3
 2692 0001 02       		.byte	2
 2693              		.section	.rodata._ZN5daisy4seedL3D26E,"a"
 2694              		.align	2
 2695              		.set	.LANCHOR6,. + 0
 2698              	_ZN5daisy4seedL3D26E:
 2699 0000 03       		.byte	3
 2700 0001 0B       		.byte	11
 2701              		.section	.rodata._ZN5daisy4seedL3D27E,"a"
 2702              		.align	2
 2703              		.set	.LANCHOR4,. + 0
 2706              	_ZN5daisy4seedL3D27E:
 2707 0000 06       		.byte	6
 2708 0001 09       		.byte	9
 2709              		.section	.rodata._ZN5daisy4seedL3D29E,"a"
 2710              		.align	2
 2711              		.set	.LANCHOR7,. + 0
 2714              	_ZN5daisy4seedL3D29E:
 2715 0000 01       		.byte	1
 2716 0001 0E       		.byte	14
 2717              		.section	.rodata._ZN5daisy4seedL3D30E,"a"
 2718              		.align	2
ARM GAS  C:\Users\samue\AppData\Local\Temp\cci865ja.s 			page 162


 2719              		.set	.LANCHOR5,. + 0
 2722              	_ZN5daisy4seedL3D30E:
 2723 0000 01       		.byte	1
 2724 0001 0F       		.byte	15
 2725              		.text
 2726              	.Letext0:
 2727              		.file 14 "c:\\program files\\daisytoolchain\\arm-none-eabi\\include\\machine\\_default_types.h"
 2728              		.file 15 "c:\\program files\\daisytoolchain\\arm-none-eabi\\include\\sys\\_stdint.h"
 2729              		.file 16 "c:\\program files\\daisytoolchain\\arm-none-eabi\\include\\stdint.h"
 2730              		.file 17 "c:\\program files\\daisytoolchain\\lib\\gcc\\arm-none-eabi\\10.2.1\\include\\stddef.h"
 2731              		.file 18 "c:\\program files\\daisytoolchain\\arm-none-eabi\\include\\c++\\10.2.1\\cmath"
 2732              		.file 19 "c:\\program files\\daisytoolchain\\arm-none-eabi\\include\\c++\\10.2.1\\bits\\std_abs.h"
 2733              		.file 20 "c:\\program files\\daisytoolchain\\arm-none-eabi\\include\\c++\\10.2.1\\cstdlib"
 2734              		.file 21 "c:\\program files\\daisytoolchain\\arm-none-eabi\\include\\c++\\10.2.1\\cstdint"
 2735              		.file 22 "c:\\program files\\daisytoolchain\\arm-none-eabi\\include\\c++\\10.2.1\\type_traits"
 2736              		.file 23 "c:\\program files\\daisytoolchain\\arm-none-eabi\\include\\c++\\10.2.1\\arm-none-eabi\\t
 2737              		.file 24 "c:\\program files\\daisytoolchain\\arm-none-eabi\\include\\c++\\10.2.1\\bits\\stl_pair.h
 2738              		.file 25 "c:\\program files\\daisytoolchain\\arm-none-eabi\\include\\c++\\10.2.1\\debug\\debug.h"
 2739              		.file 26 "c:\\program files\\daisytoolchain\\arm-none-eabi\\include\\c++\\10.2.1\\bits\\algorithmf
 2740              		.file 27 "c:\\program files\\daisytoolchain\\arm-none-eabi\\include\\c++\\10.2.1\\bits\\exception_
 2741              		.file 28 "c:\\program files\\daisytoolchain\\arm-none-eabi\\include\\c++\\10.2.1\\cstdarg"
 2742              		.file 29 "c:\\program files\\daisytoolchain\\arm-none-eabi\\include\\c++\\10.2.1\\cstdio"
 2743              		.file 30 "c:\\program files\\daisytoolchain\\arm-none-eabi\\include\\c++\\10.2.1\\cstring"
 2744              		.file 31 "c:\\program files\\daisytoolchain\\arm-none-eabi\\include\\c++\\10.2.1\\bits\\allocator.
 2745              		.file 32 "c:\\program files\\daisytoolchain\\arm-none-eabi\\include\\c++\\10.2.1\\bits\\stl_iterat
 2746              		.file 33 "c:\\program files\\daisytoolchain\\arm-none-eabi\\include\\c++\\10.2.1\\bits\\move.h"
 2747              		.file 34 "c:\\program files\\daisytoolchain\\arm-none-eabi\\include\\c++\\10.2.1\\bits\\stl_algoba
 2748              		.file 35 "c:\\program files\\daisytoolchain\\arm-none-eabi\\include\\c++\\10.2.1\\bits\\predefined
 2749              		.file 36 "c:\\program files\\daisytoolchain\\arm-none-eabi\\include\\c++\\10.2.1\\ext\\alloc_trait
 2750              		.file 37 "c:\\program files\\daisytoolchain\\arm-none-eabi\\include\\sys\\_types.h"
 2751              		.file 38 "c:\\program files\\daisytoolchain\\arm-none-eabi\\include\\sys\\reent.h"
 2752              		.file 39 "c:\\program files\\daisytoolchain\\arm-none-eabi\\include\\sys\\lock.h"
 2753              		.file 40 "c:\\program files\\daisytoolchain\\arm-none-eabi\\include\\math.h"
 2754              		.file 41 "c:\\program files\\daisytoolchain\\arm-none-eabi\\include\\stdlib.h"
 2755              		.file 42 "c:\\program files\\daisytoolchain\\arm-none-eabi\\include\\c++\\10.2.1\\math.h"
 2756              		.file 43 "c:\\program files\\daisytoolchain\\arm-none-eabi\\include\\c++\\10.2.1\\stdlib.h"
 2757              		.file 44 "../../DaisyExamples/libDaisy//src/per/tim.h"
 2758              		.file 45 "../../DaisyExamples/libDaisy//src/sys/system.h"
 2759              		.file 46 "../../DaisyExamples/libDaisy//src/per/qspi.h"
 2760              		.file 47 "../../DaisyExamples/libDaisy//src/per/dac.h"
 2761              		.file 48 "../../DaisyExamples/libDaisy//src/per/sai.h"
 2762              		.file 49 "../../DaisyExamples/libDaisy//src/hid/audio.h"
 2763              		.file 50 "../../DaisyExamples/libDaisy//src/per/adc.h"
 2764              		.file 51 "../../DaisyExamples/libDaisy//src/hid/usb.h"
 2765              		.file 52 "../../DaisyExamples/libDaisy//src/hid/switch.h"
 2766              		.file 53 "../../DaisyExamples/libDaisy//src/hid/logger_impl.h"
 2767              		.file 54 "../../DaisyExamples/libDaisy//src/util/wav_format.h"
 2768              		.file 55 "../../DaisyExamples/libDaisy//src/dev/max11300.h"
 2769              		.file 56 "../../DaisyExamples/libDaisy//src/hid/logger.h"
 2770              		.file 57 "../../DaisyExamples/libDaisy//src/dev/sdram.h"
 2771              		.file 58 "c:\\program files\\daisytoolchain\\lib\\gcc\\arm-none-eabi\\10.2.1\\include\\stdarg.h"
 2772              		.file 59 "c:\\program files\\daisytoolchain\\arm-none-eabi\\include\\stdio.h"
 2773              		.file 60 "c:\\program files\\daisytoolchain\\arm-none-eabi\\include\\string.h"
 2774              		.file 61 "../../DaisyExamples/libDaisy//src/dev/sr_595.h"
 2775              		.file 62 "c:\\program files\\daisytoolchain\\arm-none-eabi\\include\\c++\\10.2.1\\bits\\functexcep
 2776              		.file 63 "<built-in>"
ARM GAS  C:\Users\samue\AppData\Local\Temp\cci865ja.s 			page 163


DEFINED SYMBOLS
                            *ABS*:00000000 daisy_common.cpp
C:\Users\samue\AppData\Local\Temp\cci865ja.s:17     .rodata._ZN5daisy11daisyCommon10print_knobEv.str1.4:00000000 $d
C:\Users\samue\AppData\Local\Temp\cci865ja.s:42     .text._ZN5daisy11daisyCommon10print_knobEv:00000000 $t
C:\Users\samue\AppData\Local\Temp\cci865ja.s:51     .text._ZN5daisy11daisyCommon10print_knobEv:00000000 _ZN5daisy11daisyCommon10print_knobEv
C:\Users\samue\AppData\Local\Temp\cci865ja.s:188    .text._ZN5daisy11daisyCommon10print_knobEv:00000058 $d
C:\Users\samue\AppData\Local\Temp\cci865ja.s:202    .text._ZN5daisy11daisyCommon8add_knobEii:00000000 $t
C:\Users\samue\AppData\Local\Temp\cci865ja.s:210    .text._ZN5daisy11daisyCommon8add_knobEii:00000000 _ZN5daisy11daisyCommon8add_knobEii
C:\Users\samue\AppData\Local\Temp\cci865ja.s:307    .text._ZN5daisy11daisyCommon7get_muxEi:00000000 $t
C:\Users\samue\AppData\Local\Temp\cci865ja.s:315    .text._ZN5daisy11daisyCommon7get_muxEi:00000000 _ZN5daisy11daisyCommon7get_muxEi
C:\Users\samue\AppData\Local\Temp\cci865ja.s:391    .text._ZN5daisy11daisyCommon12get_adc_chanEi:00000000 $t
C:\Users\samue\AppData\Local\Temp\cci865ja.s:399    .text._ZN5daisy11daisyCommon12get_adc_chanEi:00000000 _ZN5daisy11daisyCommon12get_adc_chanEi
C:\Users\samue\AppData\Local\Temp\cci865ja.s:489    .text._ZN5daisy11daisyCommon14get_knob_valueEi:00000000 $t
C:\Users\samue\AppData\Local\Temp\cci865ja.s:497    .text._ZN5daisy11daisyCommon14get_knob_valueEi:00000000 _ZN5daisy11daisyCommon14get_knob_valueEi
C:\Users\samue\AppData\Local\Temp\cci865ja.s:615    .text._ZN5daisy11daisyCommon8getCVPinEi:00000000 $t
C:\Users\samue\AppData\Local\Temp\cci865ja.s:623    .text._ZN5daisy11daisyCommon8getCVPinEi:00000000 _ZN5daisy11daisyCommon8getCVPinEi
C:\Users\samue\AppData\Local\Temp\cci865ja.s:662    .text._ZN5daisy11daisyCommon7getGPIOEi:00000000 $t
C:\Users\samue\AppData\Local\Temp\cci865ja.s:670    .text._ZN5daisy11daisyCommon7getGPIOEi:00000000 _ZN5daisy11daisyCommon7getGPIOEi
C:\Users\samue\AppData\Local\Temp\cci865ja.s:691    .text._ZN5daisy11daisyCommon7getGPIOEi:0000000e $d
C:\Users\samue\AppData\Local\Temp\cci865ja.s:765    .text._ZN5daisy11daisyCommon13add_jack_gpioEiii:00000000 $t
C:\Users\samue\AppData\Local\Temp\cci865ja.s:773    .text._ZN5daisy11daisyCommon13add_jack_gpioEiii:00000000 _ZN5daisy11daisyCommon13add_jack_gpioEiii
C:\Users\samue\AppData\Local\Temp\cci865ja.s:969    .text._ZN5daisy11daisyCommon10getGPIOPinEi:00000000 $t
C:\Users\samue\AppData\Local\Temp\cci865ja.s:977    .text._ZN5daisy11daisyCommon10getGPIOPinEi:00000000 _ZN5daisy11daisyCommon10getGPIOPinEi
C:\Users\samue\AppData\Local\Temp\cci865ja.s:1002   .text._ZN5daisy11daisyCommon12InitGPIO_MUXEv:00000000 $t
C:\Users\samue\AppData\Local\Temp\cci865ja.s:1010   .text._ZN5daisy11daisyCommon12InitGPIO_MUXEv:00000000 _ZN5daisy11daisyCommon12InitGPIO_MUXEv
C:\Users\samue\AppData\Local\Temp\cci865ja.s:1347   .text._ZN5daisy11daisyCommon12InitGPIO_MUXEv:00000184 $d
C:\Users\samue\AppData\Local\Temp\cci865ja.s:1359   .text._ZN5daisy11daisyCommon10InitToggleEv:00000000 $t
C:\Users\samue\AppData\Local\Temp\cci865ja.s:1367   .text._ZN5daisy11daisyCommon10InitToggleEv:00000000 _ZN5daisy11daisyCommon10InitToggleEv
C:\Users\samue\AppData\Local\Temp\cci865ja.s:1500   .text._ZN5daisy11daisyCommon10InitButtonEv:00000000 $t
C:\Users\samue\AppData\Local\Temp\cci865ja.s:1508   .text._ZN5daisy11daisyCommon10InitButtonEv:00000000 _ZN5daisy11daisyCommon10InitButtonEv
C:\Users\samue\AppData\Local\Temp\cci865ja.s:1541   .text._ZN5daisy11daisyCommon10InitButtonEv:00000020 $d
C:\Users\samue\AppData\Local\Temp\cci865ja.s:1546   .text._ZN5daisy11daisyCommon7InitADCEv:00000000 $t
C:\Users\samue\AppData\Local\Temp\cci865ja.s:1554   .text._ZN5daisy11daisyCommon7InitADCEv:00000000 _ZN5daisy11daisyCommon7InitADCEv
C:\Users\samue\AppData\Local\Temp\cci865ja.s:1840   .text._ZN5daisy11daisyCommon7InitADCEv:00000114 $d
C:\Users\samue\AppData\Local\Temp\cci865ja.s:1845   .text._ZN5daisy11daisyCommon4InitEb:00000000 $t
C:\Users\samue\AppData\Local\Temp\cci865ja.s:1853   .text._ZN5daisy11daisyCommon4InitEb:00000000 _ZN5daisy11daisyCommon4InitEb
C:\Users\samue\AppData\Local\Temp\cci865ja.s:1923   .text._ZN5daisy11daisyCommon4InitEb:00000040 $d
C:\Users\samue\AppData\Local\Temp\cci865ja.s:1928   .rodata._ZNSt6vectorI2cvSaIS0_EE17_M_realloc_insertIJRKS0_EEEvN9__gnu_cxx17__normal_iteratorIPS0_S2_EEDpOT_.str1.4:00000000 $d
C:\Users\samue\AppData\Local\Temp\cci865ja.s:1932   .text._ZNSt6vectorI2cvSaIS0_EE17_M_realloc_insertIJRKS0_EEEvN9__gnu_cxx17__normal_iteratorIPS0_S2_EEDpOT_:00000000 $t
C:\Users\samue\AppData\Local\Temp\cci865ja.s:1940   .text._ZNSt6vectorI2cvSaIS0_EE17_M_realloc_insertIJRKS0_EEEvN9__gnu_cxx17__normal_iteratorIPS0_S2_EEDpOT_:00000000 _ZNSt6vectorI2cvSaIS0_EE17_M_realloc_insertIJRKS0_EEEvN9__gnu_cxx17__normal_iteratorIPS0_S2_EEDpOT_
C:\Users\samue\AppData\Local\Temp\cci865ja.s:2443   .text._ZNSt6vectorI2cvSaIS0_EE17_M_realloc_insertIJRKS0_EEEvN9__gnu_cxx17__normal_iteratorIPS0_S2_EEDpOT_:0000010c $d
C:\Users\samue\AppData\Local\Temp\cci865ja.s:2454   .text._ZN5daisy11daisyCommon6add_cvEii:00000000 $t
C:\Users\samue\AppData\Local\Temp\cci865ja.s:2462   .text._ZN5daisy11daisyCommon6add_cvEii:00000000 _ZN5daisy11daisyCommon6add_cvEii
C:\Users\samue\AppData\Local\Temp\cci865ja.s:2657   .text._ZN5daisy11daisyCommon6add_cvEii:00000064 $d
C:\Users\samue\AppData\Local\Temp\cci865ja.s:2662   .rodata._ZN5daisy4seedL2D2E:00000000 $d
C:\Users\samue\AppData\Local\Temp\cci865ja.s:2666   .rodata._ZN5daisy4seedL2D2E:00000000 _ZN5daisy4seedL2D2E
C:\Users\samue\AppData\Local\Temp\cci865ja.s:2670   .rodata._ZN5daisy4seedL2D3E:00000000 $d
C:\Users\samue\AppData\Local\Temp\cci865ja.s:2674   .rodata._ZN5daisy4seedL2D3E:00000000 _ZN5daisy4seedL2D3E
C:\Users\samue\AppData\Local\Temp\cci865ja.s:2678   .rodata._ZN5daisy4seedL2D4E:00000000 $d
C:\Users\samue\AppData\Local\Temp\cci865ja.s:2682   .rodata._ZN5daisy4seedL2D4E:00000000 _ZN5daisy4seedL2D4E
C:\Users\samue\AppData\Local\Temp\cci865ja.s:2686   .rodata._ZN5daisy4seedL2D5E:00000000 $d
C:\Users\samue\AppData\Local\Temp\cci865ja.s:2690   .rodata._ZN5daisy4seedL2D5E:00000000 _ZN5daisy4seedL2D5E
C:\Users\samue\AppData\Local\Temp\cci865ja.s:2694   .rodata._ZN5daisy4seedL3D26E:00000000 $d
C:\Users\samue\AppData\Local\Temp\cci865ja.s:2698   .rodata._ZN5daisy4seedL3D26E:00000000 _ZN5daisy4seedL3D26E
C:\Users\samue\AppData\Local\Temp\cci865ja.s:2702   .rodata._ZN5daisy4seedL3D27E:00000000 $d
C:\Users\samue\AppData\Local\Temp\cci865ja.s:2706   .rodata._ZN5daisy4seedL3D27E:00000000 _ZN5daisy4seedL3D27E
C:\Users\samue\AppData\Local\Temp\cci865ja.s:2710   .rodata._ZN5daisy4seedL3D29E:00000000 $d
ARM GAS  C:\Users\samue\AppData\Local\Temp\cci865ja.s 			page 164


C:\Users\samue\AppData\Local\Temp\cci865ja.s:2714   .rodata._ZN5daisy4seedL3D29E:00000000 _ZN5daisy4seedL3D29E
C:\Users\samue\AppData\Local\Temp\cci865ja.s:2718   .rodata._ZN5daisy4seedL3D30E:00000000 $d
C:\Users\samue\AppData\Local\Temp\cci865ja.s:2722   .rodata._ZN5daisy4seedL3D30E:00000000 _ZN5daisy4seedL3D30E
C:\Users\samue\AppData\Local\Temp\cci865ja.s:698    .text._ZN5daisy11daisyCommon7getGPIOEi:00000015 $d
C:\Users\samue\AppData\Local\Temp\cci865ja.s:698    .text._ZN5daisy11daisyCommon7getGPIOEi:00000016 $t

UNDEFINED SYMBOLS
_ZN5daisy6LoggerILNS_17LoggerDestinationE1EE9PrintLineEPKcz
_ZNK5daisy9AdcHandle11GetMuxFloatEhh
_ZN5daisy4GPIO4InitENS_3PinENS0_4ModeENS0_4PullENS0_5SpeedE
_ZN5daisy4GPIO5WriteEb
dsy_gpio_init
_ZN5daisy6Switch4InitE12dsy_gpio_pinf
_ZN5daisy16AdcChannelConfig7InitMuxE12dsy_gpio_pinjS1_S1_S1_NS0_15ConversionSpeedE
_ZN5daisy16AdcChannelConfig10InitSingleE12dsy_gpio_pinNS0_15ConversionSpeedE
_ZN5daisy9AdcHandle4InitEPNS_16AdcChannelConfigEjNS0_12OverSamplingE
_ZN5daisy9AdcHandle5StartEv
_ZN5daisy9DaisySeed4InitEb
memcpy
_ZdlPvj
_Znwj
_ZSt20__throw_length_errorPKc
