ARM GAS  C:\Users\samue\AppData\Local\Temp\cc5RpClg.s 			page 1


   1              		.cpu cortex-m7
   2              		.eabi_attribute 28, 1
   3              		.eabi_attribute 20, 1
   4              		.eabi_attribute 21, 1
   5              		.eabi_attribute 23, 3
   6              		.eabi_attribute 24, 1
   7              		.eabi_attribute 25, 1
   8              		.eabi_attribute 26, 1
   9              		.eabi_attribute 30, 2
  10              		.eabi_attribute 34, 1
  11              		.eabi_attribute 18, 4
  12              		.file	"ampenv.cpp"
  13              		.text
  14              	.Ltext0:
  15              		.cfi_sections	.debug_frame
  16              		.section	.text._ZN5daisy11daisyCommonD2Ev,"axG",%progbits,_ZN5daisy11daisyCommonD5Ev,comdat
  17              		.align	1
  18              		.p2align 2,,3
  19              		.weak	_ZN5daisy11daisyCommonD2Ev
  20              		.arch armv7e-m
  21              		.syntax unified
  22              		.thumb
  23              		.thumb_func
  24              		.fpu fpv5-d16
  26              	_ZN5daisy11daisyCommonD2Ev:
  27              	.LVL0:
  28              	.LFB4847:
  29              		.file 1 "daisy_common.h"
   1:daisy_common.h **** /*
   2:daisy_common.h **** * This implements drivers for the Daisy Common Hardware Platform
   3:daisy_common.h **** *
   4:daisy_common.h **** */
   5:daisy_common.h **** 
   6:daisy_common.h **** #include "daisy_seed.h"
   7:daisy_common.h **** #include "daisysp.h"
   8:daisy_common.h **** 
   9:daisy_common.h **** using namespace daisy::seed;
  10:daisy_common.h **** using namespace daisy;
  11:daisy_common.h **** 
  12:daisy_common.h **** 
  13:daisy_common.h **** namespace daisy
  14:daisy_common.h **** {
  15:daisy_common.h **** 
  16:daisy_common.h **** class daisyCommon
  17:daisy_common.h **** {
  18:daisy_common.h ****     public:
  19:daisy_common.h ****     daisyCommon() {}
  20:daisy_common.h ****     ~daisyCommon() {}
  30              		.loc 1 20 5 view -0
  31              		.cfi_startproc
  32              		@ args = 0, pretend = 0, frame = 0
  33              		@ frame_needed = 0, uses_anonymous_args = 0
  34              		@ link register save eliminated.
  35              	.LBB210:
  36              	.LBI210:
  37              		.file 2 "../../../../../DaisyExamples/libDaisy//src/daisy_seed.h"
   1:../../../../../DaisyExamples/libDaisy//src/daisy_seed.h **** #pragma once
ARM GAS  C:\Users\samue\AppData\Local\Temp\cc5RpClg.s 			page 2


   2:../../../../../DaisyExamples/libDaisy//src/daisy_seed.h **** #ifndef DSY_SEED_H
   3:../../../../../DaisyExamples/libDaisy//src/daisy_seed.h **** #define DSY_SEED_H
   4:../../../../../DaisyExamples/libDaisy//src/daisy_seed.h **** 
   5:../../../../../DaisyExamples/libDaisy//src/daisy_seed.h **** #include "daisy.h"
   6:../../../../../DaisyExamples/libDaisy//src/daisy_seed.h **** 
   7:../../../../../DaisyExamples/libDaisy//src/daisy_seed.h **** //Uncomment this out if you're still using the rev2 hardware
   8:../../../../../DaisyExamples/libDaisy//src/daisy_seed.h **** //#define SEED_REV2
   9:../../../../../DaisyExamples/libDaisy//src/daisy_seed.h **** 
  10:../../../../../DaisyExamples/libDaisy//src/daisy_seed.h **** namespace daisy
  11:../../../../../DaisyExamples/libDaisy//src/daisy_seed.h **** {
  12:../../../../../DaisyExamples/libDaisy//src/daisy_seed.h **** /**
  13:../../../../../DaisyExamples/libDaisy//src/daisy_seed.h ****    @brief This is the higher-level interface for the Daisy board. \n 
  14:../../../../../DaisyExamples/libDaisy//src/daisy_seed.h ****     All basic peripheral configuration/initialization is setup here. \n
  15:../../../../../DaisyExamples/libDaisy//src/daisy_seed.h **** 
  16:../../../../../DaisyExamples/libDaisy//src/daisy_seed.h ****    @ingroup boards
  17:../../../../../DaisyExamples/libDaisy//src/daisy_seed.h **** */
  18:../../../../../DaisyExamples/libDaisy//src/daisy_seed.h **** class DaisySeed
  19:../../../../../DaisyExamples/libDaisy//src/daisy_seed.h **** {
  20:../../../../../DaisyExamples/libDaisy//src/daisy_seed.h ****   public:
  21:../../../../../DaisyExamples/libDaisy//src/daisy_seed.h ****     DaisySeed() {}
  22:../../../../../DaisyExamples/libDaisy//src/daisy_seed.h ****     ~DaisySeed() {}
  38              		.loc 2 22 5 view .LVU1
  39              	.LBB211:
  40              	.LBI211:
  41              		.file 3 "../../../../../DaisyExamples/libDaisy//src/sys/system.h"
   1:../../../../../DaisyExamples/libDaisy//src/sys/system.h **** #ifndef DSY_SYSTEM_H
   2:../../../../../DaisyExamples/libDaisy//src/sys/system.h **** #define DSY_SYSTEM_H
   3:../../../../../DaisyExamples/libDaisy//src/sys/system.h **** 
   4:../../../../../DaisyExamples/libDaisy//src/sys/system.h **** #ifndef UNIT_TEST // for unit tests, a dummy implementation is provided below
   5:../../../../../DaisyExamples/libDaisy//src/sys/system.h **** 
   6:../../../../../DaisyExamples/libDaisy//src/sys/system.h **** #include <cstdint>
   7:../../../../../DaisyExamples/libDaisy//src/sys/system.h **** #include "per/tim.h"
   8:../../../../../DaisyExamples/libDaisy//src/sys/system.h **** 
   9:../../../../../DaisyExamples/libDaisy//src/sys/system.h **** namespace daisy
  10:../../../../../DaisyExamples/libDaisy//src/sys/system.h **** {
  11:../../../../../DaisyExamples/libDaisy//src/sys/system.h **** /** A handle for interacting with the Core System.
  12:../../../../../DaisyExamples/libDaisy//src/sys/system.h ****  ** This includes the Clock tree, MPU, global DMA initialization,
  13:../../../../../DaisyExamples/libDaisy//src/sys/system.h ****  ** cache handling, and any other necessary global initiailzation
  14:../../../../../DaisyExamples/libDaisy//src/sys/system.h ****  **
  15:../../../../../DaisyExamples/libDaisy//src/sys/system.h ****  ** @author shensley
  16:../../../../../DaisyExamples/libDaisy//src/sys/system.h ****  ** @ingroup system
  17:../../../../../DaisyExamples/libDaisy//src/sys/system.h ****  */
  18:../../../../../DaisyExamples/libDaisy//src/sys/system.h **** class System
  19:../../../../../DaisyExamples/libDaisy//src/sys/system.h **** {
  20:../../../../../DaisyExamples/libDaisy//src/sys/system.h ****   public:
  21:../../../../../DaisyExamples/libDaisy//src/sys/system.h ****     /** Contains settings for initializing the System */
  22:../../../../../DaisyExamples/libDaisy//src/sys/system.h ****     struct Config
  23:../../../../../DaisyExamples/libDaisy//src/sys/system.h ****     {
  24:../../../../../DaisyExamples/libDaisy//src/sys/system.h ****         /** Specifies the system clock frequency that feeds APB/AHB clocks, etc. */
  25:../../../../../DaisyExamples/libDaisy//src/sys/system.h ****         enum class SysClkFreq
  26:../../../../../DaisyExamples/libDaisy//src/sys/system.h ****         {
  27:../../../../../DaisyExamples/libDaisy//src/sys/system.h ****             FREQ_400MHZ,
  28:../../../../../DaisyExamples/libDaisy//src/sys/system.h ****             FREQ_480MHZ,
  29:../../../../../DaisyExamples/libDaisy//src/sys/system.h ****         };
  30:../../../../../DaisyExamples/libDaisy//src/sys/system.h **** 
  31:../../../../../DaisyExamples/libDaisy//src/sys/system.h ****         /** Method to call on the struct to set to defaults
  32:../../../../../DaisyExamples/libDaisy//src/sys/system.h ****          ** CPU Freq set to 400MHz
ARM GAS  C:\Users\samue\AppData\Local\Temp\cc5RpClg.s 			page 3


  33:../../../../../DaisyExamples/libDaisy//src/sys/system.h ****          ** Cache Enabled
  34:../../../../../DaisyExamples/libDaisy//src/sys/system.h ****          ** */
  35:../../../../../DaisyExamples/libDaisy//src/sys/system.h ****         void Defaults()
  36:../../../../../DaisyExamples/libDaisy//src/sys/system.h ****         {
  37:../../../../../DaisyExamples/libDaisy//src/sys/system.h ****             cpu_freq    = SysClkFreq::FREQ_400MHZ;
  38:../../../../../DaisyExamples/libDaisy//src/sys/system.h ****             use_dcache  = true;
  39:../../../../../DaisyExamples/libDaisy//src/sys/system.h ****             use_icache  = true;
  40:../../../../../DaisyExamples/libDaisy//src/sys/system.h ****             skip_clocks = false;
  41:../../../../../DaisyExamples/libDaisy//src/sys/system.h ****         }
  42:../../../../../DaisyExamples/libDaisy//src/sys/system.h **** 
  43:../../../../../DaisyExamples/libDaisy//src/sys/system.h ****         /** Method to call on the struct to set to boost mode:
  44:../../../../../DaisyExamples/libDaisy//src/sys/system.h ****          ** CPU Freq set to 480MHz
  45:../../../../../DaisyExamples/libDaisy//src/sys/system.h ****          ** Cache Enabled
  46:../../../../../DaisyExamples/libDaisy//src/sys/system.h ****          ** */
  47:../../../../../DaisyExamples/libDaisy//src/sys/system.h ****         void Boost()
  48:../../../../../DaisyExamples/libDaisy//src/sys/system.h ****         {
  49:../../../../../DaisyExamples/libDaisy//src/sys/system.h ****             cpu_freq    = SysClkFreq::FREQ_480MHZ;
  50:../../../../../DaisyExamples/libDaisy//src/sys/system.h ****             use_dcache  = true;
  51:../../../../../DaisyExamples/libDaisy//src/sys/system.h ****             use_icache  = true;
  52:../../../../../DaisyExamples/libDaisy//src/sys/system.h ****             skip_clocks = false;
  53:../../../../../DaisyExamples/libDaisy//src/sys/system.h ****         }
  54:../../../../../DaisyExamples/libDaisy//src/sys/system.h **** 
  55:../../../../../DaisyExamples/libDaisy//src/sys/system.h ****         SysClkFreq cpu_freq;
  56:../../../../../DaisyExamples/libDaisy//src/sys/system.h ****         bool       use_dcache;
  57:../../../../../DaisyExamples/libDaisy//src/sys/system.h ****         bool       use_icache;
  58:../../../../../DaisyExamples/libDaisy//src/sys/system.h ****         bool       skip_clocks;
  59:../../../../../DaisyExamples/libDaisy//src/sys/system.h ****     };
  60:../../../../../DaisyExamples/libDaisy//src/sys/system.h **** 
  61:../../../../../DaisyExamples/libDaisy//src/sys/system.h ****     /** Describes the different regions of memory available to the Daisy */
  62:../../../../../DaisyExamples/libDaisy//src/sys/system.h ****     enum MemoryRegion
  63:../../../../../DaisyExamples/libDaisy//src/sys/system.h ****     {
  64:../../../../../DaisyExamples/libDaisy//src/sys/system.h ****         INTERNAL_FLASH = 0,
  65:../../../../../DaisyExamples/libDaisy//src/sys/system.h ****         ITCMRAM,
  66:../../../../../DaisyExamples/libDaisy//src/sys/system.h ****         DTCMRAM,
  67:../../../../../DaisyExamples/libDaisy//src/sys/system.h ****         SRAM_D1,
  68:../../../../../DaisyExamples/libDaisy//src/sys/system.h ****         SRAM_D2,
  69:../../../../../DaisyExamples/libDaisy//src/sys/system.h ****         SRAM_D3,
  70:../../../../../DaisyExamples/libDaisy//src/sys/system.h ****         SDRAM,
  71:../../../../../DaisyExamples/libDaisy//src/sys/system.h ****         QSPI,
  72:../../../../../DaisyExamples/libDaisy//src/sys/system.h ****         INVALID_ADDRESS,
  73:../../../../../DaisyExamples/libDaisy//src/sys/system.h ****     };
  74:../../../../../DaisyExamples/libDaisy//src/sys/system.h **** 
  75:../../../../../DaisyExamples/libDaisy//src/sys/system.h ****     /** Bootloader struct for controlling bootloading parameters */
  76:../../../../../DaisyExamples/libDaisy//src/sys/system.h ****     struct BootInfo
  77:../../../../../DaisyExamples/libDaisy//src/sys/system.h ****     {
  78:../../../../../DaisyExamples/libDaisy//src/sys/system.h ****         enum class Type : uint32_t
  79:../../../../../DaisyExamples/libDaisy//src/sys/system.h ****         {
  80:../../../../../DaisyExamples/libDaisy//src/sys/system.h ****             INVALID      = 0x00000000,
  81:../../../../../DaisyExamples/libDaisy//src/sys/system.h ****             JUMP         = 0xDEADBEEF,
  82:../../../../../DaisyExamples/libDaisy//src/sys/system.h ****             SKIP_TIMEOUT = 0x5AFEB007,
  83:../../../../../DaisyExamples/libDaisy//src/sys/system.h ****             INF_TIMEOUT  = 0xB0074EFA,
  84:../../../../../DaisyExamples/libDaisy//src/sys/system.h ****         } status;
  85:../../../../../DaisyExamples/libDaisy//src/sys/system.h ****         uint32_t data;
  86:../../../../../DaisyExamples/libDaisy//src/sys/system.h ****         enum class Version : uint32_t
  87:../../../../../DaisyExamples/libDaisy//src/sys/system.h ****         {
  88:../../../../../DaisyExamples/libDaisy//src/sys/system.h ****             LT_v6_0 = 0, // Less than v6.0
  89:../../../../../DaisyExamples/libDaisy//src/sys/system.h ****             NONE,        // No bootloader present
ARM GAS  C:\Users\samue\AppData\Local\Temp\cc5RpClg.s 			page 4


  90:../../../../../DaisyExamples/libDaisy//src/sys/system.h ****             v6_0,        // v6.0
  91:../../../../../DaisyExamples/libDaisy//src/sys/system.h ****             v6_1,        // v6.1 or greater
  92:../../../../../DaisyExamples/libDaisy//src/sys/system.h ****             LAST
  93:../../../../../DaisyExamples/libDaisy//src/sys/system.h ****         } version;
  94:../../../../../DaisyExamples/libDaisy//src/sys/system.h ****     };
  95:../../../../../DaisyExamples/libDaisy//src/sys/system.h **** 
  96:../../../../../DaisyExamples/libDaisy//src/sys/system.h ****     System() {}
  97:../../../../../DaisyExamples/libDaisy//src/sys/system.h ****     ~System() {}
  42              		.loc 3 97 5 view .LVU2
  43              		.loc 3 97 5 is_stmt 0 view .LVU3
  44              	.LBE211:
  45              	.LBB212:
  46              	.LBI212:
  47              		.file 4 "../../../../../DaisyExamples/libDaisy//src/hid/usb.h"
   1:../../../../../DaisyExamples/libDaisy//src/hid/usb.h **** #pragma once
   2:../../../../../DaisyExamples/libDaisy//src/hid/usb.h **** #ifndef DSY_HID_USB_H
   3:../../../../../DaisyExamples/libDaisy//src/hid/usb.h **** #define DSY_HID_USB_H
   4:../../../../../DaisyExamples/libDaisy//src/hid/usb.h **** #include <stdint.h>
   5:../../../../../DaisyExamples/libDaisy//src/hid/usb.h **** #include <stdlib.h>
   6:../../../../../DaisyExamples/libDaisy//src/hid/usb.h **** 
   7:../../../../../DaisyExamples/libDaisy//src/hid/usb.h **** namespace daisy
   8:../../../../../DaisyExamples/libDaisy//src/hid/usb.h **** /** @addtogroup human_interface
   9:../../../../../DaisyExamples/libDaisy//src/hid/usb.h ****     @{
  10:../../../../../DaisyExamples/libDaisy//src/hid/usb.h **** */
  11:../../../../../DaisyExamples/libDaisy//src/hid/usb.h **** 
  12:../../../../../DaisyExamples/libDaisy//src/hid/usb.h **** {
  13:../../../../../DaisyExamples/libDaisy//src/hid/usb.h **** /** 
  14:../../../../../DaisyExamples/libDaisy//src/hid/usb.h ****     @brief Interface for initializing and using the USB Peripherals on the daisy
  15:../../../../../DaisyExamples/libDaisy//src/hid/usb.h ****     @author Stephen Hensley
  16:../../../../../DaisyExamples/libDaisy//src/hid/usb.h ****     @date December 2019
  17:../../../../../DaisyExamples/libDaisy//src/hid/usb.h **** */
  18:../../../../../DaisyExamples/libDaisy//src/hid/usb.h **** class UsbHandle
  19:../../../../../DaisyExamples/libDaisy//src/hid/usb.h **** {
  20:../../../../../DaisyExamples/libDaisy//src/hid/usb.h ****   public:
  21:../../../../../DaisyExamples/libDaisy//src/hid/usb.h ****     /** Return values for USBHandle Functions */
  22:../../../../../DaisyExamples/libDaisy//src/hid/usb.h ****     enum class Result
  23:../../../../../DaisyExamples/libDaisy//src/hid/usb.h ****     {
  24:../../../../../DaisyExamples/libDaisy//src/hid/usb.h ****         OK,
  25:../../../../../DaisyExamples/libDaisy//src/hid/usb.h ****         ERR,
  26:../../../../../DaisyExamples/libDaisy//src/hid/usb.h ****     };
  27:../../../../../DaisyExamples/libDaisy//src/hid/usb.h **** 
  28:../../../../../DaisyExamples/libDaisy//src/hid/usb.h ****     /** Specified which of the two USB Peripherals to initialize. */
  29:../../../../../DaisyExamples/libDaisy//src/hid/usb.h ****     enum UsbPeriph
  30:../../../../../DaisyExamples/libDaisy//src/hid/usb.h ****     {
  31:../../../../../DaisyExamples/libDaisy//src/hid/usb.h ****         FS_INTERNAL, /**< Internal pin */
  32:../../../../../DaisyExamples/libDaisy//src/hid/usb.h ****         FS_EXTERNAL, /**< FS External D+ pin is Pin 38 (GPIO32). FS External D- pin is Pin 37 (GPIO
  33:../../../../../DaisyExamples/libDaisy//src/hid/usb.h ****         FS_BOTH,     /**< Both */
  34:../../../../../DaisyExamples/libDaisy//src/hid/usb.h ****     };
  35:../../../../../DaisyExamples/libDaisy//src/hid/usb.h **** 
  36:../../../../../DaisyExamples/libDaisy//src/hid/usb.h **** 
  37:../../../../../DaisyExamples/libDaisy//src/hid/usb.h ****     /** Function called upon reception of a buffer */
  38:../../../../../DaisyExamples/libDaisy//src/hid/usb.h ****     typedef void (*ReceiveCallback)(uint8_t* buff, uint32_t* len);
  39:../../../../../DaisyExamples/libDaisy//src/hid/usb.h **** 
  40:../../../../../DaisyExamples/libDaisy//src/hid/usb.h ****     UsbHandle() {}
  41:../../../../../DaisyExamples/libDaisy//src/hid/usb.h **** 
  42:../../../../../DaisyExamples/libDaisy//src/hid/usb.h ****     ~UsbHandle() {}
  48              		.loc 4 42 5 is_stmt 1 view .LVU4
ARM GAS  C:\Users\samue\AppData\Local\Temp\cc5RpClg.s 			page 5


  49              		.loc 4 42 5 is_stmt 0 view .LVU5
  50              	.LBE212:
  51              	.LBB213:
  52              	.LBI213:
  53              		.file 5 "../../../../../DaisyExamples/libDaisy//src/per/adc.h"
   1:../../../../../DaisyExamples/libDaisy//src/per/adc.h **** #pragma once
   2:../../../../../DaisyExamples/libDaisy//src/per/adc.h **** #ifndef DSY_ADC_H
   3:../../../../../DaisyExamples/libDaisy//src/per/adc.h **** #define DSY_ADC_H /**< Macro */
   4:../../../../../DaisyExamples/libDaisy//src/per/adc.h **** #include <stdint.h>
   5:../../../../../DaisyExamples/libDaisy//src/per/adc.h **** #include <stdlib.h>
   6:../../../../../DaisyExamples/libDaisy//src/per/adc.h **** #include "daisy_core.h"
   7:../../../../../DaisyExamples/libDaisy//src/per/adc.h **** #include "per/gpio.h"
   8:../../../../../DaisyExamples/libDaisy//src/per/adc.h **** 
   9:../../../../../DaisyExamples/libDaisy//src/per/adc.h **** #define DSY_ADC_MAX_CHANNELS 16 /**< Maximum number of ADC channels */
  10:../../../../../DaisyExamples/libDaisy//src/per/adc.h **** 
  11:../../../../../DaisyExamples/libDaisy//src/per/adc.h **** namespace daisy
  12:../../../../../DaisyExamples/libDaisy//src/per/adc.h **** {
  13:../../../../../DaisyExamples/libDaisy//src/per/adc.h **** /** @addtogroup per_analog
  14:../../../../../DaisyExamples/libDaisy//src/per/adc.h ****     @{
  15:../../../../../DaisyExamples/libDaisy//src/per/adc.h **** */
  16:../../../../../DaisyExamples/libDaisy//src/per/adc.h **** 
  17:../../../../../DaisyExamples/libDaisy//src/per/adc.h **** /* While there may not be many configuration options here,
  18:../../../../../DaisyExamples/libDaisy//src/per/adc.h **** using a struct like this allows us to add more configuration
  19:../../../../../DaisyExamples/libDaisy//src/per/adc.h **** later without breaking existing functionality.
  20:../../../../../DaisyExamples/libDaisy//src/per/adc.h **** */
  21:../../../../../DaisyExamples/libDaisy//src/per/adc.h **** 
  22:../../../../../DaisyExamples/libDaisy//src/per/adc.h **** /** @brief   Configuration Structure for an ADC Channel 
  23:../../../../../DaisyExamples/libDaisy//src/per/adc.h ****  *  @details This can be used to configure a a single input, 
  24:../../../../../DaisyExamples/libDaisy//src/per/adc.h ****  *           or a multiplexed input, allowing up to 8 inputs on 
  25:../../../../../DaisyExamples/libDaisy//src/per/adc.h ****  *           one channel.
  26:../../../../../DaisyExamples/libDaisy//src/per/adc.h ****  *  @note    Sharing data lines to multiple muxes _is_ possible, but
  27:../../../../../DaisyExamples/libDaisy//src/per/adc.h ****  *           each channel sharing data lines must be set to the maximum
  28:../../../../../DaisyExamples/libDaisy//src/per/adc.h ****  *           number of channels, even if some multiplexers have fewer
  29:../../../../../DaisyExamples/libDaisy//src/per/adc.h ****  *           inputs connected.
  30:../../../../../DaisyExamples/libDaisy//src/per/adc.h **** */
  31:../../../../../DaisyExamples/libDaisy//src/per/adc.h **** struct AdcChannelConfig
  32:../../../../../DaisyExamples/libDaisy//src/per/adc.h **** {
  33:../../../../../DaisyExamples/libDaisy//src/per/adc.h ****     /** Which pin to use for multiplexing */
  34:../../../../../DaisyExamples/libDaisy//src/per/adc.h ****     enum MuxPin
  35:../../../../../DaisyExamples/libDaisy//src/per/adc.h ****     {
  36:../../../../../DaisyExamples/libDaisy//src/per/adc.h ****         MUX_SEL_0,    /**< & */
  37:../../../../../DaisyExamples/libDaisy//src/per/adc.h ****         MUX_SEL_1,    /**< & */
  38:../../../../../DaisyExamples/libDaisy//src/per/adc.h ****         MUX_SEL_2,    /**< & */
  39:../../../../../DaisyExamples/libDaisy//src/per/adc.h ****         MUX_SEL_LAST, /**< & */
  40:../../../../../DaisyExamples/libDaisy//src/per/adc.h ****     };
  41:../../../../../DaisyExamples/libDaisy//src/per/adc.h **** 
  42:../../../../../DaisyExamples/libDaisy//src/per/adc.h ****     /** \brief per channel conversion speed added to fixed time based on bitdepth, etc. */
  43:../../../../../DaisyExamples/libDaisy//src/per/adc.h ****     enum ConversionSpeed
  44:../../../../../DaisyExamples/libDaisy//src/per/adc.h ****     {
  45:../../../../../DaisyExamples/libDaisy//src/per/adc.h ****         SPEED_1CYCLES_5,
  46:../../../../../DaisyExamples/libDaisy//src/per/adc.h ****         SPEED_2CYCLES_5,
  47:../../../../../DaisyExamples/libDaisy//src/per/adc.h ****         SPEED_8CYCLES_5,
  48:../../../../../DaisyExamples/libDaisy//src/per/adc.h ****         SPEED_16CYCLES_5,
  49:../../../../../DaisyExamples/libDaisy//src/per/adc.h ****         SPEED_32CYCLES_5,
  50:../../../../../DaisyExamples/libDaisy//src/per/adc.h ****         SPEED_64CYCLES_5,
  51:../../../../../DaisyExamples/libDaisy//src/per/adc.h ****         SPEED_387CYCLES_5,
  52:../../../../../DaisyExamples/libDaisy//src/per/adc.h ****         SPEED_810CYCLES_5,
ARM GAS  C:\Users\samue\AppData\Local\Temp\cc5RpClg.s 			page 6


  53:../../../../../DaisyExamples/libDaisy//src/per/adc.h ****     };
  54:../../../../../DaisyExamples/libDaisy//src/per/adc.h **** 
  55:../../../../../DaisyExamples/libDaisy//src/per/adc.h ****     /** Initializes a single ADC pin as an ADC. 
  56:../../../../../DaisyExamples/libDaisy//src/per/adc.h ****     \param pin Pin to init.
  57:../../../../../DaisyExamples/libDaisy//src/per/adc.h ****     \param speed conversion speed for this pin defaults to 8.5 cycles
  58:../../../../../DaisyExamples/libDaisy//src/per/adc.h ****      */
  59:../../../../../DaisyExamples/libDaisy//src/per/adc.h ****     void InitSingle(dsy_gpio_pin pin, ConversionSpeed speed = SPEED_8CYCLES_5);
  60:../../../../../DaisyExamples/libDaisy//src/per/adc.h **** 
  61:../../../../../DaisyExamples/libDaisy//src/per/adc.h ****     /** 
  62:../../../../../DaisyExamples/libDaisy//src/per/adc.h ****     Initializes a single ADC pin as a Multiplexed ADC.
  63:../../../../../DaisyExamples/libDaisy//src/per/adc.h ****     Requires a CD405X Multiplexer connected to the pin.
  64:../../../../../DaisyExamples/libDaisy//src/per/adc.h ****     You only need to supply the mux pins that are required,
  65:../../../../../DaisyExamples/libDaisy//src/per/adc.h ****     e.g. a 4052 mux would only require mux_0 and mux_1.
  66:../../../../../DaisyExamples/libDaisy//src/per/adc.h ****     Internal Callbacks handle the pin addressing.
  67:../../../../../DaisyExamples/libDaisy//src/per/adc.h ****     \param adc_pin &
  68:../../../../../DaisyExamples/libDaisy//src/per/adc.h ****     \param mux_channels must be 1-8
  69:../../../../../DaisyExamples/libDaisy//src/per/adc.h ****     \param mux_0 First mux pin
  70:../../../../../DaisyExamples/libDaisy//src/per/adc.h ****     \param mux_1 Second mux pin
  71:../../../../../DaisyExamples/libDaisy//src/per/adc.h ****     \param mux_2 Third mux pin
  72:../../../../../DaisyExamples/libDaisy//src/per/adc.h ****     \param speed conversion speed for this pin defaults to 8.5 cycles
  73:../../../../../DaisyExamples/libDaisy//src/per/adc.h ****     */
  74:../../../../../DaisyExamples/libDaisy//src/per/adc.h ****     void InitMux(dsy_gpio_pin    adc_pin,
  75:../../../../../DaisyExamples/libDaisy//src/per/adc.h ****                  size_t          mux_channels,
  76:../../../../../DaisyExamples/libDaisy//src/per/adc.h ****                  dsy_gpio_pin    mux_0,
  77:../../../../../DaisyExamples/libDaisy//src/per/adc.h ****                  dsy_gpio_pin    mux_1 = {DSY_GPIOX, 0},
  78:../../../../../DaisyExamples/libDaisy//src/per/adc.h ****                  dsy_gpio_pin    mux_2 = {DSY_GPIOX, 0},
  79:../../../../../DaisyExamples/libDaisy//src/per/adc.h ****                  ConversionSpeed speed = SPEED_8CYCLES_5);
  80:../../../../../DaisyExamples/libDaisy//src/per/adc.h **** 
  81:../../../../../DaisyExamples/libDaisy//src/per/adc.h ****     dsy_gpio        pin_;                   /**< & */
  82:../../../../../DaisyExamples/libDaisy//src/per/adc.h ****     dsy_gpio        mux_pin_[MUX_SEL_LAST]; /**< & */
  83:../../../../../DaisyExamples/libDaisy//src/per/adc.h ****     uint8_t         mux_channels_;          /**< & */
  84:../../../../../DaisyExamples/libDaisy//src/per/adc.h ****     ConversionSpeed speed_;
  85:../../../../../DaisyExamples/libDaisy//src/per/adc.h **** };
  86:../../../../../DaisyExamples/libDaisy//src/per/adc.h **** 
  87:../../../../../DaisyExamples/libDaisy//src/per/adc.h **** /**
  88:../../../../../DaisyExamples/libDaisy//src/per/adc.h ****    @brief Handler for analog to digital conversion
  89:../../../../../DaisyExamples/libDaisy//src/per/adc.h **** */
  90:../../../../../DaisyExamples/libDaisy//src/per/adc.h **** class AdcHandle
  91:../../../../../DaisyExamples/libDaisy//src/per/adc.h **** {
  92:../../../../../DaisyExamples/libDaisy//src/per/adc.h ****   public:
  93:../../../../../DaisyExamples/libDaisy//src/per/adc.h ****     /** Supported oversampling amounts */
  94:../../../../../DaisyExamples/libDaisy//src/per/adc.h ****     enum OverSampling
  95:../../../../../DaisyExamples/libDaisy//src/per/adc.h ****     {
  96:../../../../../DaisyExamples/libDaisy//src/per/adc.h ****         OVS_NONE, /**< & */
  97:../../../../../DaisyExamples/libDaisy//src/per/adc.h ****         OVS_4,    /**< & */
  98:../../../../../DaisyExamples/libDaisy//src/per/adc.h ****         OVS_8,    /**< & */
  99:../../../../../DaisyExamples/libDaisy//src/per/adc.h ****         OVS_16,   /**< & */
 100:../../../../../DaisyExamples/libDaisy//src/per/adc.h ****         OVS_32,   /**< & */
 101:../../../../../DaisyExamples/libDaisy//src/per/adc.h ****         OVS_64,   /**< & */
 102:../../../../../DaisyExamples/libDaisy//src/per/adc.h ****         OVS_128,  /**< & */
 103:../../../../../DaisyExamples/libDaisy//src/per/adc.h ****         OVS_256,  /**< & */
 104:../../../../../DaisyExamples/libDaisy//src/per/adc.h ****         OVS_512,  /**< & */
 105:../../../../../DaisyExamples/libDaisy//src/per/adc.h ****         OVS_1024, /**< & */
 106:../../../../../DaisyExamples/libDaisy//src/per/adc.h ****         OVS_LAST, /**< & */
 107:../../../../../DaisyExamples/libDaisy//src/per/adc.h ****     };
 108:../../../../../DaisyExamples/libDaisy//src/per/adc.h **** 
 109:../../../../../DaisyExamples/libDaisy//src/per/adc.h ****     AdcHandle() {}
ARM GAS  C:\Users\samue\AppData\Local\Temp\cc5RpClg.s 			page 7


 110:../../../../../DaisyExamples/libDaisy//src/per/adc.h ****     ~AdcHandle() {}
  54              		.loc 5 110 5 is_stmt 1 view .LVU6
  55              		.loc 5 110 5 is_stmt 0 view .LVU7
  56              	.LBE213:
  57              	.LBB214:
  58              	.LBI214:
  59              		.file 6 "../../../../../DaisyExamples/libDaisy//src/hid/audio.h"
   1:../../../../../DaisyExamples/libDaisy//src/hid/audio.h **** #ifndef DSY_AUDIO_H
   2:../../../../../DaisyExamples/libDaisy//src/hid/audio.h **** #define DSY_AUDIO_H /**< & */
   3:../../../../../DaisyExamples/libDaisy//src/hid/audio.h **** 
   4:../../../../../DaisyExamples/libDaisy//src/hid/audio.h **** #include "per/sai.h"
   5:../../../../../DaisyExamples/libDaisy//src/hid/audio.h **** 
   6:../../../../../DaisyExamples/libDaisy//src/hid/audio.h **** namespace daisy
   7:../../../../../DaisyExamples/libDaisy//src/hid/audio.h **** {
   8:../../../../../DaisyExamples/libDaisy//src/hid/audio.h **** /** @brief Audio Engine Handle
   9:../../../../../DaisyExamples/libDaisy//src/hid/audio.h ****  *  @ingroup audio 
  10:../../../../../DaisyExamples/libDaisy//src/hid/audio.h ****  *  @details This class allows for higher level access to an audio engine.
  11:../../../../../DaisyExamples/libDaisy//src/hid/audio.h ****  *           If you're using a SOM like the DaisySeed or DaisyPatchSM (or any 
  12:../../../../../DaisyExamples/libDaisy//src/hid/audio.h ****  *            board that includes one of those objects) then the intialization
  13:../../../../../DaisyExamples/libDaisy//src/hid/audio.h ****  *            is already taken  care of.
  14:../../../../../DaisyExamples/libDaisy//src/hid/audio.h ****  *           If you're setting up your own custom hardware, or need to make changes
  15:../../../../../DaisyExamples/libDaisy//src/hid/audio.h ****  *           you will have to take the following steps:
  16:../../../../../DaisyExamples/libDaisy//src/hid/audio.h ****  *             1. Create and Initialize an SaiHandle or two depending on your requirements
  17:../../../../../DaisyExamples/libDaisy//src/hid/audio.h ****  *             2. Initialize the Audio Handle with the desired settings and the Initialized SaiHand
  18:../../../../../DaisyExamples/libDaisy//src/hid/audio.h ****  *             3. If the connected codec requires special configuration or initialization, do so
  19:../../../../../DaisyExamples/libDaisy//src/hid/audio.h ****  *             4. Write a callback method using either the AudioCallback or the InterleavingAudioCa
  20:../../../../../DaisyExamples/libDaisy//src/hid/audio.h ****  *             5. Start the Audio using one of the StartAudio function
  21:../../../../../DaisyExamples/libDaisy//src/hid/audio.h ****  */
  22:../../../../../DaisyExamples/libDaisy//src/hid/audio.h **** class AudioHandle
  23:../../../../../DaisyExamples/libDaisy//src/hid/audio.h **** {
  24:../../../../../DaisyExamples/libDaisy//src/hid/audio.h ****   public:
  25:../../../../../DaisyExamples/libDaisy//src/hid/audio.h ****     /** Manually configurable details about the Audio Engine */
  26:../../../../../DaisyExamples/libDaisy//src/hid/audio.h ****     /** TODO: Figure out how to get samplerate in here. */
  27:../../../../../DaisyExamples/libDaisy//src/hid/audio.h ****     struct Config
  28:../../../../../DaisyExamples/libDaisy//src/hid/audio.h ****     {
  29:../../../../../DaisyExamples/libDaisy//src/hid/audio.h ****         /** number of samples to process per callback */
  30:../../../../../DaisyExamples/libDaisy//src/hid/audio.h ****         size_t blocksize;
  31:../../../../../DaisyExamples/libDaisy//src/hid/audio.h **** 
  32:../../../../../DaisyExamples/libDaisy//src/hid/audio.h ****         /**< Sample rate of audio */
  33:../../../../../DaisyExamples/libDaisy//src/hid/audio.h ****         SaiHandle::Config::SampleRate samplerate;
  34:../../../../../DaisyExamples/libDaisy//src/hid/audio.h **** 
  35:../../../../../DaisyExamples/libDaisy//src/hid/audio.h ****         /** factor for adjustment before and after callback for hardware that may have extra headro
  36:../../../../../DaisyExamples/libDaisy//src/hid/audio.h ****         float postgain;
  37:../../../../../DaisyExamples/libDaisy//src/hid/audio.h **** 
  38:../../../../../DaisyExamples/libDaisy//src/hid/audio.h ****         /** factor for additional one-sided compensation to audio path for hardware that may
  39:../../../../../DaisyExamples/libDaisy//src/hid/audio.h ****          *  have unequal input/output ranges
  40:../../../../../DaisyExamples/libDaisy//src/hid/audio.h ****          */
  41:../../../../../DaisyExamples/libDaisy//src/hid/audio.h ****         float output_compensation;
  42:../../../../../DaisyExamples/libDaisy//src/hid/audio.h **** 
  43:../../../../../DaisyExamples/libDaisy//src/hid/audio.h ****         /** Sets default values for config struct */
  44:../../../../../DaisyExamples/libDaisy//src/hid/audio.h ****         Config()
  45:../../../../../DaisyExamples/libDaisy//src/hid/audio.h ****         : blocksize(48),
  46:../../../../../DaisyExamples/libDaisy//src/hid/audio.h ****           samplerate(SaiHandle::Config::SampleRate::SAI_48KHZ),
  47:../../../../../DaisyExamples/libDaisy//src/hid/audio.h ****           postgain(1.f),
  48:../../../../../DaisyExamples/libDaisy//src/hid/audio.h ****           output_compensation(1.f)
  49:../../../../../DaisyExamples/libDaisy//src/hid/audio.h ****         {
  50:../../../../../DaisyExamples/libDaisy//src/hid/audio.h ****         }
ARM GAS  C:\Users\samue\AppData\Local\Temp\cc5RpClg.s 			page 8


  51:../../../../../DaisyExamples/libDaisy//src/hid/audio.h ****     };
  52:../../../../../DaisyExamples/libDaisy//src/hid/audio.h **** 
  53:../../../../../DaisyExamples/libDaisy//src/hid/audio.h ****     enum class Result
  54:../../../../../DaisyExamples/libDaisy//src/hid/audio.h ****     {
  55:../../../../../DaisyExamples/libDaisy//src/hid/audio.h ****         OK,
  56:../../../../../DaisyExamples/libDaisy//src/hid/audio.h ****         ERR,
  57:../../../../../DaisyExamples/libDaisy//src/hid/audio.h ****     };
  58:../../../../../DaisyExamples/libDaisy//src/hid/audio.h **** 
  59:../../../../../DaisyExamples/libDaisy//src/hid/audio.h ****     /** Non-Interleaving input buffer
  60:../../../../../DaisyExamples/libDaisy//src/hid/audio.h ****      * Buffer arranged by float[chn][sample] 
  61:../../../../../DaisyExamples/libDaisy//src/hid/audio.h ****      * const so that the user can't modify the input
  62:../../../../../DaisyExamples/libDaisy//src/hid/audio.h ****      */
  63:../../../../../DaisyExamples/libDaisy//src/hid/audio.h ****     typedef const float* const* InputBuffer;
  64:../../../../../DaisyExamples/libDaisy//src/hid/audio.h **** 
  65:../../../../../DaisyExamples/libDaisy//src/hid/audio.h ****     /** Non-Interleaving output buffer
  66:../../../../../DaisyExamples/libDaisy//src/hid/audio.h ****      * Arranged by float[chn][sample] 
  67:../../../../../DaisyExamples/libDaisy//src/hid/audio.h ****      */
  68:../../../../../DaisyExamples/libDaisy//src/hid/audio.h ****     typedef float** OutputBuffer;
  69:../../../../../DaisyExamples/libDaisy//src/hid/audio.h **** 
  70:../../../../../DaisyExamples/libDaisy//src/hid/audio.h ****     /** Type for a Non-Interleaving audio callback 
  71:../../../../../DaisyExamples/libDaisy//src/hid/audio.h ****      * Non-Interleaving audio callbacks in daisy will be of this type
  72:../../../../../DaisyExamples/libDaisy//src/hid/audio.h ****      */
  73:../../../../../DaisyExamples/libDaisy//src/hid/audio.h ****     typedef void (*AudioCallback)(InputBuffer  in,
  74:../../../../../DaisyExamples/libDaisy//src/hid/audio.h ****                                   OutputBuffer out,
  75:../../../../../DaisyExamples/libDaisy//src/hid/audio.h ****                                   size_t       size);
  76:../../../../../DaisyExamples/libDaisy//src/hid/audio.h **** 
  77:../../../../../DaisyExamples/libDaisy//src/hid/audio.h ****     /** Interleaving Input buffer
  78:../../../../../DaisyExamples/libDaisy//src/hid/audio.h ****      ** audio is prepared as { L0, R0, L1, R1, . . . LN, RN }]
  79:../../../../../DaisyExamples/libDaisy//src/hid/audio.h ****      ** this is const, as the user shouldn't modify it
  80:../../../../../DaisyExamples/libDaisy//src/hid/audio.h ****     */
  81:../../../../../DaisyExamples/libDaisy//src/hid/audio.h ****     typedef const float* InterleavingInputBuffer;
  82:../../../../../DaisyExamples/libDaisy//src/hid/audio.h **** 
  83:../../../../../DaisyExamples/libDaisy//src/hid/audio.h ****     /** Interleaving Output buffer 
  84:../../../../../DaisyExamples/libDaisy//src/hid/audio.h ****      ** audio is prepared as { L0, R0, L1, R1, . . . LN, RN }
  85:../../../../../DaisyExamples/libDaisy//src/hid/audio.h ****     */
  86:../../../../../DaisyExamples/libDaisy//src/hid/audio.h ****     typedef float* InterleavingOutputBuffer;
  87:../../../../../DaisyExamples/libDaisy//src/hid/audio.h **** 
  88:../../../../../DaisyExamples/libDaisy//src/hid/audio.h ****     /** Interleaving Audio Callback 
  89:../../../../../DaisyExamples/libDaisy//src/hid/audio.h ****      * Interleaving audio callbacks in daisy must be of this type
  90:../../../../../DaisyExamples/libDaisy//src/hid/audio.h ****      */
  91:../../../../../DaisyExamples/libDaisy//src/hid/audio.h ****     typedef void (*InterleavingAudioCallback)(InterleavingInputBuffer  in,
  92:../../../../../DaisyExamples/libDaisy//src/hid/audio.h ****                                               InterleavingOutputBuffer out,
  93:../../../../../DaisyExamples/libDaisy//src/hid/audio.h ****                                               size_t                   size);
  94:../../../../../DaisyExamples/libDaisy//src/hid/audio.h **** 
  95:../../../../../DaisyExamples/libDaisy//src/hid/audio.h ****     AudioHandle() : pimpl_(nullptr) {}
  96:../../../../../DaisyExamples/libDaisy//src/hid/audio.h ****     ~AudioHandle() {}
  60              		.loc 6 96 5 is_stmt 1 view .LVU8
  61              		.loc 6 96 5 is_stmt 0 view .LVU9
  62              	.LBE214:
  63              	.LBE210:
  64              	.LBB215:
  65              	.LBI215:
  66              		.file 7 "../../../../../DaisyExamples/libDaisy//src/hid/switch.h"
   1:../../../../../DaisyExamples/libDaisy//src/hid/switch.h **** #pragma once
   2:../../../../../DaisyExamples/libDaisy//src/hid/switch.h **** #ifndef DSY_SWITCH_H
   3:../../../../../DaisyExamples/libDaisy//src/hid/switch.h **** #define DSY_SWITCH_H
   4:../../../../../DaisyExamples/libDaisy//src/hid/switch.h **** #include "daisy_core.h"
ARM GAS  C:\Users\samue\AppData\Local\Temp\cc5RpClg.s 			page 9


   5:../../../../../DaisyExamples/libDaisy//src/hid/switch.h **** #include "per/gpio.h"
   6:../../../../../DaisyExamples/libDaisy//src/hid/switch.h **** #include "sys/system.h"
   7:../../../../../DaisyExamples/libDaisy//src/hid/switch.h **** 
   8:../../../../../DaisyExamples/libDaisy//src/hid/switch.h **** namespace daisy
   9:../../../../../DaisyExamples/libDaisy//src/hid/switch.h **** {
  10:../../../../../DaisyExamples/libDaisy//src/hid/switch.h **** /** 
  11:../../../../../DaisyExamples/libDaisy//src/hid/switch.h ****     Generic Class for handling momentary/latching switches \n 
  12:../../../../../DaisyExamples/libDaisy//src/hid/switch.h ****     Inspired/influenced by Mutable Instruments (pichenettes) Switch classes
  13:../../../../../DaisyExamples/libDaisy//src/hid/switch.h ****     @author Stephen Hensley
  14:../../../../../DaisyExamples/libDaisy//src/hid/switch.h ****     @date December 2019
  15:../../../../../DaisyExamples/libDaisy//src/hid/switch.h ****     @ingroup controls
  16:../../../../../DaisyExamples/libDaisy//src/hid/switch.h **** */
  17:../../../../../DaisyExamples/libDaisy//src/hid/switch.h **** class Switch
  18:../../../../../DaisyExamples/libDaisy//src/hid/switch.h **** {
  19:../../../../../DaisyExamples/libDaisy//src/hid/switch.h ****   public:
  20:../../../../../DaisyExamples/libDaisy//src/hid/switch.h ****     /** Specifies the expected behavior of the switch */
  21:../../../../../DaisyExamples/libDaisy//src/hid/switch.h ****     enum Type
  22:../../../../../DaisyExamples/libDaisy//src/hid/switch.h ****     {
  23:../../../../../DaisyExamples/libDaisy//src/hid/switch.h ****         TYPE_TOGGLE,    /**< & */
  24:../../../../../DaisyExamples/libDaisy//src/hid/switch.h ****         TYPE_MOMENTARY, /**< & */
  25:../../../../../DaisyExamples/libDaisy//src/hid/switch.h ****     };
  26:../../../../../DaisyExamples/libDaisy//src/hid/switch.h ****     /** Specifies whether the pressed is HIGH or LOW. */
  27:../../../../../DaisyExamples/libDaisy//src/hid/switch.h ****     enum Polarity
  28:../../../../../DaisyExamples/libDaisy//src/hid/switch.h ****     {
  29:../../../../../DaisyExamples/libDaisy//src/hid/switch.h ****         POLARITY_NORMAL,   /**< & */
  30:../../../../../DaisyExamples/libDaisy//src/hid/switch.h ****         POLARITY_INVERTED, /**< & */
  31:../../../../../DaisyExamples/libDaisy//src/hid/switch.h ****     };
  32:../../../../../DaisyExamples/libDaisy//src/hid/switch.h **** 
  33:../../../../../DaisyExamples/libDaisy//src/hid/switch.h ****     /** Specifies whether to use built-in Pull Up/Down resistors to hold button at a given state wh
  34:../../../../../DaisyExamples/libDaisy//src/hid/switch.h ****     enum Pull
  35:../../../../../DaisyExamples/libDaisy//src/hid/switch.h ****     {
  36:../../../../../DaisyExamples/libDaisy//src/hid/switch.h ****         PULL_UP,   /**< & */
  37:../../../../../DaisyExamples/libDaisy//src/hid/switch.h ****         PULL_DOWN, /**< & */
  38:../../../../../DaisyExamples/libDaisy//src/hid/switch.h ****         PULL_NONE, /**< & */
  39:../../../../../DaisyExamples/libDaisy//src/hid/switch.h ****     };
  40:../../../../../DaisyExamples/libDaisy//src/hid/switch.h **** 
  41:../../../../../DaisyExamples/libDaisy//src/hid/switch.h ****     Switch() {}
  42:../../../../../DaisyExamples/libDaisy//src/hid/switch.h ****     ~Switch() {}
  67              		.loc 7 42 5 is_stmt 1 view .LVU10
  68              		.loc 7 42 5 is_stmt 0 view .LVU11
  69              	.LBE215:
  70              	.LBB216:
  71              	.LBI216:
  72              		.file 8 "../../../../../DaisyExamples/libDaisy//src/hid/switch3.h"
   1:../../../../../DaisyExamples/libDaisy//src/hid/switch3.h **** #pragma once
   2:../../../../../DaisyExamples/libDaisy//src/hid/switch3.h **** #include "daisy_core.h"
   3:../../../../../DaisyExamples/libDaisy//src/hid/switch3.h **** #include "per/gpio.h"
   4:../../../../../DaisyExamples/libDaisy//src/hid/switch3.h **** 
   5:../../../../../DaisyExamples/libDaisy//src/hid/switch3.h **** namespace daisy
   6:../../../../../DaisyExamples/libDaisy//src/hid/switch3.h **** {
   7:../../../../../DaisyExamples/libDaisy//src/hid/switch3.h **** class Switch3
   8:../../../../../DaisyExamples/libDaisy//src/hid/switch3.h **** {
   9:../../../../../DaisyExamples/libDaisy//src/hid/switch3.h ****   public:
  10:../../../../../DaisyExamples/libDaisy//src/hid/switch3.h ****     enum
  11:../../../../../DaisyExamples/libDaisy//src/hid/switch3.h ****     {
  12:../../../../../DaisyExamples/libDaisy//src/hid/switch3.h ****         POS_CENTER = 0,
  13:../../../../../DaisyExamples/libDaisy//src/hid/switch3.h ****         POS_LEFT   = 1,
ARM GAS  C:\Users\samue\AppData\Local\Temp\cc5RpClg.s 			page 10


  14:../../../../../DaisyExamples/libDaisy//src/hid/switch3.h ****         POS_UP     = 1,
  15:../../../../../DaisyExamples/libDaisy//src/hid/switch3.h ****         POS_RIGHT  = 2,
  16:../../../../../DaisyExamples/libDaisy//src/hid/switch3.h ****         POS_DOWN   = 2,
  17:../../../../../DaisyExamples/libDaisy//src/hid/switch3.h ****     };
  18:../../../../../DaisyExamples/libDaisy//src/hid/switch3.h **** 
  19:../../../../../DaisyExamples/libDaisy//src/hid/switch3.h **** 
  20:../../../../../DaisyExamples/libDaisy//src/hid/switch3.h ****     Switch3() {}
  21:../../../../../DaisyExamples/libDaisy//src/hid/switch3.h ****     ~Switch3() {}
  73              		.loc 8 21 5 is_stmt 1 view .LVU12
  74              		.loc 8 21 5 is_stmt 0 view .LVU13
  75              	.LBE216:
  76              	.LBB217:
  77              	.LBI217:
  78              		.loc 8 21 5 is_stmt 1 view .LVU14
  79              		.loc 8 21 5 is_stmt 0 view .LVU15
  80              	.LBE217:
  81              		.loc 1 20 21 view .LVU16
  82 0000 7047     		bx	lr
  83              		.cfi_endproc
  84              	.LFE4847:
  86              		.weak	_ZN5daisy11daisyCommonD1Ev
  87              		.thumb_set _ZN5daisy11daisyCommonD1Ev,_ZN5daisy11daisyCommonD2Ev
  88 0002 00BF     		.section	.text._ZN5voiceD2Ev,"axG",%progbits,_ZN5voiceD5Ev,comdat
  89              		.align	1
  90              		.p2align 2,,3
  91              		.weak	_ZN5voiceD2Ev
  92              		.syntax unified
  93              		.thumb
  94              		.thumb_func
  95              		.fpu fpv5-d16
  97              	_ZN5voiceD2Ev:
  98              	.LVL1:
  99              	.LFB4853:
 100              		.file 9 "voice.h"
   1:voice.h       **** #include "daisysp.h"
   2:voice.h       **** 
   3:voice.h       **** using namespace daisysp;
   4:voice.h       **** 
   5:voice.h       **** #define SEGMENT_MAX 10.0f
   6:voice.h       **** #define SEGMENT_MIN 0.002f
   7:voice.h       **** #define LPF_FREQ_MIN 20.0f
   8:voice.h       **** #define LPF_FREQ_MAX 20000.0f
   9:voice.h       **** 
  10:voice.h       **** class voice
  11:voice.h       **** {
  12:voice.h       ****     public:
  13:voice.h       ****     voice() {}
  14:voice.h       ****     ~voice() {}
 101              		.loc 9 14 5 is_stmt 1 view -0
 102              		.cfi_startproc
 103              		@ args = 0, pretend = 0, frame = 0
 104              		@ frame_needed = 0, uses_anonymous_args = 0
 105              		@ link register save eliminated.
 106              	.LBB218:
 107              	.LBI218:
 108              		.file 10 "../../../../../DaisyExamples/DaisySP//Source/../DaisySP-LGPL/Source/Effects/reverbsc.h"
   1:../../../../../DaisyExamples/DaisySP//Source/../DaisySP-LGPL/Source/Effects/reverbsc.h **** /*
ARM GAS  C:\Users\samue\AppData\Local\Temp\cc5RpClg.s 			page 11


   2:../../../../../DaisyExamples/DaisySP//Source/../DaisySP-LGPL/Source/Effects/reverbsc.h **** Copyright (c) 2023 Electrosmith, Corp, Sean Costello, Istvan Varga, Paul Batchelor
   3:../../../../../DaisyExamples/DaisySP//Source/../DaisySP-LGPL/Source/Effects/reverbsc.h **** 
   4:../../../../../DaisyExamples/DaisySP//Source/../DaisySP-LGPL/Source/Effects/reverbsc.h **** Use of this source code is governed by the LGPL V2.1
   5:../../../../../DaisyExamples/DaisySP//Source/../DaisySP-LGPL/Source/Effects/reverbsc.h **** license that can be found in the LICENSE file or at
   6:../../../../../DaisyExamples/DaisySP//Source/../DaisySP-LGPL/Source/Effects/reverbsc.h **** https://opensource.org/license/lgpl-2-1/
   7:../../../../../DaisyExamples/DaisySP//Source/../DaisySP-LGPL/Source/Effects/reverbsc.h **** */
   8:../../../../../DaisyExamples/DaisySP//Source/../DaisySP-LGPL/Source/Effects/reverbsc.h **** 
   9:../../../../../DaisyExamples/DaisySP//Source/../DaisySP-LGPL/Source/Effects/reverbsc.h **** #pragma once
  10:../../../../../DaisyExamples/DaisySP//Source/../DaisySP-LGPL/Source/Effects/reverbsc.h **** #ifndef DSYSP_REVERBSC_H
  11:../../../../../DaisyExamples/DaisySP//Source/../DaisySP-LGPL/Source/Effects/reverbsc.h **** #define DSYSP_REVERBSC_H
  12:../../../../../DaisyExamples/DaisySP//Source/../DaisySP-LGPL/Source/Effects/reverbsc.h **** 
  13:../../../../../DaisyExamples/DaisySP//Source/../DaisySP-LGPL/Source/Effects/reverbsc.h **** #define DSY_REVERBSC_MAX_SIZE 98936
  14:../../../../../DaisyExamples/DaisySP//Source/../DaisySP-LGPL/Source/Effects/reverbsc.h **** 
  15:../../../../../DaisyExamples/DaisySP//Source/../DaisySP-LGPL/Source/Effects/reverbsc.h **** namespace daisysp
  16:../../../../../DaisyExamples/DaisySP//Source/../DaisySP-LGPL/Source/Effects/reverbsc.h **** {
  17:../../../../../DaisyExamples/DaisySP//Source/../DaisySP-LGPL/Source/Effects/reverbsc.h **** /**Delay line for internal reverb use
  18:../../../../../DaisyExamples/DaisySP//Source/../DaisySP-LGPL/Source/Effects/reverbsc.h **** */
  19:../../../../../DaisyExamples/DaisySP//Source/../DaisySP-LGPL/Source/Effects/reverbsc.h **** typedef struct
  20:../../../../../DaisyExamples/DaisySP//Source/../DaisySP-LGPL/Source/Effects/reverbsc.h **** {
  21:../../../../../DaisyExamples/DaisySP//Source/../DaisySP-LGPL/Source/Effects/reverbsc.h ****     int    write_pos;         /**< write position */
  22:../../../../../DaisyExamples/DaisySP//Source/../DaisySP-LGPL/Source/Effects/reverbsc.h ****     int    buffer_size;       /**< buffer size */
  23:../../../../../DaisyExamples/DaisySP//Source/../DaisySP-LGPL/Source/Effects/reverbsc.h ****     int    read_pos;          /**< read position */
  24:../../../../../DaisyExamples/DaisySP//Source/../DaisySP-LGPL/Source/Effects/reverbsc.h ****     int    read_pos_frac;     /**< fractional component of read pos */
  25:../../../../../DaisyExamples/DaisySP//Source/../DaisySP-LGPL/Source/Effects/reverbsc.h ****     int    read_pos_frac_inc; /**< increment for fractional */
  26:../../../../../DaisyExamples/DaisySP//Source/../DaisySP-LGPL/Source/Effects/reverbsc.h ****     int    dummy;             /**<  dummy var */
  27:../../../../../DaisyExamples/DaisySP//Source/../DaisySP-LGPL/Source/Effects/reverbsc.h ****     int    seed_val;          /**< randseed */
  28:../../../../../DaisyExamples/DaisySP//Source/../DaisySP-LGPL/Source/Effects/reverbsc.h ****     int    rand_line_cnt;     /**< number of random lines */
  29:../../../../../DaisyExamples/DaisySP//Source/../DaisySP-LGPL/Source/Effects/reverbsc.h ****     float  filter_state;      /**< state of filter */
  30:../../../../../DaisyExamples/DaisySP//Source/../DaisySP-LGPL/Source/Effects/reverbsc.h ****     float *buf;               /**< buffer ptr */
  31:../../../../../DaisyExamples/DaisySP//Source/../DaisySP-LGPL/Source/Effects/reverbsc.h **** } ReverbScDl;
  32:../../../../../DaisyExamples/DaisySP//Source/../DaisySP-LGPL/Source/Effects/reverbsc.h **** 
  33:../../../../../DaisyExamples/DaisySP//Source/../DaisySP-LGPL/Source/Effects/reverbsc.h **** /** Stereo Reverb */
  34:../../../../../DaisyExamples/DaisySP//Source/../DaisySP-LGPL/Source/Effects/reverbsc.h **** class ReverbSc
  35:../../../../../DaisyExamples/DaisySP//Source/../DaisySP-LGPL/Source/Effects/reverbsc.h **** {
  36:../../../../../DaisyExamples/DaisySP//Source/../DaisySP-LGPL/Source/Effects/reverbsc.h ****   public:
  37:../../../../../DaisyExamples/DaisySP//Source/../DaisySP-LGPL/Source/Effects/reverbsc.h ****     ReverbSc() {}
  38:../../../../../DaisyExamples/DaisySP//Source/../DaisySP-LGPL/Source/Effects/reverbsc.h ****     ~ReverbSc() {}
 109              		.loc 10 38 5 view .LVU18
 110              		.loc 10 38 5 is_stmt 0 view .LVU19
 111              	.LBE218:
 112              	.LBB219:
 113              	.LBI219:
 114              		.file 11 "../../../../../DaisyExamples/DaisySP//Source/Control/adsr.h"
   1:../../../../../DaisyExamples/DaisySP//Source/Control/adsr.h **** /*
   2:../../../../../DaisyExamples/DaisySP//Source/Control/adsr.h **** Copyright (c) 2020 Electrosmith, Corp, Paul Batchelor
   3:../../../../../DaisyExamples/DaisySP//Source/Control/adsr.h **** 
   4:../../../../../DaisyExamples/DaisySP//Source/Control/adsr.h **** Use of this source code is governed by an MIT-style
   5:../../../../../DaisyExamples/DaisySP//Source/Control/adsr.h **** license that can be found in the LICENSE file or at
   6:../../../../../DaisyExamples/DaisySP//Source/Control/adsr.h **** https://opensource.org/licenses/MIT.
   7:../../../../../DaisyExamples/DaisySP//Source/Control/adsr.h **** */
   8:../../../../../DaisyExamples/DaisySP//Source/Control/adsr.h **** 
   9:../../../../../DaisyExamples/DaisySP//Source/Control/adsr.h **** #pragma once
  10:../../../../../DaisyExamples/DaisySP//Source/Control/adsr.h **** #ifndef DSY_ADSR_H
  11:../../../../../DaisyExamples/DaisySP//Source/Control/adsr.h **** #define DSY_ADSR_H
  12:../../../../../DaisyExamples/DaisySP//Source/Control/adsr.h **** 
  13:../../../../../DaisyExamples/DaisySP//Source/Control/adsr.h **** #include <stdint.h>
  14:../../../../../DaisyExamples/DaisySP//Source/Control/adsr.h **** #ifdef __cplusplus
ARM GAS  C:\Users\samue\AppData\Local\Temp\cc5RpClg.s 			page 12


  15:../../../../../DaisyExamples/DaisySP//Source/Control/adsr.h **** 
  16:../../../../../DaisyExamples/DaisySP//Source/Control/adsr.h **** namespace daisysp
  17:../../../../../DaisyExamples/DaisySP//Source/Control/adsr.h **** {
  18:../../../../../DaisyExamples/DaisySP//Source/Control/adsr.h **** /** Distinct stages that the phase of the envelope can be located in.
  19:../../../../../DaisyExamples/DaisySP//Source/Control/adsr.h **** - IDLE   = located at phase location 0, and not currently running
  20:../../../../../DaisyExamples/DaisySP//Source/Control/adsr.h **** - ATTACK  = First segment of envelope where phase moves from 0 to 1
  21:../../../../../DaisyExamples/DaisySP//Source/Control/adsr.h **** - DECAY   = Second segment of envelope where phase moves from 1 to SUSTAIN value
  22:../../../../../DaisyExamples/DaisySP//Source/Control/adsr.h **** - RELEASE =     Fourth segment of envelop where phase moves from SUSTAIN to 0
  23:../../../../../DaisyExamples/DaisySP//Source/Control/adsr.h **** */
  24:../../../../../DaisyExamples/DaisySP//Source/Control/adsr.h **** enum
  25:../../../../../DaisyExamples/DaisySP//Source/Control/adsr.h **** {
  26:../../../../../DaisyExamples/DaisySP//Source/Control/adsr.h ****     ADSR_SEG_IDLE    = 0,
  27:../../../../../DaisyExamples/DaisySP//Source/Control/adsr.h ****     ADSR_SEG_ATTACK  = 1,
  28:../../../../../DaisyExamples/DaisySP//Source/Control/adsr.h ****     ADSR_SEG_DECAY   = 2,
  29:../../../../../DaisyExamples/DaisySP//Source/Control/adsr.h ****     ADSR_SEG_RELEASE = 4
  30:../../../../../DaisyExamples/DaisySP//Source/Control/adsr.h **** };
  31:../../../../../DaisyExamples/DaisySP//Source/Control/adsr.h **** 
  32:../../../../../DaisyExamples/DaisySP//Source/Control/adsr.h **** 
  33:../../../../../DaisyExamples/DaisySP//Source/Control/adsr.h **** /** adsr envelope module
  34:../../../../../DaisyExamples/DaisySP//Source/Control/adsr.h **** 
  35:../../../../../DaisyExamples/DaisySP//Source/Control/adsr.h **** Original author(s) : Paul Batchelor
  36:../../../../../DaisyExamples/DaisySP//Source/Control/adsr.h **** 
  37:../../../../../DaisyExamples/DaisySP//Source/Control/adsr.h **** Ported from Soundpipe by Ben Sergentanis, May 2020
  38:../../../../../DaisyExamples/DaisySP//Source/Control/adsr.h ****  
  39:../../../../../DaisyExamples/DaisySP//Source/Control/adsr.h **** Remake by Steffan DIedrichsen, May 2021
  40:../../../../../DaisyExamples/DaisySP//Source/Control/adsr.h **** */
  41:../../../../../DaisyExamples/DaisySP//Source/Control/adsr.h **** class Adsr
  42:../../../../../DaisyExamples/DaisySP//Source/Control/adsr.h **** {
  43:../../../../../DaisyExamples/DaisySP//Source/Control/adsr.h ****   public:
  44:../../../../../DaisyExamples/DaisySP//Source/Control/adsr.h ****     Adsr() {}
  45:../../../../../DaisyExamples/DaisySP//Source/Control/adsr.h ****     ~Adsr() {}
 115              		.loc 11 45 5 is_stmt 1 view .LVU20
 116              		.loc 11 45 5 is_stmt 0 view .LVU21
 117              	.LBE219:
 118              		.loc 9 14 15 view .LVU22
 119 0000 7047     		bx	lr
 120              		.cfi_endproc
 121              	.LFE4853:
 123              		.weak	_ZN5voiceD1Ev
 124              		.thumb_set _ZN5voiceD1Ev,_ZN5voiceD2Ev
 125 0002 00BF     		.section	.text._Z13AudioCallbackPKPKfPPfj,"ax",%progbits
 126              		.align	1
 127              		.p2align 2,,3
 128              		.global	_Z13AudioCallbackPKPKfPPfj
 129              		.syntax unified
 130              		.thumb
 131              		.thumb_func
 132              		.fpu fpv5-d16
 134              	_Z13AudioCallbackPKPKfPPfj:
 135              	.LVL2:
 136              	.LFB4855:
 137              		.file 12 "ampenv.cpp"
   1:ampenv.cpp    **** #include "daisy_seed.h"
   2:ampenv.cpp    **** #include "daisysp.h"
   3:ampenv.cpp    **** #include "daisy_common.h"
   4:ampenv.cpp    **** #include "voice.h"
   5:ampenv.cpp    **** 
ARM GAS  C:\Users\samue\AppData\Local\Temp\cc5RpClg.s 			page 13


   6:ampenv.cpp    **** using namespace daisy;
   7:ampenv.cpp    **** using namespace daisysp;
   8:ampenv.cpp    **** 
   9:ampenv.cpp    **** daisyCommon board;
  10:ampenv.cpp    **** int blocksize = 32;
  11:ampenv.cpp    **** float fs = 48000;
  12:ampenv.cpp    **** 
  13:ampenv.cpp    **** voice ampenv;
  14:ampenv.cpp    **** 
  15:ampenv.cpp    **** enum
  16:ampenv.cpp    **** {
  17:ampenv.cpp    **** 	volume, env_amount, attack, decay, sustain, release, gate, env_out, feedback, dampening_filter
  18:ampenv.cpp    **** };
  19:ampenv.cpp    **** 
  20:ampenv.cpp    **** void AudioCallback(AudioHandle::InputBuffer in, AudioHandle::OutputBuffer out, size_t size)
  21:ampenv.cpp    **** {
 138              		.loc 12 21 1 is_stmt 1 view -0
 139              		.cfi_startproc
 140              		@ args = 0, pretend = 0, frame = 0
 141              		@ frame_needed = 0, uses_anonymous_args = 0
  22:ampenv.cpp    **** 	for (size_t i = 0; i < size; i++)
 142              		.loc 12 22 2 view .LVU24
 143              	.LBB220:
 144              		.loc 12 22 23 view .LVU25
 145 0000 C2B1     		cbz	r2, .L12
 146              	.LBE220:
  21:ampenv.cpp    **** 	for (size_t i = 0; i < size; i++)
 147              		.loc 12 21 1 is_stmt 0 view .LVU26
 148 0002 2DE9F041 		push	{r4, r5, r6, r7, r8, lr}
 149              		.cfi_def_cfa_offset 24
 150              		.cfi_offset 4, -24
 151              		.cfi_offset 5, -20
 152              		.cfi_offset 6, -16
 153              		.cfi_offset 7, -12
 154              		.cfi_offset 8, -8
 155              		.cfi_offset 14, -4
 156 0006 0746     		mov	r7, r0
 157 0008 8846     		mov	r8, r1
 158 000a 1646     		mov	r6, r2
 159              	.LBB221:
 160              		.loc 12 22 14 view .LVU27
 161 000c 0024     		movs	r4, #0
 162              	.LVL3:
 163              	.L6:
  23:ampenv.cpp    **** 	{
  24:ampenv.cpp    **** 		out[0][i] = ampenv.Process(in[0][i]);
 164              		.loc 12 24 3 is_stmt 1 discriminator 2 view .LVU28
 165              		.loc 12 24 29 is_stmt 0 discriminator 2 view .LVU29
 166 000e 3D68     		ldr	r5, [r7]
 167              		.loc 12 24 11 discriminator 2 view .LVU30
 168 0010 D8F80030 		ldr	r3, [r8]
 169              		.loc 12 24 29 discriminator 2 view .LVU31
 170 0014 05EB840C 		add	ip, r5, r4, lsl #2
 171 0018 0748     		ldr	r0, .L15
 172              		.loc 12 24 11 discriminator 2 view .LVU32
 173 001a 03EB8405 		add	r5, r3, r4, lsl #2
  22:ampenv.cpp    **** 	{
ARM GAS  C:\Users\samue\AppData\Local\Temp\cc5RpClg.s 			page 14


 174              		.loc 12 22 2 discriminator 2 view .LVU33
 175 001e 0134     		adds	r4, r4, #1
 176              	.LVL4:
 177              		.loc 12 24 29 discriminator 2 view .LVU34
 178 0020 9CED000A 		vldr.32	s0, [ip]
 179 0024 FFF7FEFF 		bl	_ZN5voice7ProcessEf
 180              	.LVL5:
  22:ampenv.cpp    **** 	{
 181              		.loc 12 22 23 discriminator 2 view .LVU35
 182 0028 A642     		cmp	r6, r4
 183              		.loc 12 24 13 discriminator 2 view .LVU36
 184 002a 85ED000A 		vstr.32	s0, [r5]
  22:ampenv.cpp    **** 	{
 185              		.loc 12 22 2 is_stmt 1 discriminator 2 view .LVU37
 186              	.LVL6:
  22:ampenv.cpp    **** 	{
 187              		.loc 12 22 23 discriminator 2 view .LVU38
 188 002e EED1     		bne	.L6
 189              	.LBE221:
  25:ampenv.cpp    **** 		//out[1][i] = in[1][i];
  26:ampenv.cpp    **** 	}
  27:ampenv.cpp    **** }
 190              		.loc 12 27 1 is_stmt 0 view .LVU39
 191 0030 BDE8F081 		pop	{r4, r5, r6, r7, r8, pc}
 192              	.LVL7:
 193              	.L12:
 194              		.cfi_def_cfa_offset 0
 195              		.cfi_restore 4
 196              		.cfi_restore 5
 197              		.cfi_restore 6
 198              		.cfi_restore 7
 199              		.cfi_restore 8
 200              		.cfi_restore 14
 201              		.loc 12 27 1 view .LVU40
 202 0034 7047     		bx	lr
 203              	.L16:
 204 0036 00BF     		.align	2
 205              	.L15:
 206 0038 00000000 		.word	ampenv
 207              		.cfi_endproc
 208              	.LFE4855:
 210              		.section	.text.startup.main,"ax",%progbits
 211              		.align	1
 212              		.p2align 2,,3
 213              		.global	main
 214              		.syntax unified
 215              		.thumb
 216              		.thumb_func
 217              		.fpu fpv5-d16
 219              	main:
 220              	.LFB4856:
  28:ampenv.cpp    **** 
  29:ampenv.cpp    **** int main(void)
  30:ampenv.cpp    **** {
 221              		.loc 12 30 1 is_stmt 1 view -0
 222              		.cfi_startproc
 223              		@ args = 0, pretend = 0, frame = 0
ARM GAS  C:\Users\samue\AppData\Local\Temp\cc5RpClg.s 			page 15


 224              		@ frame_needed = 0, uses_anonymous_args = 0
  31:ampenv.cpp    **** 	board.add_dual_control(volume, board.in_2, board.knob_1);
 225              		.loc 12 31 2 view .LVU42
  30:ampenv.cpp    **** 	board.add_dual_control(volume, board.in_2, board.knob_1);
 226              		.loc 12 30 1 is_stmt 0 view .LVU43
 227 0000 08B5     		push	{r3, lr}
 228              		.cfi_def_cfa_offset 8
 229              		.cfi_offset 3, -8
 230              		.cfi_offset 14, -4
 231              		.loc 12 31 24 view .LVU44
 232 0002 0023     		movs	r3, #0
 233 0004 0122     		movs	r2, #1
 234 0006 5348     		ldr	r0, .L20
 235 0008 1946     		mov	r1, r3
 236 000a FFF7FEFF 		bl	_ZN5daisy11daisyCommon16add_dual_controlEiii
 237              	.LVL8:
  32:ampenv.cpp    **** 	board.add_dual_control(env_amount, board.in_3, board.knob_8);
 238              		.loc 12 32 2 is_stmt 1 view .LVU45
 239              		.loc 12 32 24 is_stmt 0 view .LVU46
 240 000e 0723     		movs	r3, #7
 241 0010 0222     		movs	r2, #2
 242 0012 0121     		movs	r1, #1
 243 0014 4F48     		ldr	r0, .L20
 244 0016 FFF7FEFF 		bl	_ZN5daisy11daisyCommon16add_dual_controlEiii
 245              	.LVL9:
  33:ampenv.cpp    **** 	board.add_knob(attack, board.knob_4);
 246              		.loc 12 33 2 is_stmt 1 view .LVU47
 247              		.loc 12 33 16 is_stmt 0 view .LVU48
 248 001a 0322     		movs	r2, #3
 249 001c 0221     		movs	r1, #2
 250 001e 4D48     		ldr	r0, .L20
 251 0020 FFF7FEFF 		bl	_ZN5daisy11daisyCommon8add_knobEii
 252              	.LVL10:
  34:ampenv.cpp    **** 	board.add_knob(decay, board.knob_6);
 253              		.loc 12 34 2 is_stmt 1 view .LVU49
 254              		.loc 12 34 16 is_stmt 0 view .LVU50
 255 0024 0522     		movs	r2, #5
 256 0026 0321     		movs	r1, #3
 257 0028 4A48     		ldr	r0, .L20
 258 002a FFF7FEFF 		bl	_ZN5daisy11daisyCommon8add_knobEii
 259              	.LVL11:
  35:ampenv.cpp    **** 	board.add_knob(sustain, board.knob_5);
 260              		.loc 12 35 2 is_stmt 1 view .LVU51
 261              		.loc 12 35 16 is_stmt 0 view .LVU52
 262 002e 0422     		movs	r2, #4
 263 0030 4848     		ldr	r0, .L20
 264 0032 1146     		mov	r1, r2
 265 0034 FFF7FEFF 		bl	_ZN5daisy11daisyCommon8add_knobEii
 266              	.LVL12:
  36:ampenv.cpp    **** 	board.add_knob(release, board.knob_7);
 267              		.loc 12 36 2 is_stmt 1 view .LVU53
 268              		.loc 12 36 16 is_stmt 0 view .LVU54
 269 0038 0622     		movs	r2, #6
 270 003a 0521     		movs	r1, #5
 271 003c 4548     		ldr	r0, .L20
 272 003e FFF7FEFF 		bl	_ZN5daisy11daisyCommon8add_knobEii
 273              	.LVL13:
ARM GAS  C:\Users\samue\AppData\Local\Temp\cc5RpClg.s 			page 16


  37:ampenv.cpp    **** 	board.add_dual_control(feedback, board.in_6, board.knob_2);
 274              		.loc 12 37 2 is_stmt 1 view .LVU55
 275              		.loc 12 37 24 is_stmt 0 view .LVU56
 276 0042 0123     		movs	r3, #1
 277 0044 0522     		movs	r2, #5
 278 0046 0821     		movs	r1, #8
 279 0048 4248     		ldr	r0, .L20
 280 004a FFF7FEFF 		bl	_ZN5daisy11daisyCommon16add_dual_controlEiii
 281              	.LVL14:
  38:ampenv.cpp    **** 	board.add_dual_control(dampening_filter, board.in_7, board.knob_3);
 282              		.loc 12 38 2 is_stmt 1 view .LVU57
 283              		.loc 12 38 24 is_stmt 0 view .LVU58
 284 004e 0223     		movs	r3, #2
 285 0050 0622     		movs	r2, #6
 286 0052 0921     		movs	r1, #9
 287 0054 3F48     		ldr	r0, .L20
 288 0056 FFF7FEFF 		bl	_ZN5daisy11daisyCommon16add_dual_controlEiii
 289              	.LVL15:
  39:ampenv.cpp    **** 
  40:ampenv.cpp    **** 	board.add_gate_in(gate, board.in_5);
 290              		.loc 12 40 2 is_stmt 1 view .LVU59
 291              		.loc 12 40 19 is_stmt 0 view .LVU60
 292 005a 0422     		movs	r2, #4
 293 005c 0621     		movs	r1, #6
 294 005e 3D48     		ldr	r0, .L20
 295 0060 FFF7FEFF 		bl	_ZN5daisy11daisyCommon11add_gate_inEii
 296              	.LVL16:
  41:ampenv.cpp    **** 	board.add_cv(env_out, board.out_2);
 297              		.loc 12 41 2 is_stmt 1 view .LVU61
 298              		.loc 12 41 14 is_stmt 0 view .LVU62
 299 0064 0922     		movs	r2, #9
 300 0066 0721     		movs	r1, #7
 301 0068 3A48     		ldr	r0, .L20
 302 006a FFF7FEFF 		bl	_ZN5daisy11daisyCommon6add_cvEii
 303              	.LVL17:
  42:ampenv.cpp    **** 
  43:ampenv.cpp    **** 	board.Init();
 304              		.loc 12 43 2 is_stmt 1 view .LVU63
 305              		.loc 12 43 12 is_stmt 0 view .LVU64
 306 006e 0021     		movs	r1, #0
 307 0070 3848     		ldr	r0, .L20
 308 0072 FFF7FEFF 		bl	_ZN5daisy11daisyCommon4InitEb
 309              	.LVL18:
  44:ampenv.cpp    **** 
  45:ampenv.cpp    **** 	//board.seed.StartLog();
  46:ampenv.cpp    **** 
  47:ampenv.cpp    **** 	board.seed.SetAudioBlockSize(blocksize); // number of samples handled per callback
 310              		.loc 12 47 2 is_stmt 1 view .LVU65
 311              		.loc 12 47 30 is_stmt 0 view .LVU66
 312 0076 384B     		ldr	r3, .L20+4
 313 0078 3848     		ldr	r0, .L20+8
 314 007a 1968     		ldr	r1, [r3]
 315 007c FFF7FEFF 		bl	_ZN5daisy9DaisySeed17SetAudioBlockSizeEj
 316              	.LVL19:
  48:ampenv.cpp    **** 	board.seed.SetAudioSampleRate(SaiHandle::Config::SampleRate::SAI_48KHZ);
 317              		.loc 12 48 2 is_stmt 1 view .LVU67
 318              		.loc 12 48 31 is_stmt 0 view .LVU68
ARM GAS  C:\Users\samue\AppData\Local\Temp\cc5RpClg.s 			page 17


 319 0080 0321     		movs	r1, #3
 320 0082 3648     		ldr	r0, .L20+8
 321 0084 FFF7FEFF 		bl	_ZN5daisy9DaisySeed18SetAudioSampleRateENS_9SaiHandle6Config10SampleRateE
 322              	.LVL20:
  49:ampenv.cpp    **** 	board.seed.StartAudio(AudioCallback);
 323              		.loc 12 49 2 is_stmt 1 view .LVU69
 324              		.loc 12 49 23 is_stmt 0 view .LVU70
 325 0088 3448     		ldr	r0, .L20+8
 326 008a 3549     		ldr	r1, .L20+12
 327 008c FFF7FEFF 		bl	_ZN5daisy9DaisySeed10StartAudioEPFvPKPKfPPfjE
 328              	.LVL21:
  50:ampenv.cpp    **** 	
  51:ampenv.cpp    **** 	ampenv.Init(fs);
 329              		.loc 12 51 2 is_stmt 1 view .LVU71
 330              		.loc 12 51 13 is_stmt 0 view .LVU72
 331 0090 344B     		ldr	r3, .L20+16
 332 0092 3548     		ldr	r0, .L20+20
 333 0094 93ED000A 		vldr.32	s0, [r3]
 334 0098 FFF7FEFF 		bl	_ZN5voice4InitEf
 335              	.LVL22:
 336              	.L18:
  52:ampenv.cpp    **** 
  53:ampenv.cpp    **** 	while(1) 
 337              		.loc 12 53 2 is_stmt 1 discriminator 1 view .LVU73
 338              	.LBB222:
  54:ampenv.cpp    **** 	{	
  55:ampenv.cpp    **** 		bool slow_blink = (System::GetNow() & 1023) < 511;
 339              		.loc 12 55 3 discriminator 1 view .LVU74
 340              		.loc 12 55 36 is_stmt 0 discriminator 1 view .LVU75
 341 009c FFF7FEFF 		bl	_ZN5daisy6System6GetNowEv
 342              	.LVL23:
 343 00a0 0146     		mov	r1, r0
 344              	.LVL24:
  56:ampenv.cpp    **** 		board.seed.SetLed(slow_blink);	
 345              		.loc 12 56 3 is_stmt 1 discriminator 1 view .LVU76
 346              		.loc 12 56 20 is_stmt 0 discriminator 1 view .LVU77
 347 00a2 2E48     		ldr	r0, .L20+8
 348              	.LVL25:
  55:ampenv.cpp    **** 		board.seed.SetLed(slow_blink);	
 349              		.loc 12 55 39 discriminator 1 view .LVU78
 350 00a4 C1F30901 		ubfx	r1, r1, #0, #10
 351              	.LVL26:
 352              		.loc 12 56 20 discriminator 1 view .LVU79
 353 00a8 B1F5FF7F 		cmp	r1, #510
 354 00ac 8CBF     		ite	hi
 355 00ae 0021     		movhi	r1, #0
 356 00b0 0121     		movls	r1, #1
 357 00b2 FFF7FEFF 		bl	_ZN5daisy9DaisySeed6SetLedEb
 358              	.LVL27:
  57:ampenv.cpp    **** 
  58:ampenv.cpp    **** 		ampenv.set_volume(board.get_dual_control(volume));
 359              		.loc 12 58 3 is_stmt 1 discriminator 1 view .LVU80
 360              		.loc 12 58 20 is_stmt 0 discriminator 1 view .LVU81
 361 00b6 0021     		movs	r1, #0
 362 00b8 2648     		ldr	r0, .L20
 363 00ba FFF7FEFF 		bl	_ZN5daisy11daisyCommon16get_dual_controlEi
 364              	.LVL28:
ARM GAS  C:\Users\samue\AppData\Local\Temp\cc5RpClg.s 			page 18


 365 00be 2A48     		ldr	r0, .L20+20
 366 00c0 FFF7FEFF 		bl	_ZN5voice10set_volumeEf
 367              	.LVL29:
  59:ampenv.cpp    **** 		ampenv.set_env_amount(board.get_dual_control(env_amount));
 368              		.loc 12 59 3 is_stmt 1 discriminator 1 view .LVU82
 369              		.loc 12 59 24 is_stmt 0 discriminator 1 view .LVU83
 370 00c4 0121     		movs	r1, #1
 371 00c6 2348     		ldr	r0, .L20
 372 00c8 FFF7FEFF 		bl	_ZN5daisy11daisyCommon16get_dual_controlEi
 373              	.LVL30:
 374 00cc 2648     		ldr	r0, .L20+20
 375 00ce FFF7FEFF 		bl	_ZN5voice14set_env_amountEf
 376              	.LVL31:
  60:ampenv.cpp    **** 		ampenv.set_attack(board.get_knob(attack));
 377              		.loc 12 60 3 is_stmt 1 discriminator 1 view .LVU84
 378              		.loc 12 60 20 is_stmt 0 discriminator 1 view .LVU85
 379 00d2 0221     		movs	r1, #2
 380 00d4 1F48     		ldr	r0, .L20
 381 00d6 FFF7FEFF 		bl	_ZN5daisy11daisyCommon8get_knobEi
 382              	.LVL32:
 383 00da 2348     		ldr	r0, .L20+20
 384 00dc FFF7FEFF 		bl	_ZN5voice10set_attackEf
 385              	.LVL33:
  61:ampenv.cpp    **** 		ampenv.set_decay(board.get_knob(decay));
 386              		.loc 12 61 3 is_stmt 1 discriminator 1 view .LVU86
 387              		.loc 12 61 19 is_stmt 0 discriminator 1 view .LVU87
 388 00e0 0321     		movs	r1, #3
 389 00e2 1C48     		ldr	r0, .L20
 390 00e4 FFF7FEFF 		bl	_ZN5daisy11daisyCommon8get_knobEi
 391              	.LVL34:
 392 00e8 1F48     		ldr	r0, .L20+20
 393 00ea FFF7FEFF 		bl	_ZN5voice9set_decayEf
 394              	.LVL35:
  62:ampenv.cpp    **** 		ampenv.set_sustain(board.get_knob(sustain));
 395              		.loc 12 62 3 is_stmt 1 discriminator 1 view .LVU88
 396              		.loc 12 62 21 is_stmt 0 discriminator 1 view .LVU89
 397 00ee 0421     		movs	r1, #4
 398 00f0 1848     		ldr	r0, .L20
 399 00f2 FFF7FEFF 		bl	_ZN5daisy11daisyCommon8get_knobEi
 400              	.LVL36:
 401 00f6 1C48     		ldr	r0, .L20+20
 402 00f8 FFF7FEFF 		bl	_ZN5voice11set_sustainEf
 403              	.LVL37:
  63:ampenv.cpp    **** 		ampenv.set_release(board.get_knob(release));
 404              		.loc 12 63 3 is_stmt 1 discriminator 1 view .LVU90
 405              		.loc 12 63 21 is_stmt 0 discriminator 1 view .LVU91
 406 00fc 0521     		movs	r1, #5
 407 00fe 1548     		ldr	r0, .L20
 408 0100 FFF7FEFF 		bl	_ZN5daisy11daisyCommon8get_knobEi
 409              	.LVL38:
 410 0104 1848     		ldr	r0, .L20+20
 411 0106 FFF7FEFF 		bl	_ZN5voice11set_releaseEf
 412              	.LVL39:
  64:ampenv.cpp    **** 		ampenv.set_feedback(board.get_dual_control(feedback));
 413              		.loc 12 64 3 is_stmt 1 discriminator 1 view .LVU92
 414              		.loc 12 64 22 is_stmt 0 discriminator 1 view .LVU93
 415 010a 0821     		movs	r1, #8
ARM GAS  C:\Users\samue\AppData\Local\Temp\cc5RpClg.s 			page 19


 416 010c 1148     		ldr	r0, .L20
 417 010e FFF7FEFF 		bl	_ZN5daisy11daisyCommon16get_dual_controlEi
 418              	.LVL40:
 419 0112 1548     		ldr	r0, .L20+20
 420 0114 FFF7FEFF 		bl	_ZN5voice12set_feedbackEf
 421              	.LVL41:
  65:ampenv.cpp    **** 		ampenv.set_dampening_filter(board.get_dual_control(dampening_filter));
 422              		.loc 12 65 3 is_stmt 1 discriminator 1 view .LVU94
 423              		.loc 12 65 30 is_stmt 0 discriminator 1 view .LVU95
 424 0118 0921     		movs	r1, #9
 425 011a 0E48     		ldr	r0, .L20
 426 011c FFF7FEFF 		bl	_ZN5daisy11daisyCommon16get_dual_controlEi
 427              	.LVL42:
 428 0120 1148     		ldr	r0, .L20+20
 429 0122 FFF7FEFF 		bl	_ZN5voice20set_dampening_filterEf
 430              	.LVL43:
  66:ampenv.cpp    **** 
  67:ampenv.cpp    **** 		//search for gate input
  68:ampenv.cpp    **** 		ampenv.set_gate(board.get_gate_in(gate));
 431              		.loc 12 68 3 is_stmt 1 discriminator 1 view .LVU96
 432              		.loc 12 68 18 is_stmt 0 discriminator 1 view .LVU97
 433 0126 0621     		movs	r1, #6
 434 0128 0A48     		ldr	r0, .L20
 435 012a FFF7FEFF 		bl	_ZN5daisy11daisyCommon11get_gate_inEi
 436              	.LVL44:
 437 012e 0146     		mov	r1, r0
 438 0130 0D48     		ldr	r0, .L20+20
 439 0132 FFF7FEFF 		bl	_ZN5voice8set_gateEb
 440              	.LVL45:
  69:ampenv.cpp    **** 		board.LED_LEFT.Write(ampenv.get_gate());
 441              		.loc 12 69 3 is_stmt 1 discriminator 1 view .LVU98
 442              		.loc 12 69 23 is_stmt 0 discriminator 1 view .LVU99
 443 0136 0C48     		ldr	r0, .L20+20
 444 0138 FFF7FEFF 		bl	_ZN5voice8get_gateEv
 445              	.LVL46:
 446 013c 0146     		mov	r1, r0
 447 013e 0B48     		ldr	r0, .L20+24
 448 0140 FFF7FEFF 		bl	_ZN5daisy4GPIO5WriteEb
 449              	.LVL47:
  70:ampenv.cpp    **** 
  71:ampenv.cpp    **** 		board.write_dac(ampenv.get_env_value(), env_out);
 450              		.loc 12 71 3 is_stmt 1 discriminator 1 view .LVU100
 451              		.loc 12 71 18 is_stmt 0 discriminator 1 view .LVU101
 452 0144 0848     		ldr	r0, .L20+20
 453 0146 FFF7FEFF 		bl	_ZN5voice13get_env_valueEv
 454              	.LVL48:
 455 014a 0721     		movs	r1, #7
 456 014c 0148     		ldr	r0, .L20
 457 014e FFF7FEFF 		bl	_ZN5daisy11daisyCommon9write_dacEfi
 458              	.LVL49:
 459              	.LBE222:
  53:ampenv.cpp    **** 	{	
 460              		.loc 12 53 2 is_stmt 1 discriminator 1 view .LVU102
 461 0152 A3E7     		b	.L18
 462              	.L21:
 463              		.align	2
 464              	.L20:
ARM GAS  C:\Users\samue\AppData\Local\Temp\cc5RpClg.s 			page 20


 465 0154 00000000 		.word	.LANCHOR0
 466 0158 00000000 		.word	.LANCHOR1
 467 015c 20010000 		.word	.LANCHOR0+288
 468 0160 00000000 		.word	_Z13AudioCallbackPKPKfPPfj
 469 0164 00000000 		.word	.LANCHOR2
 470 0168 00000000 		.word	ampenv
 471 016c A4000000 		.word	.LANCHOR0+164
 472              		.cfi_endproc
 473              	.LFE4856:
 475              		.section	.text.startup._GLOBAL__sub_I_board,"ax",%progbits
 476              		.align	1
 477              		.p2align 2,,3
 478              		.syntax unified
 479              		.thumb
 480              		.thumb_func
 481              		.fpu fpv5-d16
 483              	_GLOBAL__sub_I_board:
 484              	.LFB5419:
  72:ampenv.cpp    **** 
  73:ampenv.cpp    **** 		/*board.seed.DelayMs(500);
  74:ampenv.cpp    **** 		board.seed.PrintLine("Volume: %f", board.get_dual_control(volume));
  75:ampenv.cpp    **** 		board.seed.PrintLine("Env Amt: %f", board.get_dual_control(env_amount));
  76:ampenv.cpp    **** 		board.seed.PrintLine("Attack: %f", board.get_knob(attack));	
  77:ampenv.cpp    **** 		board.seed.PrintLine("Decay: %f", board.get_knob(decay));
  78:ampenv.cpp    **** 		board.seed.PrintLine("Sustain: %f", board.get_knob(sustain));
  79:ampenv.cpp    **** 		board.seed.PrintLine("Release: %f", board.get_knob(release));
  80:ampenv.cpp    **** 		board.seed.PrintLine("Gate: %d", board.get_gate_in(gate));*/
  81:ampenv.cpp    **** 
  82:ampenv.cpp    **** 	}
  83:ampenv.cpp    **** }
 485              		.loc 12 83 1 view -0
 486              		.cfi_startproc
 487              		@ args = 0, pretend = 0, frame = 0
 488              		@ frame_needed = 0, uses_anonymous_args = 0
 489              	.LBB356:
 490              	.LBI356:
 491              		.loc 12 83 1 view .LVU104
 492              	.LVL50:
 493              	.LBB357:
 494              	.LBB358:
 495              	.LBI358:
  19:daisy_common.h ****     ~daisyCommon() {}
 496              		.loc 1 19 5 view .LVU105
 497              	.LBB359:
 498              	.LBB360:
 499              	.LBB361:
 500              	.LBI361:
 501              		.file 13 "../../../../../DaisyExamples/libDaisy//src/per/gpio.h"
   1:../../../../../DaisyExamples/libDaisy//src/per/gpio.h **** #pragma once
   2:../../../../../DaisyExamples/libDaisy//src/per/gpio.h **** #ifndef DSY_GPIO_H
   3:../../../../../DaisyExamples/libDaisy//src/per/gpio.h **** #define DSY_GPIO_H
   4:../../../../../DaisyExamples/libDaisy//src/per/gpio.h **** #include "daisy_core.h"
   5:../../../../../DaisyExamples/libDaisy//src/per/gpio.h **** 
   6:../../../../../DaisyExamples/libDaisy//src/per/gpio.h **** #ifdef __cplusplus
   7:../../../../../DaisyExamples/libDaisy//src/per/gpio.h **** 
   8:../../../../../DaisyExamples/libDaisy//src/per/gpio.h **** namespace daisy
   9:../../../../../DaisyExamples/libDaisy//src/per/gpio.h **** {
ARM GAS  C:\Users\samue\AppData\Local\Temp\cc5RpClg.s 			page 21


  10:../../../../../DaisyExamples/libDaisy//src/per/gpio.h **** /** @brief General Purpose I/O control 
  11:../../../../../DaisyExamples/libDaisy//src/per/gpio.h ****  *  @details peripheral control over a single GPIO
  12:../../../../../DaisyExamples/libDaisy//src/per/gpio.h ****  *  @ingroup peripheral
  13:../../../../../DaisyExamples/libDaisy//src/per/gpio.h ****  *   
  14:../../../../../DaisyExamples/libDaisy//src/per/gpio.h ****  *  Button Input (with internal Pullup resistor)
  15:../../../../../DaisyExamples/libDaisy//src/per/gpio.h ****  *  @include GPIO_Input.cpp 
  16:../../../../../DaisyExamples/libDaisy//src/per/gpio.h ****  * 
  17:../../../../../DaisyExamples/libDaisy//src/per/gpio.h ****  *  Output Example (perfect for blinking an LED)
  18:../../../../../DaisyExamples/libDaisy//src/per/gpio.h ****  *  @include GPIO_Output.cpp
  19:../../../../../DaisyExamples/libDaisy//src/per/gpio.h ****  * 
  20:../../../../../DaisyExamples/libDaisy//src/per/gpio.h **** */
  21:../../../../../DaisyExamples/libDaisy//src/per/gpio.h **** class GPIO
  22:../../../../../DaisyExamples/libDaisy//src/per/gpio.h **** {
  23:../../../../../DaisyExamples/libDaisy//src/per/gpio.h ****   public:
  24:../../../../../DaisyExamples/libDaisy//src/per/gpio.h ****     /** @brief Mode of operation for the specified GPIO */
  25:../../../../../DaisyExamples/libDaisy//src/per/gpio.h ****     enum class Mode
  26:../../../../../DaisyExamples/libDaisy//src/per/gpio.h ****     {
  27:../../../../../DaisyExamples/libDaisy//src/per/gpio.h ****         INPUT,     /**< Input for reading state of pin */
  28:../../../../../DaisyExamples/libDaisy//src/per/gpio.h ****         OUTPUT,    /**< Output w/ push-pull configuration */
  29:../../../../../DaisyExamples/libDaisy//src/per/gpio.h ****         OUTPUT_OD, /**< Output w/ open-drain configuration */
  30:../../../../../DaisyExamples/libDaisy//src/per/gpio.h ****         ANALOG,    /**< Analog for connection to ADC or DAC peripheral */
  31:../../../../../DaisyExamples/libDaisy//src/per/gpio.h ****     };
  32:../../../../../DaisyExamples/libDaisy//src/per/gpio.h **** 
  33:../../../../../DaisyExamples/libDaisy//src/per/gpio.h ****     /** @brief Configures whether an internal Pull up or Pull down resistor is used. 
  34:../../../../../DaisyExamples/libDaisy//src/per/gpio.h ****      *  
  35:../../../../../DaisyExamples/libDaisy//src/per/gpio.h ****      * Internal Pull up/down resistors are typically 40k ohms, and will be between
  36:../../../../../DaisyExamples/libDaisy//src/per/gpio.h ****      * 30k and 50k
  37:../../../../../DaisyExamples/libDaisy//src/per/gpio.h ****      * 
  38:../../../../../DaisyExamples/libDaisy//src/per/gpio.h ****      * When the Pin is configured in Analog mode, the pull up/down resistors are
  39:../../../../../DaisyExamples/libDaisy//src/per/gpio.h ****      * disabled by hardware. 
  40:../../../../../DaisyExamples/libDaisy//src/per/gpio.h ****      */
  41:../../../../../DaisyExamples/libDaisy//src/per/gpio.h ****     enum class Pull
  42:../../../../../DaisyExamples/libDaisy//src/per/gpio.h ****     {
  43:../../../../../DaisyExamples/libDaisy//src/per/gpio.h ****         NOPULL,   /**< No pull up resistor */
  44:../../../../../DaisyExamples/libDaisy//src/per/gpio.h ****         PULLUP,   /**< Internal pull up enabled */
  45:../../../../../DaisyExamples/libDaisy//src/per/gpio.h ****         PULLDOWN, /**< Internal pull down enabled*/
  46:../../../../../DaisyExamples/libDaisy//src/per/gpio.h ****     };
  47:../../../../../DaisyExamples/libDaisy//src/per/gpio.h **** 
  48:../../../../../DaisyExamples/libDaisy//src/per/gpio.h ****     /** @brief Output speed controls the drive strength, and slew rate of the pin */
  49:../../../../../DaisyExamples/libDaisy//src/per/gpio.h ****     enum class Speed
  50:../../../../../DaisyExamples/libDaisy//src/per/gpio.h ****     {
  51:../../../../../DaisyExamples/libDaisy//src/per/gpio.h ****         LOW,
  52:../../../../../DaisyExamples/libDaisy//src/per/gpio.h ****         MEDIUM,
  53:../../../../../DaisyExamples/libDaisy//src/per/gpio.h ****         HIGH,
  54:../../../../../DaisyExamples/libDaisy//src/per/gpio.h ****         VERY_HIGH,
  55:../../../../../DaisyExamples/libDaisy//src/per/gpio.h ****     };
  56:../../../../../DaisyExamples/libDaisy//src/per/gpio.h **** 
  57:../../../../../DaisyExamples/libDaisy//src/per/gpio.h ****     /** @brief Configuration for a given GPIO */
  58:../../../../../DaisyExamples/libDaisy//src/per/gpio.h ****     struct Config
  59:../../../../../DaisyExamples/libDaisy//src/per/gpio.h ****     {
  60:../../../../../DaisyExamples/libDaisy//src/per/gpio.h ****         Pin   pin;
  61:../../../../../DaisyExamples/libDaisy//src/per/gpio.h ****         Mode  mode;
  62:../../../../../DaisyExamples/libDaisy//src/per/gpio.h ****         Pull  pull;
  63:../../../../../DaisyExamples/libDaisy//src/per/gpio.h ****         Speed speed;
  64:../../../../../DaisyExamples/libDaisy//src/per/gpio.h **** 
  65:../../../../../DaisyExamples/libDaisy//src/per/gpio.h ****         /** Constructor with no arguments will prepare an invalid GPIO set as
  66:../../../../../DaisyExamples/libDaisy//src/per/gpio.h ****          *  an input, with no pullup. 
ARM GAS  C:\Users\samue\AppData\Local\Temp\cc5RpClg.s 			page 22


  67:../../../../../DaisyExamples/libDaisy//src/per/gpio.h ****          */
  68:../../../../../DaisyExamples/libDaisy//src/per/gpio.h ****         Config()
  69:../../../../../DaisyExamples/libDaisy//src/per/gpio.h ****         : pin(), mode(Mode::INPUT), pull(Pull::NOPULL), speed(Speed::LOW)
  70:../../../../../DaisyExamples/libDaisy//src/per/gpio.h ****         {
  71:../../../../../DaisyExamples/libDaisy//src/per/gpio.h ****         }
  72:../../../../../DaisyExamples/libDaisy//src/per/gpio.h ****     };
  73:../../../../../DaisyExamples/libDaisy//src/per/gpio.h **** 
  74:../../../../../DaisyExamples/libDaisy//src/per/gpio.h ****     GPIO() {}
 502              		.loc 13 74 5 view .LVU106
 503              	.LBB362:
 504              	.LBB363:
 505              	.LBI363:
  68:../../../../../DaisyExamples/libDaisy//src/per/gpio.h ****         : pin(), mode(Mode::INPUT), pull(Pull::NOPULL), speed(Speed::LOW)
 506              		.loc 13 68 9 view .LVU107
 507              	.LBB364:
 508              	.LBB365:
 509              	.LBB366:
 510              	.LBI366:
 511              		.file 14 "../../../../../DaisyExamples/libDaisy//src/daisy_core.h"
   1:../../../../../DaisyExamples/libDaisy//src/daisy_core.h **** #pragma once
   2:../../../../../DaisyExamples/libDaisy//src/daisy_core.h **** #ifndef DSY_CORE_HW_H
   3:../../../../../DaisyExamples/libDaisy//src/daisy_core.h **** #define DSY_CORE_HW_H /**< & */
   4:../../../../../DaisyExamples/libDaisy//src/daisy_core.h **** #include <stdint.h>
   5:../../../../../DaisyExamples/libDaisy//src/daisy_core.h **** #include <stdlib.h>
   6:../../../../../DaisyExamples/libDaisy//src/daisy_core.h **** 
   7:../../../../../DaisyExamples/libDaisy//src/daisy_core.h **** #if defined(_MSC_VER)
   8:../../../../../DaisyExamples/libDaisy//src/daisy_core.h **** #define FORCE_INLINE __forceinline /**< & */
   9:../../../../../DaisyExamples/libDaisy//src/daisy_core.h **** #elif defined(__clang__)
  10:../../../../../DaisyExamples/libDaisy//src/daisy_core.h **** #define FORCE_INLINE inline __attribute__((always_inline)) /**< & */
  11:../../../../../DaisyExamples/libDaisy//src/daisy_core.h **** #pragma clang diagnostic ignored "-Wduplicate-decl-specifier"
  12:../../../../../DaisyExamples/libDaisy//src/daisy_core.h **** #elif defined(__GNUC__)
  13:../../../../../DaisyExamples/libDaisy//src/daisy_core.h **** #define FORCE_INLINE inline __attribute__((always_inline)) /**< & */
  14:../../../../../DaisyExamples/libDaisy//src/daisy_core.h **** #else
  15:../../../../../DaisyExamples/libDaisy//src/daisy_core.h **** #error unknown compiler
  16:../../../../../DaisyExamples/libDaisy//src/daisy_core.h **** #endif
  17:../../../../../DaisyExamples/libDaisy//src/daisy_core.h **** 
  18:../../../../../DaisyExamples/libDaisy//src/daisy_core.h **** /** @addtogroup utility
  19:../../../../../DaisyExamples/libDaisy//src/daisy_core.h ****     @{
  20:../../../../../DaisyExamples/libDaisy//src/daisy_core.h **** */
  21:../../../../../DaisyExamples/libDaisy//src/daisy_core.h **** 
  22:../../../../../DaisyExamples/libDaisy//src/daisy_core.h **** /** Macro for area of memory that is configured as cacheless
  23:../../../../../DaisyExamples/libDaisy//src/daisy_core.h **** This should be used primarily for DMA buffers, and the like.
  24:../../../../../DaisyExamples/libDaisy//src/daisy_core.h **** */
  25:../../../../../DaisyExamples/libDaisy//src/daisy_core.h **** #define DMA_BUFFER_MEM_SECTION __attribute__((section(".sram1_bss")))
  26:../../../../../DaisyExamples/libDaisy//src/daisy_core.h **** /** 
  27:../../../../../DaisyExamples/libDaisy//src/daisy_core.h **** THE DTCM RAM section is also non-cached. However, is not suitable 
  28:../../../../../DaisyExamples/libDaisy//src/daisy_core.h **** for DMA transfers. Performance is on par with internal SRAM w/ 
  29:../../../../../DaisyExamples/libDaisy//src/daisy_core.h **** cache enabled.
  30:../../../../../DaisyExamples/libDaisy//src/daisy_core.h **** */
  31:../../../../../DaisyExamples/libDaisy//src/daisy_core.h **** #define DTCM_MEM_SECTION __attribute__((section(".dtcmram_bss")))
  32:../../../../../DaisyExamples/libDaisy//src/daisy_core.h **** 
  33:../../../../../DaisyExamples/libDaisy//src/daisy_core.h **** #define FBIPMAX 0.999985f             /**< close to 1.0f-LSB at 16 bit */
  34:../../../../../DaisyExamples/libDaisy//src/daisy_core.h **** #define FBIPMIN (-FBIPMAX)            /**< - (1 - LSB) */
  35:../../../../../DaisyExamples/libDaisy//src/daisy_core.h **** #define U82F_SCALE 0.0078740f         /**< 1 / 127 */
  36:../../../../../DaisyExamples/libDaisy//src/daisy_core.h **** #define F2U8_SCALE 127.0f             /**< 128 - 1 */
  37:../../../../../DaisyExamples/libDaisy//src/daisy_core.h **** #define S82F_SCALE 0.0078125f         /**< 1 / (2**7) */
  38:../../../../../DaisyExamples/libDaisy//src/daisy_core.h **** #define F2S8_SCALE 127.0f             /**< (2 ** 7) - 1 */
ARM GAS  C:\Users\samue\AppData\Local\Temp\cc5RpClg.s 			page 23


  39:../../../../../DaisyExamples/libDaisy//src/daisy_core.h **** #define S162F_SCALE 3.0517578125e-05f /**< 1 / (2** 15) */
  40:../../../../../DaisyExamples/libDaisy//src/daisy_core.h **** #define F2S16_SCALE 32767.0f          /**< (2 ** 15) - 1 */
  41:../../../../../DaisyExamples/libDaisy//src/daisy_core.h **** #define F2S24_SCALE 8388608.0f        /**< 2 ** 23 */
  42:../../../../../DaisyExamples/libDaisy//src/daisy_core.h **** #define S242F_SCALE 1.192092896e-07f  /**< 1 / (2 ** 23) */
  43:../../../../../DaisyExamples/libDaisy//src/daisy_core.h **** #define S24SIGN 0x800000              /**< 2 ** 23 */
  44:../../../../../DaisyExamples/libDaisy//src/daisy_core.h **** #define S322F_SCALE 4.6566129e-10f    /**< 1 / (2** 31) */
  45:../../../../../DaisyExamples/libDaisy//src/daisy_core.h **** #define F2S32_SCALE 2147483647.f      /**< (2 ** 31) - 1 */
  46:../../../../../DaisyExamples/libDaisy//src/daisy_core.h **** 
  47:../../../../../DaisyExamples/libDaisy//src/daisy_core.h **** 
  48:../../../../../DaisyExamples/libDaisy//src/daisy_core.h **** /** shorthand macro for simplifying the reading of the left 
  49:../../../../../DaisyExamples/libDaisy//src/daisy_core.h ****  *  channel of a non-interleaved output buffer named out */
  50:../../../../../DaisyExamples/libDaisy//src/daisy_core.h **** #define OUT_L out[0]
  51:../../../../../DaisyExamples/libDaisy//src/daisy_core.h **** 
  52:../../../../../DaisyExamples/libDaisy//src/daisy_core.h **** /** shorthand macro for simplifying the reading of the right 
  53:../../../../../DaisyExamples/libDaisy//src/daisy_core.h ****  *  channel of a non-interleaved output buffer named out */
  54:../../../../../DaisyExamples/libDaisy//src/daisy_core.h **** #define OUT_R out[1]
  55:../../../../../DaisyExamples/libDaisy//src/daisy_core.h **** 
  56:../../../../../DaisyExamples/libDaisy//src/daisy_core.h **** /** shorthand macro for simplifying the reading of the left 
  57:../../../../../DaisyExamples/libDaisy//src/daisy_core.h ****  *  channel of a non-interleaved input buffer named in */
  58:../../../../../DaisyExamples/libDaisy//src/daisy_core.h **** #define IN_L in[0]
  59:../../../../../DaisyExamples/libDaisy//src/daisy_core.h **** 
  60:../../../../../DaisyExamples/libDaisy//src/daisy_core.h **** /** shorthand macro for simplifying the reading of the right 
  61:../../../../../DaisyExamples/libDaisy//src/daisy_core.h ****  *  channel of a non-interleaved input buffer named in */
  62:../../../../../DaisyExamples/libDaisy//src/daisy_core.h **** #define IN_R in[1]
  63:../../../../../DaisyExamples/libDaisy//src/daisy_core.h **** 
  64:../../../../../DaisyExamples/libDaisy//src/daisy_core.h **** /** 
  65:../../../../../DaisyExamples/libDaisy//src/daisy_core.h ****     Computes cube.
  66:../../../../../DaisyExamples/libDaisy//src/daisy_core.h ****     \param x Number to be cubed
  67:../../../../../DaisyExamples/libDaisy//src/daisy_core.h ****     \return x ^ 3
  68:../../../../../DaisyExamples/libDaisy//src/daisy_core.h **** */
  69:../../../../../DaisyExamples/libDaisy//src/daisy_core.h **** FORCE_INLINE float cube(float x)
  70:../../../../../DaisyExamples/libDaisy//src/daisy_core.h **** {
  71:../../../../../DaisyExamples/libDaisy//src/daisy_core.h ****     return (x * x) * x;
  72:../../../../../DaisyExamples/libDaisy//src/daisy_core.h **** }
  73:../../../../../DaisyExamples/libDaisy//src/daisy_core.h **** 
  74:../../../../../DaisyExamples/libDaisy//src/daisy_core.h **** /** 
  75:../../../../../DaisyExamples/libDaisy//src/daisy_core.h ****     Converts unsigned 8-bit to float
  76:../../../../../DaisyExamples/libDaisy//src/daisy_core.h ****     \param x Number to be scaled.
  77:../../../../../DaisyExamples/libDaisy//src/daisy_core.h ****     \return Scaled number.
  78:../../../../../DaisyExamples/libDaisy//src/daisy_core.h **** */
  79:../../../../../DaisyExamples/libDaisy//src/daisy_core.h **** FORCE_INLINE float u82f(uint8_t x)
  80:../../../../../DaisyExamples/libDaisy//src/daisy_core.h **** {
  81:../../../../../DaisyExamples/libDaisy//src/daisy_core.h ****     return ((float)x - 127.f) * U82F_SCALE;
  82:../../../../../DaisyExamples/libDaisy//src/daisy_core.h **** }
  83:../../../../../DaisyExamples/libDaisy//src/daisy_core.h **** 
  84:../../../../../DaisyExamples/libDaisy//src/daisy_core.h **** /**
  85:../../../../../DaisyExamples/libDaisy//src/daisy_core.h ****     Converts float to unsigned 8-bit
  86:../../../../../DaisyExamples/libDaisy//src/daisy_core.h **** */
  87:../../../../../DaisyExamples/libDaisy//src/daisy_core.h **** FORCE_INLINE uint8_t f2u8(float x)
  88:../../../../../DaisyExamples/libDaisy//src/daisy_core.h **** {
  89:../../../../../DaisyExamples/libDaisy//src/daisy_core.h ****     x = x <= FBIPMIN ? FBIPMIN : x;
  90:../../../../../DaisyExamples/libDaisy//src/daisy_core.h ****     x = x >= FBIPMAX ? FBIPMAX : x;
  91:../../../../../DaisyExamples/libDaisy//src/daisy_core.h ****     return (uint8_t)((x * F2U8_SCALE) + F2U8_SCALE);
  92:../../../../../DaisyExamples/libDaisy//src/daisy_core.h **** }
  93:../../../../../DaisyExamples/libDaisy//src/daisy_core.h **** 
  94:../../../../../DaisyExamples/libDaisy//src/daisy_core.h **** 
  95:../../../../../DaisyExamples/libDaisy//src/daisy_core.h **** /** 
ARM GAS  C:\Users\samue\AppData\Local\Temp\cc5RpClg.s 			page 24


  96:../../../../../DaisyExamples/libDaisy//src/daisy_core.h ****     Converts Signed 8-bit to float
  97:../../../../../DaisyExamples/libDaisy//src/daisy_core.h ****     \param x Number to be scaled.
  98:../../../../../DaisyExamples/libDaisy//src/daisy_core.h ****     \return Scaled number.
  99:../../../../../DaisyExamples/libDaisy//src/daisy_core.h **** */
 100:../../../../../DaisyExamples/libDaisy//src/daisy_core.h **** FORCE_INLINE float s82f(int8_t x)
 101:../../../../../DaisyExamples/libDaisy//src/daisy_core.h **** {
 102:../../../../../DaisyExamples/libDaisy//src/daisy_core.h ****     return (float)x * S82F_SCALE;
 103:../../../../../DaisyExamples/libDaisy//src/daisy_core.h **** }
 104:../../../../../DaisyExamples/libDaisy//src/daisy_core.h **** 
 105:../../../../../DaisyExamples/libDaisy//src/daisy_core.h **** /**
 106:../../../../../DaisyExamples/libDaisy//src/daisy_core.h ****     Converts float to Signed 8-bit
 107:../../../../../DaisyExamples/libDaisy//src/daisy_core.h **** */
 108:../../../../../DaisyExamples/libDaisy//src/daisy_core.h **** FORCE_INLINE int8_t f2s8(float x)
 109:../../../../../DaisyExamples/libDaisy//src/daisy_core.h **** {
 110:../../../../../DaisyExamples/libDaisy//src/daisy_core.h ****     x = x <= FBIPMIN ? FBIPMIN : x;
 111:../../../../../DaisyExamples/libDaisy//src/daisy_core.h ****     x = x >= FBIPMAX ? FBIPMAX : x;
 112:../../../../../DaisyExamples/libDaisy//src/daisy_core.h ****     return (int32_t)(x * F2S8_SCALE);
 113:../../../../../DaisyExamples/libDaisy//src/daisy_core.h **** }
 114:../../../../../DaisyExamples/libDaisy//src/daisy_core.h **** 
 115:../../../../../DaisyExamples/libDaisy//src/daisy_core.h **** /** 
 116:../../../../../DaisyExamples/libDaisy//src/daisy_core.h ****     Converts Signed 16-bit to float
 117:../../../../../DaisyExamples/libDaisy//src/daisy_core.h ****     \param x Number to be scaled.
 118:../../../../../DaisyExamples/libDaisy//src/daisy_core.h ****     \return Scaled number.
 119:../../../../../DaisyExamples/libDaisy//src/daisy_core.h **** */
 120:../../../../../DaisyExamples/libDaisy//src/daisy_core.h **** FORCE_INLINE float s162f(int16_t x)
 121:../../../../../DaisyExamples/libDaisy//src/daisy_core.h **** {
 122:../../../../../DaisyExamples/libDaisy//src/daisy_core.h ****     return (float)x * S162F_SCALE;
 123:../../../../../DaisyExamples/libDaisy//src/daisy_core.h **** }
 124:../../../../../DaisyExamples/libDaisy//src/daisy_core.h **** 
 125:../../../../../DaisyExamples/libDaisy//src/daisy_core.h **** /**
 126:../../../../../DaisyExamples/libDaisy//src/daisy_core.h ****     Converts float to Signed 16-bit
 127:../../../../../DaisyExamples/libDaisy//src/daisy_core.h **** */
 128:../../../../../DaisyExamples/libDaisy//src/daisy_core.h **** FORCE_INLINE int16_t f2s16(float x)
 129:../../../../../DaisyExamples/libDaisy//src/daisy_core.h **** {
 130:../../../../../DaisyExamples/libDaisy//src/daisy_core.h ****     x = x <= FBIPMIN ? FBIPMIN : x;
 131:../../../../../DaisyExamples/libDaisy//src/daisy_core.h ****     x = x >= FBIPMAX ? FBIPMAX : x;
 132:../../../../../DaisyExamples/libDaisy//src/daisy_core.h ****     return (int32_t)(x * F2S16_SCALE);
 133:../../../../../DaisyExamples/libDaisy//src/daisy_core.h **** }
 134:../../../../../DaisyExamples/libDaisy//src/daisy_core.h **** 
 135:../../../../../DaisyExamples/libDaisy//src/daisy_core.h **** /**
 136:../../../../../DaisyExamples/libDaisy//src/daisy_core.h ****     Converts Signed 24-bit to float
 137:../../../../../DaisyExamples/libDaisy//src/daisy_core.h ****  */
 138:../../../../../DaisyExamples/libDaisy//src/daisy_core.h **** FORCE_INLINE float s242f(int32_t x)
 139:../../../../../DaisyExamples/libDaisy//src/daisy_core.h **** {
 140:../../../../../DaisyExamples/libDaisy//src/daisy_core.h ****     x = (x ^ S24SIGN) - S24SIGN; //sign extend aka ((x<<8)>>8)
 141:../../../../../DaisyExamples/libDaisy//src/daisy_core.h ****     return (float)x * S242F_SCALE;
 142:../../../../../DaisyExamples/libDaisy//src/daisy_core.h **** }
 143:../../../../../DaisyExamples/libDaisy//src/daisy_core.h **** /**
 144:../../../../../DaisyExamples/libDaisy//src/daisy_core.h ****     Converts float to Signed 24-bit
 145:../../../../../DaisyExamples/libDaisy//src/daisy_core.h ****  */
 146:../../../../../DaisyExamples/libDaisy//src/daisy_core.h **** FORCE_INLINE int32_t f2s24(float x)
 147:../../../../../DaisyExamples/libDaisy//src/daisy_core.h **** {
 148:../../../../../DaisyExamples/libDaisy//src/daisy_core.h ****     x = x <= FBIPMIN ? FBIPMIN : x;
 149:../../../../../DaisyExamples/libDaisy//src/daisy_core.h ****     x = x >= FBIPMAX ? FBIPMAX : x;
 150:../../../../../DaisyExamples/libDaisy//src/daisy_core.h ****     return (int32_t)(x * F2S24_SCALE);
 151:../../../../../DaisyExamples/libDaisy//src/daisy_core.h **** }
 152:../../../../../DaisyExamples/libDaisy//src/daisy_core.h **** 
ARM GAS  C:\Users\samue\AppData\Local\Temp\cc5RpClg.s 			page 25


 153:../../../../../DaisyExamples/libDaisy//src/daisy_core.h **** /**
 154:../../../../../DaisyExamples/libDaisy//src/daisy_core.h ****     Converts Signed 32-bit to float
 155:../../../../../DaisyExamples/libDaisy//src/daisy_core.h ****  */
 156:../../../../../DaisyExamples/libDaisy//src/daisy_core.h **** FORCE_INLINE float s322f(int32_t x)
 157:../../../../../DaisyExamples/libDaisy//src/daisy_core.h **** {
 158:../../../../../DaisyExamples/libDaisy//src/daisy_core.h ****     return (float)x * S322F_SCALE;
 159:../../../../../DaisyExamples/libDaisy//src/daisy_core.h **** }
 160:../../../../../DaisyExamples/libDaisy//src/daisy_core.h **** /**
 161:../../../../../DaisyExamples/libDaisy//src/daisy_core.h ****     Converts float to Signed 24-bit
 162:../../../../../DaisyExamples/libDaisy//src/daisy_core.h ****  */
 163:../../../../../DaisyExamples/libDaisy//src/daisy_core.h **** FORCE_INLINE int32_t f2s32(float x)
 164:../../../../../DaisyExamples/libDaisy//src/daisy_core.h **** {
 165:../../../../../DaisyExamples/libDaisy//src/daisy_core.h ****     x = x <= FBIPMIN ? FBIPMIN : x;
 166:../../../../../DaisyExamples/libDaisy//src/daisy_core.h ****     x = x >= FBIPMAX ? FBIPMAX : x;
 167:../../../../../DaisyExamples/libDaisy//src/daisy_core.h ****     return (int32_t)(x * F2S32_SCALE);
 168:../../../../../DaisyExamples/libDaisy//src/daisy_core.h **** }
 169:../../../../../DaisyExamples/libDaisy//src/daisy_core.h **** 
 170:../../../../../DaisyExamples/libDaisy//src/daisy_core.h **** 
 171:../../../../../DaisyExamples/libDaisy//src/daisy_core.h **** /** Enums and a simple struct for defining a hardware pin on the MCU
 172:../../../../../DaisyExamples/libDaisy//src/daisy_core.h ****  *  These correlate with the stm32 datasheet, and are used to configure
 173:../../../../../DaisyExamples/libDaisy//src/daisy_core.h ****  *  the hardware.
 174:../../../../../DaisyExamples/libDaisy//src/daisy_core.h ****  * 
 175:../../../../../DaisyExamples/libDaisy//src/daisy_core.h ****  *  This along with the dsy_gpio_pin class should no longer be used.
 176:../../../../../DaisyExamples/libDaisy//src/daisy_core.h ****  *  They are available for backwards compatability. 
 177:../../../../../DaisyExamples/libDaisy//src/daisy_core.h ****  * 
 178:../../../../../DaisyExamples/libDaisy//src/daisy_core.h ****  *  Please use GPIOPort enum and the Pin struct instead.
 179:../../../../../DaisyExamples/libDaisy//src/daisy_core.h ****  */
 180:../../../../../DaisyExamples/libDaisy//src/daisy_core.h **** typedef enum
 181:../../../../../DaisyExamples/libDaisy//src/daisy_core.h **** {
 182:../../../../../DaisyExamples/libDaisy//src/daisy_core.h ****     DSY_GPIOA, /**< & */
 183:../../../../../DaisyExamples/libDaisy//src/daisy_core.h ****     DSY_GPIOB, /**< & */
 184:../../../../../DaisyExamples/libDaisy//src/daisy_core.h ****     DSY_GPIOC, /**< & */
 185:../../../../../DaisyExamples/libDaisy//src/daisy_core.h ****     DSY_GPIOD, /**< & */
 186:../../../../../DaisyExamples/libDaisy//src/daisy_core.h ****     DSY_GPIOE, /**< & */
 187:../../../../../DaisyExamples/libDaisy//src/daisy_core.h ****     DSY_GPIOF, /**< & */
 188:../../../../../DaisyExamples/libDaisy//src/daisy_core.h ****     DSY_GPIOG, /**< & */
 189:../../../../../DaisyExamples/libDaisy//src/daisy_core.h ****     DSY_GPIOH, /**< & */
 190:../../../../../DaisyExamples/libDaisy//src/daisy_core.h ****     DSY_GPIOI, /**< & */
 191:../../../../../DaisyExamples/libDaisy//src/daisy_core.h ****     DSY_GPIOJ, /**< & */
 192:../../../../../DaisyExamples/libDaisy//src/daisy_core.h ****     DSY_GPIOK, /**< & */
 193:../../../../../DaisyExamples/libDaisy//src/daisy_core.h ****     DSY_GPIOX, /** This is a non-existant port for unsupported bits of hardware. */
 194:../../../../../DaisyExamples/libDaisy//src/daisy_core.h ****     DSY_GPIO_LAST, /** Final enum member */
 195:../../../../../DaisyExamples/libDaisy//src/daisy_core.h **** } dsy_gpio_port;
 196:../../../../../DaisyExamples/libDaisy//src/daisy_core.h **** 
 197:../../../../../DaisyExamples/libDaisy//src/daisy_core.h **** /** Hardware define pins 
 198:../../../../../DaisyExamples/libDaisy//src/daisy_core.h ****  *  
 199:../../../../../DaisyExamples/libDaisy//src/daisy_core.h ****  *  The dsy_gpio_pin struct should no longer be used, and is only available for
 200:../../../../../DaisyExamples/libDaisy//src/daisy_core.h ****  *  backwards compatability.
 201:../../../../../DaisyExamples/libDaisy//src/daisy_core.h ****  * 
 202:../../../../../DaisyExamples/libDaisy//src/daisy_core.h ****  *  Please use Pin struct instead.
 203:../../../../../DaisyExamples/libDaisy//src/daisy_core.h ****  */
 204:../../../../../DaisyExamples/libDaisy//src/daisy_core.h **** typedef struct
 205:../../../../../DaisyExamples/libDaisy//src/daisy_core.h **** {
 206:../../../../../DaisyExamples/libDaisy//src/daisy_core.h ****     dsy_gpio_port port; /**< & */
 207:../../../../../DaisyExamples/libDaisy//src/daisy_core.h ****     uint8_t       pin;  /**< number 0-15 */
 208:../../../../../DaisyExamples/libDaisy//src/daisy_core.h **** } dsy_gpio_pin;
 209:../../../../../DaisyExamples/libDaisy//src/daisy_core.h **** 
ARM GAS  C:\Users\samue\AppData\Local\Temp\cc5RpClg.s 			page 26


 210:../../../../../DaisyExamples/libDaisy//src/daisy_core.h **** /** Helper for creating pins from port/pin combos easily
 211:../../../../../DaisyExamples/libDaisy//src/daisy_core.h ****  * 
 212:../../../../../DaisyExamples/libDaisy//src/daisy_core.h ****  *  The dsy_gpio_pin struct should no longer be used, and is only available for
 213:../../../../../DaisyExamples/libDaisy//src/daisy_core.h ****  *  backwards compatability.
 214:../../../../../DaisyExamples/libDaisy//src/daisy_core.h ****  * 
 215:../../../../../DaisyExamples/libDaisy//src/daisy_core.h ****  *  Please use Pin struct instead.
 216:../../../../../DaisyExamples/libDaisy//src/daisy_core.h **** */
 217:../../../../../DaisyExamples/libDaisy//src/daisy_core.h **** FORCE_INLINE dsy_gpio_pin dsy_pin(dsy_gpio_port port, uint8_t pin)
 218:../../../../../DaisyExamples/libDaisy//src/daisy_core.h **** {
 219:../../../../../DaisyExamples/libDaisy//src/daisy_core.h ****     dsy_gpio_pin p;
 220:../../../../../DaisyExamples/libDaisy//src/daisy_core.h ****     p.port = port;
 221:../../../../../DaisyExamples/libDaisy//src/daisy_core.h ****     p.pin  = pin;
 222:../../../../../DaisyExamples/libDaisy//src/daisy_core.h ****     return p;
 223:../../../../../DaisyExamples/libDaisy//src/daisy_core.h **** }
 224:../../../../../DaisyExamples/libDaisy//src/daisy_core.h **** 
 225:../../../../../DaisyExamples/libDaisy//src/daisy_core.h **** /** Helper for testing sameness of two dsy_gpio_pins
 226:../../../../../DaisyExamples/libDaisy//src/daisy_core.h ****  *  \return    1 if same, 0 if different
 227:../../../../../DaisyExamples/libDaisy//src/daisy_core.h ****  * 
 228:../../../../../DaisyExamples/libDaisy//src/daisy_core.h ****  *  The dsy_gpio_pin struct should no longer be used, and is only available for
 229:../../../../../DaisyExamples/libDaisy//src/daisy_core.h ****  *  backwards compatability.
 230:../../../../../DaisyExamples/libDaisy//src/daisy_core.h ****  * 
 231:../../../../../DaisyExamples/libDaisy//src/daisy_core.h ****  *  Please use Pin struct instead.
 232:../../../../../DaisyExamples/libDaisy//src/daisy_core.h ****  */
 233:../../../../../DaisyExamples/libDaisy//src/daisy_core.h **** FORCE_INLINE uint8_t dsy_pin_cmp(dsy_gpio_pin *a, dsy_gpio_pin *b)
 234:../../../../../DaisyExamples/libDaisy//src/daisy_core.h **** {
 235:../../../../../DaisyExamples/libDaisy//src/daisy_core.h ****     return ((a->port == b->port) && (a->pin == b->pin));
 236:../../../../../DaisyExamples/libDaisy//src/daisy_core.h **** }
 237:../../../../../DaisyExamples/libDaisy//src/daisy_core.h **** 
 238:../../../../../DaisyExamples/libDaisy//src/daisy_core.h **** #ifdef __cplusplus
 239:../../../../../DaisyExamples/libDaisy//src/daisy_core.h **** 
 240:../../../../../DaisyExamples/libDaisy//src/daisy_core.h **** namespace daisy
 241:../../../../../DaisyExamples/libDaisy//src/daisy_core.h **** {
 242:../../../../../DaisyExamples/libDaisy//src/daisy_core.h **** /** @brief GPIO Port names */
 243:../../../../../DaisyExamples/libDaisy//src/daisy_core.h **** enum GPIOPort
 244:../../../../../DaisyExamples/libDaisy//src/daisy_core.h **** {
 245:../../../../../DaisyExamples/libDaisy//src/daisy_core.h ****     PORTA, /**< Port A */
 246:../../../../../DaisyExamples/libDaisy//src/daisy_core.h ****     PORTB, /**< Port B */
 247:../../../../../DaisyExamples/libDaisy//src/daisy_core.h ****     PORTC, /**< Port C */
 248:../../../../../DaisyExamples/libDaisy//src/daisy_core.h ****     PORTD, /**< Port D */
 249:../../../../../DaisyExamples/libDaisy//src/daisy_core.h ****     PORTE, /**< Port E */
 250:../../../../../DaisyExamples/libDaisy//src/daisy_core.h ****     PORTF, /**< Port F */
 251:../../../../../DaisyExamples/libDaisy//src/daisy_core.h ****     PORTG, /**< Port G */
 252:../../../../../DaisyExamples/libDaisy//src/daisy_core.h ****     PORTH, /**< Port H */
 253:../../../../../DaisyExamples/libDaisy//src/daisy_core.h ****     PORTI, /**< Port I */
 254:../../../../../DaisyExamples/libDaisy//src/daisy_core.h ****     PORTJ, /**< Port J */
 255:../../../../../DaisyExamples/libDaisy//src/daisy_core.h ****     PORTK, /**< Port K */
 256:../../../../../DaisyExamples/libDaisy//src/daisy_core.h ****     PORTX, /**< Used as a dummy port to signal an invalid pin. */
 257:../../../../../DaisyExamples/libDaisy//src/daisy_core.h **** };
 258:../../../../../DaisyExamples/libDaisy//src/daisy_core.h **** 
 259:../../../../../DaisyExamples/libDaisy//src/daisy_core.h **** /** @brief representation of hardware port/pin combination */
 260:../../../../../DaisyExamples/libDaisy//src/daisy_core.h **** struct Pin
 261:../../../../../DaisyExamples/libDaisy//src/daisy_core.h **** {
 262:../../../../../DaisyExamples/libDaisy//src/daisy_core.h ****     GPIOPort port;
 263:../../../../../DaisyExamples/libDaisy//src/daisy_core.h ****     uint8_t  pin;
 264:../../../../../DaisyExamples/libDaisy//src/daisy_core.h **** 
 265:../../../../../DaisyExamples/libDaisy//src/daisy_core.h ****     /** @brief Constructor creates a valid pin. 
 266:../../../../../DaisyExamples/libDaisy//src/daisy_core.h ****      *  @param pt GPIOPort between PA, and PK corresponding to STM32 Port.
ARM GAS  C:\Users\samue\AppData\Local\Temp\cc5RpClg.s 			page 27


 267:../../../../../DaisyExamples/libDaisy//src/daisy_core.h ****      *  @param pn pin number in range of 0-15
 268:../../../../../DaisyExamples/libDaisy//src/daisy_core.h ****     */
 269:../../../../../DaisyExamples/libDaisy//src/daisy_core.h ****     constexpr Pin(const GPIOPort pt, const uint8_t pn) : port(pt), pin(pn) {}
 270:../../../../../DaisyExamples/libDaisy//src/daisy_core.h **** 
 271:../../../../../DaisyExamples/libDaisy//src/daisy_core.h ****     /** @brief Basic Constructor creates an invalid Pin object */
 272:../../../../../DaisyExamples/libDaisy//src/daisy_core.h ****     constexpr Pin() : port(PORTX), pin(255) {}
 512              		.loc 14 272 15 view .LVU108
 513              		.loc 14 272 15 is_stmt 0 view .LVU109
 514              	.LBE366:
 515              	.LBE365:
 516              	.LBE364:
 517              	.LBE363:
 518              	.LBE362:
 519              	.LBE361:
 520              	.LBB375:
 521              	.LBI375:
 522              		.loc 13 74 5 is_stmt 1 view .LVU110
 523              	.LBB376:
 524              	.LBB377:
 525              	.LBI377:
  68:../../../../../DaisyExamples/libDaisy//src/per/gpio.h ****         : pin(), mode(Mode::INPUT), pull(Pull::NOPULL), speed(Speed::LOW)
 526              		.loc 13 68 9 view .LVU111
 527              	.LBB378:
 528              	.LBB379:
 529              	.LBB380:
 530              	.LBI380:
 531              		.loc 14 272 15 view .LVU112
 532              		.loc 14 272 15 is_stmt 0 view .LVU113
 533              	.LBE380:
 534              	.LBE379:
 535              	.LBE378:
 536              	.LBE377:
 537              	.LBE376:
 538              	.LBE375:
 539              	.LBB389:
 540              	.LBI389:
 541              		.loc 13 74 5 is_stmt 1 view .LVU114
 542              	.LBB390:
 543              	.LBB391:
 544              	.LBI391:
  68:../../../../../DaisyExamples/libDaisy//src/per/gpio.h ****         : pin(), mode(Mode::INPUT), pull(Pull::NOPULL), speed(Speed::LOW)
 545              		.loc 13 68 9 view .LVU115
 546              	.LBB392:
 547              	.LBB393:
 548              	.LBB394:
 549              	.LBI394:
 550              		.loc 14 272 15 view .LVU116
 551              		.loc 14 272 15 is_stmt 0 view .LVU117
 552              	.LBE394:
 553              	.LBE393:
 554              	.LBE392:
 555              	.LBE391:
 556              	.LBE390:
 557              	.LBE389:
 558              	.LBB403:
 559              	.LBI403:
 560              		.loc 13 74 5 is_stmt 1 view .LVU118
ARM GAS  C:\Users\samue\AppData\Local\Temp\cc5RpClg.s 			page 28


 561              	.LBB404:
 562              	.LBB405:
 563              	.LBI405:
  68:../../../../../DaisyExamples/libDaisy//src/per/gpio.h ****         : pin(), mode(Mode::INPUT), pull(Pull::NOPULL), speed(Speed::LOW)
 564              		.loc 13 68 9 view .LVU119
 565              	.LBB406:
 566              	.LBB407:
 567              	.LBB408:
 568              	.LBI408:
 569              		.loc 14 272 15 view .LVU120
 570              		.loc 14 272 15 is_stmt 0 view .LVU121
 571              	.LBE408:
 572              	.LBE407:
 573              	.LBE406:
 574              	.LBE405:
 575              	.LBE404:
 576              	.LBE403:
 577              	.LBB417:
 578              	.LBI417:
 579              		.loc 13 74 5 is_stmt 1 view .LVU122
 580              	.LBB418:
 581              	.LBB419:
 582              	.LBI419:
  68:../../../../../DaisyExamples/libDaisy//src/per/gpio.h ****         : pin(), mode(Mode::INPUT), pull(Pull::NOPULL), speed(Speed::LOW)
 583              		.loc 13 68 9 view .LVU123
 584              	.LBB420:
 585              	.LBB421:
 586              	.LBB422:
 587              	.LBI422:
 588              		.loc 14 272 15 view .LVU124
 589              		.loc 14 272 15 is_stmt 0 view .LVU125
 590              	.LBE422:
 591              	.LBE421:
 592              	.LBE420:
 593              	.LBE419:
 594              	.LBE418:
 595              	.LBE417:
 596              	.LBB431:
 597              	.LBI431:
 598              		.loc 13 74 5 is_stmt 1 view .LVU126
 599              	.LBB432:
 600              	.LBB433:
 601              	.LBI433:
  68:../../../../../DaisyExamples/libDaisy//src/per/gpio.h ****         : pin(), mode(Mode::INPUT), pull(Pull::NOPULL), speed(Speed::LOW)
 602              		.loc 13 68 9 view .LVU127
 603              	.LBB434:
 604              	.LBB435:
 605              	.LBB436:
 606              	.LBI436:
 607              		.loc 14 272 15 view .LVU128
 608              		.loc 14 272 15 is_stmt 0 view .LVU129
 609              	.LBE436:
 610              	.LBE435:
 611              	.LBE434:
 612              	.LBE433:
 613              	.LBE432:
 614              	.LBE431:
ARM GAS  C:\Users\samue\AppData\Local\Temp\cc5RpClg.s 			page 29


 615              	.LBB445:
 616              	.LBI445:
 617              		.loc 13 74 5 is_stmt 1 view .LVU130
 618              	.LBB446:
 619              	.LBB447:
 620              	.LBI447:
  68:../../../../../DaisyExamples/libDaisy//src/per/gpio.h ****         : pin(), mode(Mode::INPUT), pull(Pull::NOPULL), speed(Speed::LOW)
 621              		.loc 13 68 9 view .LVU131
 622              	.LBB448:
 623              	.LBB449:
 624              	.LBB450:
 625              	.LBI450:
 626              		.loc 14 272 15 view .LVU132
 627              		.loc 14 272 15 is_stmt 0 view .LVU133
 628              	.LBE450:
 629              	.LBE449:
 630              	.LBE448:
 631              	.LBE447:
 632              	.LBE446:
 633              	.LBE445:
 634              	.LBB459:
 635              	.LBI459:
 636              		.loc 13 74 5 is_stmt 1 view .LVU134
 637              	.LBB460:
 638              	.LBB461:
 639              	.LBI461:
  68:../../../../../DaisyExamples/libDaisy//src/per/gpio.h ****         : pin(), mode(Mode::INPUT), pull(Pull::NOPULL), speed(Speed::LOW)
 640              		.loc 13 68 9 view .LVU135
 641              	.LBB462:
 642              	.LBB463:
 643              	.LBB464:
 644              	.LBI464:
 645              		.loc 14 272 15 view .LVU136
 646              		.loc 14 272 15 is_stmt 0 view .LVU137
 647              	.LBE464:
 648              	.LBE463:
 649              	.LBE462:
 650              	.LBE461:
 651              	.LBE460:
 652              	.LBE459:
 653              	.LBE360:
  19:daisy_common.h ****     ~daisyCommon() {}
 654              		.loc 1 19 19 view .LVU138
 655 0000 4348     		ldr	r0, .L24
 656 0002 4FF60B72 		movw	r2, #65291
 657              	.LBB575:
 658 0006 0121     		movs	r1, #1
 659 0008 4FF0FF33 		mov	r3, #-1
 660              	.LBE575:
 661              	.LBE359:
 662              	.LBE358:
 663              	.LBE357:
 664              	.LBE356:
 665              		.loc 12 83 1 view .LVU139
 666 000c 10B5     		push	{r4, lr}
 667              		.cfi_def_cfa_offset 8
 668              		.cfi_offset 4, -8
ARM GAS  C:\Users\samue\AppData\Local\Temp\cc5RpClg.s 			page 30


 669              		.cfi_offset 14, -4
 670              	.LBB599:
 671              	.LBB597:
 672              	.LBB583:
 673              	.LBB580:
 674              	.LBB576:
 675              	.LBB473:
 676              	.LBB373:
 677              	.LBB371:
 678              	.LBB369:
 679              	.LBB367:
  69:../../../../../DaisyExamples/libDaisy//src/per/gpio.h ****         {
 680              		.loc 13 69 73 view .LVU140
 681 000e 0024     		movs	r4, #0
 682              	.LBE367:
 683              	.LBE369:
 684              	.LBE371:
 685              	.LBE373:
 686              	.LBE473:
 687              	.LBE576:
  19:daisy_common.h ****     ~daisyCommon() {}
 688              		.loc 1 19 19 view .LVU141
 689 0010 C0E90124 		strd	r2, r4, [r0, #4]
 690              	.LBB577:
 691              	.LBB474:
 692              	.LBB387:
 693              	.LBB385:
 694              	.LBB383:
 695              	.LBB381:
  69:../../../../../DaisyExamples/libDaisy//src/per/gpio.h ****         {
 696              		.loc 13 69 73 view .LVU142
 697 0014 C0E90624 		strd	r2, r4, [r0, #24]
 698              	.LBE381:
 699              	.LBE383:
 700              	.LBE385:
 701              	.LBE387:
 702              	.LBE474:
 703              	.LBB475:
 704              	.LBB401:
 705              	.LBB399:
 706              	.LBB397:
 707              	.LBB395:
 708 0018 C0E90B24 		strd	r2, r4, [r0, #44]
 709              	.LBE395:
 710              	.LBE397:
 711              	.LBE399:
 712              	.LBE401:
 713              	.LBE475:
 714              	.LBB476:
 715              	.LBB415:
 716              	.LBB413:
 717              	.LBB411:
 718              	.LBB409:
 719 001c C0E91024 		strd	r2, r4, [r0, #64]
 720              	.LBE409:
 721              	.LBE411:
 722              	.LBE413:
ARM GAS  C:\Users\samue\AppData\Local\Temp\cc5RpClg.s 			page 31


 723              	.LBE415:
 724              	.LBE476:
 725              	.LBB477:
 726              	.LBB429:
 727              	.LBB427:
 728              	.LBB425:
 729              	.LBB423:
 730 0020 C0E91524 		strd	r2, r4, [r0, #84]
 731              	.LBE423:
 732              	.LBE425:
 733              	.LBE427:
 734              	.LBE429:
 735              	.LBE477:
 736              	.LBB478:
 737              	.LBB443:
 738              	.LBB441:
 739              	.LBB439:
 740              	.LBB437:
 741 0024 C0E91A24 		strd	r2, r4, [r0, #104]
 742              	.LBE437:
 743              	.LBE439:
 744              	.LBE441:
 745              	.LBE443:
 746              	.LBE478:
 747              	.LBB479:
 748              	.LBB457:
 749              	.LBB455:
 750              	.LBB453:
 751              	.LBB451:
 752 0028 C0E91F24 		strd	r2, r4, [r0, #124]
 753              	.LBE451:
 754              	.LBE453:
 755              	.LBE455:
 756              	.LBE457:
 757              	.LBE479:
 758              	.LBB480:
 759              	.LBB471:
 760              	.LBB469:
 761              	.LBB467:
 762              	.LBB465:
 763 002c C0E92424 		strd	r2, r4, [r0, #144]
 764              	.LBE465:
 765              	.LBE467:
 766              	.LBE469:
 767              	.LBE471:
 768              	.LBE480:
 769              	.LBB481:
 770              	.LBB374:
 771              	.LBB372:
 772              	.LBB370:
 773              	.LBB368:
 774 0030 C0E90344 		strd	r4, r4, [r0, #12]
 775              	.LBE368:
 776              	.LBE370:
 777              	.LBE372:
 778              	.LBE374:
 779              	.LBE481:
ARM GAS  C:\Users\samue\AppData\Local\Temp\cc5RpClg.s 			page 32


 780              	.LBB482:
 781              	.LBB388:
 782              	.LBB386:
 783              	.LBB384:
 784              	.LBB382:
 785 0034 C0E90844 		strd	r4, r4, [r0, #32]
 786              	.LBE382:
 787              	.LBE384:
 788              	.LBE386:
 789              	.LBE388:
 790              	.LBE482:
 791              	.LBB483:
 792              	.LBB402:
 793              	.LBB400:
 794              	.LBB398:
 795              	.LBB396:
 796 0038 C0E90D44 		strd	r4, r4, [r0, #52]
 797              	.LBE396:
 798              	.LBE398:
 799              	.LBE400:
 800              	.LBE402:
 801              	.LBE483:
 802              	.LBB484:
 803              	.LBB416:
 804              	.LBB414:
 805              	.LBB412:
 806              	.LBB410:
 807 003c C0E91244 		strd	r4, r4, [r0, #72]
 808              	.LBE410:
 809              	.LBE412:
 810              	.LBE414:
 811              	.LBE416:
 812              	.LBE484:
 813              	.LBB485:
 814              	.LBB430:
 815              	.LBB428:
 816              	.LBB426:
 817              	.LBB424:
 818 0040 C0E91744 		strd	r4, r4, [r0, #92]
 819              	.LBE424:
 820              	.LBE426:
 821              	.LBE428:
 822              	.LBE430:
 823              	.LBE485:
 824              	.LBB486:
 825              	.LBB444:
 826              	.LBB442:
 827              	.LBB440:
 828              	.LBB438:
 829 0044 C0E91C44 		strd	r4, r4, [r0, #112]
 830              	.LBE438:
 831              	.LBE440:
 832              	.LBE442:
 833              	.LBE444:
 834              	.LBE486:
 835              	.LBB487:
 836              	.LBB458:
ARM GAS  C:\Users\samue\AppData\Local\Temp\cc5RpClg.s 			page 33


 837              	.LBB456:
 838              	.LBB454:
 839              	.LBB452:
 840 0048 C0E92144 		strd	r4, r4, [r0, #132]
 841              	.LBE452:
 842              	.LBE454:
 843              	.LBE456:
 844              	.LBE458:
 845              	.LBE487:
 846              	.LBB488:
 847              	.LBB472:
 848              	.LBB470:
 849              	.LBB468:
 850              	.LBB466:
 851 004c C0E92644 		strd	r4, r4, [r0, #152]
 852              	.LVL51:
  69:../../../../../DaisyExamples/libDaisy//src/per/gpio.h ****         {
 853              		.loc 13 69 73 view .LVU143
 854              	.LBE466:
 855              	.LBE468:
 856              	.LBE470:
 857              	.LBE472:
 858              	.LBE488:
 859              	.LBB489:
 860              	.LBI489:
 861              		.loc 13 74 5 is_stmt 1 view .LVU144
 862              	.LBB490:
 863              	.LBB491:
 864              	.LBI491:
  68:../../../../../DaisyExamples/libDaisy//src/per/gpio.h ****         : pin(), mode(Mode::INPUT), pull(Pull::NOPULL), speed(Speed::LOW)
 865              		.loc 13 68 9 view .LVU145
 866              	.LBB492:
 867              	.LBB493:
 868              	.LBB494:
 869              	.LBI494:
 870              		.loc 14 272 15 view .LVU146
 871              		.loc 14 272 15 is_stmt 0 view .LVU147
 872              	.LBE494:
 873              	.LBE493:
 874              	.LBE492:
 875              	.LBE491:
 876              	.LBE490:
 877              	.LBE489:
 878              	.LBB503:
 879              	.LBI503:
 880              		.loc 13 74 5 is_stmt 1 view .LVU148
 881              	.LBB504:
 882              	.LBB505:
 883              	.LBI505:
  68:../../../../../DaisyExamples/libDaisy//src/per/gpio.h ****         : pin(), mode(Mode::INPUT), pull(Pull::NOPULL), speed(Speed::LOW)
 884              		.loc 13 68 9 view .LVU149
 885              	.LBB506:
 886              	.LBB507:
 887              	.LBB508:
 888              	.LBI508:
 889              		.loc 14 272 15 view .LVU150
 890              		.loc 14 272 15 is_stmt 0 view .LVU151
ARM GAS  C:\Users\samue\AppData\Local\Temp\cc5RpClg.s 			page 34


 891              	.LBE508:
 892              	.LBE507:
 893              	.LBE506:
 894              	.LBE505:
 895              	.LBE504:
 896              	.LBE503:
 897              	.LBB517:
 898              	.LBI517:
 899              		.loc 13 74 5 is_stmt 1 view .LVU152
 900              	.LBB518:
 901              	.LBB519:
 902              	.LBI519:
  68:../../../../../DaisyExamples/libDaisy//src/per/gpio.h ****         : pin(), mode(Mode::INPUT), pull(Pull::NOPULL), speed(Speed::LOW)
 903              		.loc 13 68 9 view .LVU153
 904              	.LBB520:
 905              	.LBB521:
 906              	.LBB522:
 907              	.LBI522:
 908              		.loc 14 272 15 view .LVU154
 909              		.loc 14 272 15 is_stmt 0 view .LVU155
 910              	.LBE522:
 911              	.LBE521:
 912              	.LBE520:
 913              	.LBE519:
 914              	.LBE518:
 915              	.LBE517:
 916              	.LBB531:
 917              	.LBI531:
 918              		.loc 13 74 5 is_stmt 1 view .LVU156
 919              	.LBB532:
 920              	.LBB533:
 921              	.LBI533:
  68:../../../../../DaisyExamples/libDaisy//src/per/gpio.h ****         : pin(), mode(Mode::INPUT), pull(Pull::NOPULL), speed(Speed::LOW)
 922              		.loc 13 68 9 view .LVU157
 923              	.LBB534:
 924              	.LBB535:
 925              	.LBB536:
 926              	.LBI536:
 927              		.loc 14 272 15 view .LVU158
 928              		.loc 14 272 15 is_stmt 0 view .LVU159
 929              	.LBE536:
 930              	.LBE535:
 931              	.LBE534:
 932              	.LBE533:
 933              	.LBE532:
 934              	.LBE531:
 935              	.LBB545:
 936              	.LBB501:
 937              	.LBB499:
 938              	.LBB497:
 939              	.LBB495:
  69:../../../../../DaisyExamples/libDaisy//src/per/gpio.h ****         {
 940              		.loc 13 69 73 view .LVU160
 941 0050 C0E92924 		strd	r2, r4, [r0, #164]
 942              	.LBE495:
 943              	.LBE497:
 944              	.LBE499:
ARM GAS  C:\Users\samue\AppData\Local\Temp\cc5RpClg.s 			page 35


 945              	.LBE501:
 946              	.LBE545:
 947              	.LBB546:
 948              	.LBB515:
 949              	.LBB513:
 950              	.LBB511:
 951              	.LBB509:
 952 0054 C0E92E24 		strd	r2, r4, [r0, #184]
 953              	.LBE509:
 954              	.LBE511:
 955              	.LBE513:
 956              	.LBE515:
 957              	.LBE546:
 958              	.LBB547:
 959              	.LBB529:
 960              	.LBB527:
 961              	.LBB525:
 962              	.LBB523:
 963 0058 C0E93324 		strd	r2, r4, [r0, #204]
 964              	.LBE523:
 965              	.LBE525:
 966              	.LBE527:
 967              	.LBE529:
 968              	.LBE547:
 969              	.LBB548:
 970              	.LBB543:
 971              	.LBB541:
 972              	.LBB539:
 973              	.LBB537:
 974 005c C0E93824 		strd	r2, r4, [r0, #224]
 975              	.LBE537:
 976              	.LBE539:
 977              	.LBE541:
 978              	.LBE543:
 979              	.LBE548:
  19:daisy_common.h ****     ~daisyCommon() {}
 980              		.loc 1 19 19 view .LVU161
 981 0060 C0F81811 		str	r1, [r0, #280]
 982 0064 0622     		movs	r2, #6
 983 0066 0221     		movs	r1, #2
 984              	.LBB549:
 985              	.LBB550:
 986              	.LBB551:
 987              	.LBB552:
 988              	.LBB553:
  95:../../../../../DaisyExamples/libDaisy//src/hid/audio.h ****     ~AudioHandle() {}
 989              		.loc 6 95 35 view .LVU162
 990 0068 C0F83441 		str	r4, [r0, #308]
 991              	.LBE553:
 992              	.LBE552:
 993              	.LBE551:
 994              	.LBB554:
 995              	.LBB555:
 996              	.LBB556:
 997              		.file 15 "../../../../../DaisyExamples/libDaisy//src/per/dac.h"
   1:../../../../../DaisyExamples/libDaisy//src/per/dac.h **** #pragma once
   2:../../../../../DaisyExamples/libDaisy//src/per/dac.h **** #ifndef DSY_DAC_H
ARM GAS  C:\Users\samue\AppData\Local\Temp\cc5RpClg.s 			page 36


   3:../../../../../DaisyExamples/libDaisy//src/per/dac.h **** #define DSY_DAC_H
   4:../../../../../DaisyExamples/libDaisy//src/per/dac.h **** 
   5:../../../../../DaisyExamples/libDaisy//src/per/dac.h **** #include "daisy_core.h"
   6:../../../../../DaisyExamples/libDaisy//src/per/dac.h **** 
   7:../../../../../DaisyExamples/libDaisy//src/per/dac.h **** namespace daisy
   8:../../../../../DaisyExamples/libDaisy//src/per/dac.h **** {
   9:../../../../../DaisyExamples/libDaisy//src/per/dac.h **** /** @brief DAC handle for Built-in DAC Peripheral 
  10:../../../../../DaisyExamples/libDaisy//src/per/dac.h ****  *  @ingroup per_analog
  11:../../../../../DaisyExamples/libDaisy//src/per/dac.h ****  ** 
  12:../../../../../DaisyExamples/libDaisy//src/per/dac.h ****  ** For now only Normal Mode is supported,
  13:../../../../../DaisyExamples/libDaisy//src/per/dac.h ****  ** Sample and hold mode provides reduced power consumption, but requires a bit more setup.
  14:../../../../../DaisyExamples/libDaisy//src/per/dac.h ****  **
  15:../../../../../DaisyExamples/libDaisy//src/per/dac.h ****  ** For now connecting the DAC through other internal peripherals is also not supported.
  16:../../../../../DaisyExamples/libDaisy//src/per/dac.h ****  **
  17:../../../../../DaisyExamples/libDaisy//src/per/dac.h ****  ** Since the DAC channels have dedicated pins we don't need to pass in a pin config like with
  18:../../../../../DaisyExamples/libDaisy//src/per/dac.h ****  ** other modules. However, it is still important to not try to use the DAC pins for anything else.
  19:../../../../../DaisyExamples/libDaisy//src/per/dac.h ****  ** DAC Channel 1 is on PA4, and DAC Channel 2 is on PA5
  20:../../../../../DaisyExamples/libDaisy//src/per/dac.h ****  ***/
  21:../../../../../DaisyExamples/libDaisy//src/per/dac.h **** class DacHandle
  22:../../../../../DaisyExamples/libDaisy//src/per/dac.h **** {
  23:../../../../../DaisyExamples/libDaisy//src/per/dac.h ****   public:
  24:../../../../../DaisyExamples/libDaisy//src/per/dac.h ****     /** Return Values for the DacHandle class */
  25:../../../../../DaisyExamples/libDaisy//src/per/dac.h ****     enum class Result
  26:../../../../../DaisyExamples/libDaisy//src/per/dac.h ****     {
  27:../../../../../DaisyExamples/libDaisy//src/per/dac.h ****         OK,
  28:../../../../../DaisyExamples/libDaisy//src/per/dac.h ****         ERR,
  29:../../../../../DaisyExamples/libDaisy//src/per/dac.h ****     };
  30:../../../../../DaisyExamples/libDaisy//src/per/dac.h **** 
  31:../../../../../DaisyExamples/libDaisy//src/per/dac.h ****     /** Selects which channel(s) will be configured for use. */
  32:../../../../../DaisyExamples/libDaisy//src/per/dac.h ****     enum class Channel
  33:../../../../../DaisyExamples/libDaisy//src/per/dac.h ****     {
  34:../../../../../DaisyExamples/libDaisy//src/per/dac.h ****         ONE,
  35:../../../../../DaisyExamples/libDaisy//src/per/dac.h ****         TWO,
  36:../../../../../DaisyExamples/libDaisy//src/per/dac.h ****         BOTH,
  37:../../../../../DaisyExamples/libDaisy//src/per/dac.h ****     };
  38:../../../../../DaisyExamples/libDaisy//src/per/dac.h **** 
  39:../../../../../DaisyExamples/libDaisy//src/per/dac.h ****     /** Sets the Mode for the DAC channels.
  40:../../../../../DaisyExamples/libDaisy//src/per/dac.h ****      **
  41:../../../../../DaisyExamples/libDaisy//src/per/dac.h ****      ** Polling mode uses the blocking mode to transmit a single value at a time.
  42:../../../../../DaisyExamples/libDaisy//src/per/dac.h ****      **
  43:../../../../../DaisyExamples/libDaisy//src/per/dac.h ****      ** DMA mode uses a buffer, and periodically transmits it triggering a 
  44:../../../../../DaisyExamples/libDaisy//src/per/dac.h ****      ** callback to fill the buffer when it is ready for more samples.
  45:../../../../../DaisyExamples/libDaisy//src/per/dac.h ****      ***/
  46:../../../../../DaisyExamples/libDaisy//src/per/dac.h ****     enum class Mode
  47:../../../../../DaisyExamples/libDaisy//src/per/dac.h ****     {
  48:../../../../../DaisyExamples/libDaisy//src/per/dac.h ****         POLLING,
  49:../../../../../DaisyExamples/libDaisy//src/per/dac.h ****         DMA,
  50:../../../../../DaisyExamples/libDaisy//src/per/dac.h ****     };
  51:../../../../../DaisyExamples/libDaisy//src/per/dac.h **** 
  52:../../../../../DaisyExamples/libDaisy//src/per/dac.h ****     /** Sets the number of bits per sample transmitted out of the DAC.
  53:../../../../../DaisyExamples/libDaisy//src/per/dac.h ****      ** The output range will be: 0V - VDDA
  54:../../../../../DaisyExamples/libDaisy//src/per/dac.h ****      ** The resolution will be roughly: bitdepth / (VDDA - 0V) 
  55:../../../../../DaisyExamples/libDaisy//src/per/dac.h ****      ***/
  56:../../../../../DaisyExamples/libDaisy//src/per/dac.h ****     enum class BitDepth
  57:../../../../../DaisyExamples/libDaisy//src/per/dac.h ****     {
  58:../../../../../DaisyExamples/libDaisy//src/per/dac.h ****         BITS_8,
  59:../../../../../DaisyExamples/libDaisy//src/per/dac.h ****         BITS_12
ARM GAS  C:\Users\samue\AppData\Local\Temp\cc5RpClg.s 			page 37


  60:../../../../../DaisyExamples/libDaisy//src/per/dac.h ****     };
  61:../../../../../DaisyExamples/libDaisy//src/per/dac.h **** 
  62:../../../../../DaisyExamples/libDaisy//src/per/dac.h ****     /** Sets whether the DAC output is buffered for higher drive ability. */
  63:../../../../../DaisyExamples/libDaisy//src/per/dac.h ****     enum class BufferState
  64:../../../../../DaisyExamples/libDaisy//src/per/dac.h ****     {
  65:../../../../../DaisyExamples/libDaisy//src/per/dac.h ****         ENABLED,
  66:../../../../../DaisyExamples/libDaisy//src/per/dac.h ****         DISABLED,
  67:../../../../../DaisyExamples/libDaisy//src/per/dac.h ****     };
  68:../../../../../DaisyExamples/libDaisy//src/per/dac.h **** 
  69:../../../../../DaisyExamples/libDaisy//src/per/dac.h ****     /** Configuration structure for initializing the DAC structure. */
  70:../../../../../DaisyExamples/libDaisy//src/per/dac.h ****     struct Config
  71:../../../../../DaisyExamples/libDaisy//src/per/dac.h ****     {
  72:../../../../../DaisyExamples/libDaisy//src/per/dac.h ****         /** Target Samplerate in Hz used to configure the internal 
  73:../../../../../DaisyExamples/libDaisy//src/per/dac.h ****          ** timebase for DMA mode. Does nothing in POLLING mode.
  74:../../../../../DaisyExamples/libDaisy//src/per/dac.h ****          ** If the value is 0 at Init time this will default to 48000Hz 
  75:../../../../../DaisyExamples/libDaisy//src/per/dac.h ****          ** otherwise the driver will attempt meet the target.*/
  76:../../../../../DaisyExamples/libDaisy//src/per/dac.h ****         uint32_t target_samplerate;
  77:../../../../../DaisyExamples/libDaisy//src/per/dac.h **** 
  78:../../../../../DaisyExamples/libDaisy//src/per/dac.h ****         Channel     chn;
  79:../../../../../DaisyExamples/libDaisy//src/per/dac.h ****         Mode        mode;
  80:../../../../../DaisyExamples/libDaisy//src/per/dac.h ****         BitDepth    bitdepth;
  81:../../../../../DaisyExamples/libDaisy//src/per/dac.h ****         BufferState buff_state;
  82:../../../../../DaisyExamples/libDaisy//src/per/dac.h ****     };
  83:../../../../../DaisyExamples/libDaisy//src/per/dac.h **** 
  84:../../../../../DaisyExamples/libDaisy//src/per/dac.h ****     DacHandle() : pimpl_(nullptr) {}
 998              		.loc 15 84 33 view .LVU163
 999 006c C0F84041 		str	r4, [r0, #320]
 1000              	.LBE556:
 1001              	.LBE555:
 1002              	.LBE554:
 1003              	.LBE550:
 1004              	.LBE549:
  19:daisy_common.h ****     ~daisyCommon() {}
 1005              		.loc 1 19 19 view .LVU164
 1006 0070 C0E95743 		strd	r4, r3, [r0, #348]
 1007              	.LBB567:
 1008              	.LBB502:
 1009              	.LBB500:
 1010              	.LBB498:
 1011              	.LBB496:
  69:../../../../../DaisyExamples/libDaisy//src/per/gpio.h ****         {
 1012              		.loc 13 69 73 view .LVU165
 1013 0074 C0E92B44 		strd	r4, r4, [r0, #172]
 1014              	.LBE496:
 1015              	.LBE498:
 1016              	.LBE500:
 1017              	.LBE502:
 1018              	.LBE567:
 1019              	.LBB568:
 1020              	.LBB516:
 1021              	.LBB514:
 1022              	.LBB512:
 1023              	.LBB510:
 1024 0078 C0E93044 		strd	r4, r4, [r0, #192]
 1025              	.LBE510:
 1026              	.LBE512:
 1027              	.LBE514:
ARM GAS  C:\Users\samue\AppData\Local\Temp\cc5RpClg.s 			page 38


 1028              	.LBE516:
 1029              	.LBE568:
 1030              	.LBB569:
 1031              	.LBB530:
 1032              	.LBB528:
 1033              	.LBB526:
 1034              	.LBB524:
 1035 007c C0E93544 		strd	r4, r4, [r0, #212]
 1036              	.LBE524:
 1037              	.LBE526:
 1038              	.LBE528:
 1039              	.LBE530:
 1040              	.LBE569:
 1041              	.LBB570:
 1042              	.LBB544:
 1043              	.LBB542:
 1044              	.LBB540:
 1045              	.LBB538:
 1046 0080 C0E93A44 		strd	r4, r4, [r0, #232]
 1047              	.LVL52:
  69:../../../../../DaisyExamples/libDaisy//src/per/gpio.h ****         {
 1048              		.loc 13 69 73 view .LVU166
 1049              	.LBE538:
 1050              	.LBE540:
 1051              	.LBE542:
 1052              	.LBE544:
 1053              	.LBE570:
 1054              	.LBB571:
 1055              	.LBI571:
  20:../../../../../DaisyExamples/libDaisy//src/hid/switch3.h ****     ~Switch3() {}
 1056              		.loc 8 20 5 is_stmt 1 view .LVU167
  20:../../../../../DaisyExamples/libDaisy//src/hid/switch3.h ****     ~Switch3() {}
 1057              		.loc 8 20 5 is_stmt 0 view .LVU168
 1058              	.LBE571:
 1059              	.LBB572:
 1060              	.LBI572:
  20:../../../../../DaisyExamples/libDaisy//src/hid/switch3.h ****     ~Switch3() {}
 1061              		.loc 8 20 5 is_stmt 1 view .LVU169
  20:../../../../../DaisyExamples/libDaisy//src/hid/switch3.h ****     ~Switch3() {}
 1062              		.loc 8 20 5 is_stmt 0 view .LVU170
 1063              	.LBE572:
 1064              	.LBB573:
 1065              	.LBI573:
  41:../../../../../DaisyExamples/libDaisy//src/hid/switch.h ****     ~Switch() {}
 1066              		.loc 7 41 5 is_stmt 1 view .LVU171
  41:../../../../../DaisyExamples/libDaisy//src/hid/switch.h ****     ~Switch() {}
 1067              		.loc 7 41 5 is_stmt 0 view .LVU172
 1068              	.LBE573:
 1069              	.LBB574:
 1070              	.LBB566:
 1071              	.LBB557:
 1072              	.LBB558:
 1073              	.LBB559:
 1074              		.file 16 "../../../../../DaisyExamples/libDaisy//src/per/qspi.h"
   1:../../../../../DaisyExamples/libDaisy//src/per/qspi.h **** #ifndef DSY_QSPI
   2:../../../../../DaisyExamples/libDaisy//src/per/qspi.h **** #define DSY_QSPI /**< Macro */
   3:../../../../../DaisyExamples/libDaisy//src/per/qspi.h **** 
ARM GAS  C:\Users\samue\AppData\Local\Temp\cc5RpClg.s 			page 39


   4:../../../../../DaisyExamples/libDaisy//src/per/qspi.h **** #ifndef UNIT_TEST // for unit tests, a dummy implementation
   5:../../../../../DaisyExamples/libDaisy//src/per/qspi.h **** 
   6:../../../../../DaisyExamples/libDaisy//src/per/qspi.h **** #include <cstdint>
   7:../../../../../DaisyExamples/libDaisy//src/per/qspi.h **** #include "daisy_core.h" // Added for dsy_gpio_pin typedef
   8:../../../../../DaisyExamples/libDaisy//src/per/qspi.h **** 
   9:../../../../../DaisyExamples/libDaisy//src/per/qspi.h **** #define DSY_QSPI_TEXT       \
  10:../../../../../DaisyExamples/libDaisy//src/per/qspi.h ****     __attribute__((section( \
  11:../../../../../DaisyExamples/libDaisy//src/per/qspi.h ****         ".qspiflash_text"))) /**< used for reading memory in memory_mapped mode. */
  12:../../../../../DaisyExamples/libDaisy//src/per/qspi.h **** #define DSY_QSPI_DATA       \
  13:../../../../../DaisyExamples/libDaisy//src/per/qspi.h ****     __attribute__((section( \
  14:../../../../../DaisyExamples/libDaisy//src/per/qspi.h ****         ".qspiflash_data"))) /**< used for reading memory in memory_mapped mode. */
  15:../../../../../DaisyExamples/libDaisy//src/per/qspi.h **** #define DSY_QSPI_BSS        \
  16:../../../../../DaisyExamples/libDaisy//src/per/qspi.h ****     __attribute__((section( \
  17:../../../../../DaisyExamples/libDaisy//src/per/qspi.h ****         ".qspiflash_bss"))) /**< used for reading memory in memory_mapped mode. */
  18:../../../../../DaisyExamples/libDaisy//src/per/qspi.h **** 
  19:../../../../../DaisyExamples/libDaisy//src/per/qspi.h **** namespace daisy
  20:../../../../../DaisyExamples/libDaisy//src/per/qspi.h **** {
  21:../../../../../DaisyExamples/libDaisy//src/per/qspi.h **** /** @addtogroup serial
  22:../../../../../DaisyExamples/libDaisy//src/per/qspi.h **** @{
  23:../../../../../DaisyExamples/libDaisy//src/per/qspi.h **** */
  24:../../../../../DaisyExamples/libDaisy//src/per/qspi.h **** 
  25:../../../../../DaisyExamples/libDaisy//src/per/qspi.h **** /** 
  26:../../../../../DaisyExamples/libDaisy//src/per/qspi.h ****  Driver for QSPI peripheral to interface with external flash memory. \n 
  27:../../../../../DaisyExamples/libDaisy//src/per/qspi.h ****     Currently supported QSPI Devices: \n 
  28:../../../../../DaisyExamples/libDaisy//src/per/qspi.h ****     * IS25LP080D
  29:../../../../../DaisyExamples/libDaisy//src/per/qspi.h **** */
  30:../../../../../DaisyExamples/libDaisy//src/per/qspi.h **** class QSPIHandle
  31:../../../../../DaisyExamples/libDaisy//src/per/qspi.h **** {
  32:../../../../../DaisyExamples/libDaisy//src/per/qspi.h ****   public:
  33:../../../../../DaisyExamples/libDaisy//src/per/qspi.h ****     enum Result
  34:../../../../../DaisyExamples/libDaisy//src/per/qspi.h ****     {
  35:../../../../../DaisyExamples/libDaisy//src/per/qspi.h ****         OK = 0,
  36:../../../../../DaisyExamples/libDaisy//src/per/qspi.h ****         ERR
  37:../../../../../DaisyExamples/libDaisy//src/per/qspi.h ****     };
  38:../../../../../DaisyExamples/libDaisy//src/per/qspi.h **** 
  39:../../../../../DaisyExamples/libDaisy//src/per/qspi.h ****     /** Indicates the current status of the module. 
  40:../../../../../DaisyExamples/libDaisy//src/per/qspi.h ****          *  Warnings are indicated by a leading W.
  41:../../../../../DaisyExamples/libDaisy//src/per/qspi.h ****          *  Errors are indicated by a leading E and cause an immediate exit.
  42:../../../../../DaisyExamples/libDaisy//src/per/qspi.h ****          * 
  43:../../../../../DaisyExamples/libDaisy//src/per/qspi.h ****          *  \param GOOD - No errors have been reported.
  44:../../../../../DaisyExamples/libDaisy//src/per/qspi.h ****          *  \param E_HAL_ERROR - HAL code did not return HAL_OK.
  45:../../../../../DaisyExamples/libDaisy//src/per/qspi.h ****          *  \param E_SWITCHING_MODES - An error was encountered while switching QSPI peripheral mod
  46:../../../../../DaisyExamples/libDaisy//src/per/qspi.h ****          *  \param E_INVALID_MODE - QSPI should not be written to while the program is executing fr
  47:../../../../../DaisyExamples/libDaisy//src/per/qspi.h ****          */
  48:../../../../../DaisyExamples/libDaisy//src/per/qspi.h ****     enum Status
  49:../../../../../DaisyExamples/libDaisy//src/per/qspi.h ****     {
  50:../../../../../DaisyExamples/libDaisy//src/per/qspi.h ****         GOOD = 0,
  51:../../../../../DaisyExamples/libDaisy//src/per/qspi.h ****         E_HAL_ERROR,
  52:../../../../../DaisyExamples/libDaisy//src/per/qspi.h ****         E_SWITCHING_MODES,
  53:../../../../../DaisyExamples/libDaisy//src/per/qspi.h ****         E_INVALID_MODE,
  54:../../../../../DaisyExamples/libDaisy//src/per/qspi.h ****     };
  55:../../../../../DaisyExamples/libDaisy//src/per/qspi.h **** 
  56:../../../../../DaisyExamples/libDaisy//src/per/qspi.h ****     /** Configuration structure for interfacing with QSPI Driver */
  57:../../../../../DaisyExamples/libDaisy//src/per/qspi.h ****     struct Config
  58:../../../../../DaisyExamples/libDaisy//src/per/qspi.h ****     {
  59:../../../../../DaisyExamples/libDaisy//src/per/qspi.h ****         /** Flash Devices supported. (Both of these are more-or-less the same, just different sizes
  60:../../../../../DaisyExamples/libDaisy//src/per/qspi.h ****         enum Device
ARM GAS  C:\Users\samue\AppData\Local\Temp\cc5RpClg.s 			page 40


  61:../../../../../DaisyExamples/libDaisy//src/per/qspi.h ****         {
  62:../../../../../DaisyExamples/libDaisy//src/per/qspi.h ****             IS25LP080D,  /**< & */
  63:../../../../../DaisyExamples/libDaisy//src/per/qspi.h ****             IS25LP064A,  /**< & */
  64:../../../../../DaisyExamples/libDaisy//src/per/qspi.h ****             DEVICE_LAST, /**< & */
  65:../../../../../DaisyExamples/libDaisy//src/per/qspi.h ****         };
  66:../../../../../DaisyExamples/libDaisy//src/per/qspi.h **** 
  67:../../../../../DaisyExamples/libDaisy//src/per/qspi.h ****         /** 
  68:../../../../../DaisyExamples/libDaisy//src/per/qspi.h ****         Modes of operation.
  69:../../../../../DaisyExamples/libDaisy//src/per/qspi.h ****         Memory Mapped mode: QSPI configured so that the QSPI can be
  70:../../../../../DaisyExamples/libDaisy//src/per/qspi.h ****         read from starting address 0x90000000. Writing is not
  71:../../../../../DaisyExamples/libDaisy//src/per/qspi.h ****         possible in this mode. \n 
  72:../../../../../DaisyExamples/libDaisy//src/per/qspi.h ****         Indirect Polling mode: Device driver enabled. 
  73:../../../../../DaisyExamples/libDaisy//src/per/qspi.h ****         */
  74:../../../../../DaisyExamples/libDaisy//src/per/qspi.h ****         enum Mode
  75:../../../../../DaisyExamples/libDaisy//src/per/qspi.h ****         {
  76:../../../../../DaisyExamples/libDaisy//src/per/qspi.h ****             MEMORY_MAPPED,    /**< & */
  77:../../../../../DaisyExamples/libDaisy//src/per/qspi.h ****             INDIRECT_POLLING, /**< & */
  78:../../../../../DaisyExamples/libDaisy//src/per/qspi.h ****             MODE_LAST,
  79:../../../../../DaisyExamples/libDaisy//src/per/qspi.h ****         };
  80:../../../../../DaisyExamples/libDaisy//src/per/qspi.h **** 
  81:../../../../../DaisyExamples/libDaisy//src/per/qspi.h ****         //SCK,  CE# (active low)
  82:../../../../../DaisyExamples/libDaisy//src/per/qspi.h ****         struct
  83:../../../../../DaisyExamples/libDaisy//src/per/qspi.h ****         {
  84:../../../../../DaisyExamples/libDaisy//src/per/qspi.h ****             dsy_gpio_pin io0; /**< & */
  85:../../../../../DaisyExamples/libDaisy//src/per/qspi.h ****             dsy_gpio_pin io1; /**< & */
  86:../../../../../DaisyExamples/libDaisy//src/per/qspi.h ****             dsy_gpio_pin io2; /**< & */
  87:../../../../../DaisyExamples/libDaisy//src/per/qspi.h ****             dsy_gpio_pin io3; /**< & */
  88:../../../../../DaisyExamples/libDaisy//src/per/qspi.h ****             dsy_gpio_pin clk; /**< & */
  89:../../../../../DaisyExamples/libDaisy//src/per/qspi.h ****             dsy_gpio_pin ncs; /**< & */
  90:../../../../../DaisyExamples/libDaisy//src/per/qspi.h ****         } pin_config;
  91:../../../../../DaisyExamples/libDaisy//src/per/qspi.h **** 
  92:../../../../../DaisyExamples/libDaisy//src/per/qspi.h ****         Device device;
  93:../../../../../DaisyExamples/libDaisy//src/per/qspi.h ****         Mode   mode;
  94:../../../../../DaisyExamples/libDaisy//src/per/qspi.h ****     };
  95:../../../../../DaisyExamples/libDaisy//src/per/qspi.h **** 
  96:../../../../../DaisyExamples/libDaisy//src/per/qspi.h ****     /** 
  97:../../../../../DaisyExamples/libDaisy//src/per/qspi.h ****         Initializes QSPI peripheral, and Resets, and prepares memory for access.
  98:../../../../../DaisyExamples/libDaisy//src/per/qspi.h ****         \param config should be populated with the mode, device and pin_config before calling this 
  99:../../../../../DaisyExamples/libDaisy//src/per/qspi.h ****         \return Result::OK or Result::ERR
 100:../../../../../DaisyExamples/libDaisy//src/per/qspi.h ****         */
 101:../../../../../DaisyExamples/libDaisy//src/per/qspi.h ****     Result Init(const Config& config);
 102:../../../../../DaisyExamples/libDaisy//src/per/qspi.h **** 
 103:../../../../../DaisyExamples/libDaisy//src/per/qspi.h ****     /** Returns the current config. */
 104:../../../../../DaisyExamples/libDaisy//src/per/qspi.h ****     const Config& GetConfig() const;
 105:../../../../../DaisyExamples/libDaisy//src/per/qspi.h **** 
 106:../../../../../DaisyExamples/libDaisy//src/per/qspi.h ****     // Couldn't this just be called before anything else in init? That
 107:../../../../../DaisyExamples/libDaisy//src/per/qspi.h ****     // would make manually calling it unnecessary.
 108:../../../../../DaisyExamples/libDaisy//src/per/qspi.h ****     /** 
 109:../../../../../DaisyExamples/libDaisy//src/per/qspi.h ****         Deinitializes the peripheral
 110:../../../../../DaisyExamples/libDaisy//src/per/qspi.h ****         This should be called before reinitializing QSPI in a different mode.
 111:../../../../../DaisyExamples/libDaisy//src/per/qspi.h ****         \return Result::OK or Result::ERR
 112:../../../../../DaisyExamples/libDaisy//src/per/qspi.h ****         */
 113:../../../../../DaisyExamples/libDaisy//src/per/qspi.h ****     Result DeInit();
 114:../../../../../DaisyExamples/libDaisy//src/per/qspi.h **** 
 115:../../../../../DaisyExamples/libDaisy//src/per/qspi.h ****     /** 
 116:../../../../../DaisyExamples/libDaisy//src/per/qspi.h ****         Writes a single page to to the specified address on the QSPI chip.
 117:../../../../../DaisyExamples/libDaisy//src/per/qspi.h ****         For IS25LP*, page size is 256 bytes.
ARM GAS  C:\Users\samue\AppData\Local\Temp\cc5RpClg.s 			page 41


 118:../../../../../DaisyExamples/libDaisy//src/per/qspi.h ****         \param address Address to write to
 119:../../../../../DaisyExamples/libDaisy//src/per/qspi.h ****         \param size Buffer size
 120:../../../../../DaisyExamples/libDaisy//src/per/qspi.h ****         \param buffer Buffer to write
 121:../../../../../DaisyExamples/libDaisy//src/per/qspi.h ****         \return Result::OK or Result::ERR
 122:../../../../../DaisyExamples/libDaisy//src/per/qspi.h ****         */
 123:../../../../../DaisyExamples/libDaisy//src/per/qspi.h ****     Result WritePage(uint32_t address, uint32_t size, uint8_t* buffer);
 124:../../../../../DaisyExamples/libDaisy//src/per/qspi.h **** 
 125:../../../../../DaisyExamples/libDaisy//src/per/qspi.h ****     /** 
 126:../../../../../DaisyExamples/libDaisy//src/per/qspi.h ****         Writes data in buffer to to the QSPI. Starting at address to address+size 
 127:../../../../../DaisyExamples/libDaisy//src/per/qspi.h ****         \param address Address to write to
 128:../../../../../DaisyExamples/libDaisy//src/per/qspi.h ****         \param size Buffer size
 129:../../../../../DaisyExamples/libDaisy//src/per/qspi.h ****         \param buffer Buffer to write
 130:../../../../../DaisyExamples/libDaisy//src/per/qspi.h ****         \return Result::OK or Result::ERR
 131:../../../../../DaisyExamples/libDaisy//src/per/qspi.h ****         */
 132:../../../../../DaisyExamples/libDaisy//src/per/qspi.h ****     Result Write(uint32_t address, uint32_t size, uint8_t* buffer);
 133:../../../../../DaisyExamples/libDaisy//src/per/qspi.h **** 
 134:../../../../../DaisyExamples/libDaisy//src/per/qspi.h ****     /** 
 135:../../../../../DaisyExamples/libDaisy//src/per/qspi.h ****         Erases the area specified on the chip.
 136:../../../../../DaisyExamples/libDaisy//src/per/qspi.h ****         Erasures will happen by 4K, 32K or 64K increments.
 137:../../../../../DaisyExamples/libDaisy//src/per/qspi.h ****         Smallest erase possible is 4kB at a time. (on IS25LP*)
 138:../../../../../DaisyExamples/libDaisy//src/per/qspi.h ****         \param start_addr Address to begin erasing from
 139:../../../../../DaisyExamples/libDaisy//src/per/qspi.h ****         \param end_addr  Address to stop erasing at
 140:../../../../../DaisyExamples/libDaisy//src/per/qspi.h ****         \return Result::OK or Result::ERR
 141:../../../../../DaisyExamples/libDaisy//src/per/qspi.h ****         */
 142:../../../../../DaisyExamples/libDaisy//src/per/qspi.h ****     Result Erase(uint32_t start_addr, uint32_t end_addr);
 143:../../../../../DaisyExamples/libDaisy//src/per/qspi.h **** 
 144:../../../../../DaisyExamples/libDaisy//src/per/qspi.h ****     /**  
 145:../../../../../DaisyExamples/libDaisy//src/per/qspi.h ****          Erases a single sector of the chip.  
 146:../../../../../DaisyExamples/libDaisy//src/per/qspi.h ****         TODO: Document the size of this function. 
 147:../../../../../DaisyExamples/libDaisy//src/per/qspi.h ****         \param address Address of sector to erase
 148:../../../../../DaisyExamples/libDaisy//src/per/qspi.h ****         \return Result::OK or Result::ERR
 149:../../../../../DaisyExamples/libDaisy//src/per/qspi.h ****         */
 150:../../../../../DaisyExamples/libDaisy//src/per/qspi.h ****     Result EraseSector(uint32_t address);
 151:../../../../../DaisyExamples/libDaisy//src/per/qspi.h **** 
 152:../../../../../DaisyExamples/libDaisy//src/per/qspi.h ****     /** Returns the current class status. Useful for debugging.
 153:../../../../../DaisyExamples/libDaisy//src/per/qspi.h ****      *  \returns Status
 154:../../../../../DaisyExamples/libDaisy//src/per/qspi.h ****      */
 155:../../../../../DaisyExamples/libDaisy//src/per/qspi.h ****     Status GetStatus();
 156:../../../../../DaisyExamples/libDaisy//src/per/qspi.h **** 
 157:../../../../../DaisyExamples/libDaisy//src/per/qspi.h ****     /** Returns a pointer to the actual memory used 
 158:../../../../../DaisyExamples/libDaisy//src/per/qspi.h ****      *  The memory at this address is read-only
 159:../../../../../DaisyExamples/libDaisy//src/per/qspi.h ****      *  to write to it use the Write function.
 160:../../../../../DaisyExamples/libDaisy//src/per/qspi.h ****      * 
 161:../../../../../DaisyExamples/libDaisy//src/per/qspi.h ****      *  \param offset returns the pointer starting this 
 162:../../../../../DaisyExamples/libDaisy//src/per/qspi.h ****      *                many bytes into the memory
 163:../../../../../DaisyExamples/libDaisy//src/per/qspi.h ****     */
 164:../../../../../DaisyExamples/libDaisy//src/per/qspi.h ****     void* GetData(uint32_t offset = 0);
 165:../../../../../DaisyExamples/libDaisy//src/per/qspi.h **** 
 166:../../../../../DaisyExamples/libDaisy//src/per/qspi.h ****     QSPIHandle() : pimpl_(nullptr) {}
 1075              		.loc 16 166 34 view .LVU173
 1076 0084 C0E94744 		strd	r4, r4, [r0, #284]
 1077              	.LVL53:
 1078              		.loc 16 166 34 view .LVU174
 1079              	.LBE559:
 1080              	.LBE558:
 1081              	.LBE557:
 1082              	.LBB560:
ARM GAS  C:\Users\samue\AppData\Local\Temp\cc5RpClg.s 			page 42


 1083              	.LBI551:
  95:../../../../../DaisyExamples/libDaisy//src/hid/audio.h ****     ~AudioHandle() {}
 1084              		.loc 6 95 5 is_stmt 1 view .LVU175
  95:../../../../../DaisyExamples/libDaisy//src/hid/audio.h ****     ~AudioHandle() {}
 1085              		.loc 6 95 5 is_stmt 0 view .LVU176
 1086              	.LBE560:
 1087              	.LBB561:
 1088              	.LBI561:
 109:../../../../../DaisyExamples/libDaisy//src/per/adc.h ****     ~AdcHandle() {}
 1089              		.loc 5 109 5 is_stmt 1 view .LVU177
 109:../../../../../DaisyExamples/libDaisy//src/per/adc.h ****     ~AdcHandle() {}
 1090              		.loc 5 109 5 is_stmt 0 view .LVU178
 1091              	.LBE561:
 1092              	.LBB562:
 1093              	.LBI554:
 1094              		.loc 15 84 5 is_stmt 1 view .LVU179
 1095              		.loc 15 84 5 is_stmt 0 view .LVU180
 1096              	.LBE562:
 1097              	.LBB563:
 1098              	.LBI563:
  40:../../../../../DaisyExamples/libDaisy//src/hid/usb.h **** 
 1099              		.loc 4 40 5 is_stmt 1 view .LVU181
  40:../../../../../DaisyExamples/libDaisy//src/hid/usb.h **** 
 1100              		.loc 4 40 5 is_stmt 0 view .LVU182
 1101              	.LBE563:
 1102              	.LBB564:
 1103              	.LBI564:
  96:../../../../../DaisyExamples/libDaisy//src/sys/system.h ****     ~System() {}
 1104              		.loc 3 96 5 is_stmt 1 view .LVU183
  96:../../../../../DaisyExamples/libDaisy//src/sys/system.h ****     ~System() {}
 1105              		.loc 3 96 5 is_stmt 0 view .LVU184
 1106              	.LBE564:
 1107              	.LBB565:
 1108              	.LBI565:
 1109              		.file 17 "../../../../../DaisyExamples/libDaisy//src/per/sai.h"
   1:../../../../../DaisyExamples/libDaisy//src/per/sai.h **** #pragma once
   2:../../../../../DaisyExamples/libDaisy//src/per/sai.h **** #ifndef DSY_SAI_H
   3:../../../../../DaisyExamples/libDaisy//src/per/sai.h **** #define DSY_SAI_H
   4:../../../../../DaisyExamples/libDaisy//src/per/sai.h **** 
   5:../../../../../DaisyExamples/libDaisy//src/per/sai.h **** #include "daisy_core.h"
   6:../../../../../DaisyExamples/libDaisy//src/per/sai.h **** 
   7:../../../../../DaisyExamples/libDaisy//src/per/sai.h **** namespace daisy
   8:../../../../../DaisyExamples/libDaisy//src/per/sai.h **** {
   9:../../../../../DaisyExamples/libDaisy//src/per/sai.h **** /** 
  10:../../../../../DaisyExamples/libDaisy//src/per/sai.h ****  * Support for I2S Audio Protocol with different bit-depth, samplerate options
  11:../../../../../DaisyExamples/libDaisy//src/per/sai.h ****  * Allows for master or slave, as well as freedom of selecting direction, 
  12:../../../../../DaisyExamples/libDaisy//src/per/sai.h ****  * and other behavior for each peripheral, and block.
  13:../../../../../DaisyExamples/libDaisy//src/per/sai.h ****  * 
  14:../../../../../DaisyExamples/libDaisy//src/per/sai.h ****  * DMA Transfer commands must use buffers located within non-cached memory or use cache maintenance
  15:../../../../../DaisyExamples/libDaisy//src/per/sai.h ****  * To declare an unitialized global element in the DMA memory section:
  16:../../../../../DaisyExamples/libDaisy//src/per/sai.h ****  *    int32_t DSY_DMA_BUFFER_SECTOR my_buffer[96];
  17:../../../../../DaisyExamples/libDaisy//src/per/sai.h ****  *
  18:../../../../../DaisyExamples/libDaisy//src/per/sai.h ****  * Callback functions will be called once per half of the buffer. In the above example, 
  19:../../../../../DaisyExamples/libDaisy//src/per/sai.h ****  * the callback function would be called once for every 48 samples.
  20:../../../../../DaisyExamples/libDaisy//src/per/sai.h ****  * 
  21:../../../../../DaisyExamples/libDaisy//src/per/sai.h ****  * Use SAI Handle like this:
  22:../../../../../DaisyExamples/libDaisy//src/per/sai.h ****  * 
ARM GAS  C:\Users\samue\AppData\Local\Temp\cc5RpClg.s 			page 43


  23:../../../../../DaisyExamples/libDaisy//src/per/sai.h ****  *  SaiHandle::Config sai_config;
  24:../../../../../DaisyExamples/libDaisy//src/per/sai.h ****  *  sai_config.periph          = SaiHandle::Config::Peripheral::SAI_1;
  25:../../../../../DaisyExamples/libDaisy//src/per/sai.h ****  *  sai_config.sr              = SaiHandle::Config::SampleRate::SAI_48KHZ;
  26:../../../../../DaisyExamples/libDaisy//src/per/sai.h ****  *  sai_config.bit_depth       = SaiHandle::Config::BitDepth::SAI_24BIT;
  27:../../../../../DaisyExamples/libDaisy//src/per/sai.h ****  *  sai_config.a_sync          = SaiHandle::Config::Sync::MASTER;
  28:../../../../../DaisyExamples/libDaisy//src/per/sai.h ****  *  sai_config.b_sync          = SaiHandle::Config::Sync::SLAVE;
  29:../../../../../DaisyExamples/libDaisy//src/per/sai.h ****  *  sai_config.a_dir           = SaiHandle::Config::Direction::RECEIVE;
  30:../../../../../DaisyExamples/libDaisy//src/per/sai.h ****  *  sai_config.b_dir           = SaiHandle::Config::Direction::TRANSMIT;
  31:../../../../../DaisyExamples/libDaisy//src/per/sai.h ****  *  sai_config.pin_config.fs   = {DSY_GPIOE, 4};
  32:../../../../../DaisyExamples/libDaisy//src/per/sai.h ****  *  sai_config.pin_config.mclk = {DSY_GPIOE, 2};
  33:../../../../../DaisyExamples/libDaisy//src/per/sai.h ****  *  sai_config.pin_config.sck  = {DSY_GPIOE, 5};
  34:../../../../../DaisyExamples/libDaisy//src/per/sai.h ****  *  sai_config.pin_config.sa   = {DSY_GPIOE, 6};
  35:../../../../../DaisyExamples/libDaisy//src/per/sai.h ****  *  sai_config.pin_config.sb   = {DSY_GPIOE, 3};
  36:../../../../../DaisyExamples/libDaisy//src/per/sai.h ****  *  // Then Initialize
  37:../../../../../DaisyExamples/libDaisy//src/per/sai.h ****  *  SaiHandle sai;
  38:../../../../../DaisyExamples/libDaisy//src/per/sai.h ****  *  sai.Init(sai_config);
  39:../../../../../DaisyExamples/libDaisy//src/per/sai.h ****  *  // Now you can use it:
  40:../../../../../DaisyExamples/libDaisy//src/per/sai.h ****  *  sai.StartDma(. . .);
  41:../../../../../DaisyExamples/libDaisy//src/per/sai.h ****  */
  42:../../../../../DaisyExamples/libDaisy//src/per/sai.h **** class SaiHandle
  43:../../../../../DaisyExamples/libDaisy//src/per/sai.h **** {
  44:../../../../../DaisyExamples/libDaisy//src/per/sai.h ****   public:
  45:../../../../../DaisyExamples/libDaisy//src/per/sai.h ****     /** Contains settings for initialising an SAI Interface */
  46:../../../../../DaisyExamples/libDaisy//src/per/sai.h ****     struct Config
  47:../../../../../DaisyExamples/libDaisy//src/per/sai.h ****     {
  48:../../../../../DaisyExamples/libDaisy//src/per/sai.h ****         /** Specifies the internal peripheral to use (mapped to different hardware pins) */
  49:../../../../../DaisyExamples/libDaisy//src/per/sai.h ****         enum class Peripheral
  50:../../../../../DaisyExamples/libDaisy//src/per/sai.h ****         {
  51:../../../../../DaisyExamples/libDaisy//src/per/sai.h ****             SAI_1,
  52:../../../../../DaisyExamples/libDaisy//src/per/sai.h ****             SAI_2,
  53:../../../../../DaisyExamples/libDaisy//src/per/sai.h ****         };
  54:../../../../../DaisyExamples/libDaisy//src/per/sai.h **** 
  55:../../../../../DaisyExamples/libDaisy//src/per/sai.h ****         /** Rate at which samples will be streaming to/from the device. */
  56:../../../../../DaisyExamples/libDaisy//src/per/sai.h ****         enum class SampleRate
  57:../../../../../DaisyExamples/libDaisy//src/per/sai.h ****         {
  58:../../../../../DaisyExamples/libDaisy//src/per/sai.h ****             SAI_8KHZ,
  59:../../../../../DaisyExamples/libDaisy//src/per/sai.h ****             SAI_16KHZ,
  60:../../../../../DaisyExamples/libDaisy//src/per/sai.h ****             SAI_32KHZ,
  61:../../../../../DaisyExamples/libDaisy//src/per/sai.h ****             SAI_48KHZ,
  62:../../../../../DaisyExamples/libDaisy//src/per/sai.h ****             SAI_96KHZ,
  63:../../../../../DaisyExamples/libDaisy//src/per/sai.h ****         };
  64:../../../../../DaisyExamples/libDaisy//src/per/sai.h **** 
  65:../../../../../DaisyExamples/libDaisy//src/per/sai.h ****         /** Bit Depth that the hardware expects to be transferred to/from the device. */
  66:../../../../../DaisyExamples/libDaisy//src/per/sai.h ****         enum class BitDepth
  67:../../../../../DaisyExamples/libDaisy//src/per/sai.h ****         {
  68:../../../../../DaisyExamples/libDaisy//src/per/sai.h ****             SAI_16BIT,
  69:../../../../../DaisyExamples/libDaisy//src/per/sai.h ****             SAI_24BIT,
  70:../../../../../DaisyExamples/libDaisy//src/per/sai.h ****             SAI_32BIT,
  71:../../../../../DaisyExamples/libDaisy//src/per/sai.h ****         };
  72:../../../../../DaisyExamples/libDaisy//src/per/sai.h **** 
  73:../../../../../DaisyExamples/libDaisy//src/per/sai.h ****         /** Specifies whether a particular block is the master or the slave 
  74:../../../../../DaisyExamples/libDaisy//src/per/sai.h ****          ** If both are set to slave, no MCLK signal will be used, and it is
  75:../../../../../DaisyExamples/libDaisy//src/per/sai.h ****          ** expected that the codec will have its own xtal.
  76:../../../../../DaisyExamples/libDaisy//src/per/sai.h ****          */
  77:../../../../../DaisyExamples/libDaisy//src/per/sai.h ****         enum class Sync
  78:../../../../../DaisyExamples/libDaisy//src/per/sai.h ****         {
  79:../../../../../DaisyExamples/libDaisy//src/per/sai.h ****             MASTER,
ARM GAS  C:\Users\samue\AppData\Local\Temp\cc5RpClg.s 			page 44


  80:../../../../../DaisyExamples/libDaisy//src/per/sai.h ****             SLAVE,
  81:../../../../../DaisyExamples/libDaisy//src/per/sai.h ****         };
  82:../../../../../DaisyExamples/libDaisy//src/per/sai.h **** 
  83:../../../../../DaisyExamples/libDaisy//src/per/sai.h ****         /** Specifies the direction for each peripheral block. */
  84:../../../../../DaisyExamples/libDaisy//src/per/sai.h ****         enum class Direction
  85:../../../../../DaisyExamples/libDaisy//src/per/sai.h ****         {
  86:../../../../../DaisyExamples/libDaisy//src/per/sai.h ****             TRANSMIT,
  87:../../../../../DaisyExamples/libDaisy//src/per/sai.h ****             RECEIVE,
  88:../../../../../DaisyExamples/libDaisy//src/per/sai.h ****         };
  89:../../../../../DaisyExamples/libDaisy//src/per/sai.h **** 
  90:../../../../../DaisyExamples/libDaisy//src/per/sai.h ****         Peripheral periph;
  91:../../../../../DaisyExamples/libDaisy//src/per/sai.h ****         struct
  92:../../../../../DaisyExamples/libDaisy//src/per/sai.h ****         {
  93:../../../../../DaisyExamples/libDaisy//src/per/sai.h ****             dsy_gpio_pin mclk, fs, sck, sa, sb;
  94:../../../../../DaisyExamples/libDaisy//src/per/sai.h ****         } pin_config;
  95:../../../../../DaisyExamples/libDaisy//src/per/sai.h ****         SampleRate sr;
  96:../../../../../DaisyExamples/libDaisy//src/per/sai.h ****         BitDepth   bit_depth;
  97:../../../../../DaisyExamples/libDaisy//src/per/sai.h ****         Sync       a_sync, b_sync;
  98:../../../../../DaisyExamples/libDaisy//src/per/sai.h ****         Direction  a_dir, b_dir;
  99:../../../../../DaisyExamples/libDaisy//src/per/sai.h ****     };
 100:../../../../../DaisyExamples/libDaisy//src/per/sai.h **** 
 101:../../../../../DaisyExamples/libDaisy//src/per/sai.h ****     /** Return values for SAI functions */
 102:../../../../../DaisyExamples/libDaisy//src/per/sai.h ****     enum class Result
 103:../../../../../DaisyExamples/libDaisy//src/per/sai.h ****     {
 104:../../../../../DaisyExamples/libDaisy//src/per/sai.h ****         OK,
 105:../../../../../DaisyExamples/libDaisy//src/per/sai.h ****         ERR,
 106:../../../../../DaisyExamples/libDaisy//src/per/sai.h ****     };
 107:../../../../../DaisyExamples/libDaisy//src/per/sai.h **** 
 108:../../../../../DaisyExamples/libDaisy//src/per/sai.h ****     SaiHandle() : pimpl_(nullptr) {}
 1110              		.loc 17 108 5 is_stmt 1 view .LVU185
 1111              	.LBE565:
 1112              	.LBE566:
 1113              	.LBE574:
  19:daisy_common.h ****     ~daisyCommon() {}
 1114              		.loc 1 19 19 is_stmt 0 view .LVU186
 1115 0088 C0E95933 		strd	r3, r3, [r0, #356]
 1116 008c C0E95B33 		strd	r3, r3, [r0, #364]
 1117 0090 C0E95D33 		strd	r3, r3, [r0, #372]
 1118 0094 C0E95F33 		strd	r3, r3, [r0, #380]
 1119 0098 C0E96133 		strd	r3, r3, [r0, #388]
 1120 009c C0E96934 		strd	r3, r4, [r0, #420]
 1121 00a0 C0E96B42 		strd	r4, r2, [r0, #428]
 1122 00a4 C0E97323 		strd	r2, r3, [r0, #460]
 1123 00a8 C0E96333 		strd	r3, r3, [r0, #396]
 1124 00ac C0E96533 		strd	r3, r3, [r0, #404]
 1125 00b0 C0E96733 		strd	r3, r3, [r0, #412]
 1126 00b4 C0E96D22 		strd	r2, r2, [r0, #436]
 1127 00b8 C0E96F22 		strd	r2, r2, [r0, #444]
 1128 00bc C0E97122 		strd	r2, r2, [r0, #452]
 1129 00c0 C0E97533 		strd	r3, r3, [r0, #468]
 1130              	.LBE577:
 1131              	.LBE580:
 1132              	.LBE583:
   9:ampenv.cpp    **** int blocksize = 32;
 1133              		.loc 12 9 13 view .LVU187
 1134 00c4 134A     		ldr	r2, .L24+4
 1135              	.LBB584:
ARM GAS  C:\Users\samue\AppData\Local\Temp\cc5RpClg.s 			page 45


 1136              	.LBB581:
 1137              	.LBB578:
  19:daisy_common.h ****     ~daisyCommon() {}
 1138              		.loc 1 19 19 view .LVU188
 1139 00c6 C0F8EC31 		str	r3, [r0, #492]
 1140 00ca C0F8F011 		str	r1, [r0, #496]
 1141              	.LVL54:
  19:daisy_common.h ****     ~daisyCommon() {}
 1142              		.loc 1 19 19 view .LVU189
 1143              	.LBE578:
 1144              	.LBE581:
 1145              	.LBE584:
   9:ampenv.cpp    **** int blocksize = 32;
 1146              		.loc 12 9 13 view .LVU190
 1147 00ce 1249     		ldr	r1, .L24+8
 1148              	.LBB585:
 1149              	.LBB582:
 1150              	.LBB579:
  19:daisy_common.h ****     ~daisyCommon() {}
 1151              		.loc 1 19 19 view .LVU191
 1152 00d0 C0E97733 		strd	r3, r3, [r0, #476]
 1153 00d4 C0E97933 		strd	r3, r3, [r0, #484]
 1154              	.LBE579:
 1155              	.LBE582:
 1156              	.LBE585:
   9:ampenv.cpp    **** int blocksize = 32;
 1157              		.loc 12 9 13 view .LVU192
 1158 00d8 FFF7FEFF 		bl	__aeabi_atexit
 1159              	.LVL55:
 1160              	.LBB586:
 1161              	.LBI586:
  13:voice.h       ****     ~voice() {}
 1162              		.loc 9 13 5 is_stmt 1 view .LVU193
 1163              	.LBB587:
 1164              	.LBB588:
 1165              	.LBI588:
  44:../../../../../DaisyExamples/DaisySP//Source/Control/adsr.h ****     ~Adsr() {}
 1166              		.loc 11 44 5 view .LVU194
 1167              	.LBB589:
 1168              	.LBB590:
  44:../../../../../DaisyExamples/DaisySP//Source/Control/adsr.h ****     ~Adsr() {}
 1169              		.loc 11 44 12 is_stmt 0 view .LVU195
 1170 00dc 0F48     		ldr	r0, .L24+12
 1171 00de 0023     		movs	r3, #0
 1172 00e0 DFF840C0 		ldr	ip, .L24+20
 1173              	.LBE590:
 1174 00e4 A0F84840 		strh	r4, [r0, #72]	@ movhi
 1175              	.LVL56:
  44:../../../../../DaisyExamples/DaisySP//Source/Control/adsr.h ****     ~Adsr() {}
 1176              		.loc 11 44 12 view .LVU196
 1177              	.LBE589:
 1178              	.LBE588:
 1179              	.LBB593:
 1180              	.LBI593:
  37:../../../../../DaisyExamples/DaisySP//Source/../DaisySP-LGPL/Source/Effects/reverbsc.h ****     ~ReverbSc() {}
 1181              		.loc 10 37 5 is_stmt 1 view .LVU197
  37:../../../../../DaisyExamples/DaisySP//Source/../DaisySP-LGPL/Source/Effects/reverbsc.h ****     ~ReverbSc() {}
ARM GAS  C:\Users\samue\AppData\Local\Temp\cc5RpClg.s 			page 46


 1182              		.loc 10 37 5 is_stmt 0 view .LVU198
 1183              	.LBE593:
 1184              	.LBE587:
 1185              	.LBE586:
  13:ampenv.cpp    **** 
 1186              		.loc 12 13 7 view .LVU199
 1187 00e8 0A4A     		ldr	r2, .L24+4
 1188 00ea 0D49     		ldr	r1, .L24+16
 1189              	.LBB596:
 1190              	.LBB595:
 1191              	.LBB594:
 1192              	.LBB592:
 1193              	.LBB591:
  44:../../../../../DaisyExamples/DaisySP//Source/Control/adsr.h ****     ~Adsr() {}
 1194              		.loc 11 44 12 view .LVU200
 1195 00ec C361     		str	r3, [r0, #28]	@ float
 1196 00ee 0362     		str	r3, [r0, #32]	@ float
 1197 00f0 C0F824C0 		str	ip, [r0, #36]	@ float
 1198 00f4 8362     		str	r3, [r0, #40]	@ float
 1199 00f6 C0F82CC0 		str	ip, [r0, #44]	@ float
 1200 00fa C0F830C0 		str	ip, [r0, #48]	@ float
 1201 00fe C0F834C0 		str	ip, [r0, #52]	@ float
 1202 0102 8363     		str	r3, [r0, #56]	@ float
 1203 0104 C363     		str	r3, [r0, #60]	@ float
 1204 0106 0364     		str	r3, [r0, #64]	@ float
 1205              	.LBE591:
 1206              	.LBE592:
 1207              	.LBE594:
 1208              	.LBE595:
 1209              	.LBE596:
 1210              	.LBE597:
 1211              	.LBE599:
 1212              		.loc 12 83 1 view .LVU201
 1213 0108 BDE81040 		pop	{r4, lr}
 1214              		.cfi_restore 14
 1215              		.cfi_restore 4
 1216              		.cfi_def_cfa_offset 0
 1217              	.LBB600:
 1218              	.LBB598:
  13:ampenv.cpp    **** 
 1219              		.loc 12 13 7 view .LVU202
 1220 010c FFF7FEBF 		b	__aeabi_atexit
 1221              	.LVL57:
 1222              	.L25:
 1223              		.align	2
 1224              	.L24:
 1225 0110 00000000 		.word	.LANCHOR0
 1226 0114 00000000 		.word	__dso_handle
 1227 0118 00000000 		.word	_ZN5daisy11daisyCommonD1Ev
 1228 011c 00000000 		.word	ampenv
 1229 0120 00000000 		.word	_ZN5voiceD1Ev
 1230 0124 000080BF 		.word	-1082130432
 1231              	.LBE598:
 1232              	.LBE600:
 1233              		.cfi_endproc
 1234              	.LFE5419:
 1236              		.section	.init_array,"aw",%init_array
ARM GAS  C:\Users\samue\AppData\Local\Temp\cc5RpClg.s 			page 47


 1237              		.align	2
 1238 0000 00000000 		.word	_GLOBAL__sub_I_board(target1)
 1239              		.global	ampenv
 1240              		.global	fs
 1241              		.global	blocksize
 1242              		.global	board
 1243              		.section	.bss.ampenv,"aw",%nobits
 1244              		.align	2
 1247              	ampenv:
 1248 0000 00000000 		.space	396176
 1248      00000000 
 1248      00000000 
 1248      00000000 
 1248      00000000 
 1249              		.section	.bss.board,"aw",%nobits
 1250              		.align	2
 1251              		.set	.LANCHOR0,. + 0
 1254              	board:
 1255 0000 00000000 		.space	500
 1255      00000000 
 1255      00000000 
 1255      00000000 
 1255      00000000 
 1256              		.section	.data.blocksize,"aw"
 1257              		.align	2
 1258              		.set	.LANCHOR1,. + 0
 1261              	blocksize:
 1262 0000 20000000 		.word	32
 1263              		.section	.data.fs,"aw"
 1264              		.align	2
 1265              		.set	.LANCHOR2,. + 0
 1268              	fs:
 1269 0000 00803B47 		.word	1195081728
 1270              		.text
 1271              	.Letext0:
 1272              		.file 18 "c:\\program files\\daisytoolchain\\arm-none-eabi\\include\\machine\\_default_types.h"
 1273              		.file 19 "c:\\program files\\daisytoolchain\\arm-none-eabi\\include\\sys\\_stdint.h"
 1274              		.file 20 "c:\\program files\\daisytoolchain\\arm-none-eabi\\include\\stdint.h"
 1275              		.file 21 "c:\\program files\\daisytoolchain\\lib\\gcc\\arm-none-eabi\\10.2.1\\include\\stddef.h"
 1276              		.file 22 "c:\\program files\\daisytoolchain\\arm-none-eabi\\include\\c++\\10.2.1\\cmath"
 1277              		.file 23 "c:\\program files\\daisytoolchain\\arm-none-eabi\\include\\c++\\10.2.1\\bits\\std_abs.h"
 1278              		.file 24 "c:\\program files\\daisytoolchain\\arm-none-eabi\\include\\c++\\10.2.1\\cstdlib"
 1279              		.file 25 "c:\\program files\\daisytoolchain\\arm-none-eabi\\include\\c++\\10.2.1\\cstdint"
 1280              		.file 26 "c:\\program files\\daisytoolchain\\arm-none-eabi\\include\\c++\\10.2.1\\type_traits"
 1281              		.file 27 "c:\\program files\\daisytoolchain\\arm-none-eabi\\include\\c++\\10.2.1\\debug\\debug.h"
 1282              		.file 28 "c:\\program files\\daisytoolchain\\arm-none-eabi\\include\\c++\\10.2.1\\arm-none-eabi\\t
 1283              		.file 29 "c:\\program files\\daisytoolchain\\arm-none-eabi\\include\\c++\\10.2.1\\bits\\algorithmf
 1284              		.file 30 "c:\\program files\\daisytoolchain\\arm-none-eabi\\include\\c++\\10.2.1\\bits\\stl_pair.h
 1285              		.file 31 "c:\\program files\\daisytoolchain\\arm-none-eabi\\include\\c++\\10.2.1\\bits\\exception_
 1286              		.file 32 "c:\\program files\\daisytoolchain\\arm-none-eabi\\include\\c++\\10.2.1\\cstdarg"
 1287              		.file 33 "c:\\program files\\daisytoolchain\\arm-none-eabi\\include\\c++\\10.2.1\\cstdio"
 1288              		.file 34 "c:\\program files\\daisytoolchain\\arm-none-eabi\\include\\c++\\10.2.1\\cstring"
 1289              		.file 35 "c:\\program files\\daisytoolchain\\arm-none-eabi\\include\\c++\\10.2.1\\cwchar"
 1290              		.file 36 "c:\\program files\\daisytoolchain\\arm-none-eabi\\include\\c++\\10.2.1\\clocale"
 1291              		.file 37 "c:\\program files\\daisytoolchain\\arm-none-eabi\\include\\c++\\10.2.1\\bits\\basic_stri
 1292              		.file 38 "c:\\program files\\daisytoolchain\\arm-none-eabi\\include\\c++\\10.2.1\\bits\\stl_tempbu
 1293              		.file 39 "c:\\program files\\daisytoolchain\\arm-none-eabi\\include\\c++\\10.2.1\\bits\\predefined
ARM GAS  C:\Users\samue\AppData\Local\Temp\cc5RpClg.s 			page 48


 1294              		.file 40 "c:\\program files\\daisytoolchain\\arm-none-eabi\\include\\sys\\_types.h"
 1295              		.file 41 "c:\\program files\\daisytoolchain\\arm-none-eabi\\include\\sys\\reent.h"
 1296              		.file 42 "c:\\program files\\daisytoolchain\\arm-none-eabi\\include\\sys\\lock.h"
 1297              		.file 43 "c:\\program files\\daisytoolchain\\arm-none-eabi\\include\\math.h"
 1298              		.file 44 "c:\\program files\\daisytoolchain\\arm-none-eabi\\include\\stdlib.h"
 1299              		.file 45 "c:\\program files\\daisytoolchain\\arm-none-eabi\\include\\c++\\10.2.1\\math.h"
 1300              		.file 46 "c:\\program files\\daisytoolchain\\arm-none-eabi\\include\\c++\\10.2.1\\stdlib.h"
 1301              		.file 47 "../../../../../DaisyExamples/libDaisy//src/per/tim.h"
 1302              		.file 48 "../../../../../DaisyExamples/libDaisy//src/util/wav_format.h"
 1303              		.file 49 "../../../../../DaisyExamples/libDaisy//src/dev/max11300.h"
 1304              		.file 50 "../../../../../DaisyExamples/libDaisy//src/dev/sdram.h"
 1305              		.file 51 "c:\\program files\\daisytoolchain\\lib\\gcc\\arm-none-eabi\\10.2.1\\include\\stdarg.h"
 1306              		.file 52 "c:\\program files\\daisytoolchain\\arm-none-eabi\\include\\stdio.h"
 1307              		.file 53 "c:\\program files\\daisytoolchain\\arm-none-eabi\\include\\string.h"
 1308              		.file 54 "../../../../../DaisyExamples/DaisySP//Source/Control/adenv.h"
 1309              		.file 55 "../../../../../DaisyExamples/DaisySP//Source/Utility/dsp.h"
 1310              		.file 56 "c:\\program files\\daisytoolchain\\arm-none-eabi\\include\\wchar.h"
 1311              		.file 57 "c:\\program files\\daisytoolchain\\arm-none-eabi\\include\\locale.h"
 1312              		.file 58 "<built-in>"
 1313              		.file 59 "../../../../../DaisyExamples/libDaisy//src/dev/sr_595.h"
ARM GAS  C:\Users\samue\AppData\Local\Temp\cc5RpClg.s 			page 49

